ARM GAS  C:\Users\rens_\AppData\Local\Temp\ccsYVs7o.s 			page 1


   1              		.syntax unified
   2              		.cpu cortex-m3
   3              		.fpu softvfp
   4              		.eabi_attribute 20, 1
   5              		.eabi_attribute 21, 1
   6              		.eabi_attribute 23, 3
   7              		.eabi_attribute 24, 1
   8              		.eabi_attribute 25, 1
   9              		.eabi_attribute 26, 1
  10              		.eabi_attribute 30, 1
  11              		.eabi_attribute 34, 1
  12              		.eabi_attribute 18, 4
  13              		.thumb
  14              		.syntax unified
  15              		.file	"ADC_SAR_B.c"
  16              		.text
  17              	.Ltext0:
  18              		.cfi_sections	.debug_frame
  19              		.section	.text.ADC_SAR_B_CalcGain,"ax",%progbits
  20              		.align	2
  21              		.thumb
  22              		.thumb_func
  23              		.type	ADC_SAR_B_CalcGain, %function
  24              	ADC_SAR_B_CalcGain:
  25              	.LFB12:
  26              		.file 1 "Generated_Source\\PSoC5\\ADC_SAR_B.c"
   1:Generated_Source\PSoC5/ADC_SAR_B.c **** /*******************************************************************************
   2:Generated_Source\PSoC5/ADC_SAR_B.c **** * File Name: ADC_SAR_B.c
   3:Generated_Source\PSoC5/ADC_SAR_B.c **** * Version 3.10
   4:Generated_Source\PSoC5/ADC_SAR_B.c **** *
   5:Generated_Source\PSoC5/ADC_SAR_B.c **** * Description:
   6:Generated_Source\PSoC5/ADC_SAR_B.c **** *  This file provides the source code to the API for the Successive
   7:Generated_Source\PSoC5/ADC_SAR_B.c **** *  approximation ADC Component.
   8:Generated_Source\PSoC5/ADC_SAR_B.c **** *
   9:Generated_Source\PSoC5/ADC_SAR_B.c **** * Note:
  10:Generated_Source\PSoC5/ADC_SAR_B.c **** *
  11:Generated_Source\PSoC5/ADC_SAR_B.c **** ********************************************************************************
  12:Generated_Source\PSoC5/ADC_SAR_B.c **** * Copyright 2008-2015, Cypress Semiconductor Corporation.  All rights reserved.
  13:Generated_Source\PSoC5/ADC_SAR_B.c **** * You may use this file only in accordance with the license, terms, conditions,
  14:Generated_Source\PSoC5/ADC_SAR_B.c **** * disclaimers, and limitations in the end user license agreement accompanying
  15:Generated_Source\PSoC5/ADC_SAR_B.c **** * the software package with which this file was provided.
  16:Generated_Source\PSoC5/ADC_SAR_B.c **** *******************************************************************************/
  17:Generated_Source\PSoC5/ADC_SAR_B.c **** 
  18:Generated_Source\PSoC5/ADC_SAR_B.c **** #include "CyLib.h"
  19:Generated_Source\PSoC5/ADC_SAR_B.c **** #include "ADC_SAR_B.h"
  20:Generated_Source\PSoC5/ADC_SAR_B.c **** 
  21:Generated_Source\PSoC5/ADC_SAR_B.c **** #if(ADC_SAR_B_DEFAULT_INTERNAL_CLK)
  22:Generated_Source\PSoC5/ADC_SAR_B.c ****     #include "ADC_SAR_B_theACLK.h"
  23:Generated_Source\PSoC5/ADC_SAR_B.c **** #endif /* End ADC_SAR_B_DEFAULT_INTERNAL_CLK */
  24:Generated_Source\PSoC5/ADC_SAR_B.c **** 
  25:Generated_Source\PSoC5/ADC_SAR_B.c **** 
  26:Generated_Source\PSoC5/ADC_SAR_B.c **** /***************************************
  27:Generated_Source\PSoC5/ADC_SAR_B.c **** * Forward function references
  28:Generated_Source\PSoC5/ADC_SAR_B.c **** ***************************************/
  29:Generated_Source\PSoC5/ADC_SAR_B.c **** static void ADC_SAR_B_CalcGain(uint8 resolution);
  30:Generated_Source\PSoC5/ADC_SAR_B.c **** 
  31:Generated_Source\PSoC5/ADC_SAR_B.c **** 
ARM GAS  C:\Users\rens_\AppData\Local\Temp\ccsYVs7o.s 			page 2


  32:Generated_Source\PSoC5/ADC_SAR_B.c **** /***************************************
  33:Generated_Source\PSoC5/ADC_SAR_B.c **** * Global data allocation
  34:Generated_Source\PSoC5/ADC_SAR_B.c **** ***************************************/
  35:Generated_Source\PSoC5/ADC_SAR_B.c **** uint8 ADC_SAR_B_initVar = 0u;
  36:Generated_Source\PSoC5/ADC_SAR_B.c **** volatile int16 ADC_SAR_B_offset;
  37:Generated_Source\PSoC5/ADC_SAR_B.c **** volatile int16 ADC_SAR_B_countsPerVolt;     /* Obsolete Gain compensation */
  38:Generated_Source\PSoC5/ADC_SAR_B.c **** volatile int32 ADC_SAR_B_countsPer10Volt;   /* Gain compensation */
  39:Generated_Source\PSoC5/ADC_SAR_B.c **** volatile int16 ADC_SAR_B_shift;
  40:Generated_Source\PSoC5/ADC_SAR_B.c **** 
  41:Generated_Source\PSoC5/ADC_SAR_B.c **** 
  42:Generated_Source\PSoC5/ADC_SAR_B.c **** /*******************************************************************************
  43:Generated_Source\PSoC5/ADC_SAR_B.c **** * Function Name: ADC_SAR_B_Start
  44:Generated_Source\PSoC5/ADC_SAR_B.c **** ********************************************************************************
  45:Generated_Source\PSoC5/ADC_SAR_B.c **** *
  46:Generated_Source\PSoC5/ADC_SAR_B.c **** * Summary:
  47:Generated_Source\PSoC5/ADC_SAR_B.c **** *  This is the preferred method to begin component operation.
  48:Generated_Source\PSoC5/ADC_SAR_B.c **** *  ADC_SAR_B_Start() sets the initVar variable, calls the
  49:Generated_Source\PSoC5/ADC_SAR_B.c **** *  ADC_SAR_B_Init() function, and then calls the
  50:Generated_Source\PSoC5/ADC_SAR_B.c **** *  ADC_SAR_B_Enable() function.
  51:Generated_Source\PSoC5/ADC_SAR_B.c **** *
  52:Generated_Source\PSoC5/ADC_SAR_B.c **** * Parameters:
  53:Generated_Source\PSoC5/ADC_SAR_B.c **** *  None.
  54:Generated_Source\PSoC5/ADC_SAR_B.c **** *
  55:Generated_Source\PSoC5/ADC_SAR_B.c **** * Return:
  56:Generated_Source\PSoC5/ADC_SAR_B.c **** *  None.
  57:Generated_Source\PSoC5/ADC_SAR_B.c **** *
  58:Generated_Source\PSoC5/ADC_SAR_B.c **** * Global variables:
  59:Generated_Source\PSoC5/ADC_SAR_B.c **** *  The ADC_SAR_B_initVar variable is used to indicate when/if initial
  60:Generated_Source\PSoC5/ADC_SAR_B.c **** *  configuration of this component has happened. The variable is initialized to
  61:Generated_Source\PSoC5/ADC_SAR_B.c **** *  zero and set to 1 the first time ADC_Start() is called. This allows for
  62:Generated_Source\PSoC5/ADC_SAR_B.c **** *  component Re-Start without re-initialization in all subsequent calls to the
  63:Generated_Source\PSoC5/ADC_SAR_B.c **** *  ADC_SAR_B_Start() routine.
  64:Generated_Source\PSoC5/ADC_SAR_B.c **** *  If re-initialization of the component is required the variable should be set
  65:Generated_Source\PSoC5/ADC_SAR_B.c **** *  to zero before call of ADC_SAR_B_Start() routine, or the user may call
  66:Generated_Source\PSoC5/ADC_SAR_B.c **** *  ADC_SAR_B_Init() and ADC_SAR_B_Enable() as done in the
  67:Generated_Source\PSoC5/ADC_SAR_B.c **** *  ADC_SAR_B_Start() routine.
  68:Generated_Source\PSoC5/ADC_SAR_B.c **** *
  69:Generated_Source\PSoC5/ADC_SAR_B.c **** * Side Effect:
  70:Generated_Source\PSoC5/ADC_SAR_B.c **** *  If the initVar variable is already set, this function only calls the
  71:Generated_Source\PSoC5/ADC_SAR_B.c **** *  ADC_SAR_B_Enable() function.
  72:Generated_Source\PSoC5/ADC_SAR_B.c **** *
  73:Generated_Source\PSoC5/ADC_SAR_B.c **** *******************************************************************************/
  74:Generated_Source\PSoC5/ADC_SAR_B.c **** void ADC_SAR_B_Start(void)
  75:Generated_Source\PSoC5/ADC_SAR_B.c **** {
  76:Generated_Source\PSoC5/ADC_SAR_B.c **** 
  77:Generated_Source\PSoC5/ADC_SAR_B.c ****     /* If not Initialized then initialize all required hardware and software */
  78:Generated_Source\PSoC5/ADC_SAR_B.c ****     if(ADC_SAR_B_initVar == 0u)
  79:Generated_Source\PSoC5/ADC_SAR_B.c ****     {
  80:Generated_Source\PSoC5/ADC_SAR_B.c ****         ADC_SAR_B_Init();
  81:Generated_Source\PSoC5/ADC_SAR_B.c ****         ADC_SAR_B_initVar = 1u;
  82:Generated_Source\PSoC5/ADC_SAR_B.c ****     }
  83:Generated_Source\PSoC5/ADC_SAR_B.c ****     ADC_SAR_B_Enable();
  84:Generated_Source\PSoC5/ADC_SAR_B.c **** }
  85:Generated_Source\PSoC5/ADC_SAR_B.c **** 
  86:Generated_Source\PSoC5/ADC_SAR_B.c **** 
  87:Generated_Source\PSoC5/ADC_SAR_B.c **** /*******************************************************************************
  88:Generated_Source\PSoC5/ADC_SAR_B.c **** * Function Name: ADC_SAR_B_Init
ARM GAS  C:\Users\rens_\AppData\Local\Temp\ccsYVs7o.s 			page 3


  89:Generated_Source\PSoC5/ADC_SAR_B.c **** ********************************************************************************
  90:Generated_Source\PSoC5/ADC_SAR_B.c **** *
  91:Generated_Source\PSoC5/ADC_SAR_B.c **** * Summary:
  92:Generated_Source\PSoC5/ADC_SAR_B.c **** *  Initialize component's parameters to the parameters set by user in the
  93:Generated_Source\PSoC5/ADC_SAR_B.c **** *  customizer of the component placed onto schematic. Usually called in
  94:Generated_Source\PSoC5/ADC_SAR_B.c **** *  ADC_SAR_B_Start().
  95:Generated_Source\PSoC5/ADC_SAR_B.c **** *
  96:Generated_Source\PSoC5/ADC_SAR_B.c **** * Parameters:
  97:Generated_Source\PSoC5/ADC_SAR_B.c **** *  None.
  98:Generated_Source\PSoC5/ADC_SAR_B.c **** *
  99:Generated_Source\PSoC5/ADC_SAR_B.c **** * Return:
 100:Generated_Source\PSoC5/ADC_SAR_B.c **** *  None.
 101:Generated_Source\PSoC5/ADC_SAR_B.c **** *
 102:Generated_Source\PSoC5/ADC_SAR_B.c **** * Global variables:
 103:Generated_Source\PSoC5/ADC_SAR_B.c **** *  The ADC_SAR_B_offset variable is initialized to 0.
 104:Generated_Source\PSoC5/ADC_SAR_B.c **** *
 105:Generated_Source\PSoC5/ADC_SAR_B.c **** *******************************************************************************/
 106:Generated_Source\PSoC5/ADC_SAR_B.c **** void ADC_SAR_B_Init(void)
 107:Generated_Source\PSoC5/ADC_SAR_B.c **** {
 108:Generated_Source\PSoC5/ADC_SAR_B.c **** 
 109:Generated_Source\PSoC5/ADC_SAR_B.c ****     /* This is only valid if there is an internal clock */
 110:Generated_Source\PSoC5/ADC_SAR_B.c ****     #if(ADC_SAR_B_DEFAULT_INTERNAL_CLK)
 111:Generated_Source\PSoC5/ADC_SAR_B.c ****         ADC_SAR_B_theACLK_SetMode(CYCLK_DUTY);
 112:Generated_Source\PSoC5/ADC_SAR_B.c ****     #endif /* End ADC_SAR_B_DEFAULT_INTERNAL_CLK */
 113:Generated_Source\PSoC5/ADC_SAR_B.c **** 
 114:Generated_Source\PSoC5/ADC_SAR_B.c ****     #if(ADC_SAR_B_IRQ_REMOVE == 0u)
 115:Generated_Source\PSoC5/ADC_SAR_B.c ****         /* Start and set interrupt vector */
 116:Generated_Source\PSoC5/ADC_SAR_B.c ****         CyIntSetPriority(ADC_SAR_B_INTC_NUMBER, ADC_SAR_B_INTC_PRIOR_NUMBER);
 117:Generated_Source\PSoC5/ADC_SAR_B.c ****         (void)CyIntSetVector(ADC_SAR_B_INTC_NUMBER, &ADC_SAR_B_ISR);
 118:Generated_Source\PSoC5/ADC_SAR_B.c ****     #endif   /* End ADC_SAR_B_IRQ_REMOVE */
 119:Generated_Source\PSoC5/ADC_SAR_B.c **** 
 120:Generated_Source\PSoC5/ADC_SAR_B.c ****     /* Enable IRQ mode*/
 121:Generated_Source\PSoC5/ADC_SAR_B.c ****     ADC_SAR_B_SAR_CSR1_REG |= ADC_SAR_B_SAR_IRQ_MASK_EN | ADC_SAR_B_SAR_IRQ_MODE_EDGE;
 122:Generated_Source\PSoC5/ADC_SAR_B.c **** 
 123:Generated_Source\PSoC5/ADC_SAR_B.c ****     /*Set SAR ADC resolution ADC */
 124:Generated_Source\PSoC5/ADC_SAR_B.c ****     ADC_SAR_B_SetResolution(ADC_SAR_B_DEFAULT_RESOLUTION);
 125:Generated_Source\PSoC5/ADC_SAR_B.c ****     ADC_SAR_B_offset = 0;
 126:Generated_Source\PSoC5/ADC_SAR_B.c **** }
 127:Generated_Source\PSoC5/ADC_SAR_B.c **** 
 128:Generated_Source\PSoC5/ADC_SAR_B.c **** 
 129:Generated_Source\PSoC5/ADC_SAR_B.c **** /*******************************************************************************
 130:Generated_Source\PSoC5/ADC_SAR_B.c **** * Function Name: ADC_SAR_B_Enable
 131:Generated_Source\PSoC5/ADC_SAR_B.c **** ********************************************************************************
 132:Generated_Source\PSoC5/ADC_SAR_B.c **** *
 133:Generated_Source\PSoC5/ADC_SAR_B.c **** * Summary:
 134:Generated_Source\PSoC5/ADC_SAR_B.c **** *  Enables the reference, clock and power for SAR ADC.
 135:Generated_Source\PSoC5/ADC_SAR_B.c **** *
 136:Generated_Source\PSoC5/ADC_SAR_B.c **** * Parameters:
 137:Generated_Source\PSoC5/ADC_SAR_B.c **** *  None.
 138:Generated_Source\PSoC5/ADC_SAR_B.c **** *
 139:Generated_Source\PSoC5/ADC_SAR_B.c **** * Return:
 140:Generated_Source\PSoC5/ADC_SAR_B.c **** *  None.
 141:Generated_Source\PSoC5/ADC_SAR_B.c **** *
 142:Generated_Source\PSoC5/ADC_SAR_B.c **** *******************************************************************************/
 143:Generated_Source\PSoC5/ADC_SAR_B.c **** void ADC_SAR_B_Enable(void)
 144:Generated_Source\PSoC5/ADC_SAR_B.c **** {
 145:Generated_Source\PSoC5/ADC_SAR_B.c ****     uint8 tmpReg;
ARM GAS  C:\Users\rens_\AppData\Local\Temp\ccsYVs7o.s 			page 4


 146:Generated_Source\PSoC5/ADC_SAR_B.c ****     uint8 enableInterrupts;
 147:Generated_Source\PSoC5/ADC_SAR_B.c ****     enableInterrupts = CyEnterCriticalSection();
 148:Generated_Source\PSoC5/ADC_SAR_B.c **** 
 149:Generated_Source\PSoC5/ADC_SAR_B.c ****     /* Enable the SAR ADC block in Active Power Mode */
 150:Generated_Source\PSoC5/ADC_SAR_B.c ****     ADC_SAR_B_PWRMGR_SAR_REG |= ADC_SAR_B_ACT_PWR_SAR_EN;
 151:Generated_Source\PSoC5/ADC_SAR_B.c **** 
 152:Generated_Source\PSoC5/ADC_SAR_B.c ****      /* Enable the SAR ADC in Standby Power Mode*/
 153:Generated_Source\PSoC5/ADC_SAR_B.c ****     ADC_SAR_B_STBY_PWRMGR_SAR_REG |= ADC_SAR_B_STBY_PWR_SAR_EN;
 154:Generated_Source\PSoC5/ADC_SAR_B.c **** 
 155:Generated_Source\PSoC5/ADC_SAR_B.c ****     /* This is only valid if there is an internal clock */
 156:Generated_Source\PSoC5/ADC_SAR_B.c ****     #if(ADC_SAR_B_DEFAULT_INTERNAL_CLK)
 157:Generated_Source\PSoC5/ADC_SAR_B.c ****         ADC_SAR_B_PWRMGR_CLK_REG |= ADC_SAR_B_ACT_PWR_CLK_EN;
 158:Generated_Source\PSoC5/ADC_SAR_B.c ****         ADC_SAR_B_STBY_PWRMGR_CLK_REG |= ADC_SAR_B_STBY_PWR_CLK_EN;
 159:Generated_Source\PSoC5/ADC_SAR_B.c ****     #endif /* End ADC_SAR_B_DEFAULT_INTERNAL_CLK */
 160:Generated_Source\PSoC5/ADC_SAR_B.c **** 
 161:Generated_Source\PSoC5/ADC_SAR_B.c ****     /* Enable VCM buffer and Enable Int Ref Amp */
 162:Generated_Source\PSoC5/ADC_SAR_B.c ****     tmpReg = ADC_SAR_B_SAR_CSR3_REG;
 163:Generated_Source\PSoC5/ADC_SAR_B.c ****     tmpReg |= ADC_SAR_B_SAR_EN_BUF_VCM_EN;
 164:Generated_Source\PSoC5/ADC_SAR_B.c ****     /* PD_BUF_VREF is OFF in External reference or Vdda reference mode */
 165:Generated_Source\PSoC5/ADC_SAR_B.c ****     #if((ADC_SAR_B_DEFAULT_REFERENCE == ADC_SAR_B__EXT_REF) || \
 166:Generated_Source\PSoC5/ADC_SAR_B.c ****         (ADC_SAR_B_DEFAULT_RANGE == ADC_SAR_B__VNEG_VDDA_DIFF))
 167:Generated_Source\PSoC5/ADC_SAR_B.c ****         tmpReg &= (uint8)~ADC_SAR_B_SAR_EN_BUF_VREF_EN;
 168:Generated_Source\PSoC5/ADC_SAR_B.c ****     #else /* In INTREF or INTREF Bypassed this buffer is ON */
 169:Generated_Source\PSoC5/ADC_SAR_B.c ****         tmpReg |= ADC_SAR_B_SAR_EN_BUF_VREF_EN;
 170:Generated_Source\PSoC5/ADC_SAR_B.c ****     #endif /* ADC_SAR_B_DEFAULT_REFERENCE == ADC_SAR_B__EXT_REF */
 171:Generated_Source\PSoC5/ADC_SAR_B.c ****     ADC_SAR_B_SAR_CSR3_REG = tmpReg;
 172:Generated_Source\PSoC5/ADC_SAR_B.c **** 
 173:Generated_Source\PSoC5/ADC_SAR_B.c ****     /* Set reference for ADC */
 174:Generated_Source\PSoC5/ADC_SAR_B.c ****     #if(ADC_SAR_B_DEFAULT_RANGE == ADC_SAR_B__VNEG_VDDA_DIFF)
 175:Generated_Source\PSoC5/ADC_SAR_B.c ****         #if(ADC_SAR_B_DEFAULT_REFERENCE == ADC_SAR_B__EXT_REF)
 176:Generated_Source\PSoC5/ADC_SAR_B.c ****             ADC_SAR_B_SAR_CSR6_REG = ADC_SAR_B_INT_BYPASS_EXT_VREF; /* S2 */
 177:Generated_Source\PSoC5/ADC_SAR_B.c ****         #else /* Internal Vdda reference or obsolete bypass mode */
 178:Generated_Source\PSoC5/ADC_SAR_B.c ****             ADC_SAR_B_SAR_CSR6_REG = ADC_SAR_B_VDDA_VREF;           /* S7 */
 179:Generated_Source\PSoC5/ADC_SAR_B.c ****         #endif /* ADC_SAR_B_DEFAULT_REFERENCE == ADC_SAR_B__EXT_REF */
 180:Generated_Source\PSoC5/ADC_SAR_B.c ****     #else  /* Reference goes through internal buffer */
 181:Generated_Source\PSoC5/ADC_SAR_B.c ****         #if(ADC_SAR_B_DEFAULT_REFERENCE == ADC_SAR_B__INT_REF_NOT_BYPASSED)
 182:Generated_Source\PSoC5/ADC_SAR_B.c ****             ADC_SAR_B_SAR_CSR6_REG = ADC_SAR_B_INT_VREF;            /* S3 + S4 */
 183:Generated_Source\PSoC5/ADC_SAR_B.c ****         #else /* INTREF Bypassed of External */
 184:Generated_Source\PSoC5/ADC_SAR_B.c ****             ADC_SAR_B_SAR_CSR6_REG = ADC_SAR_B_INT_BYPASS_EXT_VREF; /* S2 */
 185:Generated_Source\PSoC5/ADC_SAR_B.c ****         #endif /* ADC_SAR_B_DEFAULT_REFERENCE == ADC_SAR_B__INT_REF_NOT_BYPASSED */
 186:Generated_Source\PSoC5/ADC_SAR_B.c ****     #endif /* VNEG_VDDA_DIFF */
 187:Generated_Source\PSoC5/ADC_SAR_B.c **** 
 188:Generated_Source\PSoC5/ADC_SAR_B.c ****     /* Low non-overlap delay for sampling clock signals (for 1MSPS) */
 189:Generated_Source\PSoC5/ADC_SAR_B.c ****     #if(ADC_SAR_B_HIGH_POWER_PULSE == 0u) /* MinPulseWidth <= 50 ns */
 190:Generated_Source\PSoC5/ADC_SAR_B.c ****         ADC_SAR_B_SAR_CSR5_REG &= (uint8)~ADC_SAR_B_SAR_DLY_INC;
 191:Generated_Source\PSoC5/ADC_SAR_B.c ****     #else /* Set High non-overlap delay for sampling clock signals (for <500KSPS)*/
 192:Generated_Source\PSoC5/ADC_SAR_B.c ****         ADC_SAR_B_SAR_CSR5_REG |= ADC_SAR_B_SAR_DLY_INC;
 193:Generated_Source\PSoC5/ADC_SAR_B.c ****     #endif /* ADC_SAR_B_HIGH_POWER_PULSE == 0u */
 194:Generated_Source\PSoC5/ADC_SAR_B.c **** 
 195:Generated_Source\PSoC5/ADC_SAR_B.c ****     /* Increase comparator latch enable delay by 20%, 
 196:Generated_Source\PSoC5/ADC_SAR_B.c ****     *  Increase comparator bias current by 30% without impacting delaysDelay 
 197:Generated_Source\PSoC5/ADC_SAR_B.c ****     *  Default for 1MSPS) 
 198:Generated_Source\PSoC5/ADC_SAR_B.c ****     */
 199:Generated_Source\PSoC5/ADC_SAR_B.c ****     #if(ADC_SAR_B_HIGH_POWER_PULSE == 0u)    /* MinPulseWidth <= 50 ns */
 200:Generated_Source\PSoC5/ADC_SAR_B.c ****         ADC_SAR_B_SAR_CSR5_REG |= ADC_SAR_B_SAR_SEL_CSEL_DFT_CHAR;
 201:Generated_Source\PSoC5/ADC_SAR_B.c ****     #else /* for <500ksps */
 202:Generated_Source\PSoC5/ADC_SAR_B.c ****         ADC_SAR_B_SAR_CSR5_REG &= (uint8)~ADC_SAR_B_SAR_SEL_CSEL_DFT_CHAR;
ARM GAS  C:\Users\rens_\AppData\Local\Temp\ccsYVs7o.s 			page 5


 203:Generated_Source\PSoC5/ADC_SAR_B.c ****     #endif /* ADC_SAR_B_HIGH_POWER_PULSE == 0u */
 204:Generated_Source\PSoC5/ADC_SAR_B.c **** 
 205:Generated_Source\PSoC5/ADC_SAR_B.c ****     /* Set default power and other configurations for control register 0 in multiple lines */
 206:Generated_Source\PSoC5/ADC_SAR_B.c ****     ADC_SAR_B_SAR_CSR0_REG = (uint8)((uint8)ADC_SAR_B_DEFAULT_POWER << ADC_SAR_B_SAR_POWER_SHIFT)
 207:Generated_Source\PSoC5/ADC_SAR_B.c ****     /* SAR_HIZ_CLEAR:   Should not be used for LP */
 208:Generated_Source\PSoC5/ADC_SAR_B.c ****     #if ((CY_PSOC5LP) || (ADC_SAR_B_DEFAULT_REFERENCE != ADC_SAR_B__EXT_REF))
 209:Generated_Source\PSoC5/ADC_SAR_B.c ****         | ADC_SAR_B_SAR_HIZ_CLEAR
 210:Generated_Source\PSoC5/ADC_SAR_B.c ****     #endif /* SAR_HIZ_CLEAR */
 211:Generated_Source\PSoC5/ADC_SAR_B.c ****     /*Set Convertion mode */
 212:Generated_Source\PSoC5/ADC_SAR_B.c ****     #if(ADC_SAR_B_DEFAULT_CONV_MODE != ADC_SAR_B__FREE_RUNNING)      /* If triggered mode */
 213:Generated_Source\PSoC5/ADC_SAR_B.c ****         | ADC_SAR_B_SAR_MX_SOF_UDB           /* source: UDB */
 214:Generated_Source\PSoC5/ADC_SAR_B.c ****         | ADC_SAR_B_SAR_SOF_MODE_EDGE        /* Set edge-sensitive sof source */
 215:Generated_Source\PSoC5/ADC_SAR_B.c ****     #endif /* ADC_SAR_B_DEFAULT_CONV_MODE */
 216:Generated_Source\PSoC5/ADC_SAR_B.c ****     ; /* end of multiple line initialization */
 217:Generated_Source\PSoC5/ADC_SAR_B.c **** 
 218:Generated_Source\PSoC5/ADC_SAR_B.c ****     ADC_SAR_B_SAR_TR0_REG = ADC_SAR_B_SAR_CAP_TRIM_2;
 219:Generated_Source\PSoC5/ADC_SAR_B.c **** 
 220:Generated_Source\PSoC5/ADC_SAR_B.c ****     /* Enable clock for SAR ADC*/
 221:Generated_Source\PSoC5/ADC_SAR_B.c ****     ADC_SAR_B_SAR_CLK_REG |= ADC_SAR_B_SAR_MX_CLK_EN;
 222:Generated_Source\PSoC5/ADC_SAR_B.c **** 
 223:Generated_Source\PSoC5/ADC_SAR_B.c ****     CyDelayUs(10u); /* The block is ready to use 10 us after the enable signal is set high. */
 224:Generated_Source\PSoC5/ADC_SAR_B.c **** 
 225:Generated_Source\PSoC5/ADC_SAR_B.c ****     #if(ADC_SAR_B_IRQ_REMOVE == 0u)
 226:Generated_Source\PSoC5/ADC_SAR_B.c ****         /* Clear a pending interrupt */
 227:Generated_Source\PSoC5/ADC_SAR_B.c ****         CyIntClearPending(ADC_SAR_B_INTC_NUMBER);
 228:Generated_Source\PSoC5/ADC_SAR_B.c ****     #endif   /* End ADC_SAR_B_IRQ_REMOVE */
 229:Generated_Source\PSoC5/ADC_SAR_B.c **** 
 230:Generated_Source\PSoC5/ADC_SAR_B.c ****     CyExitCriticalSection(enableInterrupts);
 231:Generated_Source\PSoC5/ADC_SAR_B.c **** }
 232:Generated_Source\PSoC5/ADC_SAR_B.c **** 
 233:Generated_Source\PSoC5/ADC_SAR_B.c **** 
 234:Generated_Source\PSoC5/ADC_SAR_B.c **** /*******************************************************************************
 235:Generated_Source\PSoC5/ADC_SAR_B.c **** * Function Name: ADC_SAR_B_Stop
 236:Generated_Source\PSoC5/ADC_SAR_B.c **** ********************************************************************************
 237:Generated_Source\PSoC5/ADC_SAR_B.c **** *
 238:Generated_Source\PSoC5/ADC_SAR_B.c **** * Summary:
 239:Generated_Source\PSoC5/ADC_SAR_B.c **** *  Stops ADC conversions and puts the ADC into its lowest power mode.
 240:Generated_Source\PSoC5/ADC_SAR_B.c **** *
 241:Generated_Source\PSoC5/ADC_SAR_B.c **** * Parameters:
 242:Generated_Source\PSoC5/ADC_SAR_B.c **** *  None.
 243:Generated_Source\PSoC5/ADC_SAR_B.c **** *
 244:Generated_Source\PSoC5/ADC_SAR_B.c **** * Return:
 245:Generated_Source\PSoC5/ADC_SAR_B.c **** *  None.
 246:Generated_Source\PSoC5/ADC_SAR_B.c **** *
 247:Generated_Source\PSoC5/ADC_SAR_B.c **** *******************************************************************************/
 248:Generated_Source\PSoC5/ADC_SAR_B.c **** void ADC_SAR_B_Stop(void)
 249:Generated_Source\PSoC5/ADC_SAR_B.c **** {
 250:Generated_Source\PSoC5/ADC_SAR_B.c ****     uint8 enableInterrupts;
 251:Generated_Source\PSoC5/ADC_SAR_B.c ****     enableInterrupts = CyEnterCriticalSection();
 252:Generated_Source\PSoC5/ADC_SAR_B.c **** 
 253:Generated_Source\PSoC5/ADC_SAR_B.c ****     /* Stop all conversions */
 254:Generated_Source\PSoC5/ADC_SAR_B.c ****     ADC_SAR_B_SAR_CSR0_REG &= (uint8)~ADC_SAR_B_SAR_SOF_START_CONV;
 255:Generated_Source\PSoC5/ADC_SAR_B.c ****     /* Disable the SAR ADC block in Active Power Mode */
 256:Generated_Source\PSoC5/ADC_SAR_B.c ****     ADC_SAR_B_PWRMGR_SAR_REG &= (uint8)~ADC_SAR_B_ACT_PWR_SAR_EN;
 257:Generated_Source\PSoC5/ADC_SAR_B.c ****     /* Disable the SAR ADC in Standby Power Mode */
 258:Generated_Source\PSoC5/ADC_SAR_B.c ****     ADC_SAR_B_STBY_PWRMGR_SAR_REG &= (uint8)~ADC_SAR_B_STBY_PWR_SAR_EN;
 259:Generated_Source\PSoC5/ADC_SAR_B.c **** 
ARM GAS  C:\Users\rens_\AppData\Local\Temp\ccsYVs7o.s 			page 6


 260:Generated_Source\PSoC5/ADC_SAR_B.c ****     /* This is only valid if there is an internal clock */
 261:Generated_Source\PSoC5/ADC_SAR_B.c ****     #if(ADC_SAR_B_DEFAULT_INTERNAL_CLK)
 262:Generated_Source\PSoC5/ADC_SAR_B.c ****         ADC_SAR_B_PWRMGR_CLK_REG &= (uint8)~ADC_SAR_B_ACT_PWR_CLK_EN;
 263:Generated_Source\PSoC5/ADC_SAR_B.c ****         ADC_SAR_B_STBY_PWRMGR_CLK_REG &= (uint8)~ADC_SAR_B_STBY_PWR_CLK_EN;
 264:Generated_Source\PSoC5/ADC_SAR_B.c ****     #endif /* End ADC_SAR_B_DEFAULT_INTERNAL_CLK */
 265:Generated_Source\PSoC5/ADC_SAR_B.c **** 
 266:Generated_Source\PSoC5/ADC_SAR_B.c ****     CyExitCriticalSection(enableInterrupts);
 267:Generated_Source\PSoC5/ADC_SAR_B.c **** 
 268:Generated_Source\PSoC5/ADC_SAR_B.c **** }
 269:Generated_Source\PSoC5/ADC_SAR_B.c **** 
 270:Generated_Source\PSoC5/ADC_SAR_B.c **** 
 271:Generated_Source\PSoC5/ADC_SAR_B.c **** /*******************************************************************************
 272:Generated_Source\PSoC5/ADC_SAR_B.c **** * Function Name: ADC_SAR_B_SetPower
 273:Generated_Source\PSoC5/ADC_SAR_B.c **** ********************************************************************************
 274:Generated_Source\PSoC5/ADC_SAR_B.c **** *
 275:Generated_Source\PSoC5/ADC_SAR_B.c **** * Summary:
 276:Generated_Source\PSoC5/ADC_SAR_B.c **** *  Sets the operational power of the ADC. You should use the higher power
 277:Generated_Source\PSoC5/ADC_SAR_B.c **** *  settings with faster clock speeds.
 278:Generated_Source\PSoC5/ADC_SAR_B.c **** *
 279:Generated_Source\PSoC5/ADC_SAR_B.c **** * Parameters:
 280:Generated_Source\PSoC5/ADC_SAR_B.c **** *  power:  Power setting for ADC
 281:Generated_Source\PSoC5/ADC_SAR_B.c **** *  0 ->    Normal
 282:Generated_Source\PSoC5/ADC_SAR_B.c **** *  1 ->    Medium power
 283:Generated_Source\PSoC5/ADC_SAR_B.c **** *  2 ->    1.25 power
 284:Generated_Source\PSoC5/ADC_SAR_B.c **** *  3 ->    Minimum power.
 285:Generated_Source\PSoC5/ADC_SAR_B.c **** *
 286:Generated_Source\PSoC5/ADC_SAR_B.c **** * Return:
 287:Generated_Source\PSoC5/ADC_SAR_B.c **** *  None.
 288:Generated_Source\PSoC5/ADC_SAR_B.c **** *
 289:Generated_Source\PSoC5/ADC_SAR_B.c **** *******************************************************************************/
 290:Generated_Source\PSoC5/ADC_SAR_B.c **** void ADC_SAR_B_SetPower(uint8 power)
 291:Generated_Source\PSoC5/ADC_SAR_B.c **** {
 292:Generated_Source\PSoC5/ADC_SAR_B.c ****     uint8 tmpReg;
 293:Generated_Source\PSoC5/ADC_SAR_B.c **** 
 294:Generated_Source\PSoC5/ADC_SAR_B.c ****     /* mask off invalid power settings */
 295:Generated_Source\PSoC5/ADC_SAR_B.c ****     power &= ADC_SAR_B_SAR_API_POWER_MASK;
 296:Generated_Source\PSoC5/ADC_SAR_B.c **** 
 297:Generated_Source\PSoC5/ADC_SAR_B.c ****     /* Set Power parameter  */
 298:Generated_Source\PSoC5/ADC_SAR_B.c ****     tmpReg = ADC_SAR_B_SAR_CSR0_REG & (uint8)~ADC_SAR_B_SAR_POWER_MASK;
 299:Generated_Source\PSoC5/ADC_SAR_B.c ****     tmpReg |= (uint8)(power << ADC_SAR_B_SAR_POWER_SHIFT);
 300:Generated_Source\PSoC5/ADC_SAR_B.c ****     ADC_SAR_B_SAR_CSR0_REG = tmpReg;
 301:Generated_Source\PSoC5/ADC_SAR_B.c **** }
 302:Generated_Source\PSoC5/ADC_SAR_B.c **** 
 303:Generated_Source\PSoC5/ADC_SAR_B.c **** 
 304:Generated_Source\PSoC5/ADC_SAR_B.c **** /*******************************************************************************
 305:Generated_Source\PSoC5/ADC_SAR_B.c **** * Function Name: ADC_SAR_B_SetResolution
 306:Generated_Source\PSoC5/ADC_SAR_B.c **** ********************************************************************************
 307:Generated_Source\PSoC5/ADC_SAR_B.c **** *
 308:Generated_Source\PSoC5/ADC_SAR_B.c **** * Summary:
 309:Generated_Source\PSoC5/ADC_SAR_B.c **** *  Sets the Relution of the SAR.
 310:Generated_Source\PSoC5/ADC_SAR_B.c **** *
 311:Generated_Source\PSoC5/ADC_SAR_B.c **** * Parameters:
 312:Generated_Source\PSoC5/ADC_SAR_B.c **** *  resolution:
 313:Generated_Source\PSoC5/ADC_SAR_B.c **** *  12 ->    RES12
 314:Generated_Source\PSoC5/ADC_SAR_B.c **** *  10 ->    RES10
 315:Generated_Source\PSoC5/ADC_SAR_B.c **** *  8  ->    RES8
 316:Generated_Source\PSoC5/ADC_SAR_B.c **** *
ARM GAS  C:\Users\rens_\AppData\Local\Temp\ccsYVs7o.s 			page 7


 317:Generated_Source\PSoC5/ADC_SAR_B.c **** * Return:
 318:Generated_Source\PSoC5/ADC_SAR_B.c **** *  None.
 319:Generated_Source\PSoC5/ADC_SAR_B.c **** *
 320:Generated_Source\PSoC5/ADC_SAR_B.c **** * Side Effects:
 321:Generated_Source\PSoC5/ADC_SAR_B.c **** *  The ADC resolution cannot be changed during a conversion cycle. The
 322:Generated_Source\PSoC5/ADC_SAR_B.c **** *  recommended best practice is to stop conversions with
 323:Generated_Source\PSoC5/ADC_SAR_B.c **** *  ADC_StopConvert(), change the resolution, then restart the
 324:Generated_Source\PSoC5/ADC_SAR_B.c **** *  conversions with ADC_StartConvert().
 325:Generated_Source\PSoC5/ADC_SAR_B.c **** *  If you decide not to stop conversions before calling this API, you
 326:Generated_Source\PSoC5/ADC_SAR_B.c **** *  should use ADC_IsEndConversion() to wait until conversion is complete
 327:Generated_Source\PSoC5/ADC_SAR_B.c **** *  before changing the resolution.
 328:Generated_Source\PSoC5/ADC_SAR_B.c **** *  If you call ADC_SetResolution() during a conversion, the resolution will
 329:Generated_Source\PSoC5/ADC_SAR_B.c **** *  not be changed until the current conversion is complete. Data will not be
 330:Generated_Source\PSoC5/ADC_SAR_B.c **** *  available in the new resolution for another 6 + "New Resolution(in bits)"
 331:Generated_Source\PSoC5/ADC_SAR_B.c **** *  clock cycles.
 332:Generated_Source\PSoC5/ADC_SAR_B.c **** *  You may need add a delay of this number of clock cycles after
 333:Generated_Source\PSoC5/ADC_SAR_B.c **** *  ADC_SetResolution() is called before data is valid again.
 334:Generated_Source\PSoC5/ADC_SAR_B.c **** *  Affects ADC_CountsTo_Volts(), ADC_CountsTo_mVolts(), and
 335:Generated_Source\PSoC5/ADC_SAR_B.c **** *  ADC_CountsTo_uVolts() by calculating the correct conversion between ADC
 336:Generated_Source\PSoC5/ADC_SAR_B.c **** *  counts and the applied input voltage. Calculation depends on resolution,
 337:Generated_Source\PSoC5/ADC_SAR_B.c **** *  input range, and voltage reference.
 338:Generated_Source\PSoC5/ADC_SAR_B.c **** *
 339:Generated_Source\PSoC5/ADC_SAR_B.c **** *******************************************************************************/
 340:Generated_Source\PSoC5/ADC_SAR_B.c **** void ADC_SAR_B_SetResolution(uint8 resolution)
 341:Generated_Source\PSoC5/ADC_SAR_B.c **** {
 342:Generated_Source\PSoC5/ADC_SAR_B.c ****     uint8 tmpReg;
 343:Generated_Source\PSoC5/ADC_SAR_B.c **** 
 344:Generated_Source\PSoC5/ADC_SAR_B.c ****     /* Set SAR ADC resolution and sample width: 18 conversion cycles at 12bits + 1 gap */
 345:Generated_Source\PSoC5/ADC_SAR_B.c ****     switch (resolution)
 346:Generated_Source\PSoC5/ADC_SAR_B.c ****     {
 347:Generated_Source\PSoC5/ADC_SAR_B.c ****         case (uint8)ADC_SAR_B__BITS_12:
 348:Generated_Source\PSoC5/ADC_SAR_B.c ****             tmpReg = ADC_SAR_B_SAR_RESOLUTION_12BIT | ADC_SAR_B_SAR_SAMPLE_WIDTH;
 349:Generated_Source\PSoC5/ADC_SAR_B.c ****             break;
 350:Generated_Source\PSoC5/ADC_SAR_B.c ****         case (uint8)ADC_SAR_B__BITS_10:
 351:Generated_Source\PSoC5/ADC_SAR_B.c ****             tmpReg = ADC_SAR_B_SAR_RESOLUTION_10BIT | ADC_SAR_B_SAR_SAMPLE_WIDTH;
 352:Generated_Source\PSoC5/ADC_SAR_B.c ****             break;
 353:Generated_Source\PSoC5/ADC_SAR_B.c ****         case (uint8)ADC_SAR_B__BITS_8:
 354:Generated_Source\PSoC5/ADC_SAR_B.c ****             tmpReg = ADC_SAR_B_SAR_RESOLUTION_8BIT | ADC_SAR_B_SAR_SAMPLE_WIDTH;
 355:Generated_Source\PSoC5/ADC_SAR_B.c ****             break;
 356:Generated_Source\PSoC5/ADC_SAR_B.c ****         default:
 357:Generated_Source\PSoC5/ADC_SAR_B.c ****             tmpReg = ADC_SAR_B_SAR_RESOLUTION_12BIT | ADC_SAR_B_SAR_SAMPLE_WIDTH;
 358:Generated_Source\PSoC5/ADC_SAR_B.c ****             /* Halt CPU in debug mode if resolution is out of valid range */
 359:Generated_Source\PSoC5/ADC_SAR_B.c ****             CYASSERT(0u != 0u);
 360:Generated_Source\PSoC5/ADC_SAR_B.c ****             break;
 361:Generated_Source\PSoC5/ADC_SAR_B.c ****     }
 362:Generated_Source\PSoC5/ADC_SAR_B.c ****     ADC_SAR_B_SAR_CSR2_REG = tmpReg;
 363:Generated_Source\PSoC5/ADC_SAR_B.c **** 
 364:Generated_Source\PSoC5/ADC_SAR_B.c ****      /* Calculate gain for convert counts to volts */
 365:Generated_Source\PSoC5/ADC_SAR_B.c ****     ADC_SAR_B_CalcGain(resolution);
 366:Generated_Source\PSoC5/ADC_SAR_B.c **** }
 367:Generated_Source\PSoC5/ADC_SAR_B.c **** 
 368:Generated_Source\PSoC5/ADC_SAR_B.c **** 
 369:Generated_Source\PSoC5/ADC_SAR_B.c **** #if(ADC_SAR_B_DEFAULT_CONV_MODE != ADC_SAR_B__HARDWARE_TRIGGER)
 370:Generated_Source\PSoC5/ADC_SAR_B.c **** 
 371:Generated_Source\PSoC5/ADC_SAR_B.c **** 
 372:Generated_Source\PSoC5/ADC_SAR_B.c ****     /*******************************************************************************
 373:Generated_Source\PSoC5/ADC_SAR_B.c ****     * Function Name: ADC_SAR_B_StartConvert
ARM GAS  C:\Users\rens_\AppData\Local\Temp\ccsYVs7o.s 			page 8


 374:Generated_Source\PSoC5/ADC_SAR_B.c ****     ********************************************************************************
 375:Generated_Source\PSoC5/ADC_SAR_B.c ****     *
 376:Generated_Source\PSoC5/ADC_SAR_B.c ****     * Summary:
 377:Generated_Source\PSoC5/ADC_SAR_B.c ****     *  Forces the ADC to initiate a conversion. In free-running mode, the ADC runs
 378:Generated_Source\PSoC5/ADC_SAR_B.c ****     *  continuously. In software trigger mode, the function also acts as a software
 379:Generated_Source\PSoC5/ADC_SAR_B.c ****     *  version of the SOC and every conversion must be triggered by
 380:Generated_Source\PSoC5/ADC_SAR_B.c ****     *  ADC_SAR_B_StartConvert(). This function is not available when the
 381:Generated_Source\PSoC5/ADC_SAR_B.c ****     *  Hardware Trigger sample mode is selected.
 382:Generated_Source\PSoC5/ADC_SAR_B.c ****     *
 383:Generated_Source\PSoC5/ADC_SAR_B.c ****     * Parameters:
 384:Generated_Source\PSoC5/ADC_SAR_B.c ****     *  None.
 385:Generated_Source\PSoC5/ADC_SAR_B.c ****     *
 386:Generated_Source\PSoC5/ADC_SAR_B.c ****     * Return:
 387:Generated_Source\PSoC5/ADC_SAR_B.c ****     *  None.
 388:Generated_Source\PSoC5/ADC_SAR_B.c ****     *
 389:Generated_Source\PSoC5/ADC_SAR_B.c ****     * Theory:
 390:Generated_Source\PSoC5/ADC_SAR_B.c ****     *  Forces the ADC to initiate a conversion. In Free Running mode, the ADC will
 391:Generated_Source\PSoC5/ADC_SAR_B.c ****     *  run continuously. In a software trigger mode the function also acts as a
 392:Generated_Source\PSoC5/ADC_SAR_B.c ****     *  software version of the SOC. Here every conversion has to be triggered by
 393:Generated_Source\PSoC5/ADC_SAR_B.c ****     *  the routine. This writes into the SOC bit in SAR_CTRL reg.
 394:Generated_Source\PSoC5/ADC_SAR_B.c ****     *
 395:Generated_Source\PSoC5/ADC_SAR_B.c ****     * Side Effects:
 396:Generated_Source\PSoC5/ADC_SAR_B.c ****     *  In a software trigger mode the function switches source for SOF from the
 397:Generated_Source\PSoC5/ADC_SAR_B.c ****     *  external pin to the internal SOF generation. Application should not call
 398:Generated_Source\PSoC5/ADC_SAR_B.c ****     *  StartConvert if external source used for SOF.
 399:Generated_Source\PSoC5/ADC_SAR_B.c ****     *
 400:Generated_Source\PSoC5/ADC_SAR_B.c ****     *******************************************************************************/
 401:Generated_Source\PSoC5/ADC_SAR_B.c ****     void ADC_SAR_B_StartConvert(void)
 402:Generated_Source\PSoC5/ADC_SAR_B.c ****     {
 403:Generated_Source\PSoC5/ADC_SAR_B.c ****         #if(ADC_SAR_B_DEFAULT_CONV_MODE != ADC_SAR_B__FREE_RUNNING)  /* If software triggered mode 
 404:Generated_Source\PSoC5/ADC_SAR_B.c ****             ADC_SAR_B_SAR_CSR0_REG &= (uint8)~ADC_SAR_B_SAR_MX_SOF_UDB;   /* source: SOF bit */
 405:Generated_Source\PSoC5/ADC_SAR_B.c ****         #endif /* End ADC_SAR_B_DEFAULT_CONV_MODE */
 406:Generated_Source\PSoC5/ADC_SAR_B.c **** 
 407:Generated_Source\PSoC5/ADC_SAR_B.c ****         /* Start the conversion */
 408:Generated_Source\PSoC5/ADC_SAR_B.c ****         ADC_SAR_B_SAR_CSR0_REG |= ADC_SAR_B_SAR_SOF_START_CONV;
 409:Generated_Source\PSoC5/ADC_SAR_B.c ****     }
 410:Generated_Source\PSoC5/ADC_SAR_B.c **** 
 411:Generated_Source\PSoC5/ADC_SAR_B.c **** 
 412:Generated_Source\PSoC5/ADC_SAR_B.c ****     /*******************************************************************************
 413:Generated_Source\PSoC5/ADC_SAR_B.c ****     * Function Name: ADC_SAR_B_StopConvert
 414:Generated_Source\PSoC5/ADC_SAR_B.c ****     ********************************************************************************
 415:Generated_Source\PSoC5/ADC_SAR_B.c ****     *
 416:Generated_Source\PSoC5/ADC_SAR_B.c ****     * Summary:
 417:Generated_Source\PSoC5/ADC_SAR_B.c ****     *  Forces the ADC to stop conversions. If a conversion is currently executing,
 418:Generated_Source\PSoC5/ADC_SAR_B.c ****     *  that conversion will complete, but no further conversions will occur. This
 419:Generated_Source\PSoC5/ADC_SAR_B.c ****     *  function is not available when the Hardware Trigger sample mode is selected.
 420:Generated_Source\PSoC5/ADC_SAR_B.c ****     *
 421:Generated_Source\PSoC5/ADC_SAR_B.c ****     * Parameters:
 422:Generated_Source\PSoC5/ADC_SAR_B.c ****     *  None.
 423:Generated_Source\PSoC5/ADC_SAR_B.c ****     *
 424:Generated_Source\PSoC5/ADC_SAR_B.c ****     * Return:
 425:Generated_Source\PSoC5/ADC_SAR_B.c ****     *  None.
 426:Generated_Source\PSoC5/ADC_SAR_B.c ****     *
 427:Generated_Source\PSoC5/ADC_SAR_B.c ****     * Theory:
 428:Generated_Source\PSoC5/ADC_SAR_B.c ****     *  Stops ADC conversion in Free Running mode.
 429:Generated_Source\PSoC5/ADC_SAR_B.c ****     *
 430:Generated_Source\PSoC5/ADC_SAR_B.c ****     * Side Effects:
ARM GAS  C:\Users\rens_\AppData\Local\Temp\ccsYVs7o.s 			page 9


 431:Generated_Source\PSoC5/ADC_SAR_B.c ****     *  In Software Trigger sample mode, this function sets a software version of the
 432:Generated_Source\PSoC5/ADC_SAR_B.c ****     *  SOC to low level and switches the SOC source to hardware SOC input.
 433:Generated_Source\PSoC5/ADC_SAR_B.c ****     *
 434:Generated_Source\PSoC5/ADC_SAR_B.c ****     *******************************************************************************/
 435:Generated_Source\PSoC5/ADC_SAR_B.c ****     void ADC_SAR_B_StopConvert(void)
 436:Generated_Source\PSoC5/ADC_SAR_B.c ****     {
 437:Generated_Source\PSoC5/ADC_SAR_B.c ****         /* Stop all conversions */
 438:Generated_Source\PSoC5/ADC_SAR_B.c ****         ADC_SAR_B_SAR_CSR0_REG &= (uint8)~ADC_SAR_B_SAR_SOF_START_CONV;
 439:Generated_Source\PSoC5/ADC_SAR_B.c **** 
 440:Generated_Source\PSoC5/ADC_SAR_B.c ****         #if(ADC_SAR_B_DEFAULT_CONV_MODE != ADC_SAR_B__FREE_RUNNING)  /* If software triggered mode 
 441:Generated_Source\PSoC5/ADC_SAR_B.c ****             /* Return source to UDB for hardware SOF signal */
 442:Generated_Source\PSoC5/ADC_SAR_B.c ****             ADC_SAR_B_SAR_CSR0_REG |= ADC_SAR_B_SAR_MX_SOF_UDB;    /* source: UDB */
 443:Generated_Source\PSoC5/ADC_SAR_B.c ****         #endif /* End ADC_SAR_B_DEFAULT_CONV_MODE */
 444:Generated_Source\PSoC5/ADC_SAR_B.c **** 
 445:Generated_Source\PSoC5/ADC_SAR_B.c ****     }
 446:Generated_Source\PSoC5/ADC_SAR_B.c **** 
 447:Generated_Source\PSoC5/ADC_SAR_B.c **** #endif /* End ADC_SAR_B_DEFAULT_CONV_MODE != ADC_SAR_B__HARDWARE_TRIGGER */
 448:Generated_Source\PSoC5/ADC_SAR_B.c **** 
 449:Generated_Source\PSoC5/ADC_SAR_B.c **** 
 450:Generated_Source\PSoC5/ADC_SAR_B.c **** /*******************************************************************************
 451:Generated_Source\PSoC5/ADC_SAR_B.c **** * Function Name: ADC_SAR_B_IsEndConversion
 452:Generated_Source\PSoC5/ADC_SAR_B.c **** ********************************************************************************
 453:Generated_Source\PSoC5/ADC_SAR_B.c **** *
 454:Generated_Source\PSoC5/ADC_SAR_B.c **** * Summary:
 455:Generated_Source\PSoC5/ADC_SAR_B.c **** *  Immediately returns the status of the conversion or does not return
 456:Generated_Source\PSoC5/ADC_SAR_B.c **** *  (blocking) until the conversion completes, depending on the retMode
 457:Generated_Source\PSoC5/ADC_SAR_B.c **** *  parameter.
 458:Generated_Source\PSoC5/ADC_SAR_B.c **** *
 459:Generated_Source\PSoC5/ADC_SAR_B.c **** * Parameters:
 460:Generated_Source\PSoC5/ADC_SAR_B.c **** *  retMode:  Check conversion return mode.
 461:Generated_Source\PSoC5/ADC_SAR_B.c **** *   ADC_SAR_B_RETURN_STATUS: Immediately returns the status. If the
 462:Generated_Source\PSoC5/ADC_SAR_B.c **** *     value returned is zero, the conversion is not complete, and this function
 463:Generated_Source\PSoC5/ADC_SAR_B.c **** *     should be retried until a nonzero result is returned.
 464:Generated_Source\PSoC5/ADC_SAR_B.c **** *   ADC_SAR_B_WAIT_FOR_RESULT: Does not return a result until the ADC
 465:Generated_Source\PSoC5/ADC_SAR_B.c **** *     conversion is complete.
 466:Generated_Source\PSoC5/ADC_SAR_B.c **** *
 467:Generated_Source\PSoC5/ADC_SAR_B.c **** * Return:
 468:Generated_Source\PSoC5/ADC_SAR_B.c **** *  (uint8)  0 =>  The ADC is still calculating the last result.
 469:Generated_Source\PSoC5/ADC_SAR_B.c **** *           1 =>  The last conversion is complete.
 470:Generated_Source\PSoC5/ADC_SAR_B.c **** *
 471:Generated_Source\PSoC5/ADC_SAR_B.c **** * Side Effects:
 472:Generated_Source\PSoC5/ADC_SAR_B.c **** *  This function reads the end of conversion status, which is cleared on read.
 473:Generated_Source\PSoC5/ADC_SAR_B.c **** *
 474:Generated_Source\PSoC5/ADC_SAR_B.c **** *******************************************************************************/
 475:Generated_Source\PSoC5/ADC_SAR_B.c **** uint8 ADC_SAR_B_IsEndConversion(uint8 retMode)
 476:Generated_Source\PSoC5/ADC_SAR_B.c **** {
 477:Generated_Source\PSoC5/ADC_SAR_B.c ****     uint8 status;
 478:Generated_Source\PSoC5/ADC_SAR_B.c **** 
 479:Generated_Source\PSoC5/ADC_SAR_B.c ****     do
 480:Generated_Source\PSoC5/ADC_SAR_B.c ****     {
 481:Generated_Source\PSoC5/ADC_SAR_B.c ****         status = ADC_SAR_B_SAR_CSR1_REG & ADC_SAR_B_SAR_EOF_1;
 482:Generated_Source\PSoC5/ADC_SAR_B.c ****     } while ((status != ADC_SAR_B_SAR_EOF_1) && (retMode == ADC_SAR_B_WAIT_FOR_RESULT));
 483:Generated_Source\PSoC5/ADC_SAR_B.c ****     /* If convertion complete, wait until EOF bit released */
 484:Generated_Source\PSoC5/ADC_SAR_B.c ****     if(status == ADC_SAR_B_SAR_EOF_1)
 485:Generated_Source\PSoC5/ADC_SAR_B.c ****     {
 486:Generated_Source\PSoC5/ADC_SAR_B.c ****         /* wait one ADC clock to let the EOC status bit release */
 487:Generated_Source\PSoC5/ADC_SAR_B.c ****         CyDelayUs(1u);
ARM GAS  C:\Users\rens_\AppData\Local\Temp\ccsYVs7o.s 			page 10


 488:Generated_Source\PSoC5/ADC_SAR_B.c ****         /* Do the unconditional read operation of the CSR1 register to make sure the EOC bit has be
 489:Generated_Source\PSoC5/ADC_SAR_B.c ****         CY_GET_REG8(ADC_SAR_B_SAR_CSR1_PTR);
 490:Generated_Source\PSoC5/ADC_SAR_B.c ****     }
 491:Generated_Source\PSoC5/ADC_SAR_B.c **** 
 492:Generated_Source\PSoC5/ADC_SAR_B.c ****     return(status);
 493:Generated_Source\PSoC5/ADC_SAR_B.c **** }
 494:Generated_Source\PSoC5/ADC_SAR_B.c **** 
 495:Generated_Source\PSoC5/ADC_SAR_B.c **** 
 496:Generated_Source\PSoC5/ADC_SAR_B.c **** /*******************************************************************************
 497:Generated_Source\PSoC5/ADC_SAR_B.c **** * Function Name: ADC_SAR_B_GetResult8
 498:Generated_Source\PSoC5/ADC_SAR_B.c **** ********************************************************************************
 499:Generated_Source\PSoC5/ADC_SAR_B.c **** *
 500:Generated_Source\PSoC5/ADC_SAR_B.c **** * Summary:
 501:Generated_Source\PSoC5/ADC_SAR_B.c **** *  Returns the result of an 8-bit conversion. If the resolution is set greater
 502:Generated_Source\PSoC5/ADC_SAR_B.c **** *  than 8 bits, the function returns the LSB of the result.
 503:Generated_Source\PSoC5/ADC_SAR_B.c **** *  ADC_SAR_B_IsEndConversion() should be called to verify that the data
 504:Generated_Source\PSoC5/ADC_SAR_B.c **** *   sample is ready.
 505:Generated_Source\PSoC5/ADC_SAR_B.c **** *
 506:Generated_Source\PSoC5/ADC_SAR_B.c **** * Parameters:
 507:Generated_Source\PSoC5/ADC_SAR_B.c **** *  None.
 508:Generated_Source\PSoC5/ADC_SAR_B.c **** *
 509:Generated_Source\PSoC5/ADC_SAR_B.c **** * Return:
 510:Generated_Source\PSoC5/ADC_SAR_B.c **** *  The LSB of the last ADC conversion.
 511:Generated_Source\PSoC5/ADC_SAR_B.c **** *
 512:Generated_Source\PSoC5/ADC_SAR_B.c **** * Global Variables:
 513:Generated_Source\PSoC5/ADC_SAR_B.c **** *  ADC_SAR_B_shift - used to convert the ADC counts to the 2s
 514:Generated_Source\PSoC5/ADC_SAR_B.c **** *  compliment form.
 515:Generated_Source\PSoC5/ADC_SAR_B.c **** *
 516:Generated_Source\PSoC5/ADC_SAR_B.c **** * Side Effects:
 517:Generated_Source\PSoC5/ADC_SAR_B.c **** *  Converts the ADC counts to the 2s complement form.
 518:Generated_Source\PSoC5/ADC_SAR_B.c **** *
 519:Generated_Source\PSoC5/ADC_SAR_B.c **** *******************************************************************************/
 520:Generated_Source\PSoC5/ADC_SAR_B.c **** int8 ADC_SAR_B_GetResult8( void )
 521:Generated_Source\PSoC5/ADC_SAR_B.c **** {
 522:Generated_Source\PSoC5/ADC_SAR_B.c ****     return( (int8)ADC_SAR_B_SAR_WRK0_REG - (int8)ADC_SAR_B_shift);
 523:Generated_Source\PSoC5/ADC_SAR_B.c **** }
 524:Generated_Source\PSoC5/ADC_SAR_B.c **** 
 525:Generated_Source\PSoC5/ADC_SAR_B.c **** 
 526:Generated_Source\PSoC5/ADC_SAR_B.c **** /*******************************************************************************
 527:Generated_Source\PSoC5/ADC_SAR_B.c **** * Function Name: ADC_SAR_B_GetResult16
 528:Generated_Source\PSoC5/ADC_SAR_B.c **** ********************************************************************************
 529:Generated_Source\PSoC5/ADC_SAR_B.c **** *
 530:Generated_Source\PSoC5/ADC_SAR_B.c **** * Summary:
 531:Generated_Source\PSoC5/ADC_SAR_B.c **** *  Returns a 16-bit result for a conversion with a result that has a resolution
 532:Generated_Source\PSoC5/ADC_SAR_B.c **** *  of 8 to 12 bits.
 533:Generated_Source\PSoC5/ADC_SAR_B.c **** *  ADC_SAR_B_IsEndConversion() should be called to verify that the data
 534:Generated_Source\PSoC5/ADC_SAR_B.c **** *   sample is ready
 535:Generated_Source\PSoC5/ADC_SAR_B.c **** *
 536:Generated_Source\PSoC5/ADC_SAR_B.c **** * Parameters:
 537:Generated_Source\PSoC5/ADC_SAR_B.c **** *  None.
 538:Generated_Source\PSoC5/ADC_SAR_B.c **** *
 539:Generated_Source\PSoC5/ADC_SAR_B.c **** * Return:
 540:Generated_Source\PSoC5/ADC_SAR_B.c **** *  The 16-bit result of the last ADC conversion
 541:Generated_Source\PSoC5/ADC_SAR_B.c **** *
 542:Generated_Source\PSoC5/ADC_SAR_B.c **** * Global Variables:
 543:Generated_Source\PSoC5/ADC_SAR_B.c **** *  ADC_SAR_B_shift - used to convert the ADC counts to the 2s
 544:Generated_Source\PSoC5/ADC_SAR_B.c **** *  compliment form.
ARM GAS  C:\Users\rens_\AppData\Local\Temp\ccsYVs7o.s 			page 11


 545:Generated_Source\PSoC5/ADC_SAR_B.c **** *
 546:Generated_Source\PSoC5/ADC_SAR_B.c **** * Side Effects:
 547:Generated_Source\PSoC5/ADC_SAR_B.c **** *  Converts the ADC counts to the 2s complement form.
 548:Generated_Source\PSoC5/ADC_SAR_B.c **** *
 549:Generated_Source\PSoC5/ADC_SAR_B.c **** *******************************************************************************/
 550:Generated_Source\PSoC5/ADC_SAR_B.c **** int16 ADC_SAR_B_GetResult16( void )
 551:Generated_Source\PSoC5/ADC_SAR_B.c **** {
 552:Generated_Source\PSoC5/ADC_SAR_B.c ****     uint16 res;
 553:Generated_Source\PSoC5/ADC_SAR_B.c **** 
 554:Generated_Source\PSoC5/ADC_SAR_B.c ****     res = CY_GET_REG16(ADC_SAR_B_SAR_WRK_PTR);
 555:Generated_Source\PSoC5/ADC_SAR_B.c **** 
 556:Generated_Source\PSoC5/ADC_SAR_B.c ****     return( (int16)res - ADC_SAR_B_shift );
 557:Generated_Source\PSoC5/ADC_SAR_B.c **** }
 558:Generated_Source\PSoC5/ADC_SAR_B.c **** 
 559:Generated_Source\PSoC5/ADC_SAR_B.c **** 
 560:Generated_Source\PSoC5/ADC_SAR_B.c **** /*******************************************************************************
 561:Generated_Source\PSoC5/ADC_SAR_B.c **** * Function Name: ADC_SAR_B_SetOffset
 562:Generated_Source\PSoC5/ADC_SAR_B.c **** ********************************************************************************
 563:Generated_Source\PSoC5/ADC_SAR_B.c **** *
 564:Generated_Source\PSoC5/ADC_SAR_B.c **** * Summary:
 565:Generated_Source\PSoC5/ADC_SAR_B.c **** *  Sets the ADC offset, which is used by ADC_SAR_B_CountsTo_Volts(),
 566:Generated_Source\PSoC5/ADC_SAR_B.c **** *  ADC_SAR_B_CountsTo_mVolts(), and ADC_SAR_B_CountsTo_uVolts()
 567:Generated_Source\PSoC5/ADC_SAR_B.c **** *  to subtract the offset from the given reading before calculating the voltage
 568:Generated_Source\PSoC5/ADC_SAR_B.c **** *  conversion.
 569:Generated_Source\PSoC5/ADC_SAR_B.c **** *
 570:Generated_Source\PSoC5/ADC_SAR_B.c **** * Parameters:
 571:Generated_Source\PSoC5/ADC_SAR_B.c **** *  int16: This value is measured when the inputs are shorted or connected to
 572:Generated_Source\PSoC5/ADC_SAR_B.c ****    the same input voltage.
 573:Generated_Source\PSoC5/ADC_SAR_B.c **** *
 574:Generated_Source\PSoC5/ADC_SAR_B.c **** * Return:
 575:Generated_Source\PSoC5/ADC_SAR_B.c **** *  None.
 576:Generated_Source\PSoC5/ADC_SAR_B.c **** *
 577:Generated_Source\PSoC5/ADC_SAR_B.c **** * Global Variables:
 578:Generated_Source\PSoC5/ADC_SAR_B.c **** *  The ADC_SAR_B_offset variable modified. This variable is used for
 579:Generated_Source\PSoC5/ADC_SAR_B.c **** *  offset calibration purpose.
 580:Generated_Source\PSoC5/ADC_SAR_B.c **** *  Affects the ADC_SAR_B_CountsTo_Volts,
 581:Generated_Source\PSoC5/ADC_SAR_B.c **** *  ADC_SAR_B_CountsTo_mVolts, ADC_SAR_B_CountsTo_uVolts functions
 582:Generated_Source\PSoC5/ADC_SAR_B.c **** *  by subtracting the given offset.
 583:Generated_Source\PSoC5/ADC_SAR_B.c **** *
 584:Generated_Source\PSoC5/ADC_SAR_B.c **** *******************************************************************************/
 585:Generated_Source\PSoC5/ADC_SAR_B.c **** void ADC_SAR_B_SetOffset(int16 offset)
 586:Generated_Source\PSoC5/ADC_SAR_B.c **** {
 587:Generated_Source\PSoC5/ADC_SAR_B.c ****     ADC_SAR_B_offset = offset;
 588:Generated_Source\PSoC5/ADC_SAR_B.c **** }
 589:Generated_Source\PSoC5/ADC_SAR_B.c **** 
 590:Generated_Source\PSoC5/ADC_SAR_B.c **** 
 591:Generated_Source\PSoC5/ADC_SAR_B.c **** /*******************************************************************************
 592:Generated_Source\PSoC5/ADC_SAR_B.c **** * Function Name: ADC_SAR_B_CalcGain
 593:Generated_Source\PSoC5/ADC_SAR_B.c **** ********************************************************************************
 594:Generated_Source\PSoC5/ADC_SAR_B.c **** *
 595:Generated_Source\PSoC5/ADC_SAR_B.c **** * Summary:
 596:Generated_Source\PSoC5/ADC_SAR_B.c **** *  This function calculates the ADC gain in counts per 10 volt.
 597:Generated_Source\PSoC5/ADC_SAR_B.c **** *
 598:Generated_Source\PSoC5/ADC_SAR_B.c **** * Parameters:
 599:Generated_Source\PSoC5/ADC_SAR_B.c **** *  uint8: resolution
 600:Generated_Source\PSoC5/ADC_SAR_B.c **** *
 601:Generated_Source\PSoC5/ADC_SAR_B.c **** * Return:
ARM GAS  C:\Users\rens_\AppData\Local\Temp\ccsYVs7o.s 			page 12


 602:Generated_Source\PSoC5/ADC_SAR_B.c **** *  None.
 603:Generated_Source\PSoC5/ADC_SAR_B.c **** *
 604:Generated_Source\PSoC5/ADC_SAR_B.c **** * Global Variables:
 605:Generated_Source\PSoC5/ADC_SAR_B.c **** *  ADC_SAR_B_shift variable initialized. This variable is used to
 606:Generated_Source\PSoC5/ADC_SAR_B.c **** *  convert the ADC counts to the 2s compliment form.
 607:Generated_Source\PSoC5/ADC_SAR_B.c **** *  ADC_SAR_B_countsPer10Volt variable initialized. This variable is used
 608:Generated_Source\PSoC5/ADC_SAR_B.c **** *  for gain calibration purpose.
 609:Generated_Source\PSoC5/ADC_SAR_B.c **** *
 610:Generated_Source\PSoC5/ADC_SAR_B.c **** *******************************************************************************/
 611:Generated_Source\PSoC5/ADC_SAR_B.c **** static void ADC_SAR_B_CalcGain( uint8 resolution )
 612:Generated_Source\PSoC5/ADC_SAR_B.c **** {
  27              		.loc 1 612 0
  28              		.cfi_startproc
  29              		@ args = 0, pretend = 0, frame = 0
  30              		@ frame_needed = 0, uses_anonymous_args = 0
  31              	.LVL0:
  32 0000 08B5     		push	{r3, lr}
  33              		.cfi_def_cfa_offset 8
  34              		.cfi_offset 3, -8
  35              		.cfi_offset 14, -4
 613:Generated_Source\PSoC5/ADC_SAR_B.c ****     int32 counts;
 614:Generated_Source\PSoC5/ADC_SAR_B.c ****     #if(!((ADC_SAR_B_DEFAULT_RANGE == ADC_SAR_B__VSS_TO_VREF) || \
 615:Generated_Source\PSoC5/ADC_SAR_B.c ****          (ADC_SAR_B_DEFAULT_RANGE == ADC_SAR_B__VSSA_TO_VDDA) || \
 616:Generated_Source\PSoC5/ADC_SAR_B.c ****          (ADC_SAR_B_DEFAULT_RANGE == ADC_SAR_B__VSSA_TO_VDAC)) )
 617:Generated_Source\PSoC5/ADC_SAR_B.c ****         uint16 diff_zero;
 618:Generated_Source\PSoC5/ADC_SAR_B.c ****     #endif /* End ADC_SAR_B_DEFAULT_RANGE */
 619:Generated_Source\PSoC5/ADC_SAR_B.c **** 
 620:Generated_Source\PSoC5/ADC_SAR_B.c ****     switch (resolution)
  36              		.loc 1 620 0
  37 0002 0A28     		cmp	r0, #10
  38 0004 13D0     		beq	.L7
  39 0006 0C28     		cmp	r0, #12
  40 0008 02D0     		beq	.L4
  41 000a 0828     		cmp	r0, #8
  42 000c 09D1     		bne	.L8
  43 000e 04E0     		b	.L5
  44              	.L4:
 621:Generated_Source\PSoC5/ADC_SAR_B.c ****     {
 622:Generated_Source\PSoC5/ADC_SAR_B.c ****         case (uint8)ADC_SAR_B__BITS_12:
 623:Generated_Source\PSoC5/ADC_SAR_B.c ****             counts = (int32)ADC_SAR_B_SAR_WRK_MAX_12BIT;
 624:Generated_Source\PSoC5/ADC_SAR_B.c ****             #if(!((ADC_SAR_B_DEFAULT_RANGE == ADC_SAR_B__VSS_TO_VREF) || \
 625:Generated_Source\PSoC5/ADC_SAR_B.c ****                  (ADC_SAR_B_DEFAULT_RANGE == ADC_SAR_B__VSSA_TO_VDDA) || \
 626:Generated_Source\PSoC5/ADC_SAR_B.c ****                  (ADC_SAR_B_DEFAULT_RANGE == ADC_SAR_B__VSSA_TO_VDAC)) )
 627:Generated_Source\PSoC5/ADC_SAR_B.c ****                 diff_zero = ADC_SAR_B_SAR_DIFF_SHIFT;
  45              		.loc 1 627 0
  46 0010 4FF40062 		mov	r2, #2048
 623:Generated_Source\PSoC5/ADC_SAR_B.c ****             #if(!((ADC_SAR_B_DEFAULT_RANGE == ADC_SAR_B__VSS_TO_VREF) || \
  47              		.loc 1 623 0
  48 0014 4FF48051 		mov	r1, #4096
  49 0018 0DE0     		b	.L3
  50              	.L5:
  51              	.LVL1:
 628:Generated_Source\PSoC5/ADC_SAR_B.c ****             #endif /* End ADC_SAR_B_DEFAULT_RANGE */
 629:Generated_Source\PSoC5/ADC_SAR_B.c ****             break;
 630:Generated_Source\PSoC5/ADC_SAR_B.c ****         case (uint8)ADC_SAR_B__BITS_10:
 631:Generated_Source\PSoC5/ADC_SAR_B.c ****             counts = (int32)ADC_SAR_B_SAR_WRK_MAX_10BIT;
 632:Generated_Source\PSoC5/ADC_SAR_B.c ****             #if(!((ADC_SAR_B_DEFAULT_RANGE == ADC_SAR_B__VSS_TO_VREF) || \
ARM GAS  C:\Users\rens_\AppData\Local\Temp\ccsYVs7o.s 			page 13


 633:Generated_Source\PSoC5/ADC_SAR_B.c ****                  (ADC_SAR_B_DEFAULT_RANGE == ADC_SAR_B__VSSA_TO_VDDA) || \
 634:Generated_Source\PSoC5/ADC_SAR_B.c ****                  (ADC_SAR_B_DEFAULT_RANGE == ADC_SAR_B__VSSA_TO_VDAC)) )
 635:Generated_Source\PSoC5/ADC_SAR_B.c ****                 diff_zero = ADC_SAR_B_SAR_DIFF_SHIFT >> 2u;
 636:Generated_Source\PSoC5/ADC_SAR_B.c ****             #endif /* End ADC_SAR_B_DEFAULT_RANGE */
 637:Generated_Source\PSoC5/ADC_SAR_B.c ****             break;
 638:Generated_Source\PSoC5/ADC_SAR_B.c ****         case (uint8)ADC_SAR_B__BITS_8:
 639:Generated_Source\PSoC5/ADC_SAR_B.c ****             counts = (int32)ADC_SAR_B_SAR_WRK_MAX_8BIT;
 640:Generated_Source\PSoC5/ADC_SAR_B.c ****             #if(!((ADC_SAR_B_DEFAULT_RANGE == ADC_SAR_B__VSS_TO_VREF) || \
 641:Generated_Source\PSoC5/ADC_SAR_B.c ****                  (ADC_SAR_B_DEFAULT_RANGE == ADC_SAR_B__VSSA_TO_VDDA) || \
 642:Generated_Source\PSoC5/ADC_SAR_B.c ****                  (ADC_SAR_B_DEFAULT_RANGE == ADC_SAR_B__VSSA_TO_VDAC)) )
 643:Generated_Source\PSoC5/ADC_SAR_B.c ****                 diff_zero = ADC_SAR_B_SAR_DIFF_SHIFT >> 4u;
  52              		.loc 1 643 0
  53 001a 8022     		movs	r2, #128
 639:Generated_Source\PSoC5/ADC_SAR_B.c ****             #if(!((ADC_SAR_B_DEFAULT_RANGE == ADC_SAR_B__VSS_TO_VREF) || \
  54              		.loc 1 639 0
  55 001c 4FF48071 		mov	r1, #256
 644:Generated_Source\PSoC5/ADC_SAR_B.c ****             #endif /* End ADC_SAR_B_DEFAULT_RANGE */
 645:Generated_Source\PSoC5/ADC_SAR_B.c ****             break;
  56              		.loc 1 645 0
  57 0020 09E0     		b	.L3
  58              	.LVL2:
  59              	.L8:
 646:Generated_Source\PSoC5/ADC_SAR_B.c ****         default: /* Halt CPU in debug mode if resolution is out of valid range */
 647:Generated_Source\PSoC5/ADC_SAR_B.c ****             counts = 0;
 648:Generated_Source\PSoC5/ADC_SAR_B.c ****             #if(!((ADC_SAR_B_DEFAULT_RANGE == ADC_SAR_B__VSS_TO_VREF) || \
 649:Generated_Source\PSoC5/ADC_SAR_B.c ****                  (ADC_SAR_B_DEFAULT_RANGE == ADC_SAR_B__VSSA_TO_VDDA) || \
 650:Generated_Source\PSoC5/ADC_SAR_B.c ****                  (ADC_SAR_B_DEFAULT_RANGE == ADC_SAR_B__VSSA_TO_VDAC)) )
 651:Generated_Source\PSoC5/ADC_SAR_B.c ****                 diff_zero = 0u;
 652:Generated_Source\PSoC5/ADC_SAR_B.c ****             #endif /* End ADC_SAR_B_DEFAULT_RANGE */
 653:Generated_Source\PSoC5/ADC_SAR_B.c ****             CYASSERT(0u != 0u);
  60              		.loc 1 653 0
  61 0022 0020     		movs	r0, #0
  62              	.LVL3:
  63 0024 FFF7FEFF 		bl	CyHalt
  64              	.LVL4:
 651:Generated_Source\PSoC5/ADC_SAR_B.c ****             #endif /* End ADC_SAR_B_DEFAULT_RANGE */
  65              		.loc 1 651 0
  66 0028 0022     		movs	r2, #0
 647:Generated_Source\PSoC5/ADC_SAR_B.c ****             #if(!((ADC_SAR_B_DEFAULT_RANGE == ADC_SAR_B__VSS_TO_VREF) || \
  67              		.loc 1 647 0
  68 002a 1146     		mov	r1, r2
  69 002c 03E0     		b	.L3
  70              	.LVL5:
  71              	.L7:
 635:Generated_Source\PSoC5/ADC_SAR_B.c ****             #endif /* End ADC_SAR_B_DEFAULT_RANGE */
  72              		.loc 1 635 0
  73 002e 4FF40072 		mov	r2, #512
 631:Generated_Source\PSoC5/ADC_SAR_B.c ****             #if(!((ADC_SAR_B_DEFAULT_RANGE == ADC_SAR_B__VSS_TO_VREF) || \
  74              		.loc 1 631 0
  75 0032 4FF48061 		mov	r1, #1024
  76              	.LVL6:
  77              	.L3:
 654:Generated_Source\PSoC5/ADC_SAR_B.c ****             break;
 655:Generated_Source\PSoC5/ADC_SAR_B.c ****     }
 656:Generated_Source\PSoC5/ADC_SAR_B.c ****     ADC_SAR_B_countsPerVolt = 0; /* Clear obsolete variable */
  78              		.loc 1 656 0
  79 0036 0020     		movs	r0, #0
ARM GAS  C:\Users\rens_\AppData\Local\Temp\ccsYVs7o.s 			page 14


  80 0038 084B     		ldr	r3, .L10
  81 003a 1880     		strh	r0, [r3]	@ movhi
 657:Generated_Source\PSoC5/ADC_SAR_B.c ****     /* Calculate gain in counts per 10 volts with rounding */
 658:Generated_Source\PSoC5/ADC_SAR_B.c ****     ADC_SAR_B_countsPer10Volt = (((counts * ADC_SAR_B_10MV_COUNTS) +
  82              		.loc 1 658 0
  83 003c 42F21073 		movw	r3, #10000
  84 0040 03FB01F3 		mul	r3, r3, r1
 659:Generated_Source\PSoC5/ADC_SAR_B.c ****                         ADC_SAR_B_DEFAULT_REF_VOLTAGE_MV) / (ADC_SAR_B_DEFAULT_REF_VOLTAGE_MV * 2))
  85              		.loc 1 659 0
  86 0044 13F58063 		adds	r3, r3, #1024
  87 0048 01D5     		bpl	.L6
  88 004a 03F2FF73 		addw	r3, r3, #2047
  89              	.L6:
  90 004e DB12     		asrs	r3, r3, #11
 658:Generated_Source\PSoC5/ADC_SAR_B.c ****                         ADC_SAR_B_DEFAULT_REF_VOLTAGE_MV) / (ADC_SAR_B_DEFAULT_REF_VOLTAGE_MV * 2))
  91              		.loc 1 658 0
  92 0050 0349     		ldr	r1, .L10+4
  93              	.LVL7:
  94 0052 0B60     		str	r3, [r1]
 660:Generated_Source\PSoC5/ADC_SAR_B.c **** 
 661:Generated_Source\PSoC5/ADC_SAR_B.c ****     #if( (ADC_SAR_B_DEFAULT_RANGE == ADC_SAR_B__VSS_TO_VREF) || \
 662:Generated_Source\PSoC5/ADC_SAR_B.c ****          (ADC_SAR_B_DEFAULT_RANGE == ADC_SAR_B__VSSA_TO_VDDA) || \
 663:Generated_Source\PSoC5/ADC_SAR_B.c ****          (ADC_SAR_B_DEFAULT_RANGE == ADC_SAR_B__VSSA_TO_VDAC) )
 664:Generated_Source\PSoC5/ADC_SAR_B.c ****         ADC_SAR_B_shift = 0;
 665:Generated_Source\PSoC5/ADC_SAR_B.c ****     #else
 666:Generated_Source\PSoC5/ADC_SAR_B.c ****         ADC_SAR_B_shift = diff_zero;
  95              		.loc 1 666 0
  96 0054 12B2     		sxth	r2, r2
  97 0056 034B     		ldr	r3, .L10+8
  98 0058 1A80     		strh	r2, [r3]	@ movhi
  99 005a 08BD     		pop	{r3, pc}
 100              	.L11:
 101              		.align	2
 102              	.L10:
 103 005c 00000000 		.word	ADC_SAR_B_countsPerVolt
 104 0060 00000000 		.word	ADC_SAR_B_countsPer10Volt
 105 0064 00000000 		.word	ADC_SAR_B_shift
 106              		.cfi_endproc
 107              	.LFE12:
 108              		.size	ADC_SAR_B_CalcGain, .-ADC_SAR_B_CalcGain
 109              		.section	.text.ADC_SAR_B_Enable,"ax",%progbits
 110              		.align	2
 111              		.global	ADC_SAR_B_Enable
 112              		.thumb
 113              		.thumb_func
 114              		.type	ADC_SAR_B_Enable, %function
 115              	ADC_SAR_B_Enable:
 116              	.LFB2:
 144:Generated_Source\PSoC5/ADC_SAR_B.c ****     uint8 tmpReg;
 117              		.loc 1 144 0
 118              		.cfi_startproc
 119              		@ args = 0, pretend = 0, frame = 0
 120              		@ frame_needed = 0, uses_anonymous_args = 0
 121 0000 10B5     		push	{r4, lr}
 122              		.cfi_def_cfa_offset 8
 123              		.cfi_offset 4, -8
 124              		.cfi_offset 14, -4
ARM GAS  C:\Users\rens_\AppData\Local\Temp\ccsYVs7o.s 			page 15


 147:Generated_Source\PSoC5/ADC_SAR_B.c **** 
 125              		.loc 1 147 0
 126 0002 FFF7FEFF 		bl	CyEnterCriticalSection
 127              	.LVL8:
 128 0006 0446     		mov	r4, r0
 129              	.LVL9:
 150:Generated_Source\PSoC5/ADC_SAR_B.c **** 
 130              		.loc 1 150 0
 131 0008 1E4A     		ldr	r2, .L14
 132 000a 1378     		ldrb	r3, [r2]	@ zero_extendqisi2
 133 000c 43F00203 		orr	r3, r3, #2
 134 0010 1370     		strb	r3, [r2]
 153:Generated_Source\PSoC5/ADC_SAR_B.c **** 
 135              		.loc 1 153 0
 136 0012 1032     		adds	r2, r2, #16
 137 0014 1378     		ldrb	r3, [r2]	@ zero_extendqisi2
 138 0016 43F00203 		orr	r3, r3, #2
 139 001a 1370     		strb	r3, [r2]
 157:Generated_Source\PSoC5/ADC_SAR_B.c ****         ADC_SAR_B_STBY_PWRMGR_CLK_REG |= ADC_SAR_B_STBY_PWR_CLK_EN;
 140              		.loc 1 157 0
 141 001c 1A3A     		subs	r2, r2, #26
 142 001e 1378     		ldrb	r3, [r2]	@ zero_extendqisi2
 143 0020 43F00103 		orr	r3, r3, #1
 144 0024 1370     		strb	r3, [r2]
 158:Generated_Source\PSoC5/ADC_SAR_B.c ****     #endif /* End ADC_SAR_B_DEFAULT_INTERNAL_CLK */
 145              		.loc 1 158 0
 146 0026 1032     		adds	r2, r2, #16
 147 0028 1378     		ldrb	r3, [r2]	@ zero_extendqisi2
 148 002a 43F00103 		orr	r3, r3, #1
 149 002e 1370     		strb	r3, [r2]
 162:Generated_Source\PSoC5/ADC_SAR_B.c ****     tmpReg |= ADC_SAR_B_SAR_EN_BUF_VCM_EN;
 150              		.loc 1 162 0
 151 0030 02F5AA52 		add	r2, r2, #5440
 152 0034 1A32     		adds	r2, r2, #26
 153 0036 1378     		ldrb	r3, [r2]	@ zero_extendqisi2
 154              	.LVL10:
 169:Generated_Source\PSoC5/ADC_SAR_B.c ****     #endif /* ADC_SAR_B_DEFAULT_REFERENCE == ADC_SAR_B__EXT_REF */
 155              		.loc 1 169 0
 156 0038 43F00303 		orr	r3, r3, #3
 157              	.LVL11:
 171:Generated_Source\PSoC5/ADC_SAR_B.c **** 
 158              		.loc 1 171 0
 159 003c 1370     		strb	r3, [r2]
 182:Generated_Source\PSoC5/ADC_SAR_B.c ****         #else /* INTREF Bypassed of External */
 160              		.loc 1 182 0
 161 003e 1822     		movs	r2, #24
 162 0040 114B     		ldr	r3, .L14+4
 163              	.LVL12:
 164 0042 1A70     		strb	r2, [r3]
 165              	.LVL13:
 192:Generated_Source\PSoC5/ADC_SAR_B.c ****     #endif /* ADC_SAR_B_HIGH_POWER_PULSE == 0u */
 166              		.loc 1 192 0
 167 0044 013B     		subs	r3, r3, #1
 168 0046 1A78     		ldrb	r2, [r3]	@ zero_extendqisi2
 169 0048 42F04002 		orr	r2, r2, #64
 170 004c 1A70     		strb	r2, [r3]
 202:Generated_Source\PSoC5/ADC_SAR_B.c ****     #endif /* ADC_SAR_B_HIGH_POWER_PULSE == 0u */
ARM GAS  C:\Users\rens_\AppData\Local\Temp\ccsYVs7o.s 			page 16


 171              		.loc 1 202 0
 172 004e 1A78     		ldrb	r2, [r3]	@ zero_extendqisi2
 173 0050 02F0FC02 		and	r2, r2, #252
 174 0054 1A70     		strb	r2, [r3]
 206:Generated_Source\PSoC5/ADC_SAR_B.c ****     /* SAR_HIZ_CLEAR:   Should not be used for LP */
 175              		.loc 1 206 0
 176 0056 C822     		movs	r2, #200
 177 0058 053B     		subs	r3, r3, #5
 178 005a 1A70     		strb	r2, [r3]
 218:Generated_Source\PSoC5/ADC_SAR_B.c **** 
 179              		.loc 1 218 0
 180 005c 0222     		movs	r2, #2
 181 005e A3F59753 		sub	r3, r3, #4832
 182 0062 123B     		subs	r3, r3, #18
 183 0064 1A70     		strb	r2, [r3]
 221:Generated_Source\PSoC5/ADC_SAR_B.c **** 
 184              		.loc 1 221 0
 185 0066 094A     		ldr	r2, .L14+8
 186 0068 1378     		ldrb	r3, [r2]	@ zero_extendqisi2
 187 006a 43F00803 		orr	r3, r3, #8
 188 006e 1370     		strb	r3, [r2]
 223:Generated_Source\PSoC5/ADC_SAR_B.c **** 
 189              		.loc 1 223 0
 190 0070 0A20     		movs	r0, #10
 191 0072 FFF7FEFF 		bl	CyDelayUs
 192              	.LVL14:
 227:Generated_Source\PSoC5/ADC_SAR_B.c ****     #endif   /* End ADC_SAR_B_IRQ_REMOVE */
 193              		.loc 1 227 0
 194 0076 1022     		movs	r2, #16
 195 0078 054B     		ldr	r3, .L14+12
 196 007a 1A60     		str	r2, [r3]
 230:Generated_Source\PSoC5/ADC_SAR_B.c **** }
 197              		.loc 1 230 0
 198 007c 2046     		mov	r0, r4
 199 007e FFF7FEFF 		bl	CyExitCriticalSection
 200              	.LVL15:
 201 0082 10BD     		pop	{r4, pc}
 202              	.LVL16:
 203              	.L15:
 204              		.align	2
 205              	.L14:
 206 0084 AB430040 		.word	1073759147
 207 0088 0E590040 		.word	1073764622
 208 008c 2F5B0040 		.word	1073765167
 209 0090 80E200E0 		.word	-536812928
 210              		.cfi_endproc
 211              	.LFE2:
 212              		.size	ADC_SAR_B_Enable, .-ADC_SAR_B_Enable
 213              		.section	.text.ADC_SAR_B_Stop,"ax",%progbits
 214              		.align	2
 215              		.global	ADC_SAR_B_Stop
 216              		.thumb
 217              		.thumb_func
 218              		.type	ADC_SAR_B_Stop, %function
 219              	ADC_SAR_B_Stop:
 220              	.LFB3:
 249:Generated_Source\PSoC5/ADC_SAR_B.c ****     uint8 enableInterrupts;
ARM GAS  C:\Users\rens_\AppData\Local\Temp\ccsYVs7o.s 			page 17


 221              		.loc 1 249 0
 222              		.cfi_startproc
 223              		@ args = 0, pretend = 0, frame = 0
 224              		@ frame_needed = 0, uses_anonymous_args = 0
 225 0000 08B5     		push	{r3, lr}
 226              		.cfi_def_cfa_offset 8
 227              		.cfi_offset 3, -8
 228              		.cfi_offset 14, -4
 251:Generated_Source\PSoC5/ADC_SAR_B.c **** 
 229              		.loc 1 251 0
 230 0002 FFF7FEFF 		bl	CyEnterCriticalSection
 231              	.LVL17:
 254:Generated_Source\PSoC5/ADC_SAR_B.c ****     /* Disable the SAR ADC block in Active Power Mode */
 232              		.loc 1 254 0
 233 0006 0F4A     		ldr	r2, .L18
 234 0008 1378     		ldrb	r3, [r2]	@ zero_extendqisi2
 235 000a 03F0FE03 		and	r3, r3, #254
 236 000e 1370     		strb	r3, [r2]
 256:Generated_Source\PSoC5/ADC_SAR_B.c ****     /* Disable the SAR ADC in Standby Power Mode */
 237              		.loc 1 256 0
 238 0010 A2F5AA52 		sub	r2, r2, #5440
 239 0014 1D3A     		subs	r2, r2, #29
 240 0016 1378     		ldrb	r3, [r2]	@ zero_extendqisi2
 241 0018 03F0FD03 		and	r3, r3, #253
 242 001c 1370     		strb	r3, [r2]
 258:Generated_Source\PSoC5/ADC_SAR_B.c **** 
 243              		.loc 1 258 0
 244 001e 1032     		adds	r2, r2, #16
 245 0020 1378     		ldrb	r3, [r2]	@ zero_extendqisi2
 246 0022 03F0FD03 		and	r3, r3, #253
 247 0026 1370     		strb	r3, [r2]
 262:Generated_Source\PSoC5/ADC_SAR_B.c ****         ADC_SAR_B_STBY_PWRMGR_CLK_REG &= (uint8)~ADC_SAR_B_STBY_PWR_CLK_EN;
 248              		.loc 1 262 0
 249 0028 1A3A     		subs	r2, r2, #26
 250 002a 1378     		ldrb	r3, [r2]	@ zero_extendqisi2
 251 002c 03F0FE03 		and	r3, r3, #254
 252 0030 1370     		strb	r3, [r2]
 263:Generated_Source\PSoC5/ADC_SAR_B.c ****     #endif /* End ADC_SAR_B_DEFAULT_INTERNAL_CLK */
 253              		.loc 1 263 0
 254 0032 1032     		adds	r2, r2, #16
 255 0034 1378     		ldrb	r3, [r2]	@ zero_extendqisi2
 256 0036 03F0FE03 		and	r3, r3, #254
 257 003a 1370     		strb	r3, [r2]
 266:Generated_Source\PSoC5/ADC_SAR_B.c **** 
 258              		.loc 1 266 0
 259 003c FFF7FEFF 		bl	CyExitCriticalSection
 260              	.LVL18:
 261 0040 08BD     		pop	{r3, pc}
 262              	.L19:
 263 0042 00BF     		.align	2
 264              	.L18:
 265 0044 08590040 		.word	1073764616
 266              		.cfi_endproc
 267              	.LFE3:
 268              		.size	ADC_SAR_B_Stop, .-ADC_SAR_B_Stop
 269              		.section	.text.ADC_SAR_B_SetPower,"ax",%progbits
 270              		.align	2
ARM GAS  C:\Users\rens_\AppData\Local\Temp\ccsYVs7o.s 			page 18


 271              		.global	ADC_SAR_B_SetPower
 272              		.thumb
 273              		.thumb_func
 274              		.type	ADC_SAR_B_SetPower, %function
 275              	ADC_SAR_B_SetPower:
 276              	.LFB4:
 291:Generated_Source\PSoC5/ADC_SAR_B.c ****     uint8 tmpReg;
 277              		.loc 1 291 0
 278              		.cfi_startproc
 279              		@ args = 0, pretend = 0, frame = 0
 280              		@ frame_needed = 0, uses_anonymous_args = 0
 281              		@ link register save eliminated.
 282              	.LVL19:
 298:Generated_Source\PSoC5/ADC_SAR_B.c ****     tmpReg |= (uint8)(power << ADC_SAR_B_SAR_POWER_SHIFT);
 283              		.loc 1 298 0
 284 0000 044A     		ldr	r2, .L21
 285 0002 1378     		ldrb	r3, [r2]	@ zero_extendqisi2
 286 0004 03F03F03 		and	r3, r3, #63
 287              	.LVL20:
 299:Generated_Source\PSoC5/ADC_SAR_B.c ****     ADC_SAR_B_SAR_CSR0_REG = tmpReg;
 288              		.loc 1 299 0
 289 0008 43EA8010 		orr	r0, r3, r0, lsl #6
 290              	.LVL21:
 291 000c C0B2     		uxtb	r0, r0
 292              	.LVL22:
 300:Generated_Source\PSoC5/ADC_SAR_B.c **** }
 293              		.loc 1 300 0
 294 000e 1070     		strb	r0, [r2]
 295 0010 7047     		bx	lr
 296              	.L22:
 297 0012 00BF     		.align	2
 298              	.L21:
 299 0014 08590040 		.word	1073764616
 300              		.cfi_endproc
 301              	.LFE4:
 302              		.size	ADC_SAR_B_SetPower, .-ADC_SAR_B_SetPower
 303              		.section	.text.ADC_SAR_B_SetResolution,"ax",%progbits
 304              		.align	2
 305              		.global	ADC_SAR_B_SetResolution
 306              		.thumb
 307              		.thumb_func
 308              		.type	ADC_SAR_B_SetResolution, %function
 309              	ADC_SAR_B_SetResolution:
 310              	.LFB5:
 341:Generated_Source\PSoC5/ADC_SAR_B.c ****     uint8 tmpReg;
 311              		.loc 1 341 0
 312              		.cfi_startproc
 313              		@ args = 0, pretend = 0, frame = 0
 314              		@ frame_needed = 0, uses_anonymous_args = 0
 315              	.LVL23:
 316 0000 10B5     		push	{r4, lr}
 317              		.cfi_def_cfa_offset 8
 318              		.cfi_offset 4, -8
 319              		.cfi_offset 14, -4
 320 0002 0446     		mov	r4, r0
 345:Generated_Source\PSoC5/ADC_SAR_B.c ****     {
 321              		.loc 1 345 0
ARM GAS  C:\Users\rens_\AppData\Local\Temp\ccsYVs7o.s 			page 19


 322 0004 0A28     		cmp	r0, #10
 323 0006 0DD0     		beq	.L28
 324 0008 0C28     		cmp	r0, #12
 325 000a 02D0     		beq	.L26
 326 000c 0828     		cmp	r0, #8
 327 000e 04D1     		bne	.L29
 328 0010 01E0     		b	.L27
 329              	.L26:
 348:Generated_Source\PSoC5/ADC_SAR_B.c ****             break;
 330              		.loc 1 348 0
 331 0012 C222     		movs	r2, #194
 332 0014 07E0     		b	.L25
 333              	.L27:
 334              	.LVL24:
 354:Generated_Source\PSoC5/ADC_SAR_B.c ****             break;
 335              		.loc 1 354 0
 336 0016 4222     		movs	r2, #66
 355:Generated_Source\PSoC5/ADC_SAR_B.c ****         default:
 337              		.loc 1 355 0
 338 0018 05E0     		b	.L25
 339              	.LVL25:
 340              	.L29:
 359:Generated_Source\PSoC5/ADC_SAR_B.c ****             break;
 341              		.loc 1 359 0
 342 001a 0020     		movs	r0, #0
 343              	.LVL26:
 344 001c FFF7FEFF 		bl	CyHalt
 345              	.LVL27:
 357:Generated_Source\PSoC5/ADC_SAR_B.c ****             /* Halt CPU in debug mode if resolution is out of valid range */
 346              		.loc 1 357 0
 347 0020 C222     		movs	r2, #194
 348 0022 00E0     		b	.L25
 349              	.LVL28:
 350              	.L28:
 351:Generated_Source\PSoC5/ADC_SAR_B.c ****             break;
 351              		.loc 1 351 0
 352 0024 8222     		movs	r2, #130
 353              	.LVL29:
 354              	.L25:
 362:Generated_Source\PSoC5/ADC_SAR_B.c **** 
 355              		.loc 1 362 0
 356 0026 034B     		ldr	r3, .L31
 357 0028 1A70     		strb	r2, [r3]
 365:Generated_Source\PSoC5/ADC_SAR_B.c **** }
 358              		.loc 1 365 0
 359 002a 2046     		mov	r0, r4
 360 002c FFF7FEFF 		bl	ADC_SAR_B_CalcGain
 361              	.LVL30:
 362 0030 10BD     		pop	{r4, pc}
 363              	.L32:
 364 0032 00BF     		.align	2
 365              	.L31:
 366 0034 0A590040 		.word	1073764618
 367              		.cfi_endproc
 368              	.LFE5:
 369              		.size	ADC_SAR_B_SetResolution, .-ADC_SAR_B_SetResolution
 370              		.section	.text.ADC_SAR_B_Init,"ax",%progbits
ARM GAS  C:\Users\rens_\AppData\Local\Temp\ccsYVs7o.s 			page 20


 371              		.align	2
 372              		.global	ADC_SAR_B_Init
 373              		.thumb
 374              		.thumb_func
 375              		.type	ADC_SAR_B_Init, %function
 376              	ADC_SAR_B_Init:
 377              	.LFB1:
 107:Generated_Source\PSoC5/ADC_SAR_B.c **** 
 378              		.loc 1 107 0
 379              		.cfi_startproc
 380              		@ args = 0, pretend = 0, frame = 0
 381              		@ frame_needed = 0, uses_anonymous_args = 0
 382 0000 08B5     		push	{r3, lr}
 383              		.cfi_def_cfa_offset 8
 384              		.cfi_offset 3, -8
 385              		.cfi_offset 14, -4
 111:Generated_Source\PSoC5/ADC_SAR_B.c ****     #endif /* End ADC_SAR_B_DEFAULT_INTERNAL_CLK */
 386              		.loc 1 111 0
 387 0002 1020     		movs	r0, #16
 388 0004 FFF7FEFF 		bl	ADC_SAR_B_theACLK_SetModeRegister
 389              	.LVL31:
 116:Generated_Source\PSoC5/ADC_SAR_B.c ****         (void)CyIntSetVector(ADC_SAR_B_INTC_NUMBER, &ADC_SAR_B_ISR);
 390              		.loc 1 116 0
 391 0008 0721     		movs	r1, #7
 392 000a 0420     		movs	r0, #4
 393 000c FFF7FEFF 		bl	CyIntSetPriority
 394              	.LVL32:
 117:Generated_Source\PSoC5/ADC_SAR_B.c ****     #endif   /* End ADC_SAR_B_IRQ_REMOVE */
 395              		.loc 1 117 0
 396 0010 0749     		ldr	r1, .L35
 397 0012 0420     		movs	r0, #4
 398 0014 FFF7FEFF 		bl	CyIntSetVector
 399              	.LVL33:
 121:Generated_Source\PSoC5/ADC_SAR_B.c **** 
 400              		.loc 1 121 0
 401 0018 064A     		ldr	r2, .L35+4
 402 001a 1378     		ldrb	r3, [r2]	@ zero_extendqisi2
 403 001c 43F00603 		orr	r3, r3, #6
 404 0020 1370     		strb	r3, [r2]
 124:Generated_Source\PSoC5/ADC_SAR_B.c ****     ADC_SAR_B_offset = 0;
 405              		.loc 1 124 0
 406 0022 0C20     		movs	r0, #12
 407 0024 FFF7FEFF 		bl	ADC_SAR_B_SetResolution
 408              	.LVL34:
 125:Generated_Source\PSoC5/ADC_SAR_B.c **** }
 409              		.loc 1 125 0
 410 0028 0022     		movs	r2, #0
 411 002a 034B     		ldr	r3, .L35+8
 412 002c 1A80     		strh	r2, [r3]	@ movhi
 413 002e 08BD     		pop	{r3, pc}
 414              	.L36:
 415              		.align	2
 416              	.L35:
 417 0030 00000000 		.word	ADC_SAR_B_ISR
 418 0034 09590040 		.word	1073764617
 419 0038 00000000 		.word	ADC_SAR_B_offset
 420              		.cfi_endproc
ARM GAS  C:\Users\rens_\AppData\Local\Temp\ccsYVs7o.s 			page 21


 421              	.LFE1:
 422              		.size	ADC_SAR_B_Init, .-ADC_SAR_B_Init
 423              		.section	.text.ADC_SAR_B_Start,"ax",%progbits
 424              		.align	2
 425              		.global	ADC_SAR_B_Start
 426              		.thumb
 427              		.thumb_func
 428              		.type	ADC_SAR_B_Start, %function
 429              	ADC_SAR_B_Start:
 430              	.LFB0:
  75:Generated_Source\PSoC5/ADC_SAR_B.c **** 
 431              		.loc 1 75 0
 432              		.cfi_startproc
 433              		@ args = 0, pretend = 0, frame = 0
 434              		@ frame_needed = 0, uses_anonymous_args = 0
 435 0000 08B5     		push	{r3, lr}
 436              		.cfi_def_cfa_offset 8
 437              		.cfi_offset 3, -8
 438              		.cfi_offset 14, -4
  78:Generated_Source\PSoC5/ADC_SAR_B.c ****     {
 439              		.loc 1 78 0
 440 0002 054B     		ldr	r3, .L40
 441 0004 1B78     		ldrb	r3, [r3]	@ zero_extendqisi2
 442 0006 23B9     		cbnz	r3, .L38
  80:Generated_Source\PSoC5/ADC_SAR_B.c ****         ADC_SAR_B_initVar = 1u;
 443              		.loc 1 80 0
 444 0008 FFF7FEFF 		bl	ADC_SAR_B_Init
 445              	.LVL35:
  81:Generated_Source\PSoC5/ADC_SAR_B.c ****     }
 446              		.loc 1 81 0
 447 000c 0122     		movs	r2, #1
 448 000e 024B     		ldr	r3, .L40
 449 0010 1A70     		strb	r2, [r3]
 450              	.L38:
  83:Generated_Source\PSoC5/ADC_SAR_B.c **** }
 451              		.loc 1 83 0
 452 0012 FFF7FEFF 		bl	ADC_SAR_B_Enable
 453              	.LVL36:
 454 0016 08BD     		pop	{r3, pc}
 455              	.L41:
 456              		.align	2
 457              	.L40:
 458 0018 00000000 		.word	.LANCHOR0
 459              		.cfi_endproc
 460              	.LFE0:
 461              		.size	ADC_SAR_B_Start, .-ADC_SAR_B_Start
 462              		.section	.text.ADC_SAR_B_StartConvert,"ax",%progbits
 463              		.align	2
 464              		.global	ADC_SAR_B_StartConvert
 465              		.thumb
 466              		.thumb_func
 467              		.type	ADC_SAR_B_StartConvert, %function
 468              	ADC_SAR_B_StartConvert:
 469              	.LFB6:
 402:Generated_Source\PSoC5/ADC_SAR_B.c ****         #if(ADC_SAR_B_DEFAULT_CONV_MODE != ADC_SAR_B__FREE_RUNNING)  /* If software triggered mode 
 470              		.loc 1 402 0
 471              		.cfi_startproc
ARM GAS  C:\Users\rens_\AppData\Local\Temp\ccsYVs7o.s 			page 22


 472              		@ args = 0, pretend = 0, frame = 0
 473              		@ frame_needed = 0, uses_anonymous_args = 0
 474              		@ link register save eliminated.
 408:Generated_Source\PSoC5/ADC_SAR_B.c ****     }
 475              		.loc 1 408 0
 476 0000 024A     		ldr	r2, .L43
 477 0002 1378     		ldrb	r3, [r2]	@ zero_extendqisi2
 478 0004 43F00103 		orr	r3, r3, #1
 479 0008 1370     		strb	r3, [r2]
 480 000a 7047     		bx	lr
 481              	.L44:
 482              		.align	2
 483              	.L43:
 484 000c 08590040 		.word	1073764616
 485              		.cfi_endproc
 486              	.LFE6:
 487              		.size	ADC_SAR_B_StartConvert, .-ADC_SAR_B_StartConvert
 488              		.section	.text.ADC_SAR_B_StopConvert,"ax",%progbits
 489              		.align	2
 490              		.global	ADC_SAR_B_StopConvert
 491              		.thumb
 492              		.thumb_func
 493              		.type	ADC_SAR_B_StopConvert, %function
 494              	ADC_SAR_B_StopConvert:
 495              	.LFB7:
 436:Generated_Source\PSoC5/ADC_SAR_B.c ****         /* Stop all conversions */
 496              		.loc 1 436 0
 497              		.cfi_startproc
 498              		@ args = 0, pretend = 0, frame = 0
 499              		@ frame_needed = 0, uses_anonymous_args = 0
 500              		@ link register save eliminated.
 438:Generated_Source\PSoC5/ADC_SAR_B.c **** 
 501              		.loc 1 438 0
 502 0000 024A     		ldr	r2, .L46
 503 0002 1378     		ldrb	r3, [r2]	@ zero_extendqisi2
 504 0004 03F0FE03 		and	r3, r3, #254
 505 0008 1370     		strb	r3, [r2]
 506 000a 7047     		bx	lr
 507              	.L47:
 508              		.align	2
 509              	.L46:
 510 000c 08590040 		.word	1073764616
 511              		.cfi_endproc
 512              	.LFE7:
 513              		.size	ADC_SAR_B_StopConvert, .-ADC_SAR_B_StopConvert
 514              		.section	.text.ADC_SAR_B_IsEndConversion,"ax",%progbits
 515              		.align	2
 516              		.global	ADC_SAR_B_IsEndConversion
 517              		.thumb
 518              		.thumb_func
 519              		.type	ADC_SAR_B_IsEndConversion, %function
 520              	ADC_SAR_B_IsEndConversion:
 521              	.LFB8:
 476:Generated_Source\PSoC5/ADC_SAR_B.c ****     uint8 status;
 522              		.loc 1 476 0
 523              		.cfi_startproc
 524              		@ args = 0, pretend = 0, frame = 0
ARM GAS  C:\Users\rens_\AppData\Local\Temp\ccsYVs7o.s 			page 23


 525              		@ frame_needed = 0, uses_anonymous_args = 0
 526              	.LVL37:
 527 0000 10B5     		push	{r4, lr}
 528              		.cfi_def_cfa_offset 8
 529              		.cfi_offset 4, -8
 530              		.cfi_offset 14, -4
 531              	.L50:
 481:Generated_Source\PSoC5/ADC_SAR_B.c ****     } while ((status != ADC_SAR_B_SAR_EOF_1) && (retMode == ADC_SAR_B_WAIT_FOR_RESULT));
 532              		.loc 1 481 0 discriminator 2
 533 0002 074B     		ldr	r3, .L53
 534 0004 1B78     		ldrb	r3, [r3]	@ zero_extendqisi2
 535              	.LVL38:
 482:Generated_Source\PSoC5/ADC_SAR_B.c ****     /* If convertion complete, wait until EOF bit released */
 536              		.loc 1 482 0 discriminator 2
 537 0006 13F00104 		ands	r4, r3, #1
 538 000a 01D1     		bne	.L49
 482:Generated_Source\PSoC5/ADC_SAR_B.c ****     /* If convertion complete, wait until EOF bit released */
 539              		.loc 1 482 0 is_stmt 0 discriminator 1
 540 000c 0028     		cmp	r0, #0
 541 000e F8D0     		beq	.L50
 542              	.L49:
 484:Generated_Source\PSoC5/ADC_SAR_B.c ****     {
 543              		.loc 1 484 0 is_stmt 1
 544 0010 24B1     		cbz	r4, .L51
 487:Generated_Source\PSoC5/ADC_SAR_B.c ****         /* Do the unconditional read operation of the CSR1 register to make sure the EOC bit has be
 545              		.loc 1 487 0
 546 0012 0120     		movs	r0, #1
 547              	.LVL39:
 548 0014 FFF7FEFF 		bl	CyDelayUs
 549              	.LVL40:
 489:Generated_Source\PSoC5/ADC_SAR_B.c ****     }
 550              		.loc 1 489 0
 551 0018 014B     		ldr	r3, .L53
 552 001a 1B78     		ldrb	r3, [r3]	@ zero_extendqisi2
 553              	.L51:
 493:Generated_Source\PSoC5/ADC_SAR_B.c **** 
 554              		.loc 1 493 0
 555 001c 2046     		mov	r0, r4
 556 001e 10BD     		pop	{r4, pc}
 557              	.L54:
 558              		.align	2
 559              	.L53:
 560 0020 09590040 		.word	1073764617
 561              		.cfi_endproc
 562              	.LFE8:
 563              		.size	ADC_SAR_B_IsEndConversion, .-ADC_SAR_B_IsEndConversion
 564              		.section	.text.ADC_SAR_B_GetResult8,"ax",%progbits
 565              		.align	2
 566              		.global	ADC_SAR_B_GetResult8
 567              		.thumb
 568              		.thumb_func
 569              		.type	ADC_SAR_B_GetResult8, %function
 570              	ADC_SAR_B_GetResult8:
 571              	.LFB9:
 521:Generated_Source\PSoC5/ADC_SAR_B.c ****     return( (int8)ADC_SAR_B_SAR_WRK0_REG - (int8)ADC_SAR_B_shift);
 572              		.loc 1 521 0
 573              		.cfi_startproc
ARM GAS  C:\Users\rens_\AppData\Local\Temp\ccsYVs7o.s 			page 24


 574              		@ args = 0, pretend = 0, frame = 0
 575              		@ frame_needed = 0, uses_anonymous_args = 0
 576              		@ link register save eliminated.
 522:Generated_Source\PSoC5/ADC_SAR_B.c **** }
 577              		.loc 1 522 0
 578 0000 034B     		ldr	r3, .L56
 579 0002 1B78     		ldrb	r3, [r3]	@ zero_extendqisi2
 580 0004 034A     		ldr	r2, .L56+4
 581 0006 1088     		ldrh	r0, [r2]
 582 0008 00B2     		sxth	r0, r0
 583 000a 181A     		subs	r0, r3, r0
 523:Generated_Source\PSoC5/ADC_SAR_B.c **** 
 584              		.loc 1 523 0
 585 000c 40B2     		sxtb	r0, r0
 586 000e 7047     		bx	lr
 587              	.L57:
 588              		.align	2
 589              	.L56:
 590 0010 A25B0040 		.word	1073765282
 591 0014 00000000 		.word	ADC_SAR_B_shift
 592              		.cfi_endproc
 593              	.LFE9:
 594              		.size	ADC_SAR_B_GetResult8, .-ADC_SAR_B_GetResult8
 595              		.section	.text.ADC_SAR_B_GetResult16,"ax",%progbits
 596              		.align	2
 597              		.global	ADC_SAR_B_GetResult16
 598              		.thumb
 599              		.thumb_func
 600              		.type	ADC_SAR_B_GetResult16, %function
 601              	ADC_SAR_B_GetResult16:
 602              	.LFB10:
 551:Generated_Source\PSoC5/ADC_SAR_B.c ****     uint16 res;
 603              		.loc 1 551 0
 604              		.cfi_startproc
 605              		@ args = 0, pretend = 0, frame = 0
 606              		@ frame_needed = 0, uses_anonymous_args = 0
 607              		@ link register save eliminated.
 554:Generated_Source\PSoC5/ADC_SAR_B.c **** 
 608              		.loc 1 554 0
 609 0000 034B     		ldr	r3, .L59
 610 0002 1888     		ldrh	r0, [r3]
 611 0004 80B2     		uxth	r0, r0
 612              	.LVL41:
 556:Generated_Source\PSoC5/ADC_SAR_B.c **** }
 613              		.loc 1 556 0
 614 0006 034B     		ldr	r3, .L59+4
 615 0008 1B88     		ldrh	r3, [r3]
 616 000a C01A     		subs	r0, r0, r3
 617              	.LVL42:
 557:Generated_Source\PSoC5/ADC_SAR_B.c **** 
 618              		.loc 1 557 0
 619 000c 00B2     		sxth	r0, r0
 620 000e 7047     		bx	lr
 621              	.L60:
 622              		.align	2
 623              	.L59:
 624 0010 A25B0040 		.word	1073765282
ARM GAS  C:\Users\rens_\AppData\Local\Temp\ccsYVs7o.s 			page 25


 625 0014 00000000 		.word	ADC_SAR_B_shift
 626              		.cfi_endproc
 627              	.LFE10:
 628              		.size	ADC_SAR_B_GetResult16, .-ADC_SAR_B_GetResult16
 629              		.section	.text.ADC_SAR_B_SetOffset,"ax",%progbits
 630              		.align	2
 631              		.global	ADC_SAR_B_SetOffset
 632              		.thumb
 633              		.thumb_func
 634              		.type	ADC_SAR_B_SetOffset, %function
 635              	ADC_SAR_B_SetOffset:
 636              	.LFB11:
 586:Generated_Source\PSoC5/ADC_SAR_B.c ****     ADC_SAR_B_offset = offset;
 637              		.loc 1 586 0
 638              		.cfi_startproc
 639              		@ args = 0, pretend = 0, frame = 0
 640              		@ frame_needed = 0, uses_anonymous_args = 0
 641              		@ link register save eliminated.
 642              	.LVL43:
 587:Generated_Source\PSoC5/ADC_SAR_B.c **** }
 643              		.loc 1 587 0
 644 0000 014B     		ldr	r3, .L62
 645 0002 1880     		strh	r0, [r3]	@ movhi
 646 0004 7047     		bx	lr
 647              	.L63:
 648 0006 00BF     		.align	2
 649              	.L62:
 650 0008 00000000 		.word	ADC_SAR_B_offset
 651              		.cfi_endproc
 652              	.LFE11:
 653              		.size	ADC_SAR_B_SetOffset, .-ADC_SAR_B_SetOffset
 654              		.section	.text.ADC_SAR_B_SetGain,"ax",%progbits
 655              		.align	2
 656              		.global	ADC_SAR_B_SetGain
 657              		.thumb
 658              		.thumb_func
 659              		.type	ADC_SAR_B_SetGain, %function
 660              	ADC_SAR_B_SetGain:
 661              	.LFB13:
 667:Generated_Source\PSoC5/ADC_SAR_B.c ****     #endif /* End ADC_SAR_B_DEFAULT_RANGE */
 668:Generated_Source\PSoC5/ADC_SAR_B.c **** }
 669:Generated_Source\PSoC5/ADC_SAR_B.c **** 
 670:Generated_Source\PSoC5/ADC_SAR_B.c **** 
 671:Generated_Source\PSoC5/ADC_SAR_B.c **** /*******************************************************************************
 672:Generated_Source\PSoC5/ADC_SAR_B.c **** * Function Name: ADC_SAR_B_SetGain
 673:Generated_Source\PSoC5/ADC_SAR_B.c **** ********************************************************************************
 674:Generated_Source\PSoC5/ADC_SAR_B.c **** *
 675:Generated_Source\PSoC5/ADC_SAR_B.c **** * Summary:
 676:Generated_Source\PSoC5/ADC_SAR_B.c **** *  Sets the ADC gain in counts per volt for the voltage conversion functions
 677:Generated_Source\PSoC5/ADC_SAR_B.c **** *  that follow. This value is set by default by the reference and input range
 678:Generated_Source\PSoC5/ADC_SAR_B.c **** *  settings. It should only be used to further calibrate the ADC with a known
 679:Generated_Source\PSoC5/ADC_SAR_B.c **** *  input or if the ADC is using an external reference.
 680:Generated_Source\PSoC5/ADC_SAR_B.c **** *
 681:Generated_Source\PSoC5/ADC_SAR_B.c **** * Parameters:
 682:Generated_Source\PSoC5/ADC_SAR_B.c **** *  int16 adcGain counts per volt
 683:Generated_Source\PSoC5/ADC_SAR_B.c **** *
 684:Generated_Source\PSoC5/ADC_SAR_B.c **** * Return:
ARM GAS  C:\Users\rens_\AppData\Local\Temp\ccsYVs7o.s 			page 26


 685:Generated_Source\PSoC5/ADC_SAR_B.c **** *  None.
 686:Generated_Source\PSoC5/ADC_SAR_B.c **** *
 687:Generated_Source\PSoC5/ADC_SAR_B.c **** * Global Variables:
 688:Generated_Source\PSoC5/ADC_SAR_B.c **** *  ADC_SAR_B_countsPer10Volt variable modified. This variable is used
 689:Generated_Source\PSoC5/ADC_SAR_B.c **** *  for gain calibration purpose.
 690:Generated_Source\PSoC5/ADC_SAR_B.c **** *
 691:Generated_Source\PSoC5/ADC_SAR_B.c **** *******************************************************************************/
 692:Generated_Source\PSoC5/ADC_SAR_B.c **** void ADC_SAR_B_SetGain(int16 adcGain)
 693:Generated_Source\PSoC5/ADC_SAR_B.c **** {
 662              		.loc 1 693 0
 663              		.cfi_startproc
 664              		@ args = 0, pretend = 0, frame = 0
 665              		@ frame_needed = 0, uses_anonymous_args = 0
 666              		@ link register save eliminated.
 667              	.LVL44:
 694:Generated_Source\PSoC5/ADC_SAR_B.c ****     ADC_SAR_B_countsPer10Volt = (int32)adcGain * 10;
 668              		.loc 1 694 0
 669 0000 00EB8000 		add	r0, r0, r0, lsl #2
 670              	.LVL45:
 671 0004 4300     		lsls	r3, r0, #1
 672 0006 014A     		ldr	r2, .L65
 673 0008 1360     		str	r3, [r2]
 674 000a 7047     		bx	lr
 675              	.L66:
 676              		.align	2
 677              	.L65:
 678 000c 00000000 		.word	ADC_SAR_B_countsPer10Volt
 679              		.cfi_endproc
 680              	.LFE13:
 681              		.size	ADC_SAR_B_SetGain, .-ADC_SAR_B_SetGain
 682              		.section	.text.ADC_SAR_B_SetScaledGain,"ax",%progbits
 683              		.align	2
 684              		.global	ADC_SAR_B_SetScaledGain
 685              		.thumb
 686              		.thumb_func
 687              		.type	ADC_SAR_B_SetScaledGain, %function
 688              	ADC_SAR_B_SetScaledGain:
 689              	.LFB14:
 695:Generated_Source\PSoC5/ADC_SAR_B.c **** }
 696:Generated_Source\PSoC5/ADC_SAR_B.c **** 
 697:Generated_Source\PSoC5/ADC_SAR_B.c **** 
 698:Generated_Source\PSoC5/ADC_SAR_B.c **** /*******************************************************************************
 699:Generated_Source\PSoC5/ADC_SAR_B.c **** * Function Name: ADC_SAR_B_SetScaledGain
 700:Generated_Source\PSoC5/ADC_SAR_B.c **** ********************************************************************************
 701:Generated_Source\PSoC5/ADC_SAR_B.c **** *
 702:Generated_Source\PSoC5/ADC_SAR_B.c **** * Summary:
 703:Generated_Source\PSoC5/ADC_SAR_B.c **** *  Sets the ADC gain in counts per 10 volt for the voltage conversion functions
 704:Generated_Source\PSoC5/ADC_SAR_B.c **** *  that follow. This value is set by default by the reference and input range
 705:Generated_Source\PSoC5/ADC_SAR_B.c **** *  settings. It should only be used to further calibrate the ADC with a known
 706:Generated_Source\PSoC5/ADC_SAR_B.c **** *  input or if the ADC is using an external reference.
 707:Generated_Source\PSoC5/ADC_SAR_B.c **** *
 708:Generated_Source\PSoC5/ADC_SAR_B.c **** * Parameters:
 709:Generated_Source\PSoC5/ADC_SAR_B.c **** *  int32 adcGain  counts per 10 volt
 710:Generated_Source\PSoC5/ADC_SAR_B.c **** *
 711:Generated_Source\PSoC5/ADC_SAR_B.c **** * Return:
 712:Generated_Source\PSoC5/ADC_SAR_B.c **** *  None.
 713:Generated_Source\PSoC5/ADC_SAR_B.c **** *
ARM GAS  C:\Users\rens_\AppData\Local\Temp\ccsYVs7o.s 			page 27


 714:Generated_Source\PSoC5/ADC_SAR_B.c **** * Global Variables:
 715:Generated_Source\PSoC5/ADC_SAR_B.c **** *  ADC_SAR_B_countsPer10Volt variable modified. This variable is used
 716:Generated_Source\PSoC5/ADC_SAR_B.c **** *  for gain calibration purpose.
 717:Generated_Source\PSoC5/ADC_SAR_B.c **** *
 718:Generated_Source\PSoC5/ADC_SAR_B.c **** *******************************************************************************/
 719:Generated_Source\PSoC5/ADC_SAR_B.c **** void ADC_SAR_B_SetScaledGain(int32 adcGain)
 720:Generated_Source\PSoC5/ADC_SAR_B.c **** {
 690              		.loc 1 720 0
 691              		.cfi_startproc
 692              		@ args = 0, pretend = 0, frame = 0
 693              		@ frame_needed = 0, uses_anonymous_args = 0
 694              		@ link register save eliminated.
 695              	.LVL46:
 721:Generated_Source\PSoC5/ADC_SAR_B.c ****     ADC_SAR_B_countsPer10Volt = adcGain;
 696              		.loc 1 721 0
 697 0000 014B     		ldr	r3, .L68
 698 0002 1860     		str	r0, [r3]
 699 0004 7047     		bx	lr
 700              	.L69:
 701 0006 00BF     		.align	2
 702              	.L68:
 703 0008 00000000 		.word	ADC_SAR_B_countsPer10Volt
 704              		.cfi_endproc
 705              	.LFE14:
 706              		.size	ADC_SAR_B_SetScaledGain, .-ADC_SAR_B_SetScaledGain
 707              		.section	.text.ADC_SAR_B_CountsTo_mVolts,"ax",%progbits
 708              		.align	2
 709              		.global	ADC_SAR_B_CountsTo_mVolts
 710              		.thumb
 711              		.thumb_func
 712              		.type	ADC_SAR_B_CountsTo_mVolts, %function
 713              	ADC_SAR_B_CountsTo_mVolts:
 714              	.LFB15:
 722:Generated_Source\PSoC5/ADC_SAR_B.c **** }
 723:Generated_Source\PSoC5/ADC_SAR_B.c **** 
 724:Generated_Source\PSoC5/ADC_SAR_B.c **** 
 725:Generated_Source\PSoC5/ADC_SAR_B.c **** /*******************************************************************************
 726:Generated_Source\PSoC5/ADC_SAR_B.c **** * Function Name: ADC_SAR_B_CountsTo_mVolts
 727:Generated_Source\PSoC5/ADC_SAR_B.c **** ********************************************************************************
 728:Generated_Source\PSoC5/ADC_SAR_B.c **** *
 729:Generated_Source\PSoC5/ADC_SAR_B.c **** * Summary:
 730:Generated_Source\PSoC5/ADC_SAR_B.c **** *  Converts the ADC output to millivolts as a 16-bit integer.
 731:Generated_Source\PSoC5/ADC_SAR_B.c **** *
 732:Generated_Source\PSoC5/ADC_SAR_B.c **** * Parameters:
 733:Generated_Source\PSoC5/ADC_SAR_B.c **** *  int16 adcCounts:  Result from the ADC conversion
 734:Generated_Source\PSoC5/ADC_SAR_B.c **** *
 735:Generated_Source\PSoC5/ADC_SAR_B.c **** * Return:
 736:Generated_Source\PSoC5/ADC_SAR_B.c **** *  int16 Result in mVolts
 737:Generated_Source\PSoC5/ADC_SAR_B.c **** *
 738:Generated_Source\PSoC5/ADC_SAR_B.c **** * Global Variables:
 739:Generated_Source\PSoC5/ADC_SAR_B.c **** *  ADC_SAR_B_offset variable used.
 740:Generated_Source\PSoC5/ADC_SAR_B.c **** *  ADC_SAR_B_countsPer10Volt variable used.
 741:Generated_Source\PSoC5/ADC_SAR_B.c **** *
 742:Generated_Source\PSoC5/ADC_SAR_B.c **** *******************************************************************************/
 743:Generated_Source\PSoC5/ADC_SAR_B.c **** int16 ADC_SAR_B_CountsTo_mVolts(int16 adcCounts)
 744:Generated_Source\PSoC5/ADC_SAR_B.c **** {
 715              		.loc 1 744 0
ARM GAS  C:\Users\rens_\AppData\Local\Temp\ccsYVs7o.s 			page 28


 716              		.cfi_startproc
 717              		@ args = 0, pretend = 0, frame = 0
 718              		@ frame_needed = 0, uses_anonymous_args = 0
 719              		@ link register save eliminated.
 720              	.LVL47:
 721 0000 10B4     		push	{r4}
 722              		.cfi_def_cfa_offset 4
 723              		.cfi_offset 4, -4
 745:Generated_Source\PSoC5/ADC_SAR_B.c ****     int16 mVolts;
 746:Generated_Source\PSoC5/ADC_SAR_B.c ****     int32 countsPer10Volt;
 747:Generated_Source\PSoC5/ADC_SAR_B.c **** 
 748:Generated_Source\PSoC5/ADC_SAR_B.c ****     if(ADC_SAR_B_countsPerVolt != 0)
 724              		.loc 1 748 0
 725 0002 124B     		ldr	r3, .L76
 726 0004 1B88     		ldrh	r3, [r3]
 727 0006 1BB2     		sxth	r3, r3
 728 0008 33B1     		cbz	r3, .L71
 749:Generated_Source\PSoC5/ADC_SAR_B.c ****     {   /* Support obsolete method */
 750:Generated_Source\PSoC5/ADC_SAR_B.c ****         countsPer10Volt = (int32)ADC_SAR_B_countsPerVolt * 10;
 729              		.loc 1 750 0
 730 000a 104B     		ldr	r3, .L76
 731 000c 1B88     		ldrh	r3, [r3]
 732 000e 1BB2     		sxth	r3, r3
 733 0010 03EB8303 		add	r3, r3, r3, lsl #2
 734 0014 5C00     		lsls	r4, r3, #1
 735              	.LVL48:
 736 0016 01E0     		b	.L72
 737              	.LVL49:
 738              	.L71:
 751:Generated_Source\PSoC5/ADC_SAR_B.c ****     }
 752:Generated_Source\PSoC5/ADC_SAR_B.c ****     else
 753:Generated_Source\PSoC5/ADC_SAR_B.c ****     {
 754:Generated_Source\PSoC5/ADC_SAR_B.c ****         countsPer10Volt = ADC_SAR_B_countsPer10Volt;
 739              		.loc 1 754 0
 740 0018 0D4B     		ldr	r3, .L76+4
 741 001a 1C68     		ldr	r4, [r3]
 742              	.LVL50:
 743              	.L72:
 755:Generated_Source\PSoC5/ADC_SAR_B.c ****     }
 756:Generated_Source\PSoC5/ADC_SAR_B.c **** 
 757:Generated_Source\PSoC5/ADC_SAR_B.c ****     /* Subtract ADC offset */
 758:Generated_Source\PSoC5/ADC_SAR_B.c ****     adcCounts -= ADC_SAR_B_offset;
 744              		.loc 1 758 0
 745 001c 0D4B     		ldr	r3, .L76+8
 746 001e 1988     		ldrh	r1, [r3]
 747 0020 411A     		subs	r1, r0, r1
 748 0022 09B2     		sxth	r1, r1
 749              	.LVL51:
 759:Generated_Source\PSoC5/ADC_SAR_B.c ****     /* Convert to millivolts with rounding */
 760:Generated_Source\PSoC5/ADC_SAR_B.c ****     mVolts = (int16)( (( (int32)adcCounts * ADC_SAR_B_10MV_COUNTS ) + ( (adcCounts > 0) ?
 750              		.loc 1 760 0
 751 0024 42F21073 		movw	r3, #10000
 752 0028 03FB01F2 		mul	r2, r3, r1
 761:Generated_Source\PSoC5/ADC_SAR_B.c ****                        (countsPer10Volt / 2) : (-(countsPer10Volt / 2)) )) / countsPer10Volt);
 753              		.loc 1 761 0
 754 002c 0029     		cmp	r1, #0
 755 002e 03DD     		ble	.L73
ARM GAS  C:\Users\rens_\AppData\Local\Temp\ccsYVs7o.s 			page 29


 756              		.loc 1 761 0 is_stmt 0 discriminator 1
 757 0030 04EBD470 		add	r0, r4, r4, lsr #31
 758 0034 4010     		asrs	r0, r0, #1
 759 0036 03E0     		b	.L74
 760              	.L73:
 761              		.loc 1 761 0 discriminator 2
 762 0038 04EBD470 		add	r0, r4, r4, lsr #31
 763 003c 4010     		asrs	r0, r0, #1
 764 003e 4042     		negs	r0, r0
 765              	.L74:
 760:Generated_Source\PSoC5/ADC_SAR_B.c ****                        (countsPer10Volt / 2) : (-(countsPer10Volt / 2)) )) / countsPer10Volt);
 766              		.loc 1 760 0 is_stmt 1
 767 0040 8318     		adds	r3, r0, r2
 768              		.loc 1 761 0
 769 0042 93FBF4F0 		sdiv	r0, r3, r4
 770              	.LVL52:
 762:Generated_Source\PSoC5/ADC_SAR_B.c **** 
 763:Generated_Source\PSoC5/ADC_SAR_B.c ****     return( mVolts );
 764:Generated_Source\PSoC5/ADC_SAR_B.c **** }
 771              		.loc 1 764 0
 772 0046 00B2     		sxth	r0, r0
 773 0048 10BC     		pop	{r4}
 774              		.cfi_restore 4
 775              		.cfi_def_cfa_offset 0
 776              	.LVL53:
 777 004a 7047     		bx	lr
 778              	.L77:
 779              		.align	2
 780              	.L76:
 781 004c 00000000 		.word	ADC_SAR_B_countsPerVolt
 782 0050 00000000 		.word	ADC_SAR_B_countsPer10Volt
 783 0054 00000000 		.word	ADC_SAR_B_offset
 784              		.cfi_endproc
 785              	.LFE15:
 786              		.size	ADC_SAR_B_CountsTo_mVolts, .-ADC_SAR_B_CountsTo_mVolts
 787              		.global	__aeabi_ldivmod
 788              		.section	.text.ADC_SAR_B_CountsTo_uVolts,"ax",%progbits
 789              		.align	2
 790              		.global	ADC_SAR_B_CountsTo_uVolts
 791              		.thumb
 792              		.thumb_func
 793              		.type	ADC_SAR_B_CountsTo_uVolts, %function
 794              	ADC_SAR_B_CountsTo_uVolts:
 795              	.LFB16:
 765:Generated_Source\PSoC5/ADC_SAR_B.c **** 
 766:Generated_Source\PSoC5/ADC_SAR_B.c **** 
 767:Generated_Source\PSoC5/ADC_SAR_B.c **** /*******************************************************************************
 768:Generated_Source\PSoC5/ADC_SAR_B.c **** * Function Name: ADC_SAR_B_CountsTo_uVolts
 769:Generated_Source\PSoC5/ADC_SAR_B.c **** ********************************************************************************
 770:Generated_Source\PSoC5/ADC_SAR_B.c **** *
 771:Generated_Source\PSoC5/ADC_SAR_B.c **** * Summary:
 772:Generated_Source\PSoC5/ADC_SAR_B.c **** *  Converts the ADC output to microvolts as a 32-bit integer.
 773:Generated_Source\PSoC5/ADC_SAR_B.c **** *
 774:Generated_Source\PSoC5/ADC_SAR_B.c **** * Parameters:
 775:Generated_Source\PSoC5/ADC_SAR_B.c **** *  int16 adcCounts: Result from the ADC conversion
 776:Generated_Source\PSoC5/ADC_SAR_B.c **** *
 777:Generated_Source\PSoC5/ADC_SAR_B.c **** * Return:
ARM GAS  C:\Users\rens_\AppData\Local\Temp\ccsYVs7o.s 			page 30


 778:Generated_Source\PSoC5/ADC_SAR_B.c **** *  int32 Result in micro Volts
 779:Generated_Source\PSoC5/ADC_SAR_B.c **** *
 780:Generated_Source\PSoC5/ADC_SAR_B.c **** * Global Variables:
 781:Generated_Source\PSoC5/ADC_SAR_B.c **** *  ADC_SAR_B_offset variable used.
 782:Generated_Source\PSoC5/ADC_SAR_B.c **** *  ADC_SAR_B_countsPer10Volt used to convert ADC counts to uVolts.
 783:Generated_Source\PSoC5/ADC_SAR_B.c **** *
 784:Generated_Source\PSoC5/ADC_SAR_B.c **** *******************************************************************************/
 785:Generated_Source\PSoC5/ADC_SAR_B.c **** int32 ADC_SAR_B_CountsTo_uVolts(int16 adcCounts)
 786:Generated_Source\PSoC5/ADC_SAR_B.c **** {
 796              		.loc 1 786 0
 797              		.cfi_startproc
 798              		@ args = 0, pretend = 0, frame = 0
 799              		@ frame_needed = 0, uses_anonymous_args = 0
 800              	.LVL54:
 801 0000 38B5     		push	{r3, r4, r5, lr}
 802              		.cfi_def_cfa_offset 16
 803              		.cfi_offset 3, -16
 804              		.cfi_offset 4, -12
 805              		.cfi_offset 5, -8
 806              		.cfi_offset 14, -4
 787:Generated_Source\PSoC5/ADC_SAR_B.c **** 
 788:Generated_Source\PSoC5/ADC_SAR_B.c ****     int64 uVolts;
 789:Generated_Source\PSoC5/ADC_SAR_B.c ****     int32 countsPer10Volt;
 790:Generated_Source\PSoC5/ADC_SAR_B.c **** 
 791:Generated_Source\PSoC5/ADC_SAR_B.c ****     if(ADC_SAR_B_countsPerVolt != 0)
 807              		.loc 1 791 0
 808 0002 0D4B     		ldr	r3, .L82
 809 0004 1B88     		ldrh	r3, [r3]
 810 0006 1BB2     		sxth	r3, r3
 811 0008 33B1     		cbz	r3, .L79
 792:Generated_Source\PSoC5/ADC_SAR_B.c ****     {   /* Support obsolete method */
 793:Generated_Source\PSoC5/ADC_SAR_B.c ****         countsPer10Volt = (int32)ADC_SAR_B_countsPerVolt * 10;
 812              		.loc 1 793 0
 813 000a 0B4B     		ldr	r3, .L82
 814 000c 1B88     		ldrh	r3, [r3]
 815 000e 1BB2     		sxth	r3, r3
 816 0010 03EB8303 		add	r3, r3, r3, lsl #2
 817 0014 5A00     		lsls	r2, r3, #1
 818              	.LVL55:
 819 0016 01E0     		b	.L80
 820              	.LVL56:
 821              	.L79:
 794:Generated_Source\PSoC5/ADC_SAR_B.c ****     }
 795:Generated_Source\PSoC5/ADC_SAR_B.c ****     else
 796:Generated_Source\PSoC5/ADC_SAR_B.c ****     {
 797:Generated_Source\PSoC5/ADC_SAR_B.c ****         countsPer10Volt = ADC_SAR_B_countsPer10Volt;
 822              		.loc 1 797 0
 823 0018 084B     		ldr	r3, .L82+4
 824 001a 1A68     		ldr	r2, [r3]
 825              	.LVL57:
 826              	.L80:
 798:Generated_Source\PSoC5/ADC_SAR_B.c ****     }
 799:Generated_Source\PSoC5/ADC_SAR_B.c **** 
 800:Generated_Source\PSoC5/ADC_SAR_B.c ****     /* Subtract ADC offset */
 801:Generated_Source\PSoC5/ADC_SAR_B.c ****     adcCounts -= ADC_SAR_B_offset;
 827              		.loc 1 801 0
 828 001c 084B     		ldr	r3, .L82+8
ARM GAS  C:\Users\rens_\AppData\Local\Temp\ccsYVs7o.s 			page 31


 829 001e 1C88     		ldrh	r4, [r3]
 830 0020 041B     		subs	r4, r0, r4
 831              	.LVL58:
 802:Generated_Source\PSoC5/ADC_SAR_B.c ****     /* To convert adcCounts to microVolts it is required to be multiplied
 803:Generated_Source\PSoC5/ADC_SAR_B.c ****     *  on 10 million and later divide on gain in counts per 10V.
 804:Generated_Source\PSoC5/ADC_SAR_B.c ****     */
 805:Generated_Source\PSoC5/ADC_SAR_B.c ****     uVolts = (( (int64)adcCounts * ADC_SAR_B_10UV_COUNTS ) / countsPer10Volt);
 832              		.loc 1 805 0
 833 0022 24B2     		sxth	r4, r4
 834 0024 E517     		asrs	r5, r4, #31
 835 0026 074B     		ldr	r3, .L82+12
 836 0028 A4FB0301 		umull	r0, r1, r4, r3
 837 002c 03FB0511 		mla	r1, r3, r5, r1
 838 0030 D317     		asrs	r3, r2, #31
 839 0032 FFF7FEFF 		bl	__aeabi_ldivmod
 840              	.LVL59:
 806:Generated_Source\PSoC5/ADC_SAR_B.c **** 
 807:Generated_Source\PSoC5/ADC_SAR_B.c ****     return((int32) uVolts );
 808:Generated_Source\PSoC5/ADC_SAR_B.c **** }
 841              		.loc 1 808 0
 842 0036 38BD     		pop	{r3, r4, r5, pc}
 843              	.LVL60:
 844              	.L83:
 845              		.align	2
 846              	.L82:
 847 0038 00000000 		.word	ADC_SAR_B_countsPerVolt
 848 003c 00000000 		.word	ADC_SAR_B_countsPer10Volt
 849 0040 00000000 		.word	ADC_SAR_B_offset
 850 0044 80969800 		.word	10000000
 851              		.cfi_endproc
 852              	.LFE16:
 853              		.size	ADC_SAR_B_CountsTo_uVolts, .-ADC_SAR_B_CountsTo_uVolts
 854              		.global	__aeabi_i2f
 855              		.global	__aeabi_fmul
 856              		.global	__aeabi_fdiv
 857              		.section	.text.ADC_SAR_B_CountsTo_Volts,"ax",%progbits
 858              		.align	2
 859              		.global	ADC_SAR_B_CountsTo_Volts
 860              		.thumb
 861              		.thumb_func
 862              		.type	ADC_SAR_B_CountsTo_Volts, %function
 863              	ADC_SAR_B_CountsTo_Volts:
 864              	.LFB17:
 809:Generated_Source\PSoC5/ADC_SAR_B.c **** 
 810:Generated_Source\PSoC5/ADC_SAR_B.c **** 
 811:Generated_Source\PSoC5/ADC_SAR_B.c **** /*******************************************************************************
 812:Generated_Source\PSoC5/ADC_SAR_B.c **** * Function Name: ADC_SAR_B_CountsTo_Volts
 813:Generated_Source\PSoC5/ADC_SAR_B.c **** ********************************************************************************
 814:Generated_Source\PSoC5/ADC_SAR_B.c **** *
 815:Generated_Source\PSoC5/ADC_SAR_B.c **** * Summary:
 816:Generated_Source\PSoC5/ADC_SAR_B.c **** *  Converts the ADC output to volts as a floating-point number.
 817:Generated_Source\PSoC5/ADC_SAR_B.c **** *
 818:Generated_Source\PSoC5/ADC_SAR_B.c **** * Parameters:
 819:Generated_Source\PSoC5/ADC_SAR_B.c **** *  int16 adcCounts: Result from the ADC conversion
 820:Generated_Source\PSoC5/ADC_SAR_B.c **** *
 821:Generated_Source\PSoC5/ADC_SAR_B.c **** * Return:
 822:Generated_Source\PSoC5/ADC_SAR_B.c **** *  float Result in Volts
ARM GAS  C:\Users\rens_\AppData\Local\Temp\ccsYVs7o.s 			page 32


 823:Generated_Source\PSoC5/ADC_SAR_B.c **** *
 824:Generated_Source\PSoC5/ADC_SAR_B.c **** * Global Variables:
 825:Generated_Source\PSoC5/ADC_SAR_B.c **** *  ADC_SAR_B_offset variable used.
 826:Generated_Source\PSoC5/ADC_SAR_B.c **** *  ADC_SAR_B_countsPer10Volt used to convert ADC counts to Volts.
 827:Generated_Source\PSoC5/ADC_SAR_B.c **** *
 828:Generated_Source\PSoC5/ADC_SAR_B.c **** *******************************************************************************/
 829:Generated_Source\PSoC5/ADC_SAR_B.c **** float32 ADC_SAR_B_CountsTo_Volts(int16 adcCounts)
 830:Generated_Source\PSoC5/ADC_SAR_B.c **** {
 865              		.loc 1 830 0
 866              		.cfi_startproc
 867              		@ args = 0, pretend = 0, frame = 0
 868              		@ frame_needed = 0, uses_anonymous_args = 0
 869              	.LVL61:
 870 0000 38B5     		push	{r3, r4, r5, lr}
 871              		.cfi_def_cfa_offset 16
 872              		.cfi_offset 3, -16
 873              		.cfi_offset 4, -12
 874              		.cfi_offset 5, -8
 875              		.cfi_offset 14, -4
 831:Generated_Source\PSoC5/ADC_SAR_B.c ****     float32 volts;
 832:Generated_Source\PSoC5/ADC_SAR_B.c ****     int32 countsPer10Volt;
 833:Generated_Source\PSoC5/ADC_SAR_B.c **** 
 834:Generated_Source\PSoC5/ADC_SAR_B.c ****     if(ADC_SAR_B_countsPerVolt != 0)
 876              		.loc 1 834 0
 877 0002 0F4B     		ldr	r3, .L88
 878 0004 1B88     		ldrh	r3, [r3]
 879 0006 1BB2     		sxth	r3, r3
 880 0008 33B1     		cbz	r3, .L85
 835:Generated_Source\PSoC5/ADC_SAR_B.c ****     {   /* Support obsolete method */
 836:Generated_Source\PSoC5/ADC_SAR_B.c ****         countsPer10Volt = (int32)ADC_SAR_B_countsPerVolt * 10;
 881              		.loc 1 836 0
 882 000a 0D4B     		ldr	r3, .L88
 883 000c 1B88     		ldrh	r3, [r3]
 884 000e 1BB2     		sxth	r3, r3
 885 0010 03EB8303 		add	r3, r3, r3, lsl #2
 886 0014 5C00     		lsls	r4, r3, #1
 887              	.LVL62:
 888 0016 01E0     		b	.L86
 889              	.LVL63:
 890              	.L85:
 837:Generated_Source\PSoC5/ADC_SAR_B.c ****     }
 838:Generated_Source\PSoC5/ADC_SAR_B.c ****     else
 839:Generated_Source\PSoC5/ADC_SAR_B.c ****     {
 840:Generated_Source\PSoC5/ADC_SAR_B.c ****         countsPer10Volt = ADC_SAR_B_countsPer10Volt;
 891              		.loc 1 840 0
 892 0018 0A4B     		ldr	r3, .L88+4
 893 001a 1C68     		ldr	r4, [r3]
 894              	.LVL64:
 895              	.L86:
 841:Generated_Source\PSoC5/ADC_SAR_B.c ****     }
 842:Generated_Source\PSoC5/ADC_SAR_B.c **** 
 843:Generated_Source\PSoC5/ADC_SAR_B.c ****     /* Subtract ADC offset */
 844:Generated_Source\PSoC5/ADC_SAR_B.c ****     adcCounts -= ADC_SAR_B_offset;
 896              		.loc 1 844 0
 897 001c 0A4B     		ldr	r3, .L88+8
 898 001e 1B88     		ldrh	r3, [r3]
 899 0020 C01A     		subs	r0, r0, r3
ARM GAS  C:\Users\rens_\AppData\Local\Temp\ccsYVs7o.s 			page 33


 900              	.LVL65:
 845:Generated_Source\PSoC5/ADC_SAR_B.c **** 
 846:Generated_Source\PSoC5/ADC_SAR_B.c ****     volts = ((float32)adcCounts * ADC_SAR_B_10V_COUNTS) / (float32)countsPer10Volt;
 901              		.loc 1 846 0
 902 0022 00B2     		sxth	r0, r0
 903 0024 FFF7FEFF 		bl	__aeabi_i2f
 904              	.LVL66:
 905 0028 0849     		ldr	r1, .L88+12
 906 002a FFF7FEFF 		bl	__aeabi_fmul
 907              	.LVL67:
 908 002e 0546     		mov	r5, r0
 909 0030 2046     		mov	r0, r4
 910 0032 FFF7FEFF 		bl	__aeabi_i2f
 911              	.LVL68:
 912 0036 0146     		mov	r1, r0
 913 0038 2846     		mov	r0, r5
 914 003a FFF7FEFF 		bl	__aeabi_fdiv
 915              	.LVL69:
 847:Generated_Source\PSoC5/ADC_SAR_B.c **** 
 848:Generated_Source\PSoC5/ADC_SAR_B.c ****     return( volts );
 849:Generated_Source\PSoC5/ADC_SAR_B.c **** }
 916              		.loc 1 849 0
 917 003e 38BD     		pop	{r3, r4, r5, pc}
 918              	.LVL70:
 919              	.L89:
 920              		.align	2
 921              	.L88:
 922 0040 00000000 		.word	ADC_SAR_B_countsPerVolt
 923 0044 00000000 		.word	ADC_SAR_B_countsPer10Volt
 924 0048 00000000 		.word	ADC_SAR_B_offset
 925 004c 00002041 		.word	1092616192
 926              		.cfi_endproc
 927              	.LFE17:
 928              		.size	ADC_SAR_B_CountsTo_Volts, .-ADC_SAR_B_CountsTo_Volts
 929              		.comm	ADC_SAR_B_shift,2,2
 930              		.comm	ADC_SAR_B_countsPer10Volt,4,4
 931              		.comm	ADC_SAR_B_countsPerVolt,2,2
 932              		.comm	ADC_SAR_B_offset,2,2
 933              		.global	ADC_SAR_B_initVar
 934              		.bss
 935              		.set	.LANCHOR0,. + 0
 936              		.type	ADC_SAR_B_initVar, %object
 937              		.size	ADC_SAR_B_initVar, 1
 938              	ADC_SAR_B_initVar:
 939 0000 00       		.space	1
 940              		.text
 941              	.Letext0:
 942              		.file 2 "Generated_Source\\PSoC5\\cytypes.h"
 943              		.file 3 "Generated_Source\\PSoC5\\CyLib.h"
 944              		.file 4 "Generated_Source\\PSoC5\\ADC_SAR_B_theACLK.h"