ARM GAS  C:\Users\rens_\AppData\Local\Temp\ccA49XBn.s 			page 1


   1              		.syntax unified
   2              		.cpu cortex-m3
   3              		.fpu softvfp
   4              		.eabi_attribute 20, 1
   5              		.eabi_attribute 21, 1
   6              		.eabi_attribute 23, 3
   7              		.eabi_attribute 24, 1
   8              		.eabi_attribute 25, 1
   9              		.eabi_attribute 26, 1
  10              		.eabi_attribute 30, 1
  11              		.eabi_attribute 34, 1
  12              		.eabi_attribute 18, 4
  13              		.thumb
  14              		.syntax unified
  15              		.file	"main.c"
  16              		.text
  17              	.Ltext0:
  18              		.cfi_sections	.debug_frame
  19              		.section	.text.ISR_A_Handler,"ax",%progbits
  20              		.align	2
  21              		.global	ISR_A_Handler
  22              		.thumb
  23              		.thumb_func
  24              		.type	ISR_A_Handler, %function
  25              	ISR_A_Handler:
  26              	.LFB65:
  27              		.file 1 "main.c"
   1:main.c        **** #include "project.h"
   2:main.c        **** 
   3:main.c        **** #include <stdio.h>
   4:main.c        **** 
   5:main.c        **** #define DATA_SIZE 200 // sampling for 0.5ms at 400kHz
   6:main.c        **** 
   7:main.c        **** uint16_t DataA[DATA_SIZE];
   8:main.c        **** uint16_t DataB[DATA_SIZE];
   9:main.c        **** 
  10:main.c        **** #define DMA_A_BYTES_PER_BURST 2
  11:main.c        **** #define DMA_A_REQUEST_PER_BURST 0
  12:main.c        **** #define DMA_A_SRC_BASE (CYDEV_PERIPH_BASE)
  13:main.c        **** #define DMA_A_DST_BASE (CYDEV_SRAM_BASE)
  14:main.c        **** 
  15:main.c        **** #define DMA_B_BYTES_PER_BURST 2
  16:main.c        **** #define DMA_B_REQUEST_PER_BURST 0
  17:main.c        **** #define DMA_B_SRC_BASE (CYDEV_PERIPH_BASE)
  18:main.c        **** #define DMA_B_DST_BASE (CYDEV_SRAM_BASE)
  19:main.c        **** 
  20:main.c        **** uint8 DMA_A_Chan;
  21:main.c        **** uint8 DMA_A_TD[1];
  22:main.c        **** 
  23:main.c        **** uint8 DMA_B_Chan;
  24:main.c        **** uint8 DMA_B_TD[1];
  25:main.c        **** 
  26:main.c        **** uint8_t ISR_A_done, ISR_B_done;
  27:main.c        **** 
  28:main.c        **** CY_ISR(ISR_START_Handler)
  29:main.c        **** {
  30:main.c        ****     UART_PutString("Ayy\n");
ARM GAS  C:\Users\rens_\AppData\Local\Temp\ccA49XBn.s 			page 2


  31:main.c        ****     Control_Reg_Write(0x01);
  32:main.c        ****     CyDmaChEnable(DMA_A_Chan, 1);
  33:main.c        ****     CyDmaChEnable(DMA_B_Chan, 1);
  34:main.c        **** }
  35:main.c        **** 
  36:main.c        **** CY_ISR(ISR_A_Handler)
  37:main.c        **** {
  28              		.loc 1 37 0
  29              		.cfi_startproc
  30              		@ args = 0, pretend = 0, frame = 0
  31              		@ frame_needed = 0, uses_anonymous_args = 0
  32              		@ link register save eliminated.
  38:main.c        ****     ISR_A_done = 1;
  33              		.loc 1 38 0
  34 0000 0122     		movs	r2, #1
  35 0002 014B     		ldr	r3, .L2
  36 0004 1A70     		strb	r2, [r3]
  37 0006 7047     		bx	lr
  38              	.L3:
  39              		.align	2
  40              	.L2:
  41 0008 00000000 		.word	ISR_A_done
  42              		.cfi_endproc
  43              	.LFE65:
  44              		.size	ISR_A_Handler, .-ISR_A_Handler
  45              		.section	.text.ISR_B_Handler,"ax",%progbits
  46              		.align	2
  47              		.global	ISR_B_Handler
  48              		.thumb
  49              		.thumb_func
  50              		.type	ISR_B_Handler, %function
  51              	ISR_B_Handler:
  52              	.LFB66:
  39:main.c        **** }
  40:main.c        **** 
  41:main.c        **** CY_ISR(ISR_B_Handler)
  42:main.c        **** {
  53              		.loc 1 42 0
  54              		.cfi_startproc
  55              		@ args = 0, pretend = 0, frame = 0
  56              		@ frame_needed = 0, uses_anonymous_args = 0
  57              		@ link register save eliminated.
  43:main.c        ****     ISR_B_done = 1;
  58              		.loc 1 43 0
  59 0000 0122     		movs	r2, #1
  60 0002 014B     		ldr	r3, .L5
  61 0004 1A70     		strb	r2, [r3]
  62 0006 7047     		bx	lr
  63              	.L6:
  64              		.align	2
  65              	.L5:
  66 0008 00000000 		.word	ISR_B_done
  67              		.cfi_endproc
  68              	.LFE66:
  69              		.size	ISR_B_Handler, .-ISR_B_Handler
  70              		.section	.text.ISR_START_Handler,"ax",%progbits
  71              		.align	2
ARM GAS  C:\Users\rens_\AppData\Local\Temp\ccA49XBn.s 			page 3


  72              		.global	ISR_START_Handler
  73              		.thumb
  74              		.thumb_func
  75              		.type	ISR_START_Handler, %function
  76              	ISR_START_Handler:
  77              	.LFB64:
  29:main.c        ****     UART_PutString("Ayy\n");
  78              		.loc 1 29 0
  79              		.cfi_startproc
  80              		@ args = 0, pretend = 0, frame = 0
  81              		@ frame_needed = 0, uses_anonymous_args = 0
  82 0000 08B5     		push	{r3, lr}
  83              		.cfi_def_cfa_offset 8
  84              		.cfi_offset 3, -8
  85              		.cfi_offset 14, -4
  30:main.c        ****     Control_Reg_Write(0x01);
  86              		.loc 1 30 0
  87 0002 0848     		ldr	r0, .L9
  88 0004 FFF7FEFF 		bl	UART_PutString
  89              	.LVL0:
  31:main.c        ****     CyDmaChEnable(DMA_A_Chan, 1);
  90              		.loc 1 31 0
  91 0008 0120     		movs	r0, #1
  92 000a FFF7FEFF 		bl	Control_Reg_Write
  93              	.LVL1:
  32:main.c        ****     CyDmaChEnable(DMA_B_Chan, 1);
  94              		.loc 1 32 0
  95 000e 0121     		movs	r1, #1
  96 0010 054B     		ldr	r3, .L9+4
  97 0012 1878     		ldrb	r0, [r3]	@ zero_extendqisi2
  98 0014 FFF7FEFF 		bl	CyDmaChEnable
  99              	.LVL2:
  33:main.c        **** }
 100              		.loc 1 33 0
 101 0018 0121     		movs	r1, #1
 102 001a 044B     		ldr	r3, .L9+8
 103 001c 1878     		ldrb	r0, [r3]	@ zero_extendqisi2
 104 001e FFF7FEFF 		bl	CyDmaChEnable
 105              	.LVL3:
 106 0022 08BD     		pop	{r3, pc}
 107              	.L10:
 108              		.align	2
 109              	.L9:
 110 0024 00000000 		.word	.LC0
 111 0028 00000000 		.word	DMA_A_Chan
 112 002c 00000000 		.word	DMA_B_Chan
 113              		.cfi_endproc
 114              	.LFE64:
 115              		.size	ISR_START_Handler, .-ISR_START_Handler
 116              		.section	.text.main,"ax",%progbits
 117              		.align	2
 118              		.global	main
 119              		.thumb
 120              		.thumb_func
 121              		.type	main, %function
 122              	main:
 123              	.LFB67:
ARM GAS  C:\Users\rens_\AppData\Local\Temp\ccA49XBn.s 			page 4


  44:main.c        **** }
  45:main.c        **** 
  46:main.c        **** int main(void)
  47:main.c        **** {
 124              		.loc 1 47 0
 125              		.cfi_startproc
 126              		@ Volatile: function does not return.
 127              		@ args = 0, pretend = 0, frame = 0
 128              		@ frame_needed = 0, uses_anonymous_args = 0
 129 0000 08B5     		push	{r3, lr}
 130              		.cfi_def_cfa_offset 8
 131              		.cfi_offset 3, -8
 132              		.cfi_offset 14, -4
  48:main.c        ****     
  49:main.c        ****     UART_Start();
 133              		.loc 1 49 0
 134 0002 FFF7FEFF 		bl	UART_Start
 135              	.LVL4:
  50:main.c        ****     Clock_1_Start();
 136              		.loc 1 50 0
 137 0006 FFF7FEFF 		bl	Clock_1_Start
 138              	.LVL5:
  51:main.c        ****     Clock_In_Start();
 139              		.loc 1 51 0
 140 000a FFF7FEFF 		bl	Clock_In_Start
 141              	.LVL6:
  52:main.c        ****     Sample_Hold_A_Start();
 142              		.loc 1 52 0
 143 000e FFF7FEFF 		bl	Sample_Hold_A_Start
 144              	.LVL7:
  53:main.c        ****     Sample_Hold_B_Start();
 145              		.loc 1 53 0
 146 0012 FFF7FEFF 		bl	Sample_Hold_B_Start
 147              	.LVL8:
  54:main.c        ****     ADC_SAR_A_Start();
 148              		.loc 1 54 0
 149 0016 FFF7FEFF 		bl	ADC_SAR_A_Start
 150              	.LVL9:
  55:main.c        ****     ADC_SAR_B_Start();
 151              		.loc 1 55 0
 152 001a FFF7FEFF 		bl	ADC_SAR_B_Start
 153              	.LVL10:
  56:main.c        ****     ADC_SAR_A_IRQ_Disable();
 154              		.loc 1 56 0
 155 001e FFF7FEFF 		bl	ADC_SAR_A_IRQ_Disable
 156              	.LVL11:
  57:main.c        ****     ADC_SAR_B_IRQ_Disable();
 157              		.loc 1 57 0
 158 0022 FFF7FEFF 		bl	ADC_SAR_B_IRQ_Disable
 159              	.LVL12:
  58:main.c        ****     Comp_A_Start();
 160              		.loc 1 58 0
 161 0026 FFF7FEFF 		bl	Comp_A_Start
 162              	.LVL13:
  59:main.c        ****     Comp_B_Start();
 163              		.loc 1 59 0
 164 002a FFF7FEFF 		bl	Comp_B_Start
ARM GAS  C:\Users\rens_\AppData\Local\Temp\ccA49XBn.s 			page 5


 165              	.LVL14:
  60:main.c        ****     Control_Reg_Write(0x02);
 166              		.loc 1 60 0
 167 002e 0220     		movs	r0, #2
 168 0030 FFF7FEFF 		bl	Control_Reg_Write
 169              	.LVL15:
  61:main.c        ****     ISR_START_StartEx(ISR_START_Handler);
 170              		.loc 1 61 0
 171 0034 3748     		ldr	r0, .L16
 172 0036 FFF7FEFF 		bl	ISR_START_StartEx
 173              	.LVL16:
  62:main.c        ****     ISR_A_StartEx(ISR_A_Handler);
 174              		.loc 1 62 0
 175 003a 3748     		ldr	r0, .L16+4
 176 003c FFF7FEFF 		bl	ISR_A_StartEx
 177              	.LVL17:
  63:main.c        ****     ISR_B_StartEx(ISR_B_Handler);
 178              		.loc 1 63 0
 179 0040 3648     		ldr	r0, .L16+8
 180 0042 FFF7FEFF 		bl	ISR_B_StartEx
 181              	.LVL18:
  64:main.c        ****     CyGlobalIntEnable;
 182              		.loc 1 64 0
 183              		.syntax unified
 184              	@ 64 "main.c" 1
 185 0046 62B6     		CPSIE   i
 186              	@ 0 "" 2
  65:main.c        **** 
  66:main.c        ****     DMA_A_Chan = DMA_A_DmaInitialize(DMA_A_BYTES_PER_BURST, DMA_A_REQUEST_PER_BURST, 
 187              		.loc 1 66 0
 188              		.thumb
 189              		.syntax unified
 190 0048 41F6FF73 		movw	r3, #8191
 191 004c 4FF48042 		mov	r2, #16384
 192 0050 0021     		movs	r1, #0
 193 0052 0220     		movs	r0, #2
 194 0054 FFF7FEFF 		bl	DMA_A_DmaInitialize
 195              	.LVL19:
 196 0058 314C     		ldr	r4, .L16+12
 197 005a 2070     		strb	r0, [r4]
  67:main.c        ****         HI16(DMA_A_SRC_BASE), HI16(DMA_A_DST_BASE));
  68:main.c        ****     DMA_A_TD[0] = CyDmaTdAllocate();
 198              		.loc 1 68 0
 199 005c FFF7FEFF 		bl	CyDmaTdAllocate
 200              	.LVL20:
 201 0060 304D     		ldr	r5, .L16+16
 202 0062 2870     		strb	r0, [r5]
  69:main.c        ****     CyDmaTdSetConfiguration(DMA_A_TD[0], 200, CY_DMA_DISABLE_TD, DMA_A__TD_TERMOUT_EN | CY_DMA_TD_I
 203              		.loc 1 69 0
 204 0064 2623     		movs	r3, #38
 205 0066 FE22     		movs	r2, #254
 206 0068 C821     		movs	r1, #200
 207 006a FFF7FEFF 		bl	CyDmaTdSetConfiguration
 208              	.LVL21:
  70:main.c        ****     CyDmaTdSetAddress(DMA_A_TD[0], LO16((uint32)ADC_SAR_A_SAR_WRK0_PTR), LO16((uint32)DataA));
 209              		.loc 1 70 0
 210 006e 2E4A     		ldr	r2, .L16+20
ARM GAS  C:\Users\rens_\AppData\Local\Temp\ccA49XBn.s 			page 6


 211 0070 92B2     		uxth	r2, r2
 212 0072 45F6A031 		movw	r1, #23456
 213 0076 2878     		ldrb	r0, [r5]	@ zero_extendqisi2
 214 0078 FFF7FEFF 		bl	CyDmaTdSetAddress
 215              	.LVL22:
  71:main.c        ****     CyDmaChSetInitialTd(DMA_A_Chan, DMA_A_TD[0]);
 216              		.loc 1 71 0
 217 007c 2978     		ldrb	r1, [r5]	@ zero_extendqisi2
 218 007e 2078     		ldrb	r0, [r4]	@ zero_extendqisi2
 219 0080 FFF7FEFF 		bl	CyDmaChSetInitialTd
 220              	.LVL23:
  72:main.c        ****     CyDmaChEnable(DMA_A_Chan, 1);
 221              		.loc 1 72 0
 222 0084 0121     		movs	r1, #1
 223 0086 2078     		ldrb	r0, [r4]	@ zero_extendqisi2
 224 0088 FFF7FEFF 		bl	CyDmaChEnable
 225              	.LVL24:
  73:main.c        **** 
  74:main.c        ****     
  75:main.c        ****     DMA_B_Chan = DMA_B_DmaInitialize(DMA_B_BYTES_PER_BURST, DMA_B_REQUEST_PER_BURST, 
 226              		.loc 1 75 0
 227 008c 41F6FF73 		movw	r3, #8191
 228 0090 4FF48042 		mov	r2, #16384
 229 0094 0021     		movs	r1, #0
 230 0096 0220     		movs	r0, #2
 231 0098 FFF7FEFF 		bl	DMA_B_DmaInitialize
 232              	.LVL25:
 233 009c 234C     		ldr	r4, .L16+24
 234 009e 2070     		strb	r0, [r4]
  76:main.c        ****         HI16(DMA_B_SRC_BASE), HI16(DMA_B_DST_BASE));
  77:main.c        ****     DMA_B_TD[0] = CyDmaTdAllocate();
 235              		.loc 1 77 0
 236 00a0 FFF7FEFF 		bl	CyDmaTdAllocate
 237              	.LVL26:
 238 00a4 224D     		ldr	r5, .L16+28
 239 00a6 2870     		strb	r0, [r5]
  78:main.c        ****     CyDmaTdSetConfiguration(DMA_B_TD[0], 200, CY_DMA_DISABLE_TD, DMA_B__TD_TERMOUT_EN | CY_DMA_TD_I
 240              		.loc 1 78 0
 241 00a8 2623     		movs	r3, #38
 242 00aa FE22     		movs	r2, #254
 243 00ac C821     		movs	r1, #200
 244 00ae FFF7FEFF 		bl	CyDmaTdSetConfiguration
 245              	.LVL27:
  79:main.c        ****     CyDmaTdSetAddress(DMA_B_TD[0], LO16((uint32)ADC_SAR_B_SAR_WRK0_PTR), LO16((uint32)DataB));
 246              		.loc 1 79 0
 247 00b2 204A     		ldr	r2, .L16+32
 248 00b4 92B2     		uxth	r2, r2
 249 00b6 45F6A231 		movw	r1, #23458
 250 00ba 2878     		ldrb	r0, [r5]	@ zero_extendqisi2
 251 00bc FFF7FEFF 		bl	CyDmaTdSetAddress
 252              	.LVL28:
  80:main.c        ****     CyDmaChSetInitialTd(DMA_B_Chan, DMA_B_TD[0]);
 253              		.loc 1 80 0
 254 00c0 2978     		ldrb	r1, [r5]	@ zero_extendqisi2
 255 00c2 2078     		ldrb	r0, [r4]	@ zero_extendqisi2
 256 00c4 FFF7FEFF 		bl	CyDmaChSetInitialTd
 257              	.LVL29:
ARM GAS  C:\Users\rens_\AppData\Local\Temp\ccA49XBn.s 			page 7


  81:main.c        ****     CyDmaChEnable(DMA_B_Chan, 1);
 258              		.loc 1 81 0
 259 00c8 0121     		movs	r1, #1
 260 00ca 2078     		ldrb	r0, [r4]	@ zero_extendqisi2
 261 00cc FFF7FEFF 		bl	CyDmaChEnable
 262              	.LVL30:
  82:main.c        ****     
  83:main.c        ****     char output[100];
  84:main.c        ****     
  85:main.c        ****     ADC_SAR_A_StartConvert();
 263              		.loc 1 85 0
 264 00d0 FFF7FEFF 		bl	ADC_SAR_A_StartConvert
 265              	.LVL31:
  86:main.c        ****     ADC_SAR_B_StartConvert();
 266              		.loc 1 86 0
 267 00d4 FFF7FEFF 		bl	ADC_SAR_B_StartConvert
 268              	.LVL32:
 269              	.L12:
  87:main.c        **** 
  88:main.c        ****     for(;;)
  89:main.c        ****     {
  90:main.c        ****         //sprintf(output, "Comp_A=%d, Comp_B=%d, Control_Reg=%d, Status_Reg=%d\n", Comp_A_GetCompar
  91:main.c        ****         //UART_PutString(output);
  92:main.c        ****         if (ISR_A_done && ISR_B_done) {
 270              		.loc 1 92 0
 271 00d8 174B     		ldr	r3, .L16+36
 272 00da 1B78     		ldrb	r3, [r3]	@ zero_extendqisi2
 273 00dc 002B     		cmp	r3, #0
 274 00de FBD0     		beq	.L12
 275              		.loc 1 92 0 is_stmt 0 discriminator 1
 276 00e0 164B     		ldr	r3, .L16+40
 277 00e2 1B78     		ldrb	r3, [r3]	@ zero_extendqisi2
 278 00e4 002B     		cmp	r3, #0
 279 00e6 F7D0     		beq	.L12
  93:main.c        ****             ISR_A_done = ISR_B_done = 0;
 280              		.loc 1 93 0 is_stmt 1
 281 00e8 0023     		movs	r3, #0
 282 00ea 144A     		ldr	r2, .L16+40
 283 00ec 1370     		strb	r3, [r2]
 284 00ee 124A     		ldr	r2, .L16+36
 285 00f0 1370     		strb	r3, [r2]
  94:main.c        ****             Control_Reg_Write(0x02);
 286              		.loc 1 94 0
 287 00f2 0220     		movs	r0, #2
 288 00f4 FFF7FEFF 		bl	Control_Reg_Write
 289              	.LVL33:
  95:main.c        ****             //sprintf(output, "Entered\n");
  96:main.c        ****             //UART_PutString(output);
  97:main.c        ****             UART_PutArray(DataB, 400);
 290              		.loc 1 97 0
 291 00f8 9021     		movs	r1, #144
 292 00fa 0E48     		ldr	r0, .L16+32
 293 00fc FFF7FEFF 		bl	UART_PutArray
 294              	.LVL34:
  98:main.c        ****             CyDmaChDisable(DMA_A_Chan);
 295              		.loc 1 98 0
 296 0100 074B     		ldr	r3, .L16+12
ARM GAS  C:\Users\rens_\AppData\Local\Temp\ccA49XBn.s 			page 8


 297 0102 1878     		ldrb	r0, [r3]	@ zero_extendqisi2
 298 0104 FFF7FEFF 		bl	CyDmaChDisable
 299              	.LVL35:
  99:main.c        ****             CyDmaChDisable(DMA_B_Chan);
 300              		.loc 1 99 0
 301 0108 084B     		ldr	r3, .L16+24
 302 010a 1878     		ldrb	r0, [r3]	@ zero_extendqisi2
 303 010c FFF7FEFF 		bl	CyDmaChDisable
 304              	.LVL36:
 305 0110 E2E7     		b	.L12
 306              	.L17:
 307 0112 00BF     		.align	2
 308              	.L16:
 309 0114 00000000 		.word	ISR_START_Handler
 310 0118 00000000 		.word	ISR_A_Handler
 311 011c 00000000 		.word	ISR_B_Handler
 312 0120 00000000 		.word	DMA_A_Chan
 313 0124 00000000 		.word	DMA_A_TD
 314 0128 00000000 		.word	DataA
 315 012c 00000000 		.word	DMA_B_Chan
 316 0130 00000000 		.word	DMA_B_TD
 317 0134 00000000 		.word	DataB
 318 0138 00000000 		.word	ISR_A_done
 319 013c 00000000 		.word	ISR_B_done
 320              		.cfi_endproc
 321              	.LFE67:
 322              		.size	main, .-main
 323              		.comm	ISR_B_done,1,1
 324              		.comm	ISR_A_done,1,1
 325              		.comm	DMA_B_TD,1,4
 326              		.comm	DMA_B_Chan,1,1
 327              		.comm	DMA_A_TD,1,4
 328              		.comm	DMA_A_Chan,1,1
 329              		.comm	DataB,400,4
 330              		.comm	DataA,400,4
 331              		.section	.rodata.str1.4,"aMS",%progbits,1
 332              		.align	2
 333              	.LC0:
 334 0000 4179790A 		.ascii	"Ayy\012\000"
 334      00
 335              		.text
 336              	.Letext0:
 337              		.file 2 "c:\\program files (x86)\\cypress\\psoc creator\\4.2\\psoc creator\\import\\gnu\\arm\\5.4.
 338              		.file 3 "c:\\program files (x86)\\cypress\\psoc creator\\4.2\\psoc creator\\import\\gnu\\arm\\5.4.
 339              		.file 4 "Generated_Source\\PSoC5/cytypes.h"
 340              		.file 5 "Generated_Source\\PSoC5/core_cm3.h"
 341              		.file 6 "Generated_Source\\PSoC5/UART.h"
 342              		.file 7 "Generated_Source\\PSoC5/Control_Reg.h"
 343              		.file 8 "Generated_Source\\PSoC5/CYDMAC.H"
 344              		.file 9 "Generated_Source\\PSoC5/Clock_1.h"
 345              		.file 10 "Generated_Source\\PSoC5/Clock_In.h"
 346              		.file 11 "Generated_Source\\PSoC5/Sample_Hold_A.h"
 347              		.file 12 "Generated_Source\\PSoC5/Sample_Hold_B.h"
 348              		.file 13 "Generated_Source\\PSoC5/ADC_SAR_A.h"
 349              		.file 14 "Generated_Source\\PSoC5/ADC_SAR_B.h"
 350              		.file 15 "Generated_Source\\PSoC5/ADC_SAR_A_IRQ.h"
 351              		.file 16 "Generated_Source\\PSoC5/ADC_SAR_B_IRQ.h"
ARM GAS  C:\Users\rens_\AppData\Local\Temp\ccA49XBn.s 			page 9


 352              		.file 17 "Generated_Source\\PSoC5/Comp_A.h"
 353              		.file 18 "Generated_Source\\PSoC5/Comp_B.h"
 354              		.file 19 "Generated_Source\\PSoC5/ISR_START.h"
 355              		.file 20 "Generated_Source\\PSoC5/ISR_A.h"
 356              		.file 21 "Generated_Source\\PSoC5/ISR_B.h"
 357              		.file 22 "Generated_Source\\PSoC5/DMA_A_dma.h"
 358              		.file 23 "Generated_Source\\PSoC5/DMA_B_dma.h"