ARM GAS  C:\Users\rens_\AppData\Local\Temp\ccWYHwQs.s 			page 1


   1              		.syntax unified
   2              		.cpu cortex-m3
   3              		.fpu softvfp
   4              		.eabi_attribute 20, 1
   5              		.eabi_attribute 21, 1
   6              		.eabi_attribute 23, 3
   7              		.eabi_attribute 24, 1
   8              		.eabi_attribute 25, 1
   9              		.eabi_attribute 26, 1
  10              		.eabi_attribute 30, 1
  11              		.eabi_attribute 34, 1
  12              		.eabi_attribute 18, 4
  13              		.thumb
  14              		.syntax unified
  15              		.file	"Sample_Hold_B_PM.c"
  16              		.text
  17              	.Ltext0:
  18              		.cfi_sections	.debug_frame
  19              		.section	.text.Sample_Hold_B_SaveConfig,"ax",%progbits
  20              		.align	2
  21              		.global	Sample_Hold_B_SaveConfig
  22              		.thumb
  23              		.thumb_func
  24              		.type	Sample_Hold_B_SaveConfig, %function
  25              	Sample_Hold_B_SaveConfig:
  26              	.LFB0:
  27              		.file 1 "Generated_Source\\PSoC5\\Sample_Hold_B_PM.c"
   1:Generated_Source\PSoC5/Sample_Hold_B_PM.c **** /*******************************************************************************
   2:Generated_Source\PSoC5/Sample_Hold_B_PM.c **** * File Name: Sample_Hold_B.c
   3:Generated_Source\PSoC5/Sample_Hold_B_PM.c **** * Version 1.40
   4:Generated_Source\PSoC5/Sample_Hold_B_PM.c **** *
   5:Generated_Source\PSoC5/Sample_Hold_B_PM.c **** * Description:
   6:Generated_Source\PSoC5/Sample_Hold_B_PM.c **** *  This file provides the power manager source code to the API for 
   7:Generated_Source\PSoC5/Sample_Hold_B_PM.c **** *  the SAMPLE/TRACK AND HOLD component.
   8:Generated_Source\PSoC5/Sample_Hold_B_PM.c **** *
   9:Generated_Source\PSoC5/Sample_Hold_B_PM.c **** * Note:
  10:Generated_Source\PSoC5/Sample_Hold_B_PM.c **** *  None
  11:Generated_Source\PSoC5/Sample_Hold_B_PM.c **** *
  12:Generated_Source\PSoC5/Sample_Hold_B_PM.c **** ********************************************************************************
  13:Generated_Source\PSoC5/Sample_Hold_B_PM.c **** * Copyright 2008-2012, Cypress Semiconductor Corporation.  All rights reserved.
  14:Generated_Source\PSoC5/Sample_Hold_B_PM.c **** * You may use this file only in accordance with the license, terms, conditions, 
  15:Generated_Source\PSoC5/Sample_Hold_B_PM.c **** * disclaimers, and limitations in the end user license agreement accompanying 
  16:Generated_Source\PSoC5/Sample_Hold_B_PM.c **** * the software package with which this file was provided.
  17:Generated_Source\PSoC5/Sample_Hold_B_PM.c **** *******************************************************************************/
  18:Generated_Source\PSoC5/Sample_Hold_B_PM.c **** 
  19:Generated_Source\PSoC5/Sample_Hold_B_PM.c **** #include "Sample_Hold_B.h"
  20:Generated_Source\PSoC5/Sample_Hold_B_PM.c **** 
  21:Generated_Source\PSoC5/Sample_Hold_B_PM.c **** static Sample_Hold_B_backupStruct  Sample_Hold_B_backup;
  22:Generated_Source\PSoC5/Sample_Hold_B_PM.c **** 
  23:Generated_Source\PSoC5/Sample_Hold_B_PM.c **** 
  24:Generated_Source\PSoC5/Sample_Hold_B_PM.c **** /*******************************************************************************
  25:Generated_Source\PSoC5/Sample_Hold_B_PM.c **** * Function Name: Sample_Hold_B_SaveConfig
  26:Generated_Source\PSoC5/Sample_Hold_B_PM.c **** ********************************************************************************
  27:Generated_Source\PSoC5/Sample_Hold_B_PM.c **** *
  28:Generated_Source\PSoC5/Sample_Hold_B_PM.c **** * Summary:
  29:Generated_Source\PSoC5/Sample_Hold_B_PM.c **** *  Saves the current user configuration.
  30:Generated_Source\PSoC5/Sample_Hold_B_PM.c **** *  
ARM GAS  C:\Users\rens_\AppData\Local\Temp\ccWYHwQs.s 			page 2


  31:Generated_Source\PSoC5/Sample_Hold_B_PM.c **** * Parameters:  
  32:Generated_Source\PSoC5/Sample_Hold_B_PM.c **** *  void.
  33:Generated_Source\PSoC5/Sample_Hold_B_PM.c **** *
  34:Generated_Source\PSoC5/Sample_Hold_B_PM.c **** * Return: 
  35:Generated_Source\PSoC5/Sample_Hold_B_PM.c **** *  void.
  36:Generated_Source\PSoC5/Sample_Hold_B_PM.c **** *
  37:Generated_Source\PSoC5/Sample_Hold_B_PM.c **** *******************************************************************************/
  38:Generated_Source\PSoC5/Sample_Hold_B_PM.c **** void Sample_Hold_B_SaveConfig(void) 
  39:Generated_Source\PSoC5/Sample_Hold_B_PM.c **** {
  28              		.loc 1 39 0
  29              		.cfi_startproc
  30              		@ args = 0, pretend = 0, frame = 0
  31              		@ frame_needed = 0, uses_anonymous_args = 0
  32              		@ link register save eliminated.
  33 0000 7047     		bx	lr
  34              		.cfi_endproc
  35              	.LFE0:
  36              		.size	Sample_Hold_B_SaveConfig, .-Sample_Hold_B_SaveConfig
  37 0002 00BF     		.section	.text.Sample_Hold_B_RestoreConfig,"ax",%progbits
  38              		.align	2
  39              		.global	Sample_Hold_B_RestoreConfig
  40              		.thumb
  41              		.thumb_func
  42              		.type	Sample_Hold_B_RestoreConfig, %function
  43              	Sample_Hold_B_RestoreConfig:
  44              	.LFB1:
  40:Generated_Source\PSoC5/Sample_Hold_B_PM.c ****     /* Nothing to save before entering into sleep mode as all the registers used 
  41:Generated_Source\PSoC5/Sample_Hold_B_PM.c ****        here are retention registers. */
  42:Generated_Source\PSoC5/Sample_Hold_B_PM.c **** }
  43:Generated_Source\PSoC5/Sample_Hold_B_PM.c **** 
  44:Generated_Source\PSoC5/Sample_Hold_B_PM.c **** 
  45:Generated_Source\PSoC5/Sample_Hold_B_PM.c **** /*******************************************************************************
  46:Generated_Source\PSoC5/Sample_Hold_B_PM.c **** * Function Name: Sample_Hold_B_RestoreConfig
  47:Generated_Source\PSoC5/Sample_Hold_B_PM.c **** ********************************************************************************
  48:Generated_Source\PSoC5/Sample_Hold_B_PM.c **** *
  49:Generated_Source\PSoC5/Sample_Hold_B_PM.c **** * Summary:
  50:Generated_Source\PSoC5/Sample_Hold_B_PM.c **** *  Restores the current user configuration.
  51:Generated_Source\PSoC5/Sample_Hold_B_PM.c **** *
  52:Generated_Source\PSoC5/Sample_Hold_B_PM.c **** * Parameters:  
  53:Generated_Source\PSoC5/Sample_Hold_B_PM.c **** *  void.
  54:Generated_Source\PSoC5/Sample_Hold_B_PM.c **** *
  55:Generated_Source\PSoC5/Sample_Hold_B_PM.c **** * Return: 
  56:Generated_Source\PSoC5/Sample_Hold_B_PM.c **** *  void
  57:Generated_Source\PSoC5/Sample_Hold_B_PM.c **** *
  58:Generated_Source\PSoC5/Sample_Hold_B_PM.c **** *******************************************************************************/
  59:Generated_Source\PSoC5/Sample_Hold_B_PM.c **** void Sample_Hold_B_RestoreConfig(void) 
  60:Generated_Source\PSoC5/Sample_Hold_B_PM.c **** {
  45              		.loc 1 60 0
  46              		.cfi_startproc
  47              		@ args = 0, pretend = 0, frame = 0
  48              		@ frame_needed = 0, uses_anonymous_args = 0
  49              		@ link register save eliminated.
  50 0000 7047     		bx	lr
  51              		.cfi_endproc
  52              	.LFE1:
  53              		.size	Sample_Hold_B_RestoreConfig, .-Sample_Hold_B_RestoreConfig
  54 0002 00BF     		.section	.text.Sample_Hold_B_Sleep,"ax",%progbits
ARM GAS  C:\Users\rens_\AppData\Local\Temp\ccWYHwQs.s 			page 3


  55              		.align	2
  56              		.global	Sample_Hold_B_Sleep
  57              		.thumb
  58              		.thumb_func
  59              		.type	Sample_Hold_B_Sleep, %function
  60              	Sample_Hold_B_Sleep:
  61              	.LFB2:
  61:Generated_Source\PSoC5/Sample_Hold_B_PM.c ****     /* Nothing to restore */
  62:Generated_Source\PSoC5/Sample_Hold_B_PM.c **** }
  63:Generated_Source\PSoC5/Sample_Hold_B_PM.c **** 
  64:Generated_Source\PSoC5/Sample_Hold_B_PM.c **** 
  65:Generated_Source\PSoC5/Sample_Hold_B_PM.c **** /*******************************************************************************
  66:Generated_Source\PSoC5/Sample_Hold_B_PM.c **** * Function Name: Sample_Hold_B_Sleep
  67:Generated_Source\PSoC5/Sample_Hold_B_PM.c **** ********************************************************************************
  68:Generated_Source\PSoC5/Sample_Hold_B_PM.c **** *
  69:Generated_Source\PSoC5/Sample_Hold_B_PM.c **** * Summary:
  70:Generated_Source\PSoC5/Sample_Hold_B_PM.c **** *  Disables block's operation and saves its configuration. Should be called 
  71:Generated_Source\PSoC5/Sample_Hold_B_PM.c **** *  just prior to entering sleep.
  72:Generated_Source\PSoC5/Sample_Hold_B_PM.c **** *  
  73:Generated_Source\PSoC5/Sample_Hold_B_PM.c **** * Parameters:  
  74:Generated_Source\PSoC5/Sample_Hold_B_PM.c **** *  None
  75:Generated_Source\PSoC5/Sample_Hold_B_PM.c **** *
  76:Generated_Source\PSoC5/Sample_Hold_B_PM.c **** * Return: 
  77:Generated_Source\PSoC5/Sample_Hold_B_PM.c **** *  None
  78:Generated_Source\PSoC5/Sample_Hold_B_PM.c **** *
  79:Generated_Source\PSoC5/Sample_Hold_B_PM.c **** * Global variables:
  80:Generated_Source\PSoC5/Sample_Hold_B_PM.c **** *  Sample_Hold_B_backup:  The structure field 'enableState' is modified 
  81:Generated_Source\PSoC5/Sample_Hold_B_PM.c **** *  depending on the enable state of the block before entering to sleep mode.
  82:Generated_Source\PSoC5/Sample_Hold_B_PM.c **** *
  83:Generated_Source\PSoC5/Sample_Hold_B_PM.c **** *******************************************************************************/
  84:Generated_Source\PSoC5/Sample_Hold_B_PM.c **** void Sample_Hold_B_Sleep(void) 
  85:Generated_Source\PSoC5/Sample_Hold_B_PM.c **** {
  62              		.loc 1 85 0
  63              		.cfi_startproc
  64              		@ args = 0, pretend = 0, frame = 0
  65              		@ frame_needed = 0, uses_anonymous_args = 0
  66              		.loc 1 85 0
  67 0000 08B5     		push	{r3, lr}
  68              		.cfi_def_cfa_offset 8
  69              		.cfi_offset 3, -8
  70              		.cfi_offset 14, -4
  86:Generated_Source\PSoC5/Sample_Hold_B_PM.c ****     /* Save TIA enable state */
  87:Generated_Source\PSoC5/Sample_Hold_B_PM.c ****     if((Sample_Hold_B_PM_ACT_CFG_REG & Sample_Hold_B_ACT_PWR_EN) != 0u)
  71              		.loc 1 87 0
  72 0002 074B     		ldr	r3, .L7
  73 0004 1B78     		ldrb	r3, [r3]	@ zero_extendqisi2
  74 0006 13F0020F 		tst	r3, #2
  75 000a 05D0     		beq	.L4
  88:Generated_Source\PSoC5/Sample_Hold_B_PM.c ****     {
  89:Generated_Source\PSoC5/Sample_Hold_B_PM.c ****         /* Component is enabled */
  90:Generated_Source\PSoC5/Sample_Hold_B_PM.c ****         Sample_Hold_B_backup.enableState = 1u;
  76              		.loc 1 90 0
  77 000c 0122     		movs	r2, #1
  78 000e 054B     		ldr	r3, .L7+4
  79 0010 1A70     		strb	r2, [r3]
  91:Generated_Source\PSoC5/Sample_Hold_B_PM.c ****         /* Stop the configuration */
  92:Generated_Source\PSoC5/Sample_Hold_B_PM.c ****         Sample_Hold_B_Stop();
ARM GAS  C:\Users\rens_\AppData\Local\Temp\ccWYHwQs.s 			page 4


  80              		.loc 1 92 0
  81 0012 FFF7FEFF 		bl	Sample_Hold_B_Stop
  82              	.LVL0:
  83 0016 08BD     		pop	{r3, pc}
  84              	.L4:
  93:Generated_Source\PSoC5/Sample_Hold_B_PM.c ****     }
  94:Generated_Source\PSoC5/Sample_Hold_B_PM.c ****     else
  95:Generated_Source\PSoC5/Sample_Hold_B_PM.c ****     {
  96:Generated_Source\PSoC5/Sample_Hold_B_PM.c ****         /* Component is disabled */
  97:Generated_Source\PSoC5/Sample_Hold_B_PM.c ****         Sample_Hold_B_backup.enableState = 0u;
  85              		.loc 1 97 0
  86 0018 0022     		movs	r2, #0
  87 001a 024B     		ldr	r3, .L7+4
  88 001c 1A70     		strb	r2, [r3]
  89 001e 08BD     		pop	{r3, pc}
  90              	.L8:
  91              		.align	2
  92              	.L7:
  93 0020 A9430040 		.word	1073759145
  94 0024 00000000 		.word	.LANCHOR0
  95              		.cfi_endproc
  96              	.LFE2:
  97              		.size	Sample_Hold_B_Sleep, .-Sample_Hold_B_Sleep
  98              		.section	.text.Sample_Hold_B_Wakeup,"ax",%progbits
  99              		.align	2
 100              		.global	Sample_Hold_B_Wakeup
 101              		.thumb
 102              		.thumb_func
 103              		.type	Sample_Hold_B_Wakeup, %function
 104              	Sample_Hold_B_Wakeup:
 105              	.LFB3:
  98:Generated_Source\PSoC5/Sample_Hold_B_PM.c ****     }
  99:Generated_Source\PSoC5/Sample_Hold_B_PM.c ****     /* Saves the user configuration */
 100:Generated_Source\PSoC5/Sample_Hold_B_PM.c ****     Sample_Hold_B_SaveConfig();
 101:Generated_Source\PSoC5/Sample_Hold_B_PM.c **** }
 102:Generated_Source\PSoC5/Sample_Hold_B_PM.c **** 
 103:Generated_Source\PSoC5/Sample_Hold_B_PM.c **** 
 104:Generated_Source\PSoC5/Sample_Hold_B_PM.c **** /*******************************************************************************
 105:Generated_Source\PSoC5/Sample_Hold_B_PM.c **** * Function Name: Sample_Hold_B_Wakeup
 106:Generated_Source\PSoC5/Sample_Hold_B_PM.c **** ********************************************************************************
 107:Generated_Source\PSoC5/Sample_Hold_B_PM.c **** *
 108:Generated_Source\PSoC5/Sample_Hold_B_PM.c **** * Summary:
 109:Generated_Source\PSoC5/Sample_Hold_B_PM.c **** *  Enables block's operation and restores its configuration. Should be called
 110:Generated_Source\PSoC5/Sample_Hold_B_PM.c **** *  just after awaking from sleep.
 111:Generated_Source\PSoC5/Sample_Hold_B_PM.c **** *  
 112:Generated_Source\PSoC5/Sample_Hold_B_PM.c **** * Parameters:  
 113:Generated_Source\PSoC5/Sample_Hold_B_PM.c **** *  None
 114:Generated_Source\PSoC5/Sample_Hold_B_PM.c **** *
 115:Generated_Source\PSoC5/Sample_Hold_B_PM.c **** * Return: 
 116:Generated_Source\PSoC5/Sample_Hold_B_PM.c **** *  void
 117:Generated_Source\PSoC5/Sample_Hold_B_PM.c **** *
 118:Generated_Source\PSoC5/Sample_Hold_B_PM.c **** * Global variables:
 119:Generated_Source\PSoC5/Sample_Hold_B_PM.c **** *  Sample_Hold_B_backup:  The structure field 'enableState' is used to 
 120:Generated_Source\PSoC5/Sample_Hold_B_PM.c **** *  restore the enable state of block after wakeup from sleep mode.
 121:Generated_Source\PSoC5/Sample_Hold_B_PM.c **** *
 122:Generated_Source\PSoC5/Sample_Hold_B_PM.c **** *******************************************************************************/
 123:Generated_Source\PSoC5/Sample_Hold_B_PM.c **** void Sample_Hold_B_Wakeup(void) 
ARM GAS  C:\Users\rens_\AppData\Local\Temp\ccWYHwQs.s 			page 5


 124:Generated_Source\PSoC5/Sample_Hold_B_PM.c **** {
 106              		.loc 1 124 0
 107              		.cfi_startproc
 108              		@ args = 0, pretend = 0, frame = 0
 109              		@ frame_needed = 0, uses_anonymous_args = 0
 110 0000 08B5     		push	{r3, lr}
 111              		.cfi_def_cfa_offset 8
 112              		.cfi_offset 3, -8
 113              		.cfi_offset 14, -4
 125:Generated_Source\PSoC5/Sample_Hold_B_PM.c ****     /* Restore the user configuration */
 126:Generated_Source\PSoC5/Sample_Hold_B_PM.c ****     Sample_Hold_B_RestoreConfig();
 127:Generated_Source\PSoC5/Sample_Hold_B_PM.c ****     
 128:Generated_Source\PSoC5/Sample_Hold_B_PM.c ****     /* Enable's the component operation */
 129:Generated_Source\PSoC5/Sample_Hold_B_PM.c ****     if(Sample_Hold_B_backup.enableState == 1u)
 114              		.loc 1 129 0
 115 0002 034B     		ldr	r3, .L12
 116 0004 1B78     		ldrb	r3, [r3]	@ zero_extendqisi2
 117 0006 012B     		cmp	r3, #1
 118 0008 01D1     		bne	.L9
 130:Generated_Source\PSoC5/Sample_Hold_B_PM.c ****     {
 131:Generated_Source\PSoC5/Sample_Hold_B_PM.c ****         Sample_Hold_B_Enable();
 119              		.loc 1 131 0
 120 000a FFF7FEFF 		bl	Sample_Hold_B_Enable
 121              	.LVL1:
 122              	.L9:
 123 000e 08BD     		pop	{r3, pc}
 124              	.L13:
 125              		.align	2
 126              	.L12:
 127 0010 00000000 		.word	.LANCHOR0
 128              		.cfi_endproc
 129              	.LFE3:
 130              		.size	Sample_Hold_B_Wakeup, .-Sample_Hold_B_Wakeup
 131              		.bss
 132              		.align	2
 133              		.set	.LANCHOR0,. + 0
 134              		.type	Sample_Hold_B_backup, %object
 135              		.size	Sample_Hold_B_backup, 4
 136              	Sample_Hold_B_backup:
 137 0000 00000000 		.space	4
 138              		.text
 139              	.Letext0:
 140              		.file 2 "Generated_Source\\PSoC5\\cytypes.h"
 141              		.file 3 "Generated_Source\\PSoC5\\Sample_Hold_B.h"