ARM GAS  C:\Users\rens_\AppData\Local\Temp\ccpd1D68.s 			page 1


   1              		.syntax unified
   2              		.cpu cortex-m3
   3              		.fpu softvfp
   4              		.eabi_attribute 20, 1
   5              		.eabi_attribute 21, 1
   6              		.eabi_attribute 23, 3
   7              		.eabi_attribute 24, 1
   8              		.eabi_attribute 25, 1
   9              		.eabi_attribute 26, 1
  10              		.eabi_attribute 30, 1
  11              		.eabi_attribute 34, 1
  12              		.eabi_attribute 18, 4
  13              		.thumb
  14              		.syntax unified
  15              		.file	"Sample_Hold_A.c"
  16              		.text
  17              	.Ltext0:
  18              		.cfi_sections	.debug_frame
  19              		.section	.text.Sample_Hold_A_Enable,"ax",%progbits
  20              		.align	2
  21              		.global	Sample_Hold_A_Enable
  22              		.thumb
  23              		.thumb_func
  24              		.type	Sample_Hold_A_Enable, %function
  25              	Sample_Hold_A_Enable:
  26              	.LFB1:
  27              		.file 1 "Generated_Source\\PSoC5\\Sample_Hold_A.c"
   1:Generated_Source\PSoC5/Sample_Hold_A.c **** /*******************************************************************************
   2:Generated_Source\PSoC5/Sample_Hold_A.c **** * File Name: Sample_Hold_A.c
   3:Generated_Source\PSoC5/Sample_Hold_A.c **** * Version 1.40
   4:Generated_Source\PSoC5/Sample_Hold_A.c **** *
   5:Generated_Source\PSoC5/Sample_Hold_A.c **** * Description:
   6:Generated_Source\PSoC5/Sample_Hold_A.c **** *  This file provides the source code to the API for the SAMPLE/TRACK AND HOLD 
   7:Generated_Source\PSoC5/Sample_Hold_A.c **** *  component.
   8:Generated_Source\PSoC5/Sample_Hold_A.c **** *
   9:Generated_Source\PSoC5/Sample_Hold_A.c **** * Note:
  10:Generated_Source\PSoC5/Sample_Hold_A.c **** *  None
  11:Generated_Source\PSoC5/Sample_Hold_A.c **** *
  12:Generated_Source\PSoC5/Sample_Hold_A.c **** ********************************************************************************
  13:Generated_Source\PSoC5/Sample_Hold_A.c **** * Copyright 2008-2012, Cypress Semiconductor Corporation.  All rights reserved.
  14:Generated_Source\PSoC5/Sample_Hold_A.c **** * You may use this file only in accordance with the license, terms, conditions, 
  15:Generated_Source\PSoC5/Sample_Hold_A.c **** * disclaimers, and limitations in the end user license agreement accompanying 
  16:Generated_Source\PSoC5/Sample_Hold_A.c **** * the software package with which this file was provided.
  17:Generated_Source\PSoC5/Sample_Hold_A.c **** *******************************************************************************/
  18:Generated_Source\PSoC5/Sample_Hold_A.c **** 
  19:Generated_Source\PSoC5/Sample_Hold_A.c **** #include "Sample_Hold_A.h"
  20:Generated_Source\PSoC5/Sample_Hold_A.c **** 
  21:Generated_Source\PSoC5/Sample_Hold_A.c **** #if (!CY_PSOC5A)
  22:Generated_Source\PSoC5/Sample_Hold_A.c ****     #if (CYDEV_VARIABLE_VDDA == 1u)
  23:Generated_Source\PSoC5/Sample_Hold_A.c ****         #include "CyScBoostClk.h"
  24:Generated_Source\PSoC5/Sample_Hold_A.c ****     #endif /* (CYDEV_VARIABLE_VDDA == 1u) */
  25:Generated_Source\PSoC5/Sample_Hold_A.c **** #endif /* (!CY_PSOC5A) */
  26:Generated_Source\PSoC5/Sample_Hold_A.c **** 
  27:Generated_Source\PSoC5/Sample_Hold_A.c **** uint8 Sample_Hold_A_initVar = 0u;
  28:Generated_Source\PSoC5/Sample_Hold_A.c **** 
  29:Generated_Source\PSoC5/Sample_Hold_A.c **** /* static Sample_Hold_A_backupStruct  Sample_Hold_A_backup; */
  30:Generated_Source\PSoC5/Sample_Hold_A.c **** #if (CY_PSOC5A)
ARM GAS  C:\Users\rens_\AppData\Local\Temp\ccpd1D68.s 			page 2


  31:Generated_Source\PSoC5/Sample_Hold_A.c ****     static Sample_Hold_A_backupStruct  Sample_Hold_A_P5backup;
  32:Generated_Source\PSoC5/Sample_Hold_A.c **** #endif /* CY_PSOC5A */
  33:Generated_Source\PSoC5/Sample_Hold_A.c **** 
  34:Generated_Source\PSoC5/Sample_Hold_A.c **** 
  35:Generated_Source\PSoC5/Sample_Hold_A.c **** 
  36:Generated_Source\PSoC5/Sample_Hold_A.c **** /*******************************************************************************   
  37:Generated_Source\PSoC5/Sample_Hold_A.c **** * Function Name: Sample_Hold_A_Init
  38:Generated_Source\PSoC5/Sample_Hold_A.c **** ********************************************************************************
  39:Generated_Source\PSoC5/Sample_Hold_A.c **** *
  40:Generated_Source\PSoC5/Sample_Hold_A.c **** * Summary:
  41:Generated_Source\PSoC5/Sample_Hold_A.c **** *  Initialize component's parameters to the parameters set by user in the 
  42:Generated_Source\PSoC5/Sample_Hold_A.c **** *  customizer of the component placed onto schematic. Usually called in 
  43:Generated_Source\PSoC5/Sample_Hold_A.c **** *  Sample_Hold_A_Start().
  44:Generated_Source\PSoC5/Sample_Hold_A.c **** *
  45:Generated_Source\PSoC5/Sample_Hold_A.c **** * Parameters:
  46:Generated_Source\PSoC5/Sample_Hold_A.c **** *  void
  47:Generated_Source\PSoC5/Sample_Hold_A.c **** *
  48:Generated_Source\PSoC5/Sample_Hold_A.c **** * Return:
  49:Generated_Source\PSoC5/Sample_Hold_A.c **** *  void
  50:Generated_Source\PSoC5/Sample_Hold_A.c **** *
  51:Generated_Source\PSoC5/Sample_Hold_A.c **** *******************************************************************************/
  52:Generated_Source\PSoC5/Sample_Hold_A.c **** void Sample_Hold_A_Init(void) 
  53:Generated_Source\PSoC5/Sample_Hold_A.c **** {   
  54:Generated_Source\PSoC5/Sample_Hold_A.c ****     /* Configure SC Block based on selected Sample/Track type */
  55:Generated_Source\PSoC5/Sample_Hold_A.c ****     #if (Sample_Hold_A_SAMPLE_TRACK_MODE == Sample_Hold_A_SAMPLEANDHOLD) /* Sample and hold mode */
  56:Generated_Source\PSoC5/Sample_Hold_A.c ****         /* SC Block mode -  - SCxx_CR0[3:1] */
  57:Generated_Source\PSoC5/Sample_Hold_A.c ****         Sample_Hold_A_CR0_REG = Sample_Hold_A_MODE_SAMPLEANDHOLD;
  58:Generated_Source\PSoC5/Sample_Hold_A.c ****         
  59:Generated_Source\PSoC5/Sample_Hold_A.c ****         /* SC Block CR1 */ 
  60:Generated_Source\PSoC5/Sample_Hold_A.c ****         Sample_Hold_A_CR1_REG = (Sample_Hold_A_COMP_4P35PF  |
  61:Generated_Source\PSoC5/Sample_Hold_A.c ****                                 Sample_Hold_A_GAIN_0DB);
  62:Generated_Source\PSoC5/Sample_Hold_A.c ****         #if(Sample_Hold_A_SAMPLE_CLOCK_EDGE == Sample_Hold_A_EDGE_POSITIVENEGATIVE)
  63:Generated_Source\PSoC5/Sample_Hold_A.c ****             Sample_Hold_A_CR1_REG =  Sample_Hold_A_CR1_REG  | Sample_Hold_A_DIV2_DISABLE ;
  64:Generated_Source\PSoC5/Sample_Hold_A.c ****         #else
  65:Generated_Source\PSoC5/Sample_Hold_A.c ****             Sample_Hold_A_CR1_REG =  Sample_Hold_A_CR1_REG  | Sample_Hold_A_DIV2_ENABLE ;
  66:Generated_Source\PSoC5/Sample_Hold_A.c ****         #endif
  67:Generated_Source\PSoC5/Sample_Hold_A.c ****          
  68:Generated_Source\PSoC5/Sample_Hold_A.c ****         #if(Sample_Hold_A_VREF_TYPE == Sample_Hold_A_EXTERNAL)
  69:Generated_Source\PSoC5/Sample_Hold_A.c ****             Sample_Hold_A_CR2_REG = Sample_Hold_A_BIAS_LOW |
  70:Generated_Source\PSoC5/Sample_Hold_A.c ****                                        Sample_Hold_A_REDC_00 | 
  71:Generated_Source\PSoC5/Sample_Hold_A.c ****                                        Sample_Hold_A_GNDVREF_DI;
  72:Generated_Source\PSoC5/Sample_Hold_A.c ****         #else
  73:Generated_Source\PSoC5/Sample_Hold_A.c ****             Sample_Hold_A_CR2_REG = Sample_Hold_A_BIAS_LOW |
  74:Generated_Source\PSoC5/Sample_Hold_A.c ****                                        Sample_Hold_A_REDC_00 | 
  75:Generated_Source\PSoC5/Sample_Hold_A.c ****                                        Sample_Hold_A_GNDVREF_E;
  76:Generated_Source\PSoC5/Sample_Hold_A.c ****         #endif
  77:Generated_Source\PSoC5/Sample_Hold_A.c ****     #else
  78:Generated_Source\PSoC5/Sample_Hold_A.c ****         /* Track and Hold Mode */
  79:Generated_Source\PSoC5/Sample_Hold_A.c ****         /* SC Block mode -  - SCxx_CR0[3:1] */
  80:Generated_Source\PSoC5/Sample_Hold_A.c ****         Sample_Hold_A_CR0_REG = Sample_Hold_A_MODE_TRACKANDHOLD; 
  81:Generated_Source\PSoC5/Sample_Hold_A.c ****         
  82:Generated_Source\PSoC5/Sample_Hold_A.c ****         /* SC Block CR1 */ 
  83:Generated_Source\PSoC5/Sample_Hold_A.c ****         Sample_Hold_A_CR1_REG = Sample_Hold_A_COMP_4P35PF  |
  84:Generated_Source\PSoC5/Sample_Hold_A.c ****                                    Sample_Hold_A_DIV2_ENABLE |
  85:Generated_Source\PSoC5/Sample_Hold_A.c ****                                    Sample_Hold_A_GAIN_0DB;
  86:Generated_Source\PSoC5/Sample_Hold_A.c ****                                 
  87:Generated_Source\PSoC5/Sample_Hold_A.c ****         /* SC Block CR2 */
ARM GAS  C:\Users\rens_\AppData\Local\Temp\ccpd1D68.s 			page 3


  88:Generated_Source\PSoC5/Sample_Hold_A.c ****         Sample_Hold_A_CR2_REG = Sample_Hold_A_BIAS_LOW |
  89:Generated_Source\PSoC5/Sample_Hold_A.c ****                                    Sample_Hold_A_REDC_00 |
  90:Generated_Source\PSoC5/Sample_Hold_A.c ****                                    Sample_Hold_A_GNDVREF_E;
  91:Generated_Source\PSoC5/Sample_Hold_A.c ****     #endif /* end if - Sample/Track Type */
  92:Generated_Source\PSoC5/Sample_Hold_A.c ****     
  93:Generated_Source\PSoC5/Sample_Hold_A.c ****     /* Enable SC Block clocking */
  94:Generated_Source\PSoC5/Sample_Hold_A.c ****     Sample_Hold_A_CLK_REG |= Sample_Hold_A_CLK_EN;
  95:Generated_Source\PSoC5/Sample_Hold_A.c ****     
  96:Generated_Source\PSoC5/Sample_Hold_A.c ****     /* Set default power */
  97:Generated_Source\PSoC5/Sample_Hold_A.c ****     Sample_Hold_A_SetPower(Sample_Hold_A_INIT_POWER);
  98:Generated_Source\PSoC5/Sample_Hold_A.c **** }
  99:Generated_Source\PSoC5/Sample_Hold_A.c **** 
 100:Generated_Source\PSoC5/Sample_Hold_A.c **** 
 101:Generated_Source\PSoC5/Sample_Hold_A.c **** /*******************************************************************************   
 102:Generated_Source\PSoC5/Sample_Hold_A.c **** * Function Name: Sample_Hold_A_Enable
 103:Generated_Source\PSoC5/Sample_Hold_A.c **** ********************************************************************************
 104:Generated_Source\PSoC5/Sample_Hold_A.c **** *
 105:Generated_Source\PSoC5/Sample_Hold_A.c **** * Summary:
 106:Generated_Source\PSoC5/Sample_Hold_A.c **** *  Enables the Sample/Track and Hold block operation
 107:Generated_Source\PSoC5/Sample_Hold_A.c **** *
 108:Generated_Source\PSoC5/Sample_Hold_A.c **** * Parameters:
 109:Generated_Source\PSoC5/Sample_Hold_A.c **** *  void
 110:Generated_Source\PSoC5/Sample_Hold_A.c **** *
 111:Generated_Source\PSoC5/Sample_Hold_A.c **** * Return:
 112:Generated_Source\PSoC5/Sample_Hold_A.c **** *  void
 113:Generated_Source\PSoC5/Sample_Hold_A.c **** *
 114:Generated_Source\PSoC5/Sample_Hold_A.c **** *******************************************************************************/
 115:Generated_Source\PSoC5/Sample_Hold_A.c **** void Sample_Hold_A_Enable(void) 
 116:Generated_Source\PSoC5/Sample_Hold_A.c **** {
  28              		.loc 1 116 0
  29              		.cfi_startproc
  30              		@ args = 0, pretend = 0, frame = 0
  31              		@ frame_needed = 0, uses_anonymous_args = 0
  32              		@ link register save eliminated.
 117:Generated_Source\PSoC5/Sample_Hold_A.c ****     /* This is to restore the value of register CR1 and CR2 which is saved 
 118:Generated_Source\PSoC5/Sample_Hold_A.c ****       in prior to the modifications in stop() API */
 119:Generated_Source\PSoC5/Sample_Hold_A.c ****     #if (CY_PSOC5A)
 120:Generated_Source\PSoC5/Sample_Hold_A.c ****         if(Sample_Hold_A_P5backup.enableState == 1u)
 121:Generated_Source\PSoC5/Sample_Hold_A.c ****         {
 122:Generated_Source\PSoC5/Sample_Hold_A.c ****             Sample_Hold_A_CR1_REG = Sample_Hold_A_P5backup.scCR1Reg;
 123:Generated_Source\PSoC5/Sample_Hold_A.c ****             Sample_Hold_A_CR2_REG = Sample_Hold_A_P5backup.scCR2Reg;
 124:Generated_Source\PSoC5/Sample_Hold_A.c ****             Sample_Hold_A_P5backup.enableState = 0u;
 125:Generated_Source\PSoC5/Sample_Hold_A.c ****         }
 126:Generated_Source\PSoC5/Sample_Hold_A.c ****     #endif /* CY_PSOC5A */
 127:Generated_Source\PSoC5/Sample_Hold_A.c ****     
 128:Generated_Source\PSoC5/Sample_Hold_A.c ****     /* Enable power to SC block in active mode */
 129:Generated_Source\PSoC5/Sample_Hold_A.c ****     Sample_Hold_A_PM_ACT_CFG_REG |= Sample_Hold_A_ACT_PWR_EN;
  33              		.loc 1 129 0
  34 0000 084A     		ldr	r2, .L2
  35 0002 1378     		ldrb	r3, [r2]	@ zero_extendqisi2
  36 0004 43F00403 		orr	r3, r3, #4
  37 0008 1370     		strb	r3, [r2]
 130:Generated_Source\PSoC5/Sample_Hold_A.c ****     
 131:Generated_Source\PSoC5/Sample_Hold_A.c ****     /* Enable power to SC block in Alternative active mode */
 132:Generated_Source\PSoC5/Sample_Hold_A.c ****     Sample_Hold_A_PM_STBY_CFG_REG |= Sample_Hold_A_STBY_PWR_EN;
  38              		.loc 1 132 0
  39 000a 1032     		adds	r2, r2, #16
ARM GAS  C:\Users\rens_\AppData\Local\Temp\ccpd1D68.s 			page 4


  40 000c 1378     		ldrb	r3, [r2]	@ zero_extendqisi2
  41 000e 43F00403 		orr	r3, r3, #4
  42 0012 1370     		strb	r3, [r2]
 133:Generated_Source\PSoC5/Sample_Hold_A.c **** 
 134:Generated_Source\PSoC5/Sample_Hold_A.c ****     Sample_Hold_A_PUMP_CR1_REG |= Sample_Hold_A_PUMP_CR1_SC_CLKSEL;
  43              		.loc 1 134 0
  44 0014 02F5A552 		add	r2, r2, #5280
  45 0018 1E32     		adds	r2, r2, #30
  46 001a 1378     		ldrb	r3, [r2]	@ zero_extendqisi2
  47 001c 43F08003 		orr	r3, r3, #128
  48 0020 1370     		strb	r3, [r2]
  49 0022 7047     		bx	lr
  50              	.L3:
  51              		.align	2
  52              	.L2:
  53 0024 A9430040 		.word	1073759145
  54              		.cfi_endproc
  55              	.LFE1:
  56              		.size	Sample_Hold_A_Enable, .-Sample_Hold_A_Enable
  57              		.section	.text.Sample_Hold_A_Stop,"ax",%progbits
  58              		.align	2
  59              		.global	Sample_Hold_A_Stop
  60              		.thumb
  61              		.thumb_func
  62              		.type	Sample_Hold_A_Stop, %function
  63              	Sample_Hold_A_Stop:
  64              	.LFB3:
 135:Generated_Source\PSoC5/Sample_Hold_A.c ****     
 136:Generated_Source\PSoC5/Sample_Hold_A.c ****     #if (!CY_PSOC5A)
 137:Generated_Source\PSoC5/Sample_Hold_A.c ****         #if (CYDEV_VARIABLE_VDDA == 1u)
 138:Generated_Source\PSoC5/Sample_Hold_A.c ****             if(CyScPumpEnabled == 1u)
 139:Generated_Source\PSoC5/Sample_Hold_A.c ****             {
 140:Generated_Source\PSoC5/Sample_Hold_A.c ****                 Sample_Hold_A_BSTCLK_REG &= (uint8)(~Sample_Hold_A_BST_CLK_INDEX_MASK);
 141:Generated_Source\PSoC5/Sample_Hold_A.c ****                 Sample_Hold_A_BSTCLK_REG |= Sample_Hold_A_BST_CLK_EN | CyScBoostClk__INDEX;
 142:Generated_Source\PSoC5/Sample_Hold_A.c ****                 Sample_Hold_A_SC_MISC_REG |= Sample_Hold_A_PUMP_FORCE;
 143:Generated_Source\PSoC5/Sample_Hold_A.c ****                 CyScBoostClk_Start();
 144:Generated_Source\PSoC5/Sample_Hold_A.c ****             }
 145:Generated_Source\PSoC5/Sample_Hold_A.c ****             else
 146:Generated_Source\PSoC5/Sample_Hold_A.c ****             {
 147:Generated_Source\PSoC5/Sample_Hold_A.c ****                 Sample_Hold_A_BSTCLK_REG &= (uint8)(~Sample_Hold_A_BST_CLK_EN);
 148:Generated_Source\PSoC5/Sample_Hold_A.c ****                 Sample_Hold_A_SC_MISC_REG &= (uint8)(~Sample_Hold_A_PUMP_FORCE);
 149:Generated_Source\PSoC5/Sample_Hold_A.c ****             }
 150:Generated_Source\PSoC5/Sample_Hold_A.c ****         #endif /* (CYDEV_VARIABLE_VDDA == 1u) */
 151:Generated_Source\PSoC5/Sample_Hold_A.c ****     #endif /* (!CY_PSOC5A) */
 152:Generated_Source\PSoC5/Sample_Hold_A.c **** }
 153:Generated_Source\PSoC5/Sample_Hold_A.c **** 
 154:Generated_Source\PSoC5/Sample_Hold_A.c **** 
 155:Generated_Source\PSoC5/Sample_Hold_A.c **** /*******************************************************************************
 156:Generated_Source\PSoC5/Sample_Hold_A.c **** * Function Name: Sample_Hold_A_Start
 157:Generated_Source\PSoC5/Sample_Hold_A.c **** ********************************************************************************
 158:Generated_Source\PSoC5/Sample_Hold_A.c **** *
 159:Generated_Source\PSoC5/Sample_Hold_A.c **** * Summary:
 160:Generated_Source\PSoC5/Sample_Hold_A.c **** *  The start function initializes the Sample and Hold with the default values, 
 161:Generated_Source\PSoC5/Sample_Hold_A.c **** *  and sets the power to the given level.  A power level of 0, is the same as 
 162:Generated_Source\PSoC5/Sample_Hold_A.c **** *  executing the stop function.
 163:Generated_Source\PSoC5/Sample_Hold_A.c **** *
 164:Generated_Source\PSoC5/Sample_Hold_A.c **** * Parameters:
ARM GAS  C:\Users\rens_\AppData\Local\Temp\ccpd1D68.s 			page 5


 165:Generated_Source\PSoC5/Sample_Hold_A.c **** *  void
 166:Generated_Source\PSoC5/Sample_Hold_A.c **** *
 167:Generated_Source\PSoC5/Sample_Hold_A.c **** * Return:
 168:Generated_Source\PSoC5/Sample_Hold_A.c **** *  void
 169:Generated_Source\PSoC5/Sample_Hold_A.c **** *
 170:Generated_Source\PSoC5/Sample_Hold_A.c **** *******************************************************************************/
 171:Generated_Source\PSoC5/Sample_Hold_A.c **** void Sample_Hold_A_Start(void) 
 172:Generated_Source\PSoC5/Sample_Hold_A.c **** {
 173:Generated_Source\PSoC5/Sample_Hold_A.c ****     /* If not Initialized then initialize all required hardware and software */
 174:Generated_Source\PSoC5/Sample_Hold_A.c ****     if(Sample_Hold_A_initVar == 0u)
 175:Generated_Source\PSoC5/Sample_Hold_A.c ****     {
 176:Generated_Source\PSoC5/Sample_Hold_A.c ****         Sample_Hold_A_Init();
 177:Generated_Source\PSoC5/Sample_Hold_A.c ****         Sample_Hold_A_initVar = 1u;
 178:Generated_Source\PSoC5/Sample_Hold_A.c ****     }
 179:Generated_Source\PSoC5/Sample_Hold_A.c ****     Sample_Hold_A_Enable();
 180:Generated_Source\PSoC5/Sample_Hold_A.c **** }
 181:Generated_Source\PSoC5/Sample_Hold_A.c **** 
 182:Generated_Source\PSoC5/Sample_Hold_A.c **** 
 183:Generated_Source\PSoC5/Sample_Hold_A.c **** /*******************************************************************************
 184:Generated_Source\PSoC5/Sample_Hold_A.c **** * Function Name: Sample_Hold_A_Stop
 185:Generated_Source\PSoC5/Sample_Hold_A.c **** ********************************************************************************
 186:Generated_Source\PSoC5/Sample_Hold_A.c **** *
 187:Generated_Source\PSoC5/Sample_Hold_A.c **** * Summary:
 188:Generated_Source\PSoC5/Sample_Hold_A.c **** *  Powers down amplifier to lowest power state.
 189:Generated_Source\PSoC5/Sample_Hold_A.c **** *
 190:Generated_Source\PSoC5/Sample_Hold_A.c **** * Parameters:
 191:Generated_Source\PSoC5/Sample_Hold_A.c **** *  void
 192:Generated_Source\PSoC5/Sample_Hold_A.c **** *
 193:Generated_Source\PSoC5/Sample_Hold_A.c **** * Return:
 194:Generated_Source\PSoC5/Sample_Hold_A.c **** *  void
 195:Generated_Source\PSoC5/Sample_Hold_A.c **** *
 196:Generated_Source\PSoC5/Sample_Hold_A.c **** *******************************************************************************/
 197:Generated_Source\PSoC5/Sample_Hold_A.c **** void Sample_Hold_A_Stop(void) 
 198:Generated_Source\PSoC5/Sample_Hold_A.c **** {   
  65              		.loc 1 198 0
  66              		.cfi_startproc
  67              		@ args = 0, pretend = 0, frame = 0
  68              		@ frame_needed = 0, uses_anonymous_args = 0
  69              		@ link register save eliminated.
 199:Generated_Source\PSoC5/Sample_Hold_A.c ****     /* Disble power to the Amp in Active mode template */
 200:Generated_Source\PSoC5/Sample_Hold_A.c ****     Sample_Hold_A_PM_ACT_CFG_REG &= (uint8)(~Sample_Hold_A_ACT_PWR_EN);
  70              		.loc 1 200 0
  71 0000 054A     		ldr	r2, .L5
  72 0002 1378     		ldrb	r3, [r2]	@ zero_extendqisi2
  73 0004 03F0FB03 		and	r3, r3, #251
  74 0008 1370     		strb	r3, [r2]
 201:Generated_Source\PSoC5/Sample_Hold_A.c **** 
 202:Generated_Source\PSoC5/Sample_Hold_A.c ****     /* Disble power to the Amp in Alternative Active mode template */
 203:Generated_Source\PSoC5/Sample_Hold_A.c ****     Sample_Hold_A_PM_STBY_CFG_REG &= (uint8)(~Sample_Hold_A_STBY_PWR_EN);
  75              		.loc 1 203 0
  76 000a 1032     		adds	r2, r2, #16
  77 000c 1378     		ldrb	r3, [r2]	@ zero_extendqisi2
  78 000e 03F0FB03 		and	r3, r3, #251
  79 0012 1370     		strb	r3, [r2]
  80 0014 7047     		bx	lr
  81              	.L6:
  82 0016 00BF     		.align	2
ARM GAS  C:\Users\rens_\AppData\Local\Temp\ccpd1D68.s 			page 6


  83              	.L5:
  84 0018 A9430040 		.word	1073759145
  85              		.cfi_endproc
  86              	.LFE3:
  87              		.size	Sample_Hold_A_Stop, .-Sample_Hold_A_Stop
  88              		.section	.text.Sample_Hold_A_SetPower,"ax",%progbits
  89              		.align	2
  90              		.global	Sample_Hold_A_SetPower
  91              		.thumb
  92              		.thumb_func
  93              		.type	Sample_Hold_A_SetPower, %function
  94              	Sample_Hold_A_SetPower:
  95              	.LFB4:
 204:Generated_Source\PSoC5/Sample_Hold_A.c ****     
 205:Generated_Source\PSoC5/Sample_Hold_A.c ****     #if (!CY_PSOC5A)
 206:Generated_Source\PSoC5/Sample_Hold_A.c ****         #if (CYDEV_VARIABLE_VDDA == 1u)
 207:Generated_Source\PSoC5/Sample_Hold_A.c ****             Sample_Hold_A_BSTCLK_REG &= (uint8)(~Sample_Hold_A_BST_CLK_EN);
 208:Generated_Source\PSoC5/Sample_Hold_A.c ****             /* Disable pumps only if there aren't any SC block in use */
 209:Generated_Source\PSoC5/Sample_Hold_A.c ****             if ((Sample_Hold_A_PM_ACT_CFG_REG & Sample_Hold_A_PM_ACT_CFG_MASK) == 0u)
 210:Generated_Source\PSoC5/Sample_Hold_A.c ****             {
 211:Generated_Source\PSoC5/Sample_Hold_A.c ****                 Sample_Hold_A_SC_MISC_REG &= (uint8)(~Sample_Hold_A_PUMP_FORCE);
 212:Generated_Source\PSoC5/Sample_Hold_A.c ****                 Sample_Hold_A_PUMP_CR1_REG &= (uint8)(~Sample_Hold_A_PUMP_CR1_SC_CLKSEL);
 213:Generated_Source\PSoC5/Sample_Hold_A.c ****                 CyScBoostClk_Stop();
 214:Generated_Source\PSoC5/Sample_Hold_A.c ****             }
 215:Generated_Source\PSoC5/Sample_Hold_A.c ****         #endif /* CYDEV_VARIABLE_VDDA == 1u */
 216:Generated_Source\PSoC5/Sample_Hold_A.c ****     #endif /* (CY_PSOC3 || CY_PSOC5LP) */
 217:Generated_Source\PSoC5/Sample_Hold_A.c ****  
 218:Generated_Source\PSoC5/Sample_Hold_A.c ****     /* This sets Sample and hold in zero current mode and output routes are valid */
 219:Generated_Source\PSoC5/Sample_Hold_A.c ****     #if (CY_PSOC5A)
 220:Generated_Source\PSoC5/Sample_Hold_A.c ****         Sample_Hold_A_P5backup.scCR1Reg = Sample_Hold_A_CR1_REG;
 221:Generated_Source\PSoC5/Sample_Hold_A.c ****         Sample_Hold_A_P5backup.scCR2Reg = Sample_Hold_A_CR2_REG;
 222:Generated_Source\PSoC5/Sample_Hold_A.c ****         Sample_Hold_A_CR1_REG = 0x00u;
 223:Generated_Source\PSoC5/Sample_Hold_A.c ****         Sample_Hold_A_CR2_REG = 0x00u;
 224:Generated_Source\PSoC5/Sample_Hold_A.c ****         Sample_Hold_A_P5backup.enableState = 1u;
 225:Generated_Source\PSoC5/Sample_Hold_A.c ****     #endif /* CY_PSOC5A */
 226:Generated_Source\PSoC5/Sample_Hold_A.c **** }
 227:Generated_Source\PSoC5/Sample_Hold_A.c **** 
 228:Generated_Source\PSoC5/Sample_Hold_A.c **** 
 229:Generated_Source\PSoC5/Sample_Hold_A.c **** /*******************************************************************************
 230:Generated_Source\PSoC5/Sample_Hold_A.c **** * Function Name: Sample_Hold_A_SetPower
 231:Generated_Source\PSoC5/Sample_Hold_A.c **** ********************************************************************************
 232:Generated_Source\PSoC5/Sample_Hold_A.c **** *
 233:Generated_Source\PSoC5/Sample_Hold_A.c **** * Summary:
 234:Generated_Source\PSoC5/Sample_Hold_A.c **** *  Set the power of the Sample/Track and Hold.
 235:Generated_Source\PSoC5/Sample_Hold_A.c **** *
 236:Generated_Source\PSoC5/Sample_Hold_A.c **** * Parameters:
 237:Generated_Source\PSoC5/Sample_Hold_A.c **** *  power: Sets power level between (0) and (3) high power
 238:Generated_Source\PSoC5/Sample_Hold_A.c **** *
 239:Generated_Source\PSoC5/Sample_Hold_A.c **** * Return:
 240:Generated_Source\PSoC5/Sample_Hold_A.c **** *  void
 241:Generated_Source\PSoC5/Sample_Hold_A.c **** *
 242:Generated_Source\PSoC5/Sample_Hold_A.c **** *******************************************************************************/
 243:Generated_Source\PSoC5/Sample_Hold_A.c **** void Sample_Hold_A_SetPower(uint8 power) 
 244:Generated_Source\PSoC5/Sample_Hold_A.c **** {
  96              		.loc 1 244 0
  97              		.cfi_startproc
  98              		@ args = 0, pretend = 0, frame = 0
ARM GAS  C:\Users\rens_\AppData\Local\Temp\ccpd1D68.s 			page 7


  99              		@ frame_needed = 0, uses_anonymous_args = 0
 100              		@ link register save eliminated.
 101              	.LVL0:
 245:Generated_Source\PSoC5/Sample_Hold_A.c ****     uint8 tmpCR;
 246:Generated_Source\PSoC5/Sample_Hold_A.c **** 
 247:Generated_Source\PSoC5/Sample_Hold_A.c ****     /* Sets drive bits in SC Block Control Register 1:  SCxx_CR[1:0] */
 248:Generated_Source\PSoC5/Sample_Hold_A.c ****     tmpCR = Sample_Hold_A_CR1_REG & (uint8)(~Sample_Hold_A_DRIVE_MASK);
 102              		.loc 1 248 0
 103 0000 044A     		ldr	r2, .L8
 104 0002 1378     		ldrb	r3, [r2]	@ zero_extendqisi2
 105 0004 03F0FC03 		and	r3, r3, #252
 106              	.LVL1:
 249:Generated_Source\PSoC5/Sample_Hold_A.c ****     tmpCR |= (power & Sample_Hold_A_DRIVE_MASK);
 107              		.loc 1 249 0
 108 0008 00F00300 		and	r0, r0, #3
 109              	.LVL2:
 110 000c 1843     		orrs	r0, r0, r3
 111              	.LVL3:
 250:Generated_Source\PSoC5/Sample_Hold_A.c ****     Sample_Hold_A_CR1_REG = tmpCR;
 112              		.loc 1 250 0
 113 000e 1070     		strb	r0, [r2]
 114 0010 7047     		bx	lr
 115              	.L9:
 116 0012 00BF     		.align	2
 117              	.L8:
 118 0014 09580040 		.word	1073764361
 119              		.cfi_endproc
 120              	.LFE4:
 121              		.size	Sample_Hold_A_SetPower, .-Sample_Hold_A_SetPower
 122              		.section	.text.Sample_Hold_A_Init,"ax",%progbits
 123              		.align	2
 124              		.global	Sample_Hold_A_Init
 125              		.thumb
 126              		.thumb_func
 127              		.type	Sample_Hold_A_Init, %function
 128              	Sample_Hold_A_Init:
 129              	.LFB0:
  53:Generated_Source\PSoC5/Sample_Hold_A.c ****     /* Configure SC Block based on selected Sample/Track type */
 130              		.loc 1 53 0
 131              		.cfi_startproc
 132              		@ args = 0, pretend = 0, frame = 0
 133              		@ frame_needed = 0, uses_anonymous_args = 0
 134 0000 08B5     		push	{r3, lr}
 135              		.cfi_def_cfa_offset 8
 136              		.cfi_offset 3, -8
 137              		.cfi_offset 14, -4
  57:Generated_Source\PSoC5/Sample_Hold_A.c ****         
 138              		.loc 1 57 0
 139 0002 0622     		movs	r2, #6
 140 0004 0A4B     		ldr	r3, .L12
 141 0006 1A70     		strb	r2, [r3]
  60:Generated_Source\PSoC5/Sample_Hold_A.c ****                                 Sample_Hold_A_GAIN_0DB);
 142              		.loc 1 60 0
 143 0008 0133     		adds	r3, r3, #1
 144 000a 0822     		movs	r2, #8
 145 000c 1A70     		strb	r2, [r3]
  65:Generated_Source\PSoC5/Sample_Hold_A.c ****         #endif
ARM GAS  C:\Users\rens_\AppData\Local\Temp\ccpd1D68.s 			page 8


 146              		.loc 1 65 0
 147 000e 1A78     		ldrb	r2, [r3]	@ zero_extendqisi2
 148 0010 42F01002 		orr	r2, r2, #16
 149 0014 1A70     		strb	r2, [r3]
  69:Generated_Source\PSoC5/Sample_Hold_A.c ****                                        Sample_Hold_A_REDC_00 | 
 150              		.loc 1 69 0
 151 0016 0122     		movs	r2, #1
 152 0018 0133     		adds	r3, r3, #1
 153 001a 1A70     		strb	r2, [r3]
  94:Generated_Source\PSoC5/Sample_Hold_A.c ****     
 154              		.loc 1 94 0
 155 001c 054A     		ldr	r2, .L12+4
 156 001e 1378     		ldrb	r3, [r2]	@ zero_extendqisi2
 157 0020 43F00803 		orr	r3, r3, #8
 158 0024 1370     		strb	r3, [r2]
  97:Generated_Source\PSoC5/Sample_Hold_A.c **** }
 159              		.loc 1 97 0
 160 0026 0320     		movs	r0, #3
 161 0028 FFF7FEFF 		bl	Sample_Hold_A_SetPower
 162              	.LVL4:
 163 002c 08BD     		pop	{r3, pc}
 164              	.L13:
 165 002e 00BF     		.align	2
 166              	.L12:
 167 0030 08580040 		.word	1073764360
 168 0034 2B5A0040 		.word	1073764907
 169              		.cfi_endproc
 170              	.LFE0:
 171              		.size	Sample_Hold_A_Init, .-Sample_Hold_A_Init
 172              		.section	.text.Sample_Hold_A_Start,"ax",%progbits
 173              		.align	2
 174              		.global	Sample_Hold_A_Start
 175              		.thumb
 176              		.thumb_func
 177              		.type	Sample_Hold_A_Start, %function
 178              	Sample_Hold_A_Start:
 179              	.LFB2:
 172:Generated_Source\PSoC5/Sample_Hold_A.c ****     /* If not Initialized then initialize all required hardware and software */
 180              		.loc 1 172 0
 181              		.cfi_startproc
 182              		@ args = 0, pretend = 0, frame = 0
 183              		@ frame_needed = 0, uses_anonymous_args = 0
 184 0000 08B5     		push	{r3, lr}
 185              		.cfi_def_cfa_offset 8
 186              		.cfi_offset 3, -8
 187              		.cfi_offset 14, -4
 174:Generated_Source\PSoC5/Sample_Hold_A.c ****     {
 188              		.loc 1 174 0
 189 0002 054B     		ldr	r3, .L17
 190 0004 1B78     		ldrb	r3, [r3]	@ zero_extendqisi2
 191 0006 23B9     		cbnz	r3, .L15
 176:Generated_Source\PSoC5/Sample_Hold_A.c ****         Sample_Hold_A_initVar = 1u;
 192              		.loc 1 176 0
 193 0008 FFF7FEFF 		bl	Sample_Hold_A_Init
 194              	.LVL5:
 177:Generated_Source\PSoC5/Sample_Hold_A.c ****     }
 195              		.loc 1 177 0
ARM GAS  C:\Users\rens_\AppData\Local\Temp\ccpd1D68.s 			page 9


 196 000c 0122     		movs	r2, #1
 197 000e 024B     		ldr	r3, .L17
 198 0010 1A70     		strb	r2, [r3]
 199              	.L15:
 179:Generated_Source\PSoC5/Sample_Hold_A.c **** }
 200              		.loc 1 179 0
 201 0012 FFF7FEFF 		bl	Sample_Hold_A_Enable
 202              	.LVL6:
 203 0016 08BD     		pop	{r3, pc}
 204              	.L18:
 205              		.align	2
 206              	.L17:
 207 0018 00000000 		.word	.LANCHOR0
 208              		.cfi_endproc
 209              	.LFE2:
 210              		.size	Sample_Hold_A_Start, .-Sample_Hold_A_Start
 211              		.global	Sample_Hold_A_initVar
 212              		.bss
 213              		.set	.LANCHOR0,. + 0
 214              		.type	Sample_Hold_A_initVar, %object
 215              		.size	Sample_Hold_A_initVar, 1
 216              	Sample_Hold_A_initVar:
 217 0000 00       		.space	1
 218              		.text
 219              	.Letext0:
 220              		.file 2 "Generated_Source\\PSoC5\\cytypes.h"