ARM GAS  C:\Users\Krist\AppData\Local\Temp\ccczGda4.s 			page 1


   1              		.syntax unified
   2              		.cpu cortex-m3
   3              		.fpu softvfp
   4              		.eabi_attribute 20, 1
   5              		.eabi_attribute 21, 1
   6              		.eabi_attribute 23, 3
   7              		.eabi_attribute 24, 1
   8              		.eabi_attribute 25, 1
   9              		.eabi_attribute 26, 1
  10              		.eabi_attribute 30, 4
  11              		.eabi_attribute 34, 1
  12              		.eabi_attribute 18, 4
  13              		.thumb
  14              		.syntax unified
  15              		.file	"ADC_B.c"
  16              		.text
  17              	.Ltext0:
  18              		.cfi_sections	.debug_frame
  19              		.section	.text.ADC_B_Enable,"ax",%progbits
  20              		.align	1
  21              		.global	ADC_B_Enable
  22              		.thumb
  23              		.thumb_func
  24              		.type	ADC_B_Enable, %function
  25              	ADC_B_Enable:
  26              	.LFB2:
  27              		.file 1 "Generated_Source\\PSoC5\\ADC_B.c"
   1:Generated_Source\PSoC5/ADC_B.c **** /*******************************************************************************
   2:Generated_Source\PSoC5/ADC_B.c **** * File Name: ADC_B.c
   3:Generated_Source\PSoC5/ADC_B.c **** * Version 3.0
   4:Generated_Source\PSoC5/ADC_B.c **** *
   5:Generated_Source\PSoC5/ADC_B.c **** * Description:
   6:Generated_Source\PSoC5/ADC_B.c **** *  This file provides the source code to the API for the Successive
   7:Generated_Source\PSoC5/ADC_B.c **** *  approximation ADC Component.
   8:Generated_Source\PSoC5/ADC_B.c **** *
   9:Generated_Source\PSoC5/ADC_B.c **** * Note:
  10:Generated_Source\PSoC5/ADC_B.c **** *
  11:Generated_Source\PSoC5/ADC_B.c **** ********************************************************************************
  12:Generated_Source\PSoC5/ADC_B.c **** * Copyright 2008-2015, Cypress Semiconductor Corporation.  All rights reserved.
  13:Generated_Source\PSoC5/ADC_B.c **** * You may use this file only in accordance with the license, terms, conditions,
  14:Generated_Source\PSoC5/ADC_B.c **** * disclaimers, and limitations in the end user license agreement accompanying
  15:Generated_Source\PSoC5/ADC_B.c **** * the software package with which this file was provided.
  16:Generated_Source\PSoC5/ADC_B.c **** *******************************************************************************/
  17:Generated_Source\PSoC5/ADC_B.c **** 
  18:Generated_Source\PSoC5/ADC_B.c **** #include "CyLib.h"
  19:Generated_Source\PSoC5/ADC_B.c **** #include "ADC_B.h"
  20:Generated_Source\PSoC5/ADC_B.c **** 
  21:Generated_Source\PSoC5/ADC_B.c **** #if(ADC_B_DEFAULT_INTERNAL_CLK)
  22:Generated_Source\PSoC5/ADC_B.c ****     #include "ADC_B_theACLK.h"
  23:Generated_Source\PSoC5/ADC_B.c **** #endif /* End ADC_B_DEFAULT_INTERNAL_CLK */
  24:Generated_Source\PSoC5/ADC_B.c **** 
  25:Generated_Source\PSoC5/ADC_B.c **** 
  26:Generated_Source\PSoC5/ADC_B.c **** /***************************************
  27:Generated_Source\PSoC5/ADC_B.c **** * Forward function references
  28:Generated_Source\PSoC5/ADC_B.c **** ***************************************/
  29:Generated_Source\PSoC5/ADC_B.c **** static void ADC_B_CalcGain(uint8 resolution);
  30:Generated_Source\PSoC5/ADC_B.c **** 
ARM GAS  C:\Users\Krist\AppData\Local\Temp\ccczGda4.s 			page 2


  31:Generated_Source\PSoC5/ADC_B.c **** 
  32:Generated_Source\PSoC5/ADC_B.c **** /***************************************
  33:Generated_Source\PSoC5/ADC_B.c **** * Global data allocation
  34:Generated_Source\PSoC5/ADC_B.c **** ***************************************/
  35:Generated_Source\PSoC5/ADC_B.c **** uint8 ADC_B_initVar = 0u;
  36:Generated_Source\PSoC5/ADC_B.c **** volatile int16 ADC_B_offset;
  37:Generated_Source\PSoC5/ADC_B.c **** volatile int16 ADC_B_countsPerVolt;     /* Obsolete Gain compensation */
  38:Generated_Source\PSoC5/ADC_B.c **** volatile int32 ADC_B_countsPer10Volt;   /* Gain compensation */
  39:Generated_Source\PSoC5/ADC_B.c **** volatile int16 ADC_B_shift;
  40:Generated_Source\PSoC5/ADC_B.c **** 
  41:Generated_Source\PSoC5/ADC_B.c **** 
  42:Generated_Source\PSoC5/ADC_B.c **** /*******************************************************************************
  43:Generated_Source\PSoC5/ADC_B.c **** * Function Name: ADC_B_Start
  44:Generated_Source\PSoC5/ADC_B.c **** ********************************************************************************
  45:Generated_Source\PSoC5/ADC_B.c **** *
  46:Generated_Source\PSoC5/ADC_B.c **** * Summary:
  47:Generated_Source\PSoC5/ADC_B.c **** *  This is the preferred method to begin component operation.
  48:Generated_Source\PSoC5/ADC_B.c **** *  ADC_B_Start() sets the initVar variable, calls the
  49:Generated_Source\PSoC5/ADC_B.c **** *  ADC_B_Init() function, and then calls the
  50:Generated_Source\PSoC5/ADC_B.c **** *  ADC_B_Enable() function.
  51:Generated_Source\PSoC5/ADC_B.c **** *
  52:Generated_Source\PSoC5/ADC_B.c **** * Parameters:
  53:Generated_Source\PSoC5/ADC_B.c **** *  None.
  54:Generated_Source\PSoC5/ADC_B.c **** *
  55:Generated_Source\PSoC5/ADC_B.c **** * Return:
  56:Generated_Source\PSoC5/ADC_B.c **** *  None.
  57:Generated_Source\PSoC5/ADC_B.c **** *
  58:Generated_Source\PSoC5/ADC_B.c **** * Global variables:
  59:Generated_Source\PSoC5/ADC_B.c **** *  The ADC_B_initVar variable is used to indicate when/if initial
  60:Generated_Source\PSoC5/ADC_B.c **** *  configuration of this component has happened. The variable is initialized to
  61:Generated_Source\PSoC5/ADC_B.c **** *  zero and set to 1 the first time ADC_Start() is called. This allows for
  62:Generated_Source\PSoC5/ADC_B.c **** *  component Re-Start without re-initialization in all subsequent calls to the
  63:Generated_Source\PSoC5/ADC_B.c **** *  ADC_B_Start() routine.
  64:Generated_Source\PSoC5/ADC_B.c **** *  If re-initialization of the component is required the variable should be set
  65:Generated_Source\PSoC5/ADC_B.c **** *  to zero before call of ADC_B_Start() routine, or the user may call
  66:Generated_Source\PSoC5/ADC_B.c **** *  ADC_B_Init() and ADC_B_Enable() as done in the
  67:Generated_Source\PSoC5/ADC_B.c **** *  ADC_B_Start() routine.
  68:Generated_Source\PSoC5/ADC_B.c **** *
  69:Generated_Source\PSoC5/ADC_B.c **** * Side Effect:
  70:Generated_Source\PSoC5/ADC_B.c **** *  If the initVar variable is already set, this function only calls the
  71:Generated_Source\PSoC5/ADC_B.c **** *  ADC_B_Enable() function.
  72:Generated_Source\PSoC5/ADC_B.c **** *
  73:Generated_Source\PSoC5/ADC_B.c **** *******************************************************************************/
  74:Generated_Source\PSoC5/ADC_B.c **** void ADC_B_Start(void)
  75:Generated_Source\PSoC5/ADC_B.c **** {
  76:Generated_Source\PSoC5/ADC_B.c **** 
  77:Generated_Source\PSoC5/ADC_B.c ****     /* If not Initialized then initialize all required hardware and software */
  78:Generated_Source\PSoC5/ADC_B.c ****     if(ADC_B_initVar == 0u)
  79:Generated_Source\PSoC5/ADC_B.c ****     {
  80:Generated_Source\PSoC5/ADC_B.c ****         ADC_B_Init();
  81:Generated_Source\PSoC5/ADC_B.c ****         ADC_B_initVar = 1u;
  82:Generated_Source\PSoC5/ADC_B.c ****     }
  83:Generated_Source\PSoC5/ADC_B.c ****     ADC_B_Enable();
  84:Generated_Source\PSoC5/ADC_B.c **** }
  85:Generated_Source\PSoC5/ADC_B.c **** 
  86:Generated_Source\PSoC5/ADC_B.c **** 
  87:Generated_Source\PSoC5/ADC_B.c **** /*******************************************************************************
ARM GAS  C:\Users\Krist\AppData\Local\Temp\ccczGda4.s 			page 3


  88:Generated_Source\PSoC5/ADC_B.c **** * Function Name: ADC_B_Init
  89:Generated_Source\PSoC5/ADC_B.c **** ********************************************************************************
  90:Generated_Source\PSoC5/ADC_B.c **** *
  91:Generated_Source\PSoC5/ADC_B.c **** * Summary:
  92:Generated_Source\PSoC5/ADC_B.c **** *  Initialize component's parameters to the parameters set by user in the
  93:Generated_Source\PSoC5/ADC_B.c **** *  customizer of the component placed onto schematic. Usually called in
  94:Generated_Source\PSoC5/ADC_B.c **** *  ADC_B_Start().
  95:Generated_Source\PSoC5/ADC_B.c **** *
  96:Generated_Source\PSoC5/ADC_B.c **** * Parameters:
  97:Generated_Source\PSoC5/ADC_B.c **** *  None.
  98:Generated_Source\PSoC5/ADC_B.c **** *
  99:Generated_Source\PSoC5/ADC_B.c **** * Return:
 100:Generated_Source\PSoC5/ADC_B.c **** *  None.
 101:Generated_Source\PSoC5/ADC_B.c **** *
 102:Generated_Source\PSoC5/ADC_B.c **** * Global variables:
 103:Generated_Source\PSoC5/ADC_B.c **** *  The ADC_B_offset variable is initialized to 0.
 104:Generated_Source\PSoC5/ADC_B.c **** *
 105:Generated_Source\PSoC5/ADC_B.c **** *******************************************************************************/
 106:Generated_Source\PSoC5/ADC_B.c **** void ADC_B_Init(void)
 107:Generated_Source\PSoC5/ADC_B.c **** {
 108:Generated_Source\PSoC5/ADC_B.c **** 
 109:Generated_Source\PSoC5/ADC_B.c ****     /* This is only valid if there is an internal clock */
 110:Generated_Source\PSoC5/ADC_B.c ****     #if(ADC_B_DEFAULT_INTERNAL_CLK)
 111:Generated_Source\PSoC5/ADC_B.c ****         ADC_B_theACLK_SetMode(CYCLK_DUTY);
 112:Generated_Source\PSoC5/ADC_B.c ****     #endif /* End ADC_B_DEFAULT_INTERNAL_CLK */
 113:Generated_Source\PSoC5/ADC_B.c **** 
 114:Generated_Source\PSoC5/ADC_B.c ****     #if(ADC_B_IRQ_REMOVE == 0u)
 115:Generated_Source\PSoC5/ADC_B.c ****         /* Start and set interrupt vector */
 116:Generated_Source\PSoC5/ADC_B.c ****         CyIntSetPriority(ADC_B_INTC_NUMBER, ADC_B_INTC_PRIOR_NUMBER);
 117:Generated_Source\PSoC5/ADC_B.c ****         (void)CyIntSetVector(ADC_B_INTC_NUMBER, &ADC_B_ISR);
 118:Generated_Source\PSoC5/ADC_B.c ****     #endif   /* End ADC_B_IRQ_REMOVE */
 119:Generated_Source\PSoC5/ADC_B.c **** 
 120:Generated_Source\PSoC5/ADC_B.c ****     /* Enable IRQ mode*/
 121:Generated_Source\PSoC5/ADC_B.c ****     ADC_B_SAR_CSR1_REG |= ADC_B_SAR_IRQ_MASK_EN | ADC_B_SAR_IRQ_MODE_EDGE;
 122:Generated_Source\PSoC5/ADC_B.c **** 
 123:Generated_Source\PSoC5/ADC_B.c ****     /*Set SAR ADC resolution ADC */
 124:Generated_Source\PSoC5/ADC_B.c ****     ADC_B_SetResolution(ADC_B_DEFAULT_RESOLUTION);
 125:Generated_Source\PSoC5/ADC_B.c ****     ADC_B_offset = 0;
 126:Generated_Source\PSoC5/ADC_B.c **** }
 127:Generated_Source\PSoC5/ADC_B.c **** 
 128:Generated_Source\PSoC5/ADC_B.c **** 
 129:Generated_Source\PSoC5/ADC_B.c **** /*******************************************************************************
 130:Generated_Source\PSoC5/ADC_B.c **** * Function Name: ADC_B_Enable
 131:Generated_Source\PSoC5/ADC_B.c **** ********************************************************************************
 132:Generated_Source\PSoC5/ADC_B.c **** *
 133:Generated_Source\PSoC5/ADC_B.c **** * Summary:
 134:Generated_Source\PSoC5/ADC_B.c **** *  Enables the reference, clock and power for SAR ADC.
 135:Generated_Source\PSoC5/ADC_B.c **** *
 136:Generated_Source\PSoC5/ADC_B.c **** * Parameters:
 137:Generated_Source\PSoC5/ADC_B.c **** *  None.
 138:Generated_Source\PSoC5/ADC_B.c **** *
 139:Generated_Source\PSoC5/ADC_B.c **** * Return:
 140:Generated_Source\PSoC5/ADC_B.c **** *  None.
 141:Generated_Source\PSoC5/ADC_B.c **** *
 142:Generated_Source\PSoC5/ADC_B.c **** *******************************************************************************/
 143:Generated_Source\PSoC5/ADC_B.c **** void ADC_B_Enable(void)
 144:Generated_Source\PSoC5/ADC_B.c **** {
ARM GAS  C:\Users\Krist\AppData\Local\Temp\ccczGda4.s 			page 4


  28              		.loc 1 144 0
  29              		.cfi_startproc
  30              		@ args = 0, pretend = 0, frame = 0
  31              		@ frame_needed = 0, uses_anonymous_args = 0
  32 0000 38B5     		push	{r3, r4, r5, lr}
  33              		.cfi_def_cfa_offset 16
  34              		.cfi_offset 3, -16
  35              		.cfi_offset 4, -12
  36              		.cfi_offset 5, -8
  37              		.cfi_offset 14, -4
 145:Generated_Source\PSoC5/ADC_B.c ****     uint8 tmpReg;
 146:Generated_Source\PSoC5/ADC_B.c ****     uint8 enableInterrupts;
 147:Generated_Source\PSoC5/ADC_B.c ****     enableInterrupts = CyEnterCriticalSection();
  38              		.loc 1 147 0
  39 0002 FFF7FEFF 		bl	CyEnterCriticalSection
  40              	.LVL0:
 148:Generated_Source\PSoC5/ADC_B.c **** 
 149:Generated_Source\PSoC5/ADC_B.c ****     /* Enable the SAR ADC block in Active Power Mode */
 150:Generated_Source\PSoC5/ADC_B.c ****     ADC_B_PWRMGR_SAR_REG |= ADC_B_ACT_PWR_SAR_EN;
  41              		.loc 1 150 0
  42 0006 1B4A     		ldr	r2, .L2
 147:Generated_Source\PSoC5/ADC_B.c **** 
  43              		.loc 1 147 0
  44 0008 0446     		mov	r4, r0
  45              	.LVL1:
  46              		.loc 1 150 0
  47 000a 1378     		ldrb	r3, [r2]	@ zero_extendqisi2
 151:Generated_Source\PSoC5/ADC_B.c **** 
 152:Generated_Source\PSoC5/ADC_B.c ****      /* Enable the SAR ADC in Standby Power Mode*/
 153:Generated_Source\PSoC5/ADC_B.c ****     ADC_B_STBY_PWRMGR_SAR_REG |= ADC_B_STBY_PWR_SAR_EN;
 154:Generated_Source\PSoC5/ADC_B.c **** 
 155:Generated_Source\PSoC5/ADC_B.c ****     /* This is only valid if there is an internal clock */
 156:Generated_Source\PSoC5/ADC_B.c ****     #if(ADC_B_DEFAULT_INTERNAL_CLK)
 157:Generated_Source\PSoC5/ADC_B.c ****         ADC_B_PWRMGR_CLK_REG |= ADC_B_ACT_PWR_CLK_EN;
 158:Generated_Source\PSoC5/ADC_B.c ****         ADC_B_STBY_PWRMGR_CLK_REG |= ADC_B_STBY_PWR_CLK_EN;
 159:Generated_Source\PSoC5/ADC_B.c ****     #endif /* End ADC_B_DEFAULT_INTERNAL_CLK */
 160:Generated_Source\PSoC5/ADC_B.c **** 
 161:Generated_Source\PSoC5/ADC_B.c ****     /* Enable VCM buffer and Enable Int Ref Amp */
 162:Generated_Source\PSoC5/ADC_B.c ****     tmpReg = ADC_B_SAR_CSR3_REG;
 163:Generated_Source\PSoC5/ADC_B.c ****     tmpReg |= ADC_B_SAR_EN_BUF_VCM_EN;
 164:Generated_Source\PSoC5/ADC_B.c ****     /* PD_BUF_VREF is OFF in External reference or Vdda reference mode */
 165:Generated_Source\PSoC5/ADC_B.c ****     #if((ADC_B_DEFAULT_REFERENCE == ADC_B__EXT_REF) || \
 166:Generated_Source\PSoC5/ADC_B.c ****         (ADC_B_DEFAULT_RANGE == ADC_B__VNEG_VDDA_DIFF))
 167:Generated_Source\PSoC5/ADC_B.c ****         tmpReg &= (uint8)~ADC_B_SAR_EN_BUF_VREF_EN;
 168:Generated_Source\PSoC5/ADC_B.c ****     #else /* In INTREF or INTREF Bypassed this buffer is ON */
 169:Generated_Source\PSoC5/ADC_B.c ****         tmpReg |= ADC_B_SAR_EN_BUF_VREF_EN;
 170:Generated_Source\PSoC5/ADC_B.c ****     #endif /* ADC_B_DEFAULT_REFERENCE == ADC_B__EXT_REF */
 171:Generated_Source\PSoC5/ADC_B.c ****     ADC_B_SAR_CSR3_REG = tmpReg;
 172:Generated_Source\PSoC5/ADC_B.c **** 
 173:Generated_Source\PSoC5/ADC_B.c ****     /* Set reference for ADC */
 174:Generated_Source\PSoC5/ADC_B.c ****     #if(ADC_B_DEFAULT_RANGE == ADC_B__VNEG_VDDA_DIFF)
 175:Generated_Source\PSoC5/ADC_B.c ****         #if(ADC_B_DEFAULT_REFERENCE == ADC_B__EXT_REF)
 176:Generated_Source\PSoC5/ADC_B.c ****             ADC_B_SAR_CSR6_REG = ADC_B_INT_BYPASS_EXT_VREF; /* S2 */
 177:Generated_Source\PSoC5/ADC_B.c ****         #else /* Internal Vdda reference or obsolete bypass mode */
 178:Generated_Source\PSoC5/ADC_B.c ****             ADC_B_SAR_CSR6_REG = ADC_B_VDDA_VREF;           /* S7 */
 179:Generated_Source\PSoC5/ADC_B.c ****         #endif /* ADC_B_DEFAULT_REFERENCE == ADC_B__EXT_REF */
 180:Generated_Source\PSoC5/ADC_B.c ****     #else  /* Reference goes through internal buffer */
ARM GAS  C:\Users\Krist\AppData\Local\Temp\ccczGda4.s 			page 5


 181:Generated_Source\PSoC5/ADC_B.c ****         #if(ADC_B_DEFAULT_REFERENCE == ADC_B__INT_REF_NOT_BYPASSED)
 182:Generated_Source\PSoC5/ADC_B.c ****             ADC_B_SAR_CSR6_REG = ADC_B_INT_VREF;            /* S3 + S4 */
 183:Generated_Source\PSoC5/ADC_B.c ****         #else /* INTREF Bypassed of External */
 184:Generated_Source\PSoC5/ADC_B.c ****             ADC_B_SAR_CSR6_REG = ADC_B_INT_BYPASS_EXT_VREF; /* S2 */
 185:Generated_Source\PSoC5/ADC_B.c ****         #endif /* ADC_B_DEFAULT_REFERENCE == ADC_B__INT_REF_NOT_BYPASSED */
 186:Generated_Source\PSoC5/ADC_B.c ****     #endif /* VNEG_VDDA_DIFF */
 187:Generated_Source\PSoC5/ADC_B.c **** 
 188:Generated_Source\PSoC5/ADC_B.c ****     /* Low non-overlap delay for sampling clock signals (for 1MSPS) */
 189:Generated_Source\PSoC5/ADC_B.c ****     #if(ADC_B_HIGH_POWER_PULSE == 0u) /* MinPulseWidth <= 50 ns */
 190:Generated_Source\PSoC5/ADC_B.c ****         ADC_B_SAR_CSR5_REG &= (uint8)~ADC_B_SAR_DLY_INC;
 191:Generated_Source\PSoC5/ADC_B.c ****     #else /* Set High non-overlap delay for sampling clock signals (for <500KSPS)*/
 192:Generated_Source\PSoC5/ADC_B.c ****         ADC_B_SAR_CSR5_REG |= ADC_B_SAR_DLY_INC;
 193:Generated_Source\PSoC5/ADC_B.c ****     #endif /* ADC_B_HIGH_POWER_PULSE == 0u */
 194:Generated_Source\PSoC5/ADC_B.c **** 
 195:Generated_Source\PSoC5/ADC_B.c ****     /* Increase comparator latch enable delay by 20%, 
 196:Generated_Source\PSoC5/ADC_B.c ****     *  Increase comparator bias current by 30% without impacting delaysDelay 
 197:Generated_Source\PSoC5/ADC_B.c ****     *  Default for 1MSPS) 
 198:Generated_Source\PSoC5/ADC_B.c ****     */
 199:Generated_Source\PSoC5/ADC_B.c ****     #if(ADC_B_HIGH_POWER_PULSE == 0u)    /* MinPulseWidth <= 50 ns */
 200:Generated_Source\PSoC5/ADC_B.c ****         ADC_B_SAR_CSR5_REG |= ADC_B_SAR_SEL_CSEL_DFT_CHAR;
 201:Generated_Source\PSoC5/ADC_B.c ****     #else /* for <500ksps */
 202:Generated_Source\PSoC5/ADC_B.c ****         ADC_B_SAR_CSR5_REG &= (uint8)~ADC_B_SAR_SEL_CSEL_DFT_CHAR;
 203:Generated_Source\PSoC5/ADC_B.c ****     #endif /* ADC_B_HIGH_POWER_PULSE == 0u */
 204:Generated_Source\PSoC5/ADC_B.c **** 
 205:Generated_Source\PSoC5/ADC_B.c ****     /* Set default power and other configurations for control register 0 in multiple lines */
 206:Generated_Source\PSoC5/ADC_B.c ****     ADC_B_SAR_CSR0_REG = (uint8)((uint8)ADC_B_DEFAULT_POWER << ADC_B_SAR_POWER_SHIFT)
  48              		.loc 1 206 0
  49 000c 0825     		movs	r5, #8
 150:Generated_Source\PSoC5/ADC_B.c **** 
  50              		.loc 1 150 0
  51 000e 43F00103 		orr	r3, r3, #1
  52 0012 1370     		strb	r3, [r2]
 153:Generated_Source\PSoC5/ADC_B.c **** 
  53              		.loc 1 153 0
  54 0014 137C     		ldrb	r3, [r2, #16]	@ zero_extendqisi2
 207:Generated_Source\PSoC5/ADC_B.c ****     /* SAR_HIZ_CLEAR:   Should not be used for LP */
 208:Generated_Source\PSoC5/ADC_B.c ****     #if ((CY_PSOC5LP) || (ADC_B_DEFAULT_REFERENCE != ADC_B__EXT_REF))
 209:Generated_Source\PSoC5/ADC_B.c ****         | ADC_B_SAR_HIZ_CLEAR
 210:Generated_Source\PSoC5/ADC_B.c ****     #endif /* SAR_HIZ_CLEAR */
 211:Generated_Source\PSoC5/ADC_B.c ****     /*Set Convertion mode */
 212:Generated_Source\PSoC5/ADC_B.c ****     #if(ADC_B_DEFAULT_CONV_MODE != ADC_B__FREE_RUNNING)      /* If triggered mode */
 213:Generated_Source\PSoC5/ADC_B.c ****         | ADC_B_SAR_MX_SOF_UDB           /* source: UDB */
 214:Generated_Source\PSoC5/ADC_B.c ****         | ADC_B_SAR_SOF_MODE_EDGE        /* Set edge-sensitive sof source */
 215:Generated_Source\PSoC5/ADC_B.c ****     #endif /* ADC_B_DEFAULT_CONV_MODE */
 216:Generated_Source\PSoC5/ADC_B.c ****     ; /* end of multiple line initialization */
 217:Generated_Source\PSoC5/ADC_B.c **** 
 218:Generated_Source\PSoC5/ADC_B.c ****     ADC_B_SAR_TR0_REG = ADC_B_SAR_CAP_TRIM_2;
 219:Generated_Source\PSoC5/ADC_B.c **** 
 220:Generated_Source\PSoC5/ADC_B.c ****     /* Enable clock for SAR ADC*/
 221:Generated_Source\PSoC5/ADC_B.c ****     ADC_B_SAR_CLK_REG |= ADC_B_SAR_MX_CLK_EN;
 222:Generated_Source\PSoC5/ADC_B.c **** 
 223:Generated_Source\PSoC5/ADC_B.c ****     CyDelayUs(10u); /* The block is ready to use 10 us after the enable signal is set high. */
  55              		.loc 1 223 0
  56 0016 0A20     		movs	r0, #10
 153:Generated_Source\PSoC5/ADC_B.c **** 
  57              		.loc 1 153 0
  58 0018 43F00103 		orr	r3, r3, #1
ARM GAS  C:\Users\Krist\AppData\Local\Temp\ccczGda4.s 			page 6


  59 001c 1374     		strb	r3, [r2, #16]
 162:Generated_Source\PSoC5/ADC_B.c ****     tmpReg |= ADC_B_SAR_EN_BUF_VCM_EN;
  60              		.loc 1 162 0
  61 001e 02F5AA52 		add	r2, r2, #5440
  62 0022 1832     		adds	r2, r2, #24
  63 0024 1378     		ldrb	r3, [r2]	@ zero_extendqisi2
  64              	.LVL2:
 169:Generated_Source\PSoC5/ADC_B.c ****     #endif /* ADC_B_DEFAULT_REFERENCE == ADC_B__EXT_REF */
  65              		.loc 1 169 0
  66 0026 43F00303 		orr	r3, r3, #3
  67              	.LVL3:
 171:Generated_Source\PSoC5/ADC_B.c **** 
  68              		.loc 1 171 0
  69 002a 1370     		strb	r3, [r2]
 182:Generated_Source\PSoC5/ADC_B.c ****         #else /* INTREF Bypassed of External */
  70              		.loc 1 182 0
  71 002c 124B     		ldr	r3, .L2+4
  72              	.LVL4:
  73 002e 1822     		movs	r2, #24
  74              	.LVL5:
  75 0030 1A70     		strb	r2, [r3]
  76              	.LVL6:
 192:Generated_Source\PSoC5/ADC_B.c ****     #endif /* ADC_B_HIGH_POWER_PULSE == 0u */
  77              		.loc 1 192 0
  78 0032 13F8012C 		ldrb	r2, [r3, #-1]	@ zero_extendqisi2
  79 0036 42F04002 		orr	r2, r2, #64
  80 003a 03F8012C 		strb	r2, [r3, #-1]
 202:Generated_Source\PSoC5/ADC_B.c ****     #endif /* ADC_B_HIGH_POWER_PULSE == 0u */
  81              		.loc 1 202 0
  82 003e 13F8012C 		ldrb	r2, [r3, #-1]	@ zero_extendqisi2
  83 0042 02F0FC02 		and	r2, r2, #252
  84 0046 03F8012C 		strb	r2, [r3, #-1]
 206:Generated_Source\PSoC5/ADC_B.c ****     /* SAR_HIZ_CLEAR:   Should not be used for LP */
  85              		.loc 1 206 0
  86 004a 03F8065C 		strb	r5, [r3, #-6]
 218:Generated_Source\PSoC5/ADC_B.c **** 
  87              		.loc 1 218 0
  88 004e A3F59753 		sub	r3, r3, #4832
  89 0052 0222     		movs	r2, #2
  90 0054 123B     		subs	r3, r3, #18
  91 0056 1A70     		strb	r2, [r3]
 221:Generated_Source\PSoC5/ADC_B.c **** 
  92              		.loc 1 221 0
  93 0058 084A     		ldr	r2, .L2+8
  94 005a 1378     		ldrb	r3, [r2]	@ zero_extendqisi2
  95 005c 2B43     		orrs	r3, r3, r5
  96 005e 1370     		strb	r3, [r2]
  97              		.loc 1 223 0
  98 0060 FFF7FEFF 		bl	CyDelayUs
  99              	.LVL7:
 224:Generated_Source\PSoC5/ADC_B.c **** 
 225:Generated_Source\PSoC5/ADC_B.c ****     #if(ADC_B_IRQ_REMOVE == 0u)
 226:Generated_Source\PSoC5/ADC_B.c ****         /* Clear a pending interrupt */
 227:Generated_Source\PSoC5/ADC_B.c ****         CyIntClearPending(ADC_B_INTC_NUMBER);
 100              		.loc 1 227 0
 101 0064 064B     		ldr	r3, .L2+12
 228:Generated_Source\PSoC5/ADC_B.c ****     #endif   /* End ADC_B_IRQ_REMOVE */
ARM GAS  C:\Users\Krist\AppData\Local\Temp\ccczGda4.s 			page 7


 229:Generated_Source\PSoC5/ADC_B.c **** 
 230:Generated_Source\PSoC5/ADC_B.c ****     CyExitCriticalSection(enableInterrupts);
 102              		.loc 1 230 0
 103 0066 2046     		mov	r0, r4
 227:Generated_Source\PSoC5/ADC_B.c ****     #endif   /* End ADC_B_IRQ_REMOVE */
 104              		.loc 1 227 0
 105 0068 1D60     		str	r5, [r3]
 231:Generated_Source\PSoC5/ADC_B.c **** }
 106              		.loc 1 231 0
 107 006a BDE83840 		pop	{r3, r4, r5, lr}
 108              		.cfi_restore 14
 109              		.cfi_restore 5
 110              		.cfi_restore 4
 111              		.cfi_restore 3
 112              		.cfi_def_cfa_offset 0
 113              	.LVL8:
 230:Generated_Source\PSoC5/ADC_B.c **** }
 114              		.loc 1 230 0
 115 006e FFF7FEBF 		b	CyExitCriticalSection
 116              	.LVL9:
 117              	.L3:
 118 0072 00BF     		.align	2
 119              	.L2:
 120 0074 AB430040 		.word	1073759147
 121 0078 06590040 		.word	1073764614
 122 007c 275B0040 		.word	1073765159
 123 0080 80E200E0 		.word	-536812928
 124              		.cfi_endproc
 125              	.LFE2:
 126              		.size	ADC_B_Enable, .-ADC_B_Enable
 127              		.section	.text.ADC_B_Stop,"ax",%progbits
 128              		.align	1
 129              		.global	ADC_B_Stop
 130              		.thumb
 131              		.thumb_func
 132              		.type	ADC_B_Stop, %function
 133              	ADC_B_Stop:
 134              	.LFB3:
 232:Generated_Source\PSoC5/ADC_B.c **** 
 233:Generated_Source\PSoC5/ADC_B.c **** 
 234:Generated_Source\PSoC5/ADC_B.c **** /*******************************************************************************
 235:Generated_Source\PSoC5/ADC_B.c **** * Function Name: ADC_B_Stop
 236:Generated_Source\PSoC5/ADC_B.c **** ********************************************************************************
 237:Generated_Source\PSoC5/ADC_B.c **** *
 238:Generated_Source\PSoC5/ADC_B.c **** * Summary:
 239:Generated_Source\PSoC5/ADC_B.c **** *  Stops ADC conversions and puts the ADC into its lowest power mode.
 240:Generated_Source\PSoC5/ADC_B.c **** *
 241:Generated_Source\PSoC5/ADC_B.c **** * Parameters:
 242:Generated_Source\PSoC5/ADC_B.c **** *  None.
 243:Generated_Source\PSoC5/ADC_B.c **** *
 244:Generated_Source\PSoC5/ADC_B.c **** * Return:
 245:Generated_Source\PSoC5/ADC_B.c **** *  None.
 246:Generated_Source\PSoC5/ADC_B.c **** *
 247:Generated_Source\PSoC5/ADC_B.c **** *******************************************************************************/
 248:Generated_Source\PSoC5/ADC_B.c **** void ADC_B_Stop(void)
 249:Generated_Source\PSoC5/ADC_B.c **** {
 135              		.loc 1 249 0
ARM GAS  C:\Users\Krist\AppData\Local\Temp\ccczGda4.s 			page 8


 136              		.cfi_startproc
 137              		@ args = 0, pretend = 0, frame = 0
 138              		@ frame_needed = 0, uses_anonymous_args = 0
 139 0000 08B5     		push	{r3, lr}
 140              		.cfi_def_cfa_offset 8
 141              		.cfi_offset 3, -8
 142              		.cfi_offset 14, -4
 250:Generated_Source\PSoC5/ADC_B.c ****     uint8 enableInterrupts;
 251:Generated_Source\PSoC5/ADC_B.c ****     enableInterrupts = CyEnterCriticalSection();
 143              		.loc 1 251 0
 144 0002 FFF7FEFF 		bl	CyEnterCriticalSection
 145              	.LVL10:
 252:Generated_Source\PSoC5/ADC_B.c **** 
 253:Generated_Source\PSoC5/ADC_B.c ****     /* Stop all conversions */
 254:Generated_Source\PSoC5/ADC_B.c ****     ADC_B_SAR_CSR0_REG &= (uint8)~ADC_B_SAR_SOF_START_CONV;
 146              		.loc 1 254 0
 147 0006 0A4A     		ldr	r2, .L5
 148 0008 1378     		ldrb	r3, [r2]	@ zero_extendqisi2
 149 000a 03F0FE03 		and	r3, r3, #254
 150 000e 1370     		strb	r3, [r2]
 255:Generated_Source\PSoC5/ADC_B.c ****     /* Disable the SAR ADC block in Active Power Mode */
 256:Generated_Source\PSoC5/ADC_B.c ****     ADC_B_PWRMGR_SAR_REG &= (uint8)~ADC_B_ACT_PWR_SAR_EN;
 151              		.loc 1 256 0
 152 0010 A2F5AA52 		sub	r2, r2, #5440
 153 0014 153A     		subs	r2, r2, #21
 154 0016 1378     		ldrb	r3, [r2]	@ zero_extendqisi2
 155 0018 03F0FE03 		and	r3, r3, #254
 156 001c 1370     		strb	r3, [r2]
 257:Generated_Source\PSoC5/ADC_B.c ****     /* Disable the SAR ADC in Standby Power Mode */
 258:Generated_Source\PSoC5/ADC_B.c ****     ADC_B_STBY_PWRMGR_SAR_REG &= (uint8)~ADC_B_STBY_PWR_SAR_EN;
 157              		.loc 1 258 0
 158 001e 137C     		ldrb	r3, [r2, #16]	@ zero_extendqisi2
 159 0020 03F0FE03 		and	r3, r3, #254
 160 0024 1374     		strb	r3, [r2, #16]
 259:Generated_Source\PSoC5/ADC_B.c **** 
 260:Generated_Source\PSoC5/ADC_B.c ****     /* This is only valid if there is an internal clock */
 261:Generated_Source\PSoC5/ADC_B.c ****     #if(ADC_B_DEFAULT_INTERNAL_CLK)
 262:Generated_Source\PSoC5/ADC_B.c ****         ADC_B_PWRMGR_CLK_REG &= (uint8)~ADC_B_ACT_PWR_CLK_EN;
 263:Generated_Source\PSoC5/ADC_B.c ****         ADC_B_STBY_PWRMGR_CLK_REG &= (uint8)~ADC_B_STBY_PWR_CLK_EN;
 264:Generated_Source\PSoC5/ADC_B.c ****     #endif /* End ADC_B_DEFAULT_INTERNAL_CLK */
 265:Generated_Source\PSoC5/ADC_B.c **** 
 266:Generated_Source\PSoC5/ADC_B.c ****     CyExitCriticalSection(enableInterrupts);
 267:Generated_Source\PSoC5/ADC_B.c **** 
 268:Generated_Source\PSoC5/ADC_B.c **** }
 161              		.loc 1 268 0
 162 0026 BDE80840 		pop	{r3, lr}
 163              		.cfi_restore 14
 164              		.cfi_restore 3
 165              		.cfi_def_cfa_offset 0
 266:Generated_Source\PSoC5/ADC_B.c **** 
 166              		.loc 1 266 0
 167 002a FFF7FEBF 		b	CyExitCriticalSection
 168              	.LVL11:
 169              	.L6:
 170 002e 00BF     		.align	2
 171              	.L5:
 172 0030 00590040 		.word	1073764608
ARM GAS  C:\Users\Krist\AppData\Local\Temp\ccczGda4.s 			page 9


 173              		.cfi_endproc
 174              	.LFE3:
 175              		.size	ADC_B_Stop, .-ADC_B_Stop
 176              		.section	.text.ADC_B_SetPower,"ax",%progbits
 177              		.align	1
 178              		.global	ADC_B_SetPower
 179              		.thumb
 180              		.thumb_func
 181              		.type	ADC_B_SetPower, %function
 182              	ADC_B_SetPower:
 183              	.LFB4:
 269:Generated_Source\PSoC5/ADC_B.c **** 
 270:Generated_Source\PSoC5/ADC_B.c **** 
 271:Generated_Source\PSoC5/ADC_B.c **** /*******************************************************************************
 272:Generated_Source\PSoC5/ADC_B.c **** * Function Name: ADC_B_SetPower
 273:Generated_Source\PSoC5/ADC_B.c **** ********************************************************************************
 274:Generated_Source\PSoC5/ADC_B.c **** *
 275:Generated_Source\PSoC5/ADC_B.c **** * Summary:
 276:Generated_Source\PSoC5/ADC_B.c **** *  Sets the operational power of the ADC. You should use the higher power
 277:Generated_Source\PSoC5/ADC_B.c **** *  settings with faster clock speeds.
 278:Generated_Source\PSoC5/ADC_B.c **** *
 279:Generated_Source\PSoC5/ADC_B.c **** * Parameters:
 280:Generated_Source\PSoC5/ADC_B.c **** *  power:  Power setting for ADC
 281:Generated_Source\PSoC5/ADC_B.c **** *  0 ->    Normal
 282:Generated_Source\PSoC5/ADC_B.c **** *  1 ->    Medium power
 283:Generated_Source\PSoC5/ADC_B.c **** *  2 ->    1.25 power
 284:Generated_Source\PSoC5/ADC_B.c **** *  3 ->    Minimum power.
 285:Generated_Source\PSoC5/ADC_B.c **** *
 286:Generated_Source\PSoC5/ADC_B.c **** * Return:
 287:Generated_Source\PSoC5/ADC_B.c **** *  None.
 288:Generated_Source\PSoC5/ADC_B.c **** *
 289:Generated_Source\PSoC5/ADC_B.c **** *******************************************************************************/
 290:Generated_Source\PSoC5/ADC_B.c **** void ADC_B_SetPower(uint8 power)
 291:Generated_Source\PSoC5/ADC_B.c **** {
 184              		.loc 1 291 0
 185              		.cfi_startproc
 186              		@ args = 0, pretend = 0, frame = 0
 187              		@ frame_needed = 0, uses_anonymous_args = 0
 188              		@ link register save eliminated.
 189              	.LVL12:
 292:Generated_Source\PSoC5/ADC_B.c ****     uint8 tmpReg;
 293:Generated_Source\PSoC5/ADC_B.c **** 
 294:Generated_Source\PSoC5/ADC_B.c ****     /* mask off invalid power settings */
 295:Generated_Source\PSoC5/ADC_B.c ****     power &= ADC_B_SAR_API_POWER_MASK;
 296:Generated_Source\PSoC5/ADC_B.c **** 
 297:Generated_Source\PSoC5/ADC_B.c ****     /* Set Power parameter  */
 298:Generated_Source\PSoC5/ADC_B.c ****     tmpReg = ADC_B_SAR_CSR0_REG & (uint8)~ADC_B_SAR_POWER_MASK;
 190              		.loc 1 298 0
 191 0000 044A     		ldr	r2, .L8
 192 0002 1378     		ldrb	r3, [r2]	@ zero_extendqisi2
 193 0004 03F03F03 		and	r3, r3, #63
 194              	.LVL13:
 299:Generated_Source\PSoC5/ADC_B.c ****     tmpReg |= (uint8)(power << ADC_B_SAR_POWER_SHIFT);
 195              		.loc 1 299 0
 196 0008 43EA8010 		orr	r0, r3, r0, lsl #6
 197              	.LVL14:
 198 000c C0B2     		uxtb	r0, r0
ARM GAS  C:\Users\Krist\AppData\Local\Temp\ccczGda4.s 			page 10


 199              	.LVL15:
 300:Generated_Source\PSoC5/ADC_B.c ****     ADC_B_SAR_CSR0_REG = tmpReg;
 200              		.loc 1 300 0
 201 000e 1070     		strb	r0, [r2]
 202 0010 7047     		bx	lr
 203              	.L9:
 204 0012 00BF     		.align	2
 205              	.L8:
 206 0014 00590040 		.word	1073764608
 207              		.cfi_endproc
 208              	.LFE4:
 209              		.size	ADC_B_SetPower, .-ADC_B_SetPower
 210              		.section	.text.ADC_B_SetResolution,"ax",%progbits
 211              		.align	1
 212              		.global	ADC_B_SetResolution
 213              		.thumb
 214              		.thumb_func
 215              		.type	ADC_B_SetResolution, %function
 216              	ADC_B_SetResolution:
 217              	.LFB5:
 301:Generated_Source\PSoC5/ADC_B.c **** }
 302:Generated_Source\PSoC5/ADC_B.c **** 
 303:Generated_Source\PSoC5/ADC_B.c **** 
 304:Generated_Source\PSoC5/ADC_B.c **** /*******************************************************************************
 305:Generated_Source\PSoC5/ADC_B.c **** * Function Name: ADC_B_SetResolution
 306:Generated_Source\PSoC5/ADC_B.c **** ********************************************************************************
 307:Generated_Source\PSoC5/ADC_B.c **** *
 308:Generated_Source\PSoC5/ADC_B.c **** * Summary:
 309:Generated_Source\PSoC5/ADC_B.c **** *  Sets the Relution of the SAR.
 310:Generated_Source\PSoC5/ADC_B.c **** *
 311:Generated_Source\PSoC5/ADC_B.c **** * Parameters:
 312:Generated_Source\PSoC5/ADC_B.c **** *  resolution:
 313:Generated_Source\PSoC5/ADC_B.c **** *  12 ->    RES12
 314:Generated_Source\PSoC5/ADC_B.c **** *  10 ->    RES10
 315:Generated_Source\PSoC5/ADC_B.c **** *  8  ->    RES8
 316:Generated_Source\PSoC5/ADC_B.c **** *
 317:Generated_Source\PSoC5/ADC_B.c **** * Return:
 318:Generated_Source\PSoC5/ADC_B.c **** *  None.
 319:Generated_Source\PSoC5/ADC_B.c **** *
 320:Generated_Source\PSoC5/ADC_B.c **** * Side Effects:
 321:Generated_Source\PSoC5/ADC_B.c **** *  The ADC resolution cannot be changed during a conversion cycle. The
 322:Generated_Source\PSoC5/ADC_B.c **** *  recommended best practice is to stop conversions with
 323:Generated_Source\PSoC5/ADC_B.c **** *  ADC_StopConvert(), change the resolution, then restart the
 324:Generated_Source\PSoC5/ADC_B.c **** *  conversions with ADC_StartConvert().
 325:Generated_Source\PSoC5/ADC_B.c **** *  If you decide not to stop conversions before calling this API, you
 326:Generated_Source\PSoC5/ADC_B.c **** *  should use ADC_IsEndConversion() to wait until conversion is complete
 327:Generated_Source\PSoC5/ADC_B.c **** *  before changing the resolution.
 328:Generated_Source\PSoC5/ADC_B.c **** *  If you call ADC_SetResolution() during a conversion, the resolution will
 329:Generated_Source\PSoC5/ADC_B.c **** *  not be changed until the current conversion is complete. Data will not be
 330:Generated_Source\PSoC5/ADC_B.c **** *  available in the new resolution for another 6 + "New Resolution(in bits)"
 331:Generated_Source\PSoC5/ADC_B.c **** *  clock cycles.
 332:Generated_Source\PSoC5/ADC_B.c **** *  You may need add a delay of this number of clock cycles after
 333:Generated_Source\PSoC5/ADC_B.c **** *  ADC_SetResolution() is called before data is valid again.
 334:Generated_Source\PSoC5/ADC_B.c **** *  Affects ADC_CountsTo_Volts(), ADC_CountsTo_mVolts(), and
 335:Generated_Source\PSoC5/ADC_B.c **** *  ADC_CountsTo_uVolts() by calculating the correct conversion between ADC
 336:Generated_Source\PSoC5/ADC_B.c **** *  counts and the applied input voltage. Calculation depends on resolution,
 337:Generated_Source\PSoC5/ADC_B.c **** *  input range, and voltage reference.
ARM GAS  C:\Users\Krist\AppData\Local\Temp\ccczGda4.s 			page 11


 338:Generated_Source\PSoC5/ADC_B.c **** *
 339:Generated_Source\PSoC5/ADC_B.c **** *******************************************************************************/
 340:Generated_Source\PSoC5/ADC_B.c **** void ADC_B_SetResolution(uint8 resolution)
 341:Generated_Source\PSoC5/ADC_B.c **** {
 218              		.loc 1 341 0
 219              		.cfi_startproc
 220              		@ args = 0, pretend = 0, frame = 0
 221              		@ frame_needed = 0, uses_anonymous_args = 0
 222              		@ link register save eliminated.
 223              	.LVL16:
 342:Generated_Source\PSoC5/ADC_B.c ****     uint8 tmpReg;
 343:Generated_Source\PSoC5/ADC_B.c **** 
 344:Generated_Source\PSoC5/ADC_B.c ****     /* Set SAR ADC resolution and sample width: 18 conversion cycles at 12bits + 1 gap */
 345:Generated_Source\PSoC5/ADC_B.c ****     switch (resolution)
 224              		.loc 1 345 0
 225 0000 0828     		cmp	r0, #8
 226 0002 04D0     		beq	.L12
 227 0004 0A28     		cmp	r0, #10
 346:Generated_Source\PSoC5/ADC_B.c ****     {
 347:Generated_Source\PSoC5/ADC_B.c ****         case (uint8)ADC_B__BITS_12:
 348:Generated_Source\PSoC5/ADC_B.c ****             tmpReg = ADC_B_SAR_RESOLUTION_12BIT | ADC_B_SAR_SAMPLE_WIDTH;
 228              		.loc 1 348 0
 229 0006 0CBF     		ite	eq
 230 0008 8223     		moveq	r3, #130
 231 000a C223     		movne	r3, #194
 232 000c 00E0     		b	.L13
 233              	.L12:
 234              	.LVL17:
 349:Generated_Source\PSoC5/ADC_B.c ****             break;
 350:Generated_Source\PSoC5/ADC_B.c ****         case (uint8)ADC_B__BITS_10:
 351:Generated_Source\PSoC5/ADC_B.c ****             tmpReg = ADC_B_SAR_RESOLUTION_10BIT | ADC_B_SAR_SAMPLE_WIDTH;
 352:Generated_Source\PSoC5/ADC_B.c ****             break;
 353:Generated_Source\PSoC5/ADC_B.c ****         case (uint8)ADC_B__BITS_8:
 354:Generated_Source\PSoC5/ADC_B.c ****             tmpReg = ADC_B_SAR_RESOLUTION_8BIT | ADC_B_SAR_SAMPLE_WIDTH;
 235              		.loc 1 354 0
 236 000e 4223     		movs	r3, #66
 237              	.LVL18:
 238              	.L13:
 239 0010 0838     		subs	r0, r0, #8
 240              	.LVL19:
 355:Generated_Source\PSoC5/ADC_B.c ****             break;
 356:Generated_Source\PSoC5/ADC_B.c ****         default:
 357:Generated_Source\PSoC5/ADC_B.c ****             tmpReg = ADC_B_SAR_RESOLUTION_12BIT | ADC_B_SAR_SAMPLE_WIDTH;
 358:Generated_Source\PSoC5/ADC_B.c ****             /* Halt CPU in debug mode if resolution is out of valid range */
 359:Generated_Source\PSoC5/ADC_B.c ****             CYASSERT(0u != 0u);
 360:Generated_Source\PSoC5/ADC_B.c ****             break;
 361:Generated_Source\PSoC5/ADC_B.c ****     }
 362:Generated_Source\PSoC5/ADC_B.c ****     ADC_B_SAR_CSR2_REG = tmpReg;
 241              		.loc 1 362 0
 242 0012 0E4A     		ldr	r2, .L18
 243 0014 C0B2     		uxtb	r0, r0
 244 0016 0428     		cmp	r0, #4
 245 0018 1370     		strb	r3, [r2]
 246              	.LVL20:
 247 001a 98BF     		it	ls
 248 001c 0C4B     		ldrls	r3, .L18+4
 249 001e 4FF00002 		mov	r2, #0
ARM GAS  C:\Users\Krist\AppData\Local\Temp\ccczGda4.s 			page 12


 250 0022 98BF     		it	ls
 251 0024 33F91010 		ldrshls	r1, [r3, r0, lsl #1]
 252              	.LBB4:
 253              	.LBB5:
 363:Generated_Source\PSoC5/ADC_B.c **** 
 364:Generated_Source\PSoC5/ADC_B.c ****      /* Calculate gain for convert counts to volts */
 365:Generated_Source\PSoC5/ADC_B.c ****     ADC_B_CalcGain(resolution);
 366:Generated_Source\PSoC5/ADC_B.c **** }
 367:Generated_Source\PSoC5/ADC_B.c **** 
 368:Generated_Source\PSoC5/ADC_B.c **** 
 369:Generated_Source\PSoC5/ADC_B.c **** #if(ADC_B_DEFAULT_CONV_MODE != ADC_B__HARDWARE_TRIGGER)
 370:Generated_Source\PSoC5/ADC_B.c **** 
 371:Generated_Source\PSoC5/ADC_B.c **** 
 372:Generated_Source\PSoC5/ADC_B.c ****     /*******************************************************************************
 373:Generated_Source\PSoC5/ADC_B.c ****     * Function Name: ADC_B_StartConvert
 374:Generated_Source\PSoC5/ADC_B.c ****     ********************************************************************************
 375:Generated_Source\PSoC5/ADC_B.c ****     *
 376:Generated_Source\PSoC5/ADC_B.c ****     * Summary:
 377:Generated_Source\PSoC5/ADC_B.c ****     *  Forces the ADC to initiate a conversion. In free-running mode, the ADC runs
 378:Generated_Source\PSoC5/ADC_B.c ****     *  continuously. In software trigger mode, the function also acts as a software
 379:Generated_Source\PSoC5/ADC_B.c ****     *  version of the SOC and every conversion must be triggered by
 380:Generated_Source\PSoC5/ADC_B.c ****     *  ADC_B_StartConvert(). This function is not available when the
 381:Generated_Source\PSoC5/ADC_B.c ****     *  Hardware Trigger sample mode is selected.
 382:Generated_Source\PSoC5/ADC_B.c ****     *
 383:Generated_Source\PSoC5/ADC_B.c ****     * Parameters:
 384:Generated_Source\PSoC5/ADC_B.c ****     *  None.
 385:Generated_Source\PSoC5/ADC_B.c ****     *
 386:Generated_Source\PSoC5/ADC_B.c ****     * Return:
 387:Generated_Source\PSoC5/ADC_B.c ****     *  None.
 388:Generated_Source\PSoC5/ADC_B.c ****     *
 389:Generated_Source\PSoC5/ADC_B.c ****     * Theory:
 390:Generated_Source\PSoC5/ADC_B.c ****     *  Forces the ADC to initiate a conversion. In Free Running mode, the ADC will
 391:Generated_Source\PSoC5/ADC_B.c ****     *  run continuously. In a software trigger mode the function also acts as a
 392:Generated_Source\PSoC5/ADC_B.c ****     *  software version of the SOC. Here every conversion has to be triggered by
 393:Generated_Source\PSoC5/ADC_B.c ****     *  the routine. This writes into the SOC bit in SAR_CTRL reg.
 394:Generated_Source\PSoC5/ADC_B.c ****     *
 395:Generated_Source\PSoC5/ADC_B.c ****     * Side Effects:
 396:Generated_Source\PSoC5/ADC_B.c ****     *  In a software trigger mode the function switches source for SOF from the
 397:Generated_Source\PSoC5/ADC_B.c ****     *  external pin to the internal SOF generation. Application should not call
 398:Generated_Source\PSoC5/ADC_B.c ****     *  StartConvert if external source used for SOF.
 399:Generated_Source\PSoC5/ADC_B.c ****     *
 400:Generated_Source\PSoC5/ADC_B.c ****     *******************************************************************************/
 401:Generated_Source\PSoC5/ADC_B.c ****     void ADC_B_StartConvert(void)
 402:Generated_Source\PSoC5/ADC_B.c ****     {
 403:Generated_Source\PSoC5/ADC_B.c ****         #if(ADC_B_DEFAULT_CONV_MODE != ADC_B__FREE_RUNNING)  /* If software triggered mode */
 404:Generated_Source\PSoC5/ADC_B.c ****             ADC_B_SAR_CSR0_REG &= (uint8)~ADC_B_SAR_MX_SOF_UDB;   /* source: SOF bit */
 405:Generated_Source\PSoC5/ADC_B.c ****         #endif /* End ADC_B_DEFAULT_CONV_MODE */
 406:Generated_Source\PSoC5/ADC_B.c **** 
 407:Generated_Source\PSoC5/ADC_B.c ****         /* Start the conversion */
 408:Generated_Source\PSoC5/ADC_B.c ****         ADC_B_SAR_CSR0_REG |= ADC_B_SAR_SOF_START_CONV;
 409:Generated_Source\PSoC5/ADC_B.c ****     }
 410:Generated_Source\PSoC5/ADC_B.c **** 
 411:Generated_Source\PSoC5/ADC_B.c **** 
 412:Generated_Source\PSoC5/ADC_B.c ****     /*******************************************************************************
 413:Generated_Source\PSoC5/ADC_B.c ****     * Function Name: ADC_B_StopConvert
 414:Generated_Source\PSoC5/ADC_B.c ****     ********************************************************************************
 415:Generated_Source\PSoC5/ADC_B.c ****     *
ARM GAS  C:\Users\Krist\AppData\Local\Temp\ccczGda4.s 			page 13


 416:Generated_Source\PSoC5/ADC_B.c ****     * Summary:
 417:Generated_Source\PSoC5/ADC_B.c ****     *  Forces the ADC to stop conversions. If a conversion is currently executing,
 418:Generated_Source\PSoC5/ADC_B.c ****     *  that conversion will complete, but no further conversions will occur. This
 419:Generated_Source\PSoC5/ADC_B.c ****     *  function is not available when the Hardware Trigger sample mode is selected.
 420:Generated_Source\PSoC5/ADC_B.c ****     *
 421:Generated_Source\PSoC5/ADC_B.c ****     * Parameters:
 422:Generated_Source\PSoC5/ADC_B.c ****     *  None.
 423:Generated_Source\PSoC5/ADC_B.c ****     *
 424:Generated_Source\PSoC5/ADC_B.c ****     * Return:
 425:Generated_Source\PSoC5/ADC_B.c ****     *  None.
 426:Generated_Source\PSoC5/ADC_B.c ****     *
 427:Generated_Source\PSoC5/ADC_B.c ****     * Theory:
 428:Generated_Source\PSoC5/ADC_B.c ****     *  Stops ADC conversion in Free Running mode.
 429:Generated_Source\PSoC5/ADC_B.c ****     *
 430:Generated_Source\PSoC5/ADC_B.c ****     * Side Effects:
 431:Generated_Source\PSoC5/ADC_B.c ****     *  In Software Trigger sample mode, this function sets a software version of the
 432:Generated_Source\PSoC5/ADC_B.c ****     *  SOC to low level and switches the SOC source to hardware SOC input.
 433:Generated_Source\PSoC5/ADC_B.c ****     *
 434:Generated_Source\PSoC5/ADC_B.c ****     *******************************************************************************/
 435:Generated_Source\PSoC5/ADC_B.c ****     void ADC_B_StopConvert(void)
 436:Generated_Source\PSoC5/ADC_B.c ****     {
 437:Generated_Source\PSoC5/ADC_B.c ****         /* Stop all conversions */
 438:Generated_Source\PSoC5/ADC_B.c ****         ADC_B_SAR_CSR0_REG &= (uint8)~ADC_B_SAR_SOF_START_CONV;
 439:Generated_Source\PSoC5/ADC_B.c **** 
 440:Generated_Source\PSoC5/ADC_B.c ****         #if(ADC_B_DEFAULT_CONV_MODE != ADC_B__FREE_RUNNING)  /* If software triggered mode */
 441:Generated_Source\PSoC5/ADC_B.c ****             /* Return source to UDB for hardware SOF signal */
 442:Generated_Source\PSoC5/ADC_B.c ****             ADC_B_SAR_CSR0_REG |= ADC_B_SAR_MX_SOF_UDB;    /* source: UDB */
 443:Generated_Source\PSoC5/ADC_B.c ****         #endif /* End ADC_B_DEFAULT_CONV_MODE */
 444:Generated_Source\PSoC5/ADC_B.c **** 
 445:Generated_Source\PSoC5/ADC_B.c ****     }
 446:Generated_Source\PSoC5/ADC_B.c **** 
 447:Generated_Source\PSoC5/ADC_B.c **** #endif /* End ADC_B_DEFAULT_CONV_MODE != ADC_B__HARDWARE_TRIGGER */
 448:Generated_Source\PSoC5/ADC_B.c **** 
 449:Generated_Source\PSoC5/ADC_B.c **** 
 450:Generated_Source\PSoC5/ADC_B.c **** /*******************************************************************************
 451:Generated_Source\PSoC5/ADC_B.c **** * Function Name: ADC_B_IsEndConversion
 452:Generated_Source\PSoC5/ADC_B.c **** ********************************************************************************
 453:Generated_Source\PSoC5/ADC_B.c **** *
 454:Generated_Source\PSoC5/ADC_B.c **** * Summary:
 455:Generated_Source\PSoC5/ADC_B.c **** *  Immediately returns the status of the conversion or does not return
 456:Generated_Source\PSoC5/ADC_B.c **** *  (blocking) until the conversion completes, depending on the retMode
 457:Generated_Source\PSoC5/ADC_B.c **** *  parameter.
 458:Generated_Source\PSoC5/ADC_B.c **** *
 459:Generated_Source\PSoC5/ADC_B.c **** * Parameters:
 460:Generated_Source\PSoC5/ADC_B.c **** *  retMode:  Check conversion return mode.
 461:Generated_Source\PSoC5/ADC_B.c **** *   ADC_B_RETURN_STATUS: Immediately returns the status. If the
 462:Generated_Source\PSoC5/ADC_B.c **** *     value returned is zero, the conversion is not complete, and this function
 463:Generated_Source\PSoC5/ADC_B.c **** *     should be retried until a nonzero result is returned.
 464:Generated_Source\PSoC5/ADC_B.c **** *   ADC_B_WAIT_FOR_RESULT: Does not return a result until the ADC
 465:Generated_Source\PSoC5/ADC_B.c **** *     conversion is complete.
 466:Generated_Source\PSoC5/ADC_B.c **** *
 467:Generated_Source\PSoC5/ADC_B.c **** * Return:
 468:Generated_Source\PSoC5/ADC_B.c **** *  (uint8)  0 =>  The ADC is still calculating the last result.
 469:Generated_Source\PSoC5/ADC_B.c **** *           1 =>  The last conversion is complete.
 470:Generated_Source\PSoC5/ADC_B.c **** *
 471:Generated_Source\PSoC5/ADC_B.c **** * Side Effects:
 472:Generated_Source\PSoC5/ADC_B.c **** *  This function reads the end of conversion status, which is cleared on read.
ARM GAS  C:\Users\Krist\AppData\Local\Temp\ccczGda4.s 			page 14


 473:Generated_Source\PSoC5/ADC_B.c **** *
 474:Generated_Source\PSoC5/ADC_B.c **** *******************************************************************************/
 475:Generated_Source\PSoC5/ADC_B.c **** uint8 ADC_B_IsEndConversion(uint8 retMode)
 476:Generated_Source\PSoC5/ADC_B.c **** {
 477:Generated_Source\PSoC5/ADC_B.c ****     uint8 status;
 478:Generated_Source\PSoC5/ADC_B.c **** 
 479:Generated_Source\PSoC5/ADC_B.c ****     do
 480:Generated_Source\PSoC5/ADC_B.c ****     {
 481:Generated_Source\PSoC5/ADC_B.c ****         status = ADC_B_SAR_CSR1_REG & ADC_B_SAR_EOF_1;
 482:Generated_Source\PSoC5/ADC_B.c ****     } while ((status != ADC_B_SAR_EOF_1) && (retMode == ADC_B_WAIT_FOR_RESULT));
 483:Generated_Source\PSoC5/ADC_B.c ****     /* If convertion complete, wait until EOF bit released */
 484:Generated_Source\PSoC5/ADC_B.c ****     if(status == ADC_B_SAR_EOF_1)
 485:Generated_Source\PSoC5/ADC_B.c ****     {
 486:Generated_Source\PSoC5/ADC_B.c ****         /* wait one ADC clock to let the EOC status bit release */
 487:Generated_Source\PSoC5/ADC_B.c ****         CyDelayUs(1u);
 488:Generated_Source\PSoC5/ADC_B.c ****         /* Do the unconditional read operation of the CSR1 register to make sure the EOC bit has be
 489:Generated_Source\PSoC5/ADC_B.c ****         CY_GET_REG8(ADC_B_SAR_CSR1_PTR);
 490:Generated_Source\PSoC5/ADC_B.c ****     }
 491:Generated_Source\PSoC5/ADC_B.c **** 
 492:Generated_Source\PSoC5/ADC_B.c ****     return(status);
 493:Generated_Source\PSoC5/ADC_B.c **** }
 494:Generated_Source\PSoC5/ADC_B.c **** 
 495:Generated_Source\PSoC5/ADC_B.c **** 
 496:Generated_Source\PSoC5/ADC_B.c **** /*******************************************************************************
 497:Generated_Source\PSoC5/ADC_B.c **** * Function Name: ADC_B_GetResult8
 498:Generated_Source\PSoC5/ADC_B.c **** ********************************************************************************
 499:Generated_Source\PSoC5/ADC_B.c **** *
 500:Generated_Source\PSoC5/ADC_B.c **** * Summary:
 501:Generated_Source\PSoC5/ADC_B.c **** *  Returns the result of an 8-bit conversion. If the resolution is set greater
 502:Generated_Source\PSoC5/ADC_B.c **** *  than 8 bits, the function returns the LSB of the result.
 503:Generated_Source\PSoC5/ADC_B.c **** *  ADC_B_IsEndConversion() should be called to verify that the data
 504:Generated_Source\PSoC5/ADC_B.c **** *   sample is ready.
 505:Generated_Source\PSoC5/ADC_B.c **** *
 506:Generated_Source\PSoC5/ADC_B.c **** * Parameters:
 507:Generated_Source\PSoC5/ADC_B.c **** *  None.
 508:Generated_Source\PSoC5/ADC_B.c **** *
 509:Generated_Source\PSoC5/ADC_B.c **** * Return:
 510:Generated_Source\PSoC5/ADC_B.c **** *  The LSB of the last ADC conversion.
 511:Generated_Source\PSoC5/ADC_B.c **** *
 512:Generated_Source\PSoC5/ADC_B.c **** * Global Variables:
 513:Generated_Source\PSoC5/ADC_B.c **** *  ADC_B_shift - used to convert the ADC counts to the 2s
 514:Generated_Source\PSoC5/ADC_B.c **** *  compliment form.
 515:Generated_Source\PSoC5/ADC_B.c **** *
 516:Generated_Source\PSoC5/ADC_B.c **** * Side Effects:
 517:Generated_Source\PSoC5/ADC_B.c **** *  Converts the ADC counts to the 2s complement form.
 518:Generated_Source\PSoC5/ADC_B.c **** *
 519:Generated_Source\PSoC5/ADC_B.c **** *******************************************************************************/
 520:Generated_Source\PSoC5/ADC_B.c **** int8 ADC_B_GetResult8( void )
 521:Generated_Source\PSoC5/ADC_B.c **** {
 522:Generated_Source\PSoC5/ADC_B.c ****     return( (int8)ADC_B_SAR_WRK0_REG - (int8)ADC_B_shift);
 523:Generated_Source\PSoC5/ADC_B.c **** }
 524:Generated_Source\PSoC5/ADC_B.c **** 
 525:Generated_Source\PSoC5/ADC_B.c **** 
 526:Generated_Source\PSoC5/ADC_B.c **** /*******************************************************************************
 527:Generated_Source\PSoC5/ADC_B.c **** * Function Name: ADC_B_GetResult16
 528:Generated_Source\PSoC5/ADC_B.c **** ********************************************************************************
 529:Generated_Source\PSoC5/ADC_B.c **** *
ARM GAS  C:\Users\Krist\AppData\Local\Temp\ccczGda4.s 			page 15


 530:Generated_Source\PSoC5/ADC_B.c **** * Summary:
 531:Generated_Source\PSoC5/ADC_B.c **** *  Returns a 16-bit result for a conversion with a result that has a resolution
 532:Generated_Source\PSoC5/ADC_B.c **** *  of 8 to 12 bits.
 533:Generated_Source\PSoC5/ADC_B.c **** *  ADC_B_IsEndConversion() should be called to verify that the data
 534:Generated_Source\PSoC5/ADC_B.c **** *   sample is ready
 535:Generated_Source\PSoC5/ADC_B.c **** *
 536:Generated_Source\PSoC5/ADC_B.c **** * Parameters:
 537:Generated_Source\PSoC5/ADC_B.c **** *  None.
 538:Generated_Source\PSoC5/ADC_B.c **** *
 539:Generated_Source\PSoC5/ADC_B.c **** * Return:
 540:Generated_Source\PSoC5/ADC_B.c **** *  The 16-bit result of the last ADC conversion
 541:Generated_Source\PSoC5/ADC_B.c **** *
 542:Generated_Source\PSoC5/ADC_B.c **** * Global Variables:
 543:Generated_Source\PSoC5/ADC_B.c **** *  ADC_B_shift - used to convert the ADC counts to the 2s
 544:Generated_Source\PSoC5/ADC_B.c **** *  compliment form.
 545:Generated_Source\PSoC5/ADC_B.c **** *
 546:Generated_Source\PSoC5/ADC_B.c **** * Side Effects:
 547:Generated_Source\PSoC5/ADC_B.c **** *  Converts the ADC counts to the 2s complement form.
 548:Generated_Source\PSoC5/ADC_B.c **** *
 549:Generated_Source\PSoC5/ADC_B.c **** *******************************************************************************/
 550:Generated_Source\PSoC5/ADC_B.c **** int16 ADC_B_GetResult16( void )
 551:Generated_Source\PSoC5/ADC_B.c **** {
 552:Generated_Source\PSoC5/ADC_B.c ****     uint16 res;
 553:Generated_Source\PSoC5/ADC_B.c **** 
 554:Generated_Source\PSoC5/ADC_B.c ****     res = CY_GET_REG16(ADC_B_SAR_WRK_PTR);
 555:Generated_Source\PSoC5/ADC_B.c **** 
 556:Generated_Source\PSoC5/ADC_B.c ****     return( (int16)res - ADC_B_shift );
 557:Generated_Source\PSoC5/ADC_B.c **** }
 558:Generated_Source\PSoC5/ADC_B.c **** 
 559:Generated_Source\PSoC5/ADC_B.c **** 
 560:Generated_Source\PSoC5/ADC_B.c **** /*******************************************************************************
 561:Generated_Source\PSoC5/ADC_B.c **** * Function Name: ADC_B_SetOffset
 562:Generated_Source\PSoC5/ADC_B.c **** ********************************************************************************
 563:Generated_Source\PSoC5/ADC_B.c **** *
 564:Generated_Source\PSoC5/ADC_B.c **** * Summary:
 565:Generated_Source\PSoC5/ADC_B.c **** *  Sets the ADC offset, which is used by ADC_B_CountsTo_Volts(),
 566:Generated_Source\PSoC5/ADC_B.c **** *  ADC_B_CountsTo_mVolts(), and ADC_B_CountsTo_uVolts()
 567:Generated_Source\PSoC5/ADC_B.c **** *  to subtract the offset from the given reading before calculating the voltage
 568:Generated_Source\PSoC5/ADC_B.c **** *  conversion.
 569:Generated_Source\PSoC5/ADC_B.c **** *
 570:Generated_Source\PSoC5/ADC_B.c **** * Parameters:
 571:Generated_Source\PSoC5/ADC_B.c **** *  int16: This value is measured when the inputs are shorted or connected to
 572:Generated_Source\PSoC5/ADC_B.c ****    the same input voltage.
 573:Generated_Source\PSoC5/ADC_B.c **** *
 574:Generated_Source\PSoC5/ADC_B.c **** * Return:
 575:Generated_Source\PSoC5/ADC_B.c **** *  None.
 576:Generated_Source\PSoC5/ADC_B.c **** *
 577:Generated_Source\PSoC5/ADC_B.c **** * Global Variables:
 578:Generated_Source\PSoC5/ADC_B.c **** *  The ADC_B_offset variable modified. This variable is used for
 579:Generated_Source\PSoC5/ADC_B.c **** *  offset calibration purpose.
 580:Generated_Source\PSoC5/ADC_B.c **** *  Affects the ADC_B_CountsTo_Volts,
 581:Generated_Source\PSoC5/ADC_B.c **** *  ADC_B_CountsTo_mVolts, ADC_B_CountsTo_uVolts functions
 582:Generated_Source\PSoC5/ADC_B.c **** *  by subtracting the given offset.
 583:Generated_Source\PSoC5/ADC_B.c **** *
 584:Generated_Source\PSoC5/ADC_B.c **** *******************************************************************************/
 585:Generated_Source\PSoC5/ADC_B.c **** void ADC_B_SetOffset(int16 offset)
 586:Generated_Source\PSoC5/ADC_B.c **** {
ARM GAS  C:\Users\Krist\AppData\Local\Temp\ccczGda4.s 			page 16


 587:Generated_Source\PSoC5/ADC_B.c ****     ADC_B_offset = offset;
 588:Generated_Source\PSoC5/ADC_B.c **** }
 589:Generated_Source\PSoC5/ADC_B.c **** 
 590:Generated_Source\PSoC5/ADC_B.c **** 
 591:Generated_Source\PSoC5/ADC_B.c **** /*******************************************************************************
 592:Generated_Source\PSoC5/ADC_B.c **** * Function Name: ADC_B_CalcGain
 593:Generated_Source\PSoC5/ADC_B.c **** ********************************************************************************
 594:Generated_Source\PSoC5/ADC_B.c **** *
 595:Generated_Source\PSoC5/ADC_B.c **** * Summary:
 596:Generated_Source\PSoC5/ADC_B.c **** *  This function calculates the ADC gain in counts per 10 volt.
 597:Generated_Source\PSoC5/ADC_B.c **** *
 598:Generated_Source\PSoC5/ADC_B.c **** * Parameters:
 599:Generated_Source\PSoC5/ADC_B.c **** *  uint8: resolution
 600:Generated_Source\PSoC5/ADC_B.c **** *
 601:Generated_Source\PSoC5/ADC_B.c **** * Return:
 602:Generated_Source\PSoC5/ADC_B.c **** *  None.
 603:Generated_Source\PSoC5/ADC_B.c **** *
 604:Generated_Source\PSoC5/ADC_B.c **** * Global Variables:
 605:Generated_Source\PSoC5/ADC_B.c **** *  ADC_B_shift variable initialized. This variable is used to
 606:Generated_Source\PSoC5/ADC_B.c **** *  convert the ADC counts to the 2s compliment form.
 607:Generated_Source\PSoC5/ADC_B.c **** *  ADC_B_countsPer10Volt variable initialized. This variable is used
 608:Generated_Source\PSoC5/ADC_B.c **** *  for gain calibration purpose.
 609:Generated_Source\PSoC5/ADC_B.c **** *
 610:Generated_Source\PSoC5/ADC_B.c **** *******************************************************************************/
 611:Generated_Source\PSoC5/ADC_B.c **** static void ADC_B_CalcGain( uint8 resolution )
 612:Generated_Source\PSoC5/ADC_B.c **** {
 613:Generated_Source\PSoC5/ADC_B.c ****     int32 counts;
 614:Generated_Source\PSoC5/ADC_B.c ****     #if(!((ADC_B_DEFAULT_RANGE == ADC_B__VSS_TO_VREF) || \
 615:Generated_Source\PSoC5/ADC_B.c ****          (ADC_B_DEFAULT_RANGE == ADC_B__VSSA_TO_VDDA) || \
 616:Generated_Source\PSoC5/ADC_B.c ****          (ADC_B_DEFAULT_RANGE == ADC_B__VSSA_TO_VDAC)) )
 617:Generated_Source\PSoC5/ADC_B.c ****         uint16 diff_zero;
 618:Generated_Source\PSoC5/ADC_B.c ****     #endif /* End ADC_B_DEFAULT_RANGE */
 619:Generated_Source\PSoC5/ADC_B.c **** 
 620:Generated_Source\PSoC5/ADC_B.c ****     switch (resolution)
 621:Generated_Source\PSoC5/ADC_B.c ****     {
 622:Generated_Source\PSoC5/ADC_B.c ****         case (uint8)ADC_B__BITS_12:
 623:Generated_Source\PSoC5/ADC_B.c ****             counts = (int32)ADC_B_SAR_WRK_MAX_12BIT;
 624:Generated_Source\PSoC5/ADC_B.c ****             #if(!((ADC_B_DEFAULT_RANGE == ADC_B__VSS_TO_VREF) || \
 625:Generated_Source\PSoC5/ADC_B.c ****                  (ADC_B_DEFAULT_RANGE == ADC_B__VSSA_TO_VDDA) || \
 626:Generated_Source\PSoC5/ADC_B.c ****                  (ADC_B_DEFAULT_RANGE == ADC_B__VSSA_TO_VDAC)) )
 627:Generated_Source\PSoC5/ADC_B.c ****                 diff_zero = ADC_B_SAR_DIFF_SHIFT;
 628:Generated_Source\PSoC5/ADC_B.c ****             #endif /* End ADC_B_DEFAULT_RANGE */
 629:Generated_Source\PSoC5/ADC_B.c ****             break;
 630:Generated_Source\PSoC5/ADC_B.c ****         case (uint8)ADC_B__BITS_10:
 631:Generated_Source\PSoC5/ADC_B.c ****             counts = (int32)ADC_B_SAR_WRK_MAX_10BIT;
 632:Generated_Source\PSoC5/ADC_B.c ****             #if(!((ADC_B_DEFAULT_RANGE == ADC_B__VSS_TO_VREF) || \
 633:Generated_Source\PSoC5/ADC_B.c ****                  (ADC_B_DEFAULT_RANGE == ADC_B__VSSA_TO_VDDA) || \
 634:Generated_Source\PSoC5/ADC_B.c ****                  (ADC_B_DEFAULT_RANGE == ADC_B__VSSA_TO_VDAC)) )
 635:Generated_Source\PSoC5/ADC_B.c ****                 diff_zero = ADC_B_SAR_DIFF_SHIFT >> 2u;
 636:Generated_Source\PSoC5/ADC_B.c ****             #endif /* End ADC_B_DEFAULT_RANGE */
 637:Generated_Source\PSoC5/ADC_B.c ****             break;
 638:Generated_Source\PSoC5/ADC_B.c ****         case (uint8)ADC_B__BITS_8:
 639:Generated_Source\PSoC5/ADC_B.c ****             counts = (int32)ADC_B_SAR_WRK_MAX_8BIT;
 640:Generated_Source\PSoC5/ADC_B.c ****             #if(!((ADC_B_DEFAULT_RANGE == ADC_B__VSS_TO_VREF) || \
 641:Generated_Source\PSoC5/ADC_B.c ****                  (ADC_B_DEFAULT_RANGE == ADC_B__VSSA_TO_VDDA) || \
 642:Generated_Source\PSoC5/ADC_B.c ****                  (ADC_B_DEFAULT_RANGE == ADC_B__VSSA_TO_VDAC)) )
 643:Generated_Source\PSoC5/ADC_B.c ****                 diff_zero = ADC_B_SAR_DIFF_SHIFT >> 4u;
ARM GAS  C:\Users\Krist\AppData\Local\Temp\ccczGda4.s 			page 17


 644:Generated_Source\PSoC5/ADC_B.c ****             #endif /* End ADC_B_DEFAULT_RANGE */
 645:Generated_Source\PSoC5/ADC_B.c ****             break;
 646:Generated_Source\PSoC5/ADC_B.c ****         default: /* Halt CPU in debug mode if resolution is out of valid range */
 647:Generated_Source\PSoC5/ADC_B.c ****             counts = 0;
 648:Generated_Source\PSoC5/ADC_B.c ****             #if(!((ADC_B_DEFAULT_RANGE == ADC_B__VSS_TO_VREF) || \
 649:Generated_Source\PSoC5/ADC_B.c ****                  (ADC_B_DEFAULT_RANGE == ADC_B__VSSA_TO_VDDA) || \
 650:Generated_Source\PSoC5/ADC_B.c ****                  (ADC_B_DEFAULT_RANGE == ADC_B__VSSA_TO_VDAC)) )
 651:Generated_Source\PSoC5/ADC_B.c ****                 diff_zero = 0u;
 652:Generated_Source\PSoC5/ADC_B.c ****             #endif /* End ADC_B_DEFAULT_RANGE */
 653:Generated_Source\PSoC5/ADC_B.c ****             CYASSERT(0u != 0u);
 654:Generated_Source\PSoC5/ADC_B.c ****             break;
 655:Generated_Source\PSoC5/ADC_B.c ****     }
 656:Generated_Source\PSoC5/ADC_B.c ****     ADC_B_countsPerVolt = 0; /* Clear obsolete variable */
 254              		.loc 1 656 0
 255 0028 0A4B     		ldr	r3, .L18+8
 256              	.LBE5:
 257              	.LBE4:
 362:Generated_Source\PSoC5/ADC_B.c **** 
 258              		.loc 1 362 0
 259 002a 88BF     		it	hi
 260 002c 1146     		movhi	r1, r2
 261              	.LVL21:
 262              	.LBB7:
 263              	.LBB6:
 264              		.loc 1 656 0
 265 002e 1A80     		strh	r2, [r3]	@ movhi
 657:Generated_Source\PSoC5/ADC_B.c ****     /* Calculate gain in counts per 10 volts with rounding */
 658:Generated_Source\PSoC5/ADC_B.c ****     ADC_B_countsPer10Volt = (((counts * ADC_B_10MV_COUNTS) +
 659:Generated_Source\PSoC5/ADC_B.c ****                         ADC_B_DEFAULT_REF_VOLTAGE_MV) / (ADC_B_DEFAULT_REF_VOLTAGE_MV * 2));
 266              		.loc 1 659 0
 267 0030 42F21073 		movw	r3, #10000
 268 0034 4B43     		muls	r3, r1, r3
 269 0036 41F28831 		movw	r1, #5000
 270              	.LVL22:
 271 003a 03F6C413 		addw	r3, r3, #2500
 272 003e 93FBF1F3 		sdiv	r3, r3, r1
 658:Generated_Source\PSoC5/ADC_B.c ****                         ADC_B_DEFAULT_REF_VOLTAGE_MV) / (ADC_B_DEFAULT_REF_VOLTAGE_MV * 2));
 273              		.loc 1 658 0
 274 0042 0549     		ldr	r1, .L18+12
 275 0044 0B60     		str	r3, [r1]
 660:Generated_Source\PSoC5/ADC_B.c **** 
 661:Generated_Source\PSoC5/ADC_B.c ****     #if( (ADC_B_DEFAULT_RANGE == ADC_B__VSS_TO_VREF) || \
 662:Generated_Source\PSoC5/ADC_B.c ****          (ADC_B_DEFAULT_RANGE == ADC_B__VSSA_TO_VDDA) || \
 663:Generated_Source\PSoC5/ADC_B.c ****          (ADC_B_DEFAULT_RANGE == ADC_B__VSSA_TO_VDAC) )
 664:Generated_Source\PSoC5/ADC_B.c ****         ADC_B_shift = 0;
 276              		.loc 1 664 0
 277 0046 054B     		ldr	r3, .L18+16
 278 0048 1A80     		strh	r2, [r3]	@ movhi
 279 004a 7047     		bx	lr
 280              	.L19:
 281              		.align	2
 282              	.L18:
 283 004c 02590040 		.word	1073764610
 284 0050 00000000 		.word	.LANCHOR0
 285 0054 00000000 		.word	ADC_B_countsPerVolt
 286 0058 00000000 		.word	ADC_B_countsPer10Volt
 287 005c 00000000 		.word	ADC_B_shift
ARM GAS  C:\Users\Krist\AppData\Local\Temp\ccczGda4.s 			page 18


 288              	.LBE6:
 289              	.LBE7:
 290              		.cfi_endproc
 291              	.LFE5:
 292              		.size	ADC_B_SetResolution, .-ADC_B_SetResolution
 293              		.section	.text.ADC_B_Init,"ax",%progbits
 294              		.align	1
 295              		.global	ADC_B_Init
 296              		.thumb
 297              		.thumb_func
 298              		.type	ADC_B_Init, %function
 299              	ADC_B_Init:
 300              	.LFB1:
 107:Generated_Source\PSoC5/ADC_B.c **** 
 301              		.loc 1 107 0
 302              		.cfi_startproc
 303              		@ args = 0, pretend = 0, frame = 0
 304              		@ frame_needed = 0, uses_anonymous_args = 0
 305 0000 08B5     		push	{r3, lr}
 306              		.cfi_def_cfa_offset 8
 307              		.cfi_offset 3, -8
 308              		.cfi_offset 14, -4
 116:Generated_Source\PSoC5/ADC_B.c ****         (void)CyIntSetVector(ADC_B_INTC_NUMBER, &ADC_B_ISR);
 309              		.loc 1 116 0
 310 0002 0721     		movs	r1, #7
 311 0004 0320     		movs	r0, #3
 312 0006 FFF7FEFF 		bl	CyIntSetPriority
 313              	.LVL23:
 117:Generated_Source\PSoC5/ADC_B.c ****     #endif   /* End ADC_B_IRQ_REMOVE */
 314              		.loc 1 117 0
 315 000a 0849     		ldr	r1, .L21
 316 000c 0320     		movs	r0, #3
 317 000e FFF7FEFF 		bl	CyIntSetVector
 318              	.LVL24:
 121:Generated_Source\PSoC5/ADC_B.c **** 
 319              		.loc 1 121 0
 320 0012 074A     		ldr	r2, .L21+4
 124:Generated_Source\PSoC5/ADC_B.c ****     ADC_B_offset = 0;
 321              		.loc 1 124 0
 322 0014 0C20     		movs	r0, #12
 121:Generated_Source\PSoC5/ADC_B.c **** 
 323              		.loc 1 121 0
 324 0016 1378     		ldrb	r3, [r2]	@ zero_extendqisi2
 325 0018 43F00603 		orr	r3, r3, #6
 326 001c 1370     		strb	r3, [r2]
 124:Generated_Source\PSoC5/ADC_B.c ****     ADC_B_offset = 0;
 327              		.loc 1 124 0
 328 001e FFF7FEFF 		bl	ADC_B_SetResolution
 329              	.LVL25:
 125:Generated_Source\PSoC5/ADC_B.c **** }
 330              		.loc 1 125 0
 331 0022 044B     		ldr	r3, .L21+8
 332 0024 0022     		movs	r2, #0
 333 0026 1A80     		strh	r2, [r3]	@ movhi
 334 0028 08BD     		pop	{r3, pc}
 335              	.L22:
 336 002a 00BF     		.align	2
ARM GAS  C:\Users\Krist\AppData\Local\Temp\ccczGda4.s 			page 19


 337              	.L21:
 338 002c 00000000 		.word	ADC_B_ISR
 339 0030 01590040 		.word	1073764609
 340 0034 00000000 		.word	ADC_B_offset
 341              		.cfi_endproc
 342              	.LFE1:
 343              		.size	ADC_B_Init, .-ADC_B_Init
 344              		.section	.text.ADC_B_Start,"ax",%progbits
 345              		.align	1
 346              		.global	ADC_B_Start
 347              		.thumb
 348              		.thumb_func
 349              		.type	ADC_B_Start, %function
 350              	ADC_B_Start:
 351              	.LFB0:
  75:Generated_Source\PSoC5/ADC_B.c **** 
 352              		.loc 1 75 0
 353              		.cfi_startproc
 354              		@ args = 0, pretend = 0, frame = 0
 355              		@ frame_needed = 0, uses_anonymous_args = 0
 356 0000 10B5     		push	{r4, lr}
 357              		.cfi_def_cfa_offset 8
 358              		.cfi_offset 4, -8
 359              		.cfi_offset 14, -4
  78:Generated_Source\PSoC5/ADC_B.c ****     {
 360              		.loc 1 78 0
 361 0002 054C     		ldr	r4, .L25
 362 0004 2378     		ldrb	r3, [r4]	@ zero_extendqisi2
 363 0006 1BB9     		cbnz	r3, .L24
  80:Generated_Source\PSoC5/ADC_B.c ****         ADC_B_initVar = 1u;
 364              		.loc 1 80 0
 365 0008 FFF7FEFF 		bl	ADC_B_Init
 366              	.LVL26:
  81:Generated_Source\PSoC5/ADC_B.c ****     }
 367              		.loc 1 81 0
 368 000c 0123     		movs	r3, #1
 369 000e 2370     		strb	r3, [r4]
 370              	.L24:
  84:Generated_Source\PSoC5/ADC_B.c **** 
 371              		.loc 1 84 0
 372 0010 BDE81040 		pop	{r4, lr}
 373              		.cfi_restore 14
 374              		.cfi_restore 4
 375              		.cfi_def_cfa_offset 0
  83:Generated_Source\PSoC5/ADC_B.c **** }
 376              		.loc 1 83 0
 377 0014 FFF7FEBF 		b	ADC_B_Enable
 378              	.LVL27:
 379              	.L26:
 380              		.align	2
 381              	.L25:
 382 0018 00000000 		.word	.LANCHOR1
 383              		.cfi_endproc
 384              	.LFE0:
 385              		.size	ADC_B_Start, .-ADC_B_Start
 386              		.section	.text.ADC_B_StartConvert,"ax",%progbits
 387              		.align	1
ARM GAS  C:\Users\Krist\AppData\Local\Temp\ccczGda4.s 			page 20


 388              		.global	ADC_B_StartConvert
 389              		.thumb
 390              		.thumb_func
 391              		.type	ADC_B_StartConvert, %function
 392              	ADC_B_StartConvert:
 393              	.LFB6:
 402:Generated_Source\PSoC5/ADC_B.c ****         #if(ADC_B_DEFAULT_CONV_MODE != ADC_B__FREE_RUNNING)  /* If software triggered mode */
 394              		.loc 1 402 0
 395              		.cfi_startproc
 396              		@ args = 0, pretend = 0, frame = 0
 397              		@ frame_needed = 0, uses_anonymous_args = 0
 398              		@ link register save eliminated.
 408:Generated_Source\PSoC5/ADC_B.c ****     }
 399              		.loc 1 408 0
 400 0000 024A     		ldr	r2, .L28
 401 0002 1378     		ldrb	r3, [r2]	@ zero_extendqisi2
 402 0004 43F00103 		orr	r3, r3, #1
 403 0008 1370     		strb	r3, [r2]
 404 000a 7047     		bx	lr
 405              	.L29:
 406              		.align	2
 407              	.L28:
 408 000c 00590040 		.word	1073764608
 409              		.cfi_endproc
 410              	.LFE6:
 411              		.size	ADC_B_StartConvert, .-ADC_B_StartConvert
 412              		.section	.text.ADC_B_StopConvert,"ax",%progbits
 413              		.align	1
 414              		.global	ADC_B_StopConvert
 415              		.thumb
 416              		.thumb_func
 417              		.type	ADC_B_StopConvert, %function
 418              	ADC_B_StopConvert:
 419              	.LFB7:
 436:Generated_Source\PSoC5/ADC_B.c ****         /* Stop all conversions */
 420              		.loc 1 436 0
 421              		.cfi_startproc
 422              		@ args = 0, pretend = 0, frame = 0
 423              		@ frame_needed = 0, uses_anonymous_args = 0
 424              		@ link register save eliminated.
 438:Generated_Source\PSoC5/ADC_B.c **** 
 425              		.loc 1 438 0
 426 0000 024A     		ldr	r2, .L31
 427 0002 1378     		ldrb	r3, [r2]	@ zero_extendqisi2
 428 0004 03F0FE03 		and	r3, r3, #254
 429 0008 1370     		strb	r3, [r2]
 430 000a 7047     		bx	lr
 431              	.L32:
 432              		.align	2
 433              	.L31:
 434 000c 00590040 		.word	1073764608
 435              		.cfi_endproc
 436              	.LFE7:
 437              		.size	ADC_B_StopConvert, .-ADC_B_StopConvert
 438              		.section	.text.ADC_B_IsEndConversion,"ax",%progbits
 439              		.align	1
 440              		.global	ADC_B_IsEndConversion
ARM GAS  C:\Users\Krist\AppData\Local\Temp\ccczGda4.s 			page 21


 441              		.thumb
 442              		.thumb_func
 443              		.type	ADC_B_IsEndConversion, %function
 444              	ADC_B_IsEndConversion:
 445              	.LFB8:
 476:Generated_Source\PSoC5/ADC_B.c ****     uint8 status;
 446              		.loc 1 476 0
 447              		.cfi_startproc
 448              		@ args = 0, pretend = 0, frame = 0
 449              		@ frame_needed = 0, uses_anonymous_args = 0
 450              	.LVL28:
 451 0000 10B5     		push	{r4, lr}
 452              		.cfi_def_cfa_offset 8
 453              		.cfi_offset 4, -8
 454              		.cfi_offset 14, -4
 481:Generated_Source\PSoC5/ADC_B.c ****     } while ((status != ADC_B_SAR_EOF_1) && (retMode == ADC_B_WAIT_FOR_RESULT));
 455              		.loc 1 481 0
 456 0002 084B     		ldr	r3, .L40
 457              	.L35:
 481:Generated_Source\PSoC5/ADC_B.c ****     } while ((status != ADC_B_SAR_EOF_1) && (retMode == ADC_B_WAIT_FOR_RESULT));
 458              		.loc 1 481 0 is_stmt 0 discriminator 2
 459 0004 1C78     		ldrb	r4, [r3]	@ zero_extendqisi2
 460              	.LVL29:
 482:Generated_Source\PSoC5/ADC_B.c ****     /* If convertion complete, wait until EOF bit released */
 461              		.loc 1 482 0 is_stmt 1 discriminator 2
 462 0006 14F00104 		ands	r4, r4, #1
 463              	.LVL30:
 464 000a 03D1     		bne	.L34
 482:Generated_Source\PSoC5/ADC_B.c ****     /* If convertion complete, wait until EOF bit released */
 465              		.loc 1 482 0 is_stmt 0 discriminator 1
 466 000c 0028     		cmp	r0, #0
 467 000e F9D0     		beq	.L35
 468 0010 0024     		movs	r4, #0
 469 0012 04E0     		b	.L39
 470              	.L34:
 487:Generated_Source\PSoC5/ADC_B.c ****         /* Do the unconditional read operation of the CSR1 register to make sure the EOC bit has be
 471              		.loc 1 487 0 is_stmt 1
 472 0014 2046     		mov	r0, r4
 473              	.LVL31:
 474 0016 FFF7FEFF 		bl	CyDelayUs
 475              	.LVL32:
 489:Generated_Source\PSoC5/ADC_B.c ****     }
 476              		.loc 1 489 0
 477 001a 024B     		ldr	r3, .L40
 478 001c 1B78     		ldrb	r3, [r3]	@ zero_extendqisi2
 479              	.L39:
 493:Generated_Source\PSoC5/ADC_B.c **** 
 480              		.loc 1 493 0
 481 001e 2046     		mov	r0, r4
 482 0020 10BD     		pop	{r4, pc}
 483              	.L41:
 484 0022 00BF     		.align	2
 485              	.L40:
 486 0024 01590040 		.word	1073764609
 487              		.cfi_endproc
 488              	.LFE8:
 489              		.size	ADC_B_IsEndConversion, .-ADC_B_IsEndConversion
ARM GAS  C:\Users\Krist\AppData\Local\Temp\ccczGda4.s 			page 22


 490              		.section	.text.ADC_B_GetResult8,"ax",%progbits
 491              		.align	1
 492              		.global	ADC_B_GetResult8
 493              		.thumb
 494              		.thumb_func
 495              		.type	ADC_B_GetResult8, %function
 496              	ADC_B_GetResult8:
 497              	.LFB9:
 521:Generated_Source\PSoC5/ADC_B.c ****     return( (int8)ADC_B_SAR_WRK0_REG - (int8)ADC_B_shift);
 498              		.loc 1 521 0
 499              		.cfi_startproc
 500              		@ args = 0, pretend = 0, frame = 0
 501              		@ frame_needed = 0, uses_anonymous_args = 0
 502              		@ link register save eliminated.
 522:Generated_Source\PSoC5/ADC_B.c **** }
 503              		.loc 1 522 0
 504 0000 034A     		ldr	r2, .L43
 505 0002 044B     		ldr	r3, .L43+4
 506 0004 1B78     		ldrb	r3, [r3]	@ zero_extendqisi2
 507 0006 1088     		ldrh	r0, [r2]
 508 0008 181A     		subs	r0, r3, r0
 523:Generated_Source\PSoC5/ADC_B.c **** 
 509              		.loc 1 523 0
 510 000a 40B2     		sxtb	r0, r0
 511 000c 7047     		bx	lr
 512              	.L44:
 513 000e 00BF     		.align	2
 514              	.L43:
 515 0010 00000000 		.word	ADC_B_shift
 516 0014 A05B0040 		.word	1073765280
 517              		.cfi_endproc
 518              	.LFE9:
 519              		.size	ADC_B_GetResult8, .-ADC_B_GetResult8
 520              		.section	.text.ADC_B_GetResult16,"ax",%progbits
 521              		.align	1
 522              		.global	ADC_B_GetResult16
 523              		.thumb
 524              		.thumb_func
 525              		.type	ADC_B_GetResult16, %function
 526              	ADC_B_GetResult16:
 527              	.LFB10:
 551:Generated_Source\PSoC5/ADC_B.c ****     uint16 res;
 528              		.loc 1 551 0
 529              		.cfi_startproc
 530              		@ args = 0, pretend = 0, frame = 0
 531              		@ frame_needed = 0, uses_anonymous_args = 0
 532              		@ link register save eliminated.
 556:Generated_Source\PSoC5/ADC_B.c **** }
 533              		.loc 1 556 0
 534 0000 034A     		ldr	r2, .L46
 554:Generated_Source\PSoC5/ADC_B.c **** 
 535              		.loc 1 554 0
 536 0002 044B     		ldr	r3, .L46+4
 537 0004 1B88     		ldrh	r3, [r3]
 538              	.LVL33:
 556:Generated_Source\PSoC5/ADC_B.c **** }
 539              		.loc 1 556 0
ARM GAS  C:\Users\Krist\AppData\Local\Temp\ccczGda4.s 			page 23


 540 0006 1088     		ldrh	r0, [r2]
 541 0008 181A     		subs	r0, r3, r0
 557:Generated_Source\PSoC5/ADC_B.c **** 
 542              		.loc 1 557 0
 543 000a 00B2     		sxth	r0, r0
 544 000c 7047     		bx	lr
 545              	.L47:
 546 000e 00BF     		.align	2
 547              	.L46:
 548 0010 00000000 		.word	ADC_B_shift
 549 0014 A05B0040 		.word	1073765280
 550              		.cfi_endproc
 551              	.LFE10:
 552              		.size	ADC_B_GetResult16, .-ADC_B_GetResult16
 553              		.section	.text.ADC_B_SetOffset,"ax",%progbits
 554              		.align	1
 555              		.global	ADC_B_SetOffset
 556              		.thumb
 557              		.thumb_func
 558              		.type	ADC_B_SetOffset, %function
 559              	ADC_B_SetOffset:
 560              	.LFB11:
 586:Generated_Source\PSoC5/ADC_B.c ****     ADC_B_offset = offset;
 561              		.loc 1 586 0
 562              		.cfi_startproc
 563              		@ args = 0, pretend = 0, frame = 0
 564              		@ frame_needed = 0, uses_anonymous_args = 0
 565              		@ link register save eliminated.
 566              	.LVL34:
 587:Generated_Source\PSoC5/ADC_B.c **** }
 567              		.loc 1 587 0
 568 0000 014B     		ldr	r3, .L49
 569 0002 1880     		strh	r0, [r3]	@ movhi
 570 0004 7047     		bx	lr
 571              	.L50:
 572 0006 00BF     		.align	2
 573              	.L49:
 574 0008 00000000 		.word	ADC_B_offset
 575              		.cfi_endproc
 576              	.LFE11:
 577              		.size	ADC_B_SetOffset, .-ADC_B_SetOffset
 578              		.section	.text.ADC_B_SetGain,"ax",%progbits
 579              		.align	1
 580              		.global	ADC_B_SetGain
 581              		.thumb
 582              		.thumb_func
 583              		.type	ADC_B_SetGain, %function
 584              	ADC_B_SetGain:
 585              	.LFB13:
 665:Generated_Source\PSoC5/ADC_B.c ****     #else
 666:Generated_Source\PSoC5/ADC_B.c ****         ADC_B_shift = diff_zero;
 667:Generated_Source\PSoC5/ADC_B.c ****     #endif /* End ADC_B_DEFAULT_RANGE */
 668:Generated_Source\PSoC5/ADC_B.c **** }
 669:Generated_Source\PSoC5/ADC_B.c **** 
 670:Generated_Source\PSoC5/ADC_B.c **** 
 671:Generated_Source\PSoC5/ADC_B.c **** /*******************************************************************************
 672:Generated_Source\PSoC5/ADC_B.c **** * Function Name: ADC_B_SetGain
ARM GAS  C:\Users\Krist\AppData\Local\Temp\ccczGda4.s 			page 24


 673:Generated_Source\PSoC5/ADC_B.c **** ********************************************************************************
 674:Generated_Source\PSoC5/ADC_B.c **** *
 675:Generated_Source\PSoC5/ADC_B.c **** * Summary:
 676:Generated_Source\PSoC5/ADC_B.c **** *  Sets the ADC gain in counts per volt for the voltage conversion functions
 677:Generated_Source\PSoC5/ADC_B.c **** *  that follow. This value is set by default by the reference and input range
 678:Generated_Source\PSoC5/ADC_B.c **** *  settings. It should only be used to further calibrate the ADC with a known
 679:Generated_Source\PSoC5/ADC_B.c **** *  input or if the ADC is using an external reference.
 680:Generated_Source\PSoC5/ADC_B.c **** *
 681:Generated_Source\PSoC5/ADC_B.c **** * Parameters:
 682:Generated_Source\PSoC5/ADC_B.c **** *  int16 adcGain counts per volt
 683:Generated_Source\PSoC5/ADC_B.c **** *
 684:Generated_Source\PSoC5/ADC_B.c **** * Return:
 685:Generated_Source\PSoC5/ADC_B.c **** *  None.
 686:Generated_Source\PSoC5/ADC_B.c **** *
 687:Generated_Source\PSoC5/ADC_B.c **** * Global Variables:
 688:Generated_Source\PSoC5/ADC_B.c **** *  ADC_B_countsPer10Volt variable modified. This variable is used
 689:Generated_Source\PSoC5/ADC_B.c **** *  for gain calibration purpose.
 690:Generated_Source\PSoC5/ADC_B.c **** *
 691:Generated_Source\PSoC5/ADC_B.c **** *******************************************************************************/
 692:Generated_Source\PSoC5/ADC_B.c **** void ADC_B_SetGain(int16 adcGain)
 693:Generated_Source\PSoC5/ADC_B.c **** {
 586              		.loc 1 693 0
 587              		.cfi_startproc
 588              		@ args = 0, pretend = 0, frame = 0
 589              		@ frame_needed = 0, uses_anonymous_args = 0
 590              		@ link register save eliminated.
 591              	.LVL35:
 694:Generated_Source\PSoC5/ADC_B.c ****     ADC_B_countsPer10Volt = (int32)adcGain * 10;
 592              		.loc 1 694 0
 593 0000 0A23     		movs	r3, #10
 594 0002 5843     		muls	r0, r3, r0
 595              	.LVL36:
 596 0004 014B     		ldr	r3, .L52
 597 0006 1860     		str	r0, [r3]
 598 0008 7047     		bx	lr
 599              	.L53:
 600 000a 00BF     		.align	2
 601              	.L52:
 602 000c 00000000 		.word	ADC_B_countsPer10Volt
 603              		.cfi_endproc
 604              	.LFE13:
 605              		.size	ADC_B_SetGain, .-ADC_B_SetGain
 606              		.section	.text.ADC_B_SetScaledGain,"ax",%progbits
 607              		.align	1
 608              		.global	ADC_B_SetScaledGain
 609              		.thumb
 610              		.thumb_func
 611              		.type	ADC_B_SetScaledGain, %function
 612              	ADC_B_SetScaledGain:
 613              	.LFB14:
 695:Generated_Source\PSoC5/ADC_B.c **** }
 696:Generated_Source\PSoC5/ADC_B.c **** 
 697:Generated_Source\PSoC5/ADC_B.c **** 
 698:Generated_Source\PSoC5/ADC_B.c **** /*******************************************************************************
 699:Generated_Source\PSoC5/ADC_B.c **** * Function Name: ADC_B_SetScaledGain
 700:Generated_Source\PSoC5/ADC_B.c **** ********************************************************************************
 701:Generated_Source\PSoC5/ADC_B.c **** *
ARM GAS  C:\Users\Krist\AppData\Local\Temp\ccczGda4.s 			page 25


 702:Generated_Source\PSoC5/ADC_B.c **** * Summary:
 703:Generated_Source\PSoC5/ADC_B.c **** *  Sets the ADC gain in counts per 10 volt for the voltage conversion functions
 704:Generated_Source\PSoC5/ADC_B.c **** *  that follow. This value is set by default by the reference and input range
 705:Generated_Source\PSoC5/ADC_B.c **** *  settings. It should only be used to further calibrate the ADC with a known
 706:Generated_Source\PSoC5/ADC_B.c **** *  input or if the ADC is using an external reference.
 707:Generated_Source\PSoC5/ADC_B.c **** *
 708:Generated_Source\PSoC5/ADC_B.c **** * Parameters:
 709:Generated_Source\PSoC5/ADC_B.c **** *  int32 adcGain  counts per 10 volt
 710:Generated_Source\PSoC5/ADC_B.c **** *
 711:Generated_Source\PSoC5/ADC_B.c **** * Return:
 712:Generated_Source\PSoC5/ADC_B.c **** *  None.
 713:Generated_Source\PSoC5/ADC_B.c **** *
 714:Generated_Source\PSoC5/ADC_B.c **** * Global Variables:
 715:Generated_Source\PSoC5/ADC_B.c **** *  ADC_B_countsPer10Volt variable modified. This variable is used
 716:Generated_Source\PSoC5/ADC_B.c **** *  for gain calibration purpose.
 717:Generated_Source\PSoC5/ADC_B.c **** *
 718:Generated_Source\PSoC5/ADC_B.c **** *******************************************************************************/
 719:Generated_Source\PSoC5/ADC_B.c **** void ADC_B_SetScaledGain(int32 adcGain)
 720:Generated_Source\PSoC5/ADC_B.c **** {
 614              		.loc 1 720 0
 615              		.cfi_startproc
 616              		@ args = 0, pretend = 0, frame = 0
 617              		@ frame_needed = 0, uses_anonymous_args = 0
 618              		@ link register save eliminated.
 619              	.LVL37:
 721:Generated_Source\PSoC5/ADC_B.c ****     ADC_B_countsPer10Volt = adcGain;
 620              		.loc 1 721 0
 621 0000 014B     		ldr	r3, .L55
 622 0002 1860     		str	r0, [r3]
 623 0004 7047     		bx	lr
 624              	.L56:
 625 0006 00BF     		.align	2
 626              	.L55:
 627 0008 00000000 		.word	ADC_B_countsPer10Volt
 628              		.cfi_endproc
 629              	.LFE14:
 630              		.size	ADC_B_SetScaledGain, .-ADC_B_SetScaledGain
 631              		.section	.text.ADC_B_CountsTo_mVolts,"ax",%progbits
 632              		.align	1
 633              		.global	ADC_B_CountsTo_mVolts
 634              		.thumb
 635              		.thumb_func
 636              		.type	ADC_B_CountsTo_mVolts, %function
 637              	ADC_B_CountsTo_mVolts:
 638              	.LFB15:
 722:Generated_Source\PSoC5/ADC_B.c **** }
 723:Generated_Source\PSoC5/ADC_B.c **** 
 724:Generated_Source\PSoC5/ADC_B.c **** 
 725:Generated_Source\PSoC5/ADC_B.c **** /*******************************************************************************
 726:Generated_Source\PSoC5/ADC_B.c **** * Function Name: ADC_B_CountsTo_mVolts
 727:Generated_Source\PSoC5/ADC_B.c **** ********************************************************************************
 728:Generated_Source\PSoC5/ADC_B.c **** *
 729:Generated_Source\PSoC5/ADC_B.c **** * Summary:
 730:Generated_Source\PSoC5/ADC_B.c **** *  Converts the ADC output to millivolts as a 16-bit integer.
 731:Generated_Source\PSoC5/ADC_B.c **** *
 732:Generated_Source\PSoC5/ADC_B.c **** * Parameters:
 733:Generated_Source\PSoC5/ADC_B.c **** *  int16 adcCounts:  Result from the ADC conversion
ARM GAS  C:\Users\Krist\AppData\Local\Temp\ccczGda4.s 			page 26


 734:Generated_Source\PSoC5/ADC_B.c **** *
 735:Generated_Source\PSoC5/ADC_B.c **** * Return:
 736:Generated_Source\PSoC5/ADC_B.c **** *  int16 Result in mVolts
 737:Generated_Source\PSoC5/ADC_B.c **** *
 738:Generated_Source\PSoC5/ADC_B.c **** * Global Variables:
 739:Generated_Source\PSoC5/ADC_B.c **** *  ADC_B_offset variable used.
 740:Generated_Source\PSoC5/ADC_B.c **** *  ADC_B_countsPer10Volt variable used.
 741:Generated_Source\PSoC5/ADC_B.c **** *
 742:Generated_Source\PSoC5/ADC_B.c **** *******************************************************************************/
 743:Generated_Source\PSoC5/ADC_B.c **** int16 ADC_B_CountsTo_mVolts(int16 adcCounts)
 744:Generated_Source\PSoC5/ADC_B.c **** {
 639              		.loc 1 744 0
 640              		.cfi_startproc
 641              		@ args = 0, pretend = 0, frame = 0
 642              		@ frame_needed = 0, uses_anonymous_args = 0
 643              		@ link register save eliminated.
 644              	.LVL38:
 745:Generated_Source\PSoC5/ADC_B.c ****     int16 mVolts;
 746:Generated_Source\PSoC5/ADC_B.c ****     int32 countsPer10Volt;
 747:Generated_Source\PSoC5/ADC_B.c **** 
 748:Generated_Source\PSoC5/ADC_B.c ****     if(ADC_B_countsPerVolt != 0)
 645              		.loc 1 748 0
 646 0000 0E4A     		ldr	r2, .L62
 647 0002 1388     		ldrh	r3, [r2]
 648 0004 1BB2     		sxth	r3, r3
 649 0006 23B1     		cbz	r3, .L58
 749:Generated_Source\PSoC5/ADC_B.c ****     {   /* Support obsolete method */
 750:Generated_Source\PSoC5/ADC_B.c ****         countsPer10Volt = (int32)ADC_B_countsPerVolt * 10;
 650              		.loc 1 750 0
 651 0008 1188     		ldrh	r1, [r2]
 652 000a 0A23     		movs	r3, #10
 653 000c 09B2     		sxth	r1, r1
 654 000e 5943     		muls	r1, r3, r1
 655              	.LVL39:
 656 0010 01E0     		b	.L59
 657              	.LVL40:
 658              	.L58:
 751:Generated_Source\PSoC5/ADC_B.c ****     }
 752:Generated_Source\PSoC5/ADC_B.c ****     else
 753:Generated_Source\PSoC5/ADC_B.c ****     {
 754:Generated_Source\PSoC5/ADC_B.c ****         countsPer10Volt = ADC_B_countsPer10Volt;
 659              		.loc 1 754 0
 660 0012 0B4B     		ldr	r3, .L62+4
 661 0014 1968     		ldr	r1, [r3]
 662              	.LVL41:
 663              	.L59:
 755:Generated_Source\PSoC5/ADC_B.c ****     }
 756:Generated_Source\PSoC5/ADC_B.c **** 
 757:Generated_Source\PSoC5/ADC_B.c ****     /* Subtract ADC offset */
 758:Generated_Source\PSoC5/ADC_B.c ****     adcCounts -= ADC_B_offset;
 664              		.loc 1 758 0
 665 0016 0B4B     		ldr	r3, .L62+8
 666 0018 1B88     		ldrh	r3, [r3]
 667 001a C01A     		subs	r0, r0, r3
 668              	.LVL42:
 759:Generated_Source\PSoC5/ADC_B.c ****     /* Convert to millivolts with rounding */
 760:Generated_Source\PSoC5/ADC_B.c ****     mVolts = (int16)( (( (int32)adcCounts * ADC_B_10MV_COUNTS ) + ( (adcCounts > 0) ?
ARM GAS  C:\Users\Krist\AppData\Local\Temp\ccczGda4.s 			page 27


 669              		.loc 1 760 0
 670 001c 42F21073 		movw	r3, #10000
 758:Generated_Source\PSoC5/ADC_B.c ****     /* Convert to millivolts with rounding */
 671              		.loc 1 758 0
 672 0020 00B2     		sxth	r0, r0
 673              	.LVL43:
 674              		.loc 1 760 0
 675 0022 03FB00F2 		mul	r2, r3, r0
 676 0026 0223     		movs	r3, #2
 761:Generated_Source\PSoC5/ADC_B.c ****                        (countsPer10Volt / 2) : (-(countsPer10Volt / 2)) )) / countsPer10Volt);
 677              		.loc 1 761 0
 678 0028 91FBF3F3 		sdiv	r3, r1, r3
 679 002c 0028     		cmp	r0, #0
 680 002e D8BF     		it	le
 681 0030 5B42     		rsble	r3, r3, #0
 682              	.LVL44:
 762:Generated_Source\PSoC5/ADC_B.c **** 
 763:Generated_Source\PSoC5/ADC_B.c ****     return( mVolts );
 683              		.loc 1 763 0
 684 0032 1344     		add	r3, r3, r2
 685              	.LVL45:
 686 0034 93FBF1F0 		sdiv	r0, r3, r1
 687              	.LVL46:
 764:Generated_Source\PSoC5/ADC_B.c **** }
 688              		.loc 1 764 0
 689 0038 00B2     		sxth	r0, r0
 690 003a 7047     		bx	lr
 691              	.L63:
 692              		.align	2
 693              	.L62:
 694 003c 00000000 		.word	ADC_B_countsPerVolt
 695 0040 00000000 		.word	ADC_B_countsPer10Volt
 696 0044 00000000 		.word	ADC_B_offset
 697              		.cfi_endproc
 698              	.LFE15:
 699              		.size	ADC_B_CountsTo_mVolts, .-ADC_B_CountsTo_mVolts
 700              		.global	__aeabi_ldivmod
 701              		.section	.text.ADC_B_CountsTo_uVolts,"ax",%progbits
 702              		.align	1
 703              		.global	ADC_B_CountsTo_uVolts
 704              		.thumb
 705              		.thumb_func
 706              		.type	ADC_B_CountsTo_uVolts, %function
 707              	ADC_B_CountsTo_uVolts:
 708              	.LFB16:
 765:Generated_Source\PSoC5/ADC_B.c **** 
 766:Generated_Source\PSoC5/ADC_B.c **** 
 767:Generated_Source\PSoC5/ADC_B.c **** /*******************************************************************************
 768:Generated_Source\PSoC5/ADC_B.c **** * Function Name: ADC_B_CountsTo_uVolts
 769:Generated_Source\PSoC5/ADC_B.c **** ********************************************************************************
 770:Generated_Source\PSoC5/ADC_B.c **** *
 771:Generated_Source\PSoC5/ADC_B.c **** * Summary:
 772:Generated_Source\PSoC5/ADC_B.c **** *  Converts the ADC output to microvolts as a 32-bit integer.
 773:Generated_Source\PSoC5/ADC_B.c **** *
 774:Generated_Source\PSoC5/ADC_B.c **** * Parameters:
 775:Generated_Source\PSoC5/ADC_B.c **** *  int16 adcCounts: Result from the ADC conversion
 776:Generated_Source\PSoC5/ADC_B.c **** *
ARM GAS  C:\Users\Krist\AppData\Local\Temp\ccczGda4.s 			page 28


 777:Generated_Source\PSoC5/ADC_B.c **** * Return:
 778:Generated_Source\PSoC5/ADC_B.c **** *  int32 Result in micro Volts
 779:Generated_Source\PSoC5/ADC_B.c **** *
 780:Generated_Source\PSoC5/ADC_B.c **** * Global Variables:
 781:Generated_Source\PSoC5/ADC_B.c **** *  ADC_B_offset variable used.
 782:Generated_Source\PSoC5/ADC_B.c **** *  ADC_B_countsPer10Volt used to convert ADC counts to uVolts.
 783:Generated_Source\PSoC5/ADC_B.c **** *
 784:Generated_Source\PSoC5/ADC_B.c **** *******************************************************************************/
 785:Generated_Source\PSoC5/ADC_B.c **** int32 ADC_B_CountsTo_uVolts(int16 adcCounts)
 786:Generated_Source\PSoC5/ADC_B.c **** {
 709              		.loc 1 786 0
 710              		.cfi_startproc
 711              		@ args = 0, pretend = 0, frame = 0
 712              		@ frame_needed = 0, uses_anonymous_args = 0
 713              	.LVL47:
 787:Generated_Source\PSoC5/ADC_B.c **** 
 788:Generated_Source\PSoC5/ADC_B.c ****     int64 uVolts;
 789:Generated_Source\PSoC5/ADC_B.c ****     int32 countsPer10Volt;
 790:Generated_Source\PSoC5/ADC_B.c **** 
 791:Generated_Source\PSoC5/ADC_B.c ****     if(ADC_B_countsPerVolt != 0)
 714              		.loc 1 791 0
 715 0000 0C4A     		ldr	r2, .L67
 786:Generated_Source\PSoC5/ADC_B.c **** 
 716              		.loc 1 786 0
 717 0002 38B5     		push	{r3, r4, r5, lr}
 718              		.cfi_def_cfa_offset 16
 719              		.cfi_offset 3, -16
 720              		.cfi_offset 4, -12
 721              		.cfi_offset 5, -8
 722              		.cfi_offset 14, -4
 723              		.loc 1 791 0
 724 0004 1388     		ldrh	r3, [r2]
 725 0006 1BB2     		sxth	r3, r3
 726 0008 23B1     		cbz	r3, .L65
 792:Generated_Source\PSoC5/ADC_B.c ****     {   /* Support obsolete method */
 793:Generated_Source\PSoC5/ADC_B.c ****         countsPer10Volt = (int32)ADC_B_countsPerVolt * 10;
 727              		.loc 1 793 0
 728 000a 1288     		ldrh	r2, [r2]
 729 000c 0A23     		movs	r3, #10
 730 000e 12B2     		sxth	r2, r2
 731 0010 5A43     		muls	r2, r3, r2
 732              	.LVL48:
 733 0012 01E0     		b	.L66
 734              	.LVL49:
 735              	.L65:
 794:Generated_Source\PSoC5/ADC_B.c ****     }
 795:Generated_Source\PSoC5/ADC_B.c ****     else
 796:Generated_Source\PSoC5/ADC_B.c ****     {
 797:Generated_Source\PSoC5/ADC_B.c ****         countsPer10Volt = ADC_B_countsPer10Volt;
 736              		.loc 1 797 0
 737 0014 084B     		ldr	r3, .L67+4
 738 0016 1A68     		ldr	r2, [r3]
 739              	.LVL50:
 740              	.L66:
 798:Generated_Source\PSoC5/ADC_B.c ****     }
 799:Generated_Source\PSoC5/ADC_B.c **** 
 800:Generated_Source\PSoC5/ADC_B.c ****     /* Subtract ADC offset */
ARM GAS  C:\Users\Krist\AppData\Local\Temp\ccczGda4.s 			page 29


 801:Generated_Source\PSoC5/ADC_B.c ****     adcCounts -= ADC_B_offset;
 741              		.loc 1 801 0
 742 0018 084B     		ldr	r3, .L67+8
 743 001a 1C88     		ldrh	r4, [r3]
 802:Generated_Source\PSoC5/ADC_B.c ****     /* To convert adcCounts to microVolts it is required to be multiplied
 803:Generated_Source\PSoC5/ADC_B.c ****     *  on 10 million and later divide on gain in counts per 10V.
 804:Generated_Source\PSoC5/ADC_B.c ****     */
 805:Generated_Source\PSoC5/ADC_B.c ****     uVolts = (( (int64)adcCounts * ADC_B_10UV_COUNTS ) / countsPer10Volt);
 806:Generated_Source\PSoC5/ADC_B.c **** 
 807:Generated_Source\PSoC5/ADC_B.c ****     return( uVolts );
 744              		.loc 1 807 0
 745 001c 084B     		ldr	r3, .L67+12
 801:Generated_Source\PSoC5/ADC_B.c ****     /* To convert adcCounts to microVolts it is required to be multiplied
 746              		.loc 1 801 0
 747 001e 041B     		subs	r4, r0, r4
 748              	.LVL51:
 749              		.loc 1 807 0
 750 0020 24B2     		sxth	r4, r4
 751 0022 A4FB0301 		umull	r0, r1, r4, r3
 752 0026 E517     		asrs	r5, r4, #31
 753 0028 03FB0511 		mla	r1, r3, r5, r1
 754 002c D317     		asrs	r3, r2, #31
 755 002e FFF7FEFF 		bl	__aeabi_ldivmod
 756              	.LVL52:
 808:Generated_Source\PSoC5/ADC_B.c **** }
 757              		.loc 1 808 0
 758 0032 38BD     		pop	{r3, r4, r5, pc}
 759              	.LVL53:
 760              	.L68:
 761              		.align	2
 762              	.L67:
 763 0034 00000000 		.word	ADC_B_countsPerVolt
 764 0038 00000000 		.word	ADC_B_countsPer10Volt
 765 003c 00000000 		.word	ADC_B_offset
 766 0040 80969800 		.word	10000000
 767              		.cfi_endproc
 768              	.LFE16:
 769              		.size	ADC_B_CountsTo_uVolts, .-ADC_B_CountsTo_uVolts
 770              		.global	__aeabi_i2f
 771              		.global	__aeabi_fmul
 772              		.global	__aeabi_fdiv
 773              		.section	.text.ADC_B_CountsTo_Volts,"ax",%progbits
 774              		.align	1
 775              		.global	ADC_B_CountsTo_Volts
 776              		.thumb
 777              		.thumb_func
 778              		.type	ADC_B_CountsTo_Volts, %function
 779              	ADC_B_CountsTo_Volts:
 780              	.LFB17:
 809:Generated_Source\PSoC5/ADC_B.c **** 
 810:Generated_Source\PSoC5/ADC_B.c **** 
 811:Generated_Source\PSoC5/ADC_B.c **** /*******************************************************************************
 812:Generated_Source\PSoC5/ADC_B.c **** * Function Name: ADC_B_CountsTo_Volts
 813:Generated_Source\PSoC5/ADC_B.c **** ********************************************************************************
 814:Generated_Source\PSoC5/ADC_B.c **** *
 815:Generated_Source\PSoC5/ADC_B.c **** * Summary:
 816:Generated_Source\PSoC5/ADC_B.c **** *  Converts the ADC output to volts as a floating-point number.
ARM GAS  C:\Users\Krist\AppData\Local\Temp\ccczGda4.s 			page 30


 817:Generated_Source\PSoC5/ADC_B.c **** *
 818:Generated_Source\PSoC5/ADC_B.c **** * Parameters:
 819:Generated_Source\PSoC5/ADC_B.c **** *  int16 adcCounts: Result from the ADC conversion
 820:Generated_Source\PSoC5/ADC_B.c **** *
 821:Generated_Source\PSoC5/ADC_B.c **** * Return:
 822:Generated_Source\PSoC5/ADC_B.c **** *  float Result in Volts
 823:Generated_Source\PSoC5/ADC_B.c **** *
 824:Generated_Source\PSoC5/ADC_B.c **** * Global Variables:
 825:Generated_Source\PSoC5/ADC_B.c **** *  ADC_B_offset variable used.
 826:Generated_Source\PSoC5/ADC_B.c **** *  ADC_B_countsPer10Volt used to convert ADC counts to Volts.
 827:Generated_Source\PSoC5/ADC_B.c **** *
 828:Generated_Source\PSoC5/ADC_B.c **** *******************************************************************************/
 829:Generated_Source\PSoC5/ADC_B.c **** float32 ADC_B_CountsTo_Volts(int16 adcCounts)
 830:Generated_Source\PSoC5/ADC_B.c **** {
 781              		.loc 1 830 0
 782              		.cfi_startproc
 783              		@ args = 0, pretend = 0, frame = 0
 784              		@ frame_needed = 0, uses_anonymous_args = 0
 785              	.LVL54:
 831:Generated_Source\PSoC5/ADC_B.c ****     float32 volts;
 832:Generated_Source\PSoC5/ADC_B.c ****     int32 countsPer10Volt;
 833:Generated_Source\PSoC5/ADC_B.c **** 
 834:Generated_Source\PSoC5/ADC_B.c ****     if(ADC_B_countsPerVolt != 0)
 786              		.loc 1 834 0
 787 0000 0E4A     		ldr	r2, .L72
 830:Generated_Source\PSoC5/ADC_B.c ****     float32 volts;
 788              		.loc 1 830 0
 789 0002 38B5     		push	{r3, r4, r5, lr}
 790              		.cfi_def_cfa_offset 16
 791              		.cfi_offset 3, -16
 792              		.cfi_offset 4, -12
 793              		.cfi_offset 5, -8
 794              		.cfi_offset 14, -4
 795              		.loc 1 834 0
 796 0004 1388     		ldrh	r3, [r2]
 797 0006 1BB2     		sxth	r3, r3
 798 0008 23B1     		cbz	r3, .L70
 835:Generated_Source\PSoC5/ADC_B.c ****     {   /* Support obsolete method */
 836:Generated_Source\PSoC5/ADC_B.c ****         countsPer10Volt = (int32)ADC_B_countsPerVolt * 10;
 799              		.loc 1 836 0
 800 000a 1488     		ldrh	r4, [r2]
 801 000c 0A23     		movs	r3, #10
 802 000e 24B2     		sxth	r4, r4
 803 0010 5C43     		muls	r4, r3, r4
 804              	.LVL55:
 805 0012 01E0     		b	.L71
 806              	.LVL56:
 807              	.L70:
 837:Generated_Source\PSoC5/ADC_B.c ****     }
 838:Generated_Source\PSoC5/ADC_B.c ****     else
 839:Generated_Source\PSoC5/ADC_B.c ****     {
 840:Generated_Source\PSoC5/ADC_B.c ****         countsPer10Volt = ADC_B_countsPer10Volt;
 808              		.loc 1 840 0
 809 0014 0A4B     		ldr	r3, .L72+4
 810 0016 1C68     		ldr	r4, [r3]
 811              	.LVL57:
 812              	.L71:
ARM GAS  C:\Users\Krist\AppData\Local\Temp\ccczGda4.s 			page 31


 841:Generated_Source\PSoC5/ADC_B.c ****     }
 842:Generated_Source\PSoC5/ADC_B.c **** 
 843:Generated_Source\PSoC5/ADC_B.c ****     /* Subtract ADC offset */
 844:Generated_Source\PSoC5/ADC_B.c ****     adcCounts -= ADC_B_offset;
 813              		.loc 1 844 0
 814 0018 0A4B     		ldr	r3, .L72+8
 815 001a 1B88     		ldrh	r3, [r3]
 816 001c C01A     		subs	r0, r0, r3
 817              	.LVL58:
 845:Generated_Source\PSoC5/ADC_B.c **** 
 846:Generated_Source\PSoC5/ADC_B.c ****     volts = ((float32)adcCounts * ADC_B_10V_COUNTS) / (float32)countsPer10Volt;
 847:Generated_Source\PSoC5/ADC_B.c **** 
 848:Generated_Source\PSoC5/ADC_B.c ****     return( volts );
 818              		.loc 1 848 0
 819 001e 00B2     		sxth	r0, r0
 820 0020 FFF7FEFF 		bl	__aeabi_i2f
 821              	.LVL59:
 822 0024 0849     		ldr	r1, .L72+12
 823 0026 FFF7FEFF 		bl	__aeabi_fmul
 824              	.LVL60:
 825 002a 0546     		mov	r5, r0
 826 002c 2046     		mov	r0, r4
 827 002e FFF7FEFF 		bl	__aeabi_i2f
 828              	.LVL61:
 829 0032 0146     		mov	r1, r0
 830 0034 2846     		mov	r0, r5
 831 0036 FFF7FEFF 		bl	__aeabi_fdiv
 832              	.LVL62:
 849:Generated_Source\PSoC5/ADC_B.c **** }
 833              		.loc 1 849 0
 834 003a 38BD     		pop	{r3, r4, r5, pc}
 835              	.LVL63:
 836              	.L73:
 837              		.align	2
 838              	.L72:
 839 003c 00000000 		.word	ADC_B_countsPerVolt
 840 0040 00000000 		.word	ADC_B_countsPer10Volt
 841 0044 00000000 		.word	ADC_B_offset
 842 0048 00002041 		.word	1092616192
 843              		.cfi_endproc
 844              	.LFE17:
 845              		.size	ADC_B_CountsTo_Volts, .-ADC_B_CountsTo_Volts
 846              		.comm	ADC_B_shift,2,2
 847              		.comm	ADC_B_countsPer10Volt,4,4
 848              		.comm	ADC_B_countsPerVolt,2,2
 849              		.comm	ADC_B_offset,2,2
 850              		.global	ADC_B_initVar
 851              		.section	.rodata
 852              		.align	1
 853              		.set	.LANCHOR0,. + 0
 854              		.type	CSWTCH.24, %object
 855              		.size	CSWTCH.24, 10
 856              	CSWTCH.24:
 857 0000 0001     		.short	256
 858 0002 0000     		.short	0
 859 0004 0004     		.short	1024
 860 0006 0000     		.short	0
ARM GAS  C:\Users\Krist\AppData\Local\Temp\ccczGda4.s 			page 32


 861 0008 0010     		.short	4096
 862              		.bss
 863              		.set	.LANCHOR1,. + 0
 864              		.type	ADC_B_initVar, %object
 865              		.size	ADC_B_initVar, 1
 866              	ADC_B_initVar:
 867 0000 00       		.space	1
 868              		.text
 869              	.Letext0:
 870              		.file 2 "Generated_Source\\PSoC5\\cytypes.h"
 871              		.file 3 "Generated_Source\\PSoC5\\CyLib.h"