ARM GAS  C:\Users\Krist\AppData\Local\Temp\ccsuUa8r.s 			page 1


   1              		.syntax unified
   2              		.cpu cortex-m3
   3              		.fpu softvfp
   4              		.eabi_attribute 20, 1
   5              		.eabi_attribute 21, 1
   6              		.eabi_attribute 23, 3
   7              		.eabi_attribute 24, 1
   8              		.eabi_attribute 25, 1
   9              		.eabi_attribute 26, 1
  10              		.eabi_attribute 30, 4
  11              		.eabi_attribute 34, 1
  12              		.eabi_attribute 18, 4
  13              		.thumb
  14              		.syntax unified
  15              		.file	"ADC_A.c"
  16              		.text
  17              	.Ltext0:
  18              		.cfi_sections	.debug_frame
  19              		.section	.text.ADC_A_Enable,"ax",%progbits
  20              		.align	1
  21              		.global	ADC_A_Enable
  22              		.thumb
  23              		.thumb_func
  24              		.type	ADC_A_Enable, %function
  25              	ADC_A_Enable:
  26              	.LFB2:
  27              		.file 1 "Generated_Source\\PSoC5\\ADC_A.c"
   1:Generated_Source\PSoC5/ADC_A.c **** /*******************************************************************************
   2:Generated_Source\PSoC5/ADC_A.c **** * File Name: ADC_A.c
   3:Generated_Source\PSoC5/ADC_A.c **** * Version 3.0
   4:Generated_Source\PSoC5/ADC_A.c **** *
   5:Generated_Source\PSoC5/ADC_A.c **** * Description:
   6:Generated_Source\PSoC5/ADC_A.c **** *  This file provides the source code to the API for the Successive
   7:Generated_Source\PSoC5/ADC_A.c **** *  approximation ADC Component.
   8:Generated_Source\PSoC5/ADC_A.c **** *
   9:Generated_Source\PSoC5/ADC_A.c **** * Note:
  10:Generated_Source\PSoC5/ADC_A.c **** *
  11:Generated_Source\PSoC5/ADC_A.c **** ********************************************************************************
  12:Generated_Source\PSoC5/ADC_A.c **** * Copyright 2008-2015, Cypress Semiconductor Corporation.  All rights reserved.
  13:Generated_Source\PSoC5/ADC_A.c **** * You may use this file only in accordance with the license, terms, conditions,
  14:Generated_Source\PSoC5/ADC_A.c **** * disclaimers, and limitations in the end user license agreement accompanying
  15:Generated_Source\PSoC5/ADC_A.c **** * the software package with which this file was provided.
  16:Generated_Source\PSoC5/ADC_A.c **** *******************************************************************************/
  17:Generated_Source\PSoC5/ADC_A.c **** 
  18:Generated_Source\PSoC5/ADC_A.c **** #include "CyLib.h"
  19:Generated_Source\PSoC5/ADC_A.c **** #include "ADC_A.h"
  20:Generated_Source\PSoC5/ADC_A.c **** 
  21:Generated_Source\PSoC5/ADC_A.c **** #if(ADC_A_DEFAULT_INTERNAL_CLK)
  22:Generated_Source\PSoC5/ADC_A.c ****     #include "ADC_A_theACLK.h"
  23:Generated_Source\PSoC5/ADC_A.c **** #endif /* End ADC_A_DEFAULT_INTERNAL_CLK */
  24:Generated_Source\PSoC5/ADC_A.c **** 
  25:Generated_Source\PSoC5/ADC_A.c **** 
  26:Generated_Source\PSoC5/ADC_A.c **** /***************************************
  27:Generated_Source\PSoC5/ADC_A.c **** * Forward function references
  28:Generated_Source\PSoC5/ADC_A.c **** ***************************************/
  29:Generated_Source\PSoC5/ADC_A.c **** static void ADC_A_CalcGain(uint8 resolution);
  30:Generated_Source\PSoC5/ADC_A.c **** 
ARM GAS  C:\Users\Krist\AppData\Local\Temp\ccsuUa8r.s 			page 2


  31:Generated_Source\PSoC5/ADC_A.c **** 
  32:Generated_Source\PSoC5/ADC_A.c **** /***************************************
  33:Generated_Source\PSoC5/ADC_A.c **** * Global data allocation
  34:Generated_Source\PSoC5/ADC_A.c **** ***************************************/
  35:Generated_Source\PSoC5/ADC_A.c **** uint8 ADC_A_initVar = 0u;
  36:Generated_Source\PSoC5/ADC_A.c **** volatile int16 ADC_A_offset;
  37:Generated_Source\PSoC5/ADC_A.c **** volatile int16 ADC_A_countsPerVolt;     /* Obsolete Gain compensation */
  38:Generated_Source\PSoC5/ADC_A.c **** volatile int32 ADC_A_countsPer10Volt;   /* Gain compensation */
  39:Generated_Source\PSoC5/ADC_A.c **** volatile int16 ADC_A_shift;
  40:Generated_Source\PSoC5/ADC_A.c **** 
  41:Generated_Source\PSoC5/ADC_A.c **** 
  42:Generated_Source\PSoC5/ADC_A.c **** /*******************************************************************************
  43:Generated_Source\PSoC5/ADC_A.c **** * Function Name: ADC_A_Start
  44:Generated_Source\PSoC5/ADC_A.c **** ********************************************************************************
  45:Generated_Source\PSoC5/ADC_A.c **** *
  46:Generated_Source\PSoC5/ADC_A.c **** * Summary:
  47:Generated_Source\PSoC5/ADC_A.c **** *  This is the preferred method to begin component operation.
  48:Generated_Source\PSoC5/ADC_A.c **** *  ADC_A_Start() sets the initVar variable, calls the
  49:Generated_Source\PSoC5/ADC_A.c **** *  ADC_A_Init() function, and then calls the
  50:Generated_Source\PSoC5/ADC_A.c **** *  ADC_A_Enable() function.
  51:Generated_Source\PSoC5/ADC_A.c **** *
  52:Generated_Source\PSoC5/ADC_A.c **** * Parameters:
  53:Generated_Source\PSoC5/ADC_A.c **** *  None.
  54:Generated_Source\PSoC5/ADC_A.c **** *
  55:Generated_Source\PSoC5/ADC_A.c **** * Return:
  56:Generated_Source\PSoC5/ADC_A.c **** *  None.
  57:Generated_Source\PSoC5/ADC_A.c **** *
  58:Generated_Source\PSoC5/ADC_A.c **** * Global variables:
  59:Generated_Source\PSoC5/ADC_A.c **** *  The ADC_A_initVar variable is used to indicate when/if initial
  60:Generated_Source\PSoC5/ADC_A.c **** *  configuration of this component has happened. The variable is initialized to
  61:Generated_Source\PSoC5/ADC_A.c **** *  zero and set to 1 the first time ADC_Start() is called. This allows for
  62:Generated_Source\PSoC5/ADC_A.c **** *  component Re-Start without re-initialization in all subsequent calls to the
  63:Generated_Source\PSoC5/ADC_A.c **** *  ADC_A_Start() routine.
  64:Generated_Source\PSoC5/ADC_A.c **** *  If re-initialization of the component is required the variable should be set
  65:Generated_Source\PSoC5/ADC_A.c **** *  to zero before call of ADC_A_Start() routine, or the user may call
  66:Generated_Source\PSoC5/ADC_A.c **** *  ADC_A_Init() and ADC_A_Enable() as done in the
  67:Generated_Source\PSoC5/ADC_A.c **** *  ADC_A_Start() routine.
  68:Generated_Source\PSoC5/ADC_A.c **** *
  69:Generated_Source\PSoC5/ADC_A.c **** * Side Effect:
  70:Generated_Source\PSoC5/ADC_A.c **** *  If the initVar variable is already set, this function only calls the
  71:Generated_Source\PSoC5/ADC_A.c **** *  ADC_A_Enable() function.
  72:Generated_Source\PSoC5/ADC_A.c **** *
  73:Generated_Source\PSoC5/ADC_A.c **** *******************************************************************************/
  74:Generated_Source\PSoC5/ADC_A.c **** void ADC_A_Start(void)
  75:Generated_Source\PSoC5/ADC_A.c **** {
  76:Generated_Source\PSoC5/ADC_A.c **** 
  77:Generated_Source\PSoC5/ADC_A.c ****     /* If not Initialized then initialize all required hardware and software */
  78:Generated_Source\PSoC5/ADC_A.c ****     if(ADC_A_initVar == 0u)
  79:Generated_Source\PSoC5/ADC_A.c ****     {
  80:Generated_Source\PSoC5/ADC_A.c ****         ADC_A_Init();
  81:Generated_Source\PSoC5/ADC_A.c ****         ADC_A_initVar = 1u;
  82:Generated_Source\PSoC5/ADC_A.c ****     }
  83:Generated_Source\PSoC5/ADC_A.c ****     ADC_A_Enable();
  84:Generated_Source\PSoC5/ADC_A.c **** }
  85:Generated_Source\PSoC5/ADC_A.c **** 
  86:Generated_Source\PSoC5/ADC_A.c **** 
  87:Generated_Source\PSoC5/ADC_A.c **** /*******************************************************************************
ARM GAS  C:\Users\Krist\AppData\Local\Temp\ccsuUa8r.s 			page 3


  88:Generated_Source\PSoC5/ADC_A.c **** * Function Name: ADC_A_Init
  89:Generated_Source\PSoC5/ADC_A.c **** ********************************************************************************
  90:Generated_Source\PSoC5/ADC_A.c **** *
  91:Generated_Source\PSoC5/ADC_A.c **** * Summary:
  92:Generated_Source\PSoC5/ADC_A.c **** *  Initialize component's parameters to the parameters set by user in the
  93:Generated_Source\PSoC5/ADC_A.c **** *  customizer of the component placed onto schematic. Usually called in
  94:Generated_Source\PSoC5/ADC_A.c **** *  ADC_A_Start().
  95:Generated_Source\PSoC5/ADC_A.c **** *
  96:Generated_Source\PSoC5/ADC_A.c **** * Parameters:
  97:Generated_Source\PSoC5/ADC_A.c **** *  None.
  98:Generated_Source\PSoC5/ADC_A.c **** *
  99:Generated_Source\PSoC5/ADC_A.c **** * Return:
 100:Generated_Source\PSoC5/ADC_A.c **** *  None.
 101:Generated_Source\PSoC5/ADC_A.c **** *
 102:Generated_Source\PSoC5/ADC_A.c **** * Global variables:
 103:Generated_Source\PSoC5/ADC_A.c **** *  The ADC_A_offset variable is initialized to 0.
 104:Generated_Source\PSoC5/ADC_A.c **** *
 105:Generated_Source\PSoC5/ADC_A.c **** *******************************************************************************/
 106:Generated_Source\PSoC5/ADC_A.c **** void ADC_A_Init(void)
 107:Generated_Source\PSoC5/ADC_A.c **** {
 108:Generated_Source\PSoC5/ADC_A.c **** 
 109:Generated_Source\PSoC5/ADC_A.c ****     /* This is only valid if there is an internal clock */
 110:Generated_Source\PSoC5/ADC_A.c ****     #if(ADC_A_DEFAULT_INTERNAL_CLK)
 111:Generated_Source\PSoC5/ADC_A.c ****         ADC_A_theACLK_SetMode(CYCLK_DUTY);
 112:Generated_Source\PSoC5/ADC_A.c ****     #endif /* End ADC_A_DEFAULT_INTERNAL_CLK */
 113:Generated_Source\PSoC5/ADC_A.c **** 
 114:Generated_Source\PSoC5/ADC_A.c ****     #if(ADC_A_IRQ_REMOVE == 0u)
 115:Generated_Source\PSoC5/ADC_A.c ****         /* Start and set interrupt vector */
 116:Generated_Source\PSoC5/ADC_A.c ****         CyIntSetPriority(ADC_A_INTC_NUMBER, ADC_A_INTC_PRIOR_NUMBER);
 117:Generated_Source\PSoC5/ADC_A.c ****         (void)CyIntSetVector(ADC_A_INTC_NUMBER, &ADC_A_ISR);
 118:Generated_Source\PSoC5/ADC_A.c ****     #endif   /* End ADC_A_IRQ_REMOVE */
 119:Generated_Source\PSoC5/ADC_A.c **** 
 120:Generated_Source\PSoC5/ADC_A.c ****     /* Enable IRQ mode*/
 121:Generated_Source\PSoC5/ADC_A.c ****     ADC_A_SAR_CSR1_REG |= ADC_A_SAR_IRQ_MASK_EN | ADC_A_SAR_IRQ_MODE_EDGE;
 122:Generated_Source\PSoC5/ADC_A.c **** 
 123:Generated_Source\PSoC5/ADC_A.c ****     /*Set SAR ADC resolution ADC */
 124:Generated_Source\PSoC5/ADC_A.c ****     ADC_A_SetResolution(ADC_A_DEFAULT_RESOLUTION);
 125:Generated_Source\PSoC5/ADC_A.c ****     ADC_A_offset = 0;
 126:Generated_Source\PSoC5/ADC_A.c **** }
 127:Generated_Source\PSoC5/ADC_A.c **** 
 128:Generated_Source\PSoC5/ADC_A.c **** 
 129:Generated_Source\PSoC5/ADC_A.c **** /*******************************************************************************
 130:Generated_Source\PSoC5/ADC_A.c **** * Function Name: ADC_A_Enable
 131:Generated_Source\PSoC5/ADC_A.c **** ********************************************************************************
 132:Generated_Source\PSoC5/ADC_A.c **** *
 133:Generated_Source\PSoC5/ADC_A.c **** * Summary:
 134:Generated_Source\PSoC5/ADC_A.c **** *  Enables the reference, clock and power for SAR ADC.
 135:Generated_Source\PSoC5/ADC_A.c **** *
 136:Generated_Source\PSoC5/ADC_A.c **** * Parameters:
 137:Generated_Source\PSoC5/ADC_A.c **** *  None.
 138:Generated_Source\PSoC5/ADC_A.c **** *
 139:Generated_Source\PSoC5/ADC_A.c **** * Return:
 140:Generated_Source\PSoC5/ADC_A.c **** *  None.
 141:Generated_Source\PSoC5/ADC_A.c **** *
 142:Generated_Source\PSoC5/ADC_A.c **** *******************************************************************************/
 143:Generated_Source\PSoC5/ADC_A.c **** void ADC_A_Enable(void)
 144:Generated_Source\PSoC5/ADC_A.c **** {
ARM GAS  C:\Users\Krist\AppData\Local\Temp\ccsuUa8r.s 			page 4


  28              		.loc 1 144 0
  29              		.cfi_startproc
  30              		@ args = 0, pretend = 0, frame = 0
  31              		@ frame_needed = 0, uses_anonymous_args = 0
  32 0000 10B5     		push	{r4, lr}
  33              		.cfi_def_cfa_offset 8
  34              		.cfi_offset 4, -8
  35              		.cfi_offset 14, -4
 145:Generated_Source\PSoC5/ADC_A.c ****     uint8 tmpReg;
 146:Generated_Source\PSoC5/ADC_A.c ****     uint8 enableInterrupts;
 147:Generated_Source\PSoC5/ADC_A.c ****     enableInterrupts = CyEnterCriticalSection();
  36              		.loc 1 147 0
  37 0002 FFF7FEFF 		bl	CyEnterCriticalSection
  38              	.LVL0:
 148:Generated_Source\PSoC5/ADC_A.c **** 
 149:Generated_Source\PSoC5/ADC_A.c ****     /* Enable the SAR ADC block in Active Power Mode */
 150:Generated_Source\PSoC5/ADC_A.c ****     ADC_A_PWRMGR_SAR_REG |= ADC_A_ACT_PWR_SAR_EN;
  39              		.loc 1 150 0
  40 0006 1B4A     		ldr	r2, .L2
 147:Generated_Source\PSoC5/ADC_A.c **** 
  41              		.loc 1 147 0
  42 0008 0446     		mov	r4, r0
  43              	.LVL1:
  44              		.loc 1 150 0
  45 000a 1378     		ldrb	r3, [r2]	@ zero_extendqisi2
 151:Generated_Source\PSoC5/ADC_A.c **** 
 152:Generated_Source\PSoC5/ADC_A.c ****      /* Enable the SAR ADC in Standby Power Mode*/
 153:Generated_Source\PSoC5/ADC_A.c ****     ADC_A_STBY_PWRMGR_SAR_REG |= ADC_A_STBY_PWR_SAR_EN;
 154:Generated_Source\PSoC5/ADC_A.c **** 
 155:Generated_Source\PSoC5/ADC_A.c ****     /* This is only valid if there is an internal clock */
 156:Generated_Source\PSoC5/ADC_A.c ****     #if(ADC_A_DEFAULT_INTERNAL_CLK)
 157:Generated_Source\PSoC5/ADC_A.c ****         ADC_A_PWRMGR_CLK_REG |= ADC_A_ACT_PWR_CLK_EN;
 158:Generated_Source\PSoC5/ADC_A.c ****         ADC_A_STBY_PWRMGR_CLK_REG |= ADC_A_STBY_PWR_CLK_EN;
 159:Generated_Source\PSoC5/ADC_A.c ****     #endif /* End ADC_A_DEFAULT_INTERNAL_CLK */
 160:Generated_Source\PSoC5/ADC_A.c **** 
 161:Generated_Source\PSoC5/ADC_A.c ****     /* Enable VCM buffer and Enable Int Ref Amp */
 162:Generated_Source\PSoC5/ADC_A.c ****     tmpReg = ADC_A_SAR_CSR3_REG;
 163:Generated_Source\PSoC5/ADC_A.c ****     tmpReg |= ADC_A_SAR_EN_BUF_VCM_EN;
 164:Generated_Source\PSoC5/ADC_A.c ****     /* PD_BUF_VREF is OFF in External reference or Vdda reference mode */
 165:Generated_Source\PSoC5/ADC_A.c ****     #if((ADC_A_DEFAULT_REFERENCE == ADC_A__EXT_REF) || \
 166:Generated_Source\PSoC5/ADC_A.c ****         (ADC_A_DEFAULT_RANGE == ADC_A__VNEG_VDDA_DIFF))
 167:Generated_Source\PSoC5/ADC_A.c ****         tmpReg &= (uint8)~ADC_A_SAR_EN_BUF_VREF_EN;
 168:Generated_Source\PSoC5/ADC_A.c ****     #else /* In INTREF or INTREF Bypassed this buffer is ON */
 169:Generated_Source\PSoC5/ADC_A.c ****         tmpReg |= ADC_A_SAR_EN_BUF_VREF_EN;
 170:Generated_Source\PSoC5/ADC_A.c ****     #endif /* ADC_A_DEFAULT_REFERENCE == ADC_A__EXT_REF */
 171:Generated_Source\PSoC5/ADC_A.c ****     ADC_A_SAR_CSR3_REG = tmpReg;
 172:Generated_Source\PSoC5/ADC_A.c **** 
 173:Generated_Source\PSoC5/ADC_A.c ****     /* Set reference for ADC */
 174:Generated_Source\PSoC5/ADC_A.c ****     #if(ADC_A_DEFAULT_RANGE == ADC_A__VNEG_VDDA_DIFF)
 175:Generated_Source\PSoC5/ADC_A.c ****         #if(ADC_A_DEFAULT_REFERENCE == ADC_A__EXT_REF)
 176:Generated_Source\PSoC5/ADC_A.c ****             ADC_A_SAR_CSR6_REG = ADC_A_INT_BYPASS_EXT_VREF; /* S2 */
 177:Generated_Source\PSoC5/ADC_A.c ****         #else /* Internal Vdda reference or obsolete bypass mode */
 178:Generated_Source\PSoC5/ADC_A.c ****             ADC_A_SAR_CSR6_REG = ADC_A_VDDA_VREF;           /* S7 */
 179:Generated_Source\PSoC5/ADC_A.c ****         #endif /* ADC_A_DEFAULT_REFERENCE == ADC_A__EXT_REF */
 180:Generated_Source\PSoC5/ADC_A.c ****     #else  /* Reference goes through internal buffer */
 181:Generated_Source\PSoC5/ADC_A.c ****         #if(ADC_A_DEFAULT_REFERENCE == ADC_A__INT_REF_NOT_BYPASSED)
 182:Generated_Source\PSoC5/ADC_A.c ****             ADC_A_SAR_CSR6_REG = ADC_A_INT_VREF;            /* S3 + S4 */
ARM GAS  C:\Users\Krist\AppData\Local\Temp\ccsuUa8r.s 			page 5


 183:Generated_Source\PSoC5/ADC_A.c ****         #else /* INTREF Bypassed of External */
 184:Generated_Source\PSoC5/ADC_A.c ****             ADC_A_SAR_CSR6_REG = ADC_A_INT_BYPASS_EXT_VREF; /* S2 */
 185:Generated_Source\PSoC5/ADC_A.c ****         #endif /* ADC_A_DEFAULT_REFERENCE == ADC_A__INT_REF_NOT_BYPASSED */
 186:Generated_Source\PSoC5/ADC_A.c ****     #endif /* VNEG_VDDA_DIFF */
 187:Generated_Source\PSoC5/ADC_A.c **** 
 188:Generated_Source\PSoC5/ADC_A.c ****     /* Low non-overlap delay for sampling clock signals (for 1MSPS) */
 189:Generated_Source\PSoC5/ADC_A.c ****     #if(ADC_A_HIGH_POWER_PULSE == 0u) /* MinPulseWidth <= 50 ns */
 190:Generated_Source\PSoC5/ADC_A.c ****         ADC_A_SAR_CSR5_REG &= (uint8)~ADC_A_SAR_DLY_INC;
 191:Generated_Source\PSoC5/ADC_A.c ****     #else /* Set High non-overlap delay for sampling clock signals (for <500KSPS)*/
 192:Generated_Source\PSoC5/ADC_A.c ****         ADC_A_SAR_CSR5_REG |= ADC_A_SAR_DLY_INC;
 193:Generated_Source\PSoC5/ADC_A.c ****     #endif /* ADC_A_HIGH_POWER_PULSE == 0u */
 194:Generated_Source\PSoC5/ADC_A.c **** 
 195:Generated_Source\PSoC5/ADC_A.c ****     /* Increase comparator latch enable delay by 20%, 
 196:Generated_Source\PSoC5/ADC_A.c ****     *  Increase comparator bias current by 30% without impacting delaysDelay 
 197:Generated_Source\PSoC5/ADC_A.c ****     *  Default for 1MSPS) 
 198:Generated_Source\PSoC5/ADC_A.c ****     */
 199:Generated_Source\PSoC5/ADC_A.c ****     #if(ADC_A_HIGH_POWER_PULSE == 0u)    /* MinPulseWidth <= 50 ns */
 200:Generated_Source\PSoC5/ADC_A.c ****         ADC_A_SAR_CSR5_REG |= ADC_A_SAR_SEL_CSEL_DFT_CHAR;
 201:Generated_Source\PSoC5/ADC_A.c ****     #else /* for <500ksps */
 202:Generated_Source\PSoC5/ADC_A.c ****         ADC_A_SAR_CSR5_REG &= (uint8)~ADC_A_SAR_SEL_CSEL_DFT_CHAR;
 203:Generated_Source\PSoC5/ADC_A.c ****     #endif /* ADC_A_HIGH_POWER_PULSE == 0u */
 204:Generated_Source\PSoC5/ADC_A.c **** 
 205:Generated_Source\PSoC5/ADC_A.c ****     /* Set default power and other configurations for control register 0 in multiple lines */
 206:Generated_Source\PSoC5/ADC_A.c ****     ADC_A_SAR_CSR0_REG = (uint8)((uint8)ADC_A_DEFAULT_POWER << ADC_A_SAR_POWER_SHIFT)
 207:Generated_Source\PSoC5/ADC_A.c ****     /* SAR_HIZ_CLEAR:   Should not be used for LP */
 208:Generated_Source\PSoC5/ADC_A.c ****     #if ((CY_PSOC5LP) || (ADC_A_DEFAULT_REFERENCE != ADC_A__EXT_REF))
 209:Generated_Source\PSoC5/ADC_A.c ****         | ADC_A_SAR_HIZ_CLEAR
 210:Generated_Source\PSoC5/ADC_A.c ****     #endif /* SAR_HIZ_CLEAR */
 211:Generated_Source\PSoC5/ADC_A.c ****     /*Set Convertion mode */
 212:Generated_Source\PSoC5/ADC_A.c ****     #if(ADC_A_DEFAULT_CONV_MODE != ADC_A__FREE_RUNNING)      /* If triggered mode */
 213:Generated_Source\PSoC5/ADC_A.c ****         | ADC_A_SAR_MX_SOF_UDB           /* source: UDB */
 214:Generated_Source\PSoC5/ADC_A.c ****         | ADC_A_SAR_SOF_MODE_EDGE        /* Set edge-sensitive sof source */
 215:Generated_Source\PSoC5/ADC_A.c ****     #endif /* ADC_A_DEFAULT_CONV_MODE */
 216:Generated_Source\PSoC5/ADC_A.c ****     ; /* end of multiple line initialization */
 217:Generated_Source\PSoC5/ADC_A.c **** 
 218:Generated_Source\PSoC5/ADC_A.c ****     ADC_A_SAR_TR0_REG = ADC_A_SAR_CAP_TRIM_2;
 219:Generated_Source\PSoC5/ADC_A.c **** 
 220:Generated_Source\PSoC5/ADC_A.c ****     /* Enable clock for SAR ADC*/
 221:Generated_Source\PSoC5/ADC_A.c ****     ADC_A_SAR_CLK_REG |= ADC_A_SAR_MX_CLK_EN;
 222:Generated_Source\PSoC5/ADC_A.c **** 
 223:Generated_Source\PSoC5/ADC_A.c ****     CyDelayUs(10u); /* The block is ready to use 10 us after the enable signal is set high. */
  46              		.loc 1 223 0
  47 000c 0A20     		movs	r0, #10
 150:Generated_Source\PSoC5/ADC_A.c **** 
  48              		.loc 1 150 0
  49 000e 43F00203 		orr	r3, r3, #2
  50 0012 1370     		strb	r3, [r2]
 153:Generated_Source\PSoC5/ADC_A.c **** 
  51              		.loc 1 153 0
  52 0014 137C     		ldrb	r3, [r2, #16]	@ zero_extendqisi2
  53 0016 43F00203 		orr	r3, r3, #2
  54 001a 1374     		strb	r3, [r2, #16]
 162:Generated_Source\PSoC5/ADC_A.c ****     tmpReg |= ADC_A_SAR_EN_BUF_VCM_EN;
  55              		.loc 1 162 0
  56 001c 02F5AB52 		add	r2, r2, #5472
  57 0020 1378     		ldrb	r3, [r2]	@ zero_extendqisi2
  58              	.LVL2:
ARM GAS  C:\Users\Krist\AppData\Local\Temp\ccsuUa8r.s 			page 6


 169:Generated_Source\PSoC5/ADC_A.c ****     #endif /* ADC_A_DEFAULT_REFERENCE == ADC_A__EXT_REF */
  59              		.loc 1 169 0
  60 0022 43F00303 		orr	r3, r3, #3
  61              	.LVL3:
 171:Generated_Source\PSoC5/ADC_A.c **** 
  62              		.loc 1 171 0
  63 0026 1370     		strb	r3, [r2]
 182:Generated_Source\PSoC5/ADC_A.c ****         #else /* INTREF Bypassed of External */
  64              		.loc 1 182 0
  65 0028 134B     		ldr	r3, .L2+4
  66              	.LVL4:
  67 002a 1822     		movs	r2, #24
  68              	.LVL5:
  69 002c 1A70     		strb	r2, [r3]
  70              	.LVL6:
 192:Generated_Source\PSoC5/ADC_A.c ****     #endif /* ADC_A_HIGH_POWER_PULSE == 0u */
  71              		.loc 1 192 0
  72 002e 13F8012C 		ldrb	r2, [r3, #-1]	@ zero_extendqisi2
  73 0032 42F04002 		orr	r2, r2, #64
  74 0036 03F8012C 		strb	r2, [r3, #-1]
 202:Generated_Source\PSoC5/ADC_A.c ****     #endif /* ADC_A_HIGH_POWER_PULSE == 0u */
  75              		.loc 1 202 0
  76 003a 13F8012C 		ldrb	r2, [r3, #-1]	@ zero_extendqisi2
  77 003e 02F0FC02 		and	r2, r2, #252
  78 0042 03F8012C 		strb	r2, [r3, #-1]
 206:Generated_Source\PSoC5/ADC_A.c ****     /* SAR_HIZ_CLEAR:   Should not be used for LP */
  79              		.loc 1 206 0
  80 0046 0822     		movs	r2, #8
  81 0048 03F8062C 		strb	r2, [r3, #-6]
 218:Generated_Source\PSoC5/ADC_A.c **** 
  82              		.loc 1 218 0
  83 004c A3F59753 		sub	r3, r3, #4832
  84 0050 0222     		movs	r2, #2
  85 0052 183B     		subs	r3, r3, #24
  86 0054 1A70     		strb	r2, [r3]
 221:Generated_Source\PSoC5/ADC_A.c **** 
  87              		.loc 1 221 0
  88 0056 094A     		ldr	r2, .L2+8
  89 0058 1378     		ldrb	r3, [r2]	@ zero_extendqisi2
  90 005a 43F00803 		orr	r3, r3, #8
  91 005e 1370     		strb	r3, [r2]
  92              		.loc 1 223 0
  93 0060 FFF7FEFF 		bl	CyDelayUs
  94              	.LVL7:
 224:Generated_Source\PSoC5/ADC_A.c **** 
 225:Generated_Source\PSoC5/ADC_A.c ****     #if(ADC_A_IRQ_REMOVE == 0u)
 226:Generated_Source\PSoC5/ADC_A.c ****         /* Clear a pending interrupt */
 227:Generated_Source\PSoC5/ADC_A.c ****         CyIntClearPending(ADC_A_INTC_NUMBER);
  95              		.loc 1 227 0
  96 0064 064B     		ldr	r3, .L2+12
  97 0066 0422     		movs	r2, #4
 228:Generated_Source\PSoC5/ADC_A.c ****     #endif   /* End ADC_A_IRQ_REMOVE */
 229:Generated_Source\PSoC5/ADC_A.c **** 
 230:Generated_Source\PSoC5/ADC_A.c ****     CyExitCriticalSection(enableInterrupts);
  98              		.loc 1 230 0
  99 0068 2046     		mov	r0, r4
 231:Generated_Source\PSoC5/ADC_A.c **** }
ARM GAS  C:\Users\Krist\AppData\Local\Temp\ccsuUa8r.s 			page 7


 100              		.loc 1 231 0
 101 006a BDE81040 		pop	{r4, lr}
 102              		.cfi_restore 14
 103              		.cfi_restore 4
 104              		.cfi_def_cfa_offset 0
 105              	.LVL8:
 227:Generated_Source\PSoC5/ADC_A.c ****     #endif   /* End ADC_A_IRQ_REMOVE */
 106              		.loc 1 227 0
 107 006e 1A60     		str	r2, [r3]
 230:Generated_Source\PSoC5/ADC_A.c **** }
 108              		.loc 1 230 0
 109 0070 FFF7FEBF 		b	CyExitCriticalSection
 110              	.LVL9:
 111              	.L3:
 112              		.align	2
 113              	.L2:
 114 0074 AB430040 		.word	1073759147
 115 0078 0E590040 		.word	1073764622
 116 007c 2F5B0040 		.word	1073765167
 117 0080 80E200E0 		.word	-536812928
 118              		.cfi_endproc
 119              	.LFE2:
 120              		.size	ADC_A_Enable, .-ADC_A_Enable
 121              		.section	.text.ADC_A_Stop,"ax",%progbits
 122              		.align	1
 123              		.global	ADC_A_Stop
 124              		.thumb
 125              		.thumb_func
 126              		.type	ADC_A_Stop, %function
 127              	ADC_A_Stop:
 128              	.LFB3:
 232:Generated_Source\PSoC5/ADC_A.c **** 
 233:Generated_Source\PSoC5/ADC_A.c **** 
 234:Generated_Source\PSoC5/ADC_A.c **** /*******************************************************************************
 235:Generated_Source\PSoC5/ADC_A.c **** * Function Name: ADC_A_Stop
 236:Generated_Source\PSoC5/ADC_A.c **** ********************************************************************************
 237:Generated_Source\PSoC5/ADC_A.c **** *
 238:Generated_Source\PSoC5/ADC_A.c **** * Summary:
 239:Generated_Source\PSoC5/ADC_A.c **** *  Stops ADC conversions and puts the ADC into its lowest power mode.
 240:Generated_Source\PSoC5/ADC_A.c **** *
 241:Generated_Source\PSoC5/ADC_A.c **** * Parameters:
 242:Generated_Source\PSoC5/ADC_A.c **** *  None.
 243:Generated_Source\PSoC5/ADC_A.c **** *
 244:Generated_Source\PSoC5/ADC_A.c **** * Return:
 245:Generated_Source\PSoC5/ADC_A.c **** *  None.
 246:Generated_Source\PSoC5/ADC_A.c **** *
 247:Generated_Source\PSoC5/ADC_A.c **** *******************************************************************************/
 248:Generated_Source\PSoC5/ADC_A.c **** void ADC_A_Stop(void)
 249:Generated_Source\PSoC5/ADC_A.c **** {
 129              		.loc 1 249 0
 130              		.cfi_startproc
 131              		@ args = 0, pretend = 0, frame = 0
 132              		@ frame_needed = 0, uses_anonymous_args = 0
 133 0000 08B5     		push	{r3, lr}
 134              		.cfi_def_cfa_offset 8
 135              		.cfi_offset 3, -8
 136              		.cfi_offset 14, -4
ARM GAS  C:\Users\Krist\AppData\Local\Temp\ccsuUa8r.s 			page 8


 250:Generated_Source\PSoC5/ADC_A.c ****     uint8 enableInterrupts;
 251:Generated_Source\PSoC5/ADC_A.c ****     enableInterrupts = CyEnterCriticalSection();
 137              		.loc 1 251 0
 138 0002 FFF7FEFF 		bl	CyEnterCriticalSection
 139              	.LVL10:
 252:Generated_Source\PSoC5/ADC_A.c **** 
 253:Generated_Source\PSoC5/ADC_A.c ****     /* Stop all conversions */
 254:Generated_Source\PSoC5/ADC_A.c ****     ADC_A_SAR_CSR0_REG &= (uint8)~ADC_A_SAR_SOF_START_CONV;
 140              		.loc 1 254 0
 141 0006 0A4A     		ldr	r2, .L5
 142 0008 1378     		ldrb	r3, [r2]	@ zero_extendqisi2
 143 000a 03F0FE03 		and	r3, r3, #254
 144 000e 1370     		strb	r3, [r2]
 255:Generated_Source\PSoC5/ADC_A.c ****     /* Disable the SAR ADC block in Active Power Mode */
 256:Generated_Source\PSoC5/ADC_A.c ****     ADC_A_PWRMGR_SAR_REG &= (uint8)~ADC_A_ACT_PWR_SAR_EN;
 145              		.loc 1 256 0
 146 0010 A2F5AA52 		sub	r2, r2, #5440
 147 0014 1D3A     		subs	r2, r2, #29
 148 0016 1378     		ldrb	r3, [r2]	@ zero_extendqisi2
 149 0018 03F0FD03 		and	r3, r3, #253
 150 001c 1370     		strb	r3, [r2]
 257:Generated_Source\PSoC5/ADC_A.c ****     /* Disable the SAR ADC in Standby Power Mode */
 258:Generated_Source\PSoC5/ADC_A.c ****     ADC_A_STBY_PWRMGR_SAR_REG &= (uint8)~ADC_A_STBY_PWR_SAR_EN;
 151              		.loc 1 258 0
 152 001e 137C     		ldrb	r3, [r2, #16]	@ zero_extendqisi2
 153 0020 03F0FD03 		and	r3, r3, #253
 154 0024 1374     		strb	r3, [r2, #16]
 259:Generated_Source\PSoC5/ADC_A.c **** 
 260:Generated_Source\PSoC5/ADC_A.c ****     /* This is only valid if there is an internal clock */
 261:Generated_Source\PSoC5/ADC_A.c ****     #if(ADC_A_DEFAULT_INTERNAL_CLK)
 262:Generated_Source\PSoC5/ADC_A.c ****         ADC_A_PWRMGR_CLK_REG &= (uint8)~ADC_A_ACT_PWR_CLK_EN;
 263:Generated_Source\PSoC5/ADC_A.c ****         ADC_A_STBY_PWRMGR_CLK_REG &= (uint8)~ADC_A_STBY_PWR_CLK_EN;
 264:Generated_Source\PSoC5/ADC_A.c ****     #endif /* End ADC_A_DEFAULT_INTERNAL_CLK */
 265:Generated_Source\PSoC5/ADC_A.c **** 
 266:Generated_Source\PSoC5/ADC_A.c ****     CyExitCriticalSection(enableInterrupts);
 267:Generated_Source\PSoC5/ADC_A.c **** 
 268:Generated_Source\PSoC5/ADC_A.c **** }
 155              		.loc 1 268 0
 156 0026 BDE80840 		pop	{r3, lr}
 157              		.cfi_restore 14
 158              		.cfi_restore 3
 159              		.cfi_def_cfa_offset 0
 266:Generated_Source\PSoC5/ADC_A.c **** 
 160              		.loc 1 266 0
 161 002a FFF7FEBF 		b	CyExitCriticalSection
 162              	.LVL11:
 163              	.L6:
 164 002e 00BF     		.align	2
 165              	.L5:
 166 0030 08590040 		.word	1073764616
 167              		.cfi_endproc
 168              	.LFE3:
 169              		.size	ADC_A_Stop, .-ADC_A_Stop
 170              		.section	.text.ADC_A_SetPower,"ax",%progbits
 171              		.align	1
 172              		.global	ADC_A_SetPower
 173              		.thumb
ARM GAS  C:\Users\Krist\AppData\Local\Temp\ccsuUa8r.s 			page 9


 174              		.thumb_func
 175              		.type	ADC_A_SetPower, %function
 176              	ADC_A_SetPower:
 177              	.LFB4:
 269:Generated_Source\PSoC5/ADC_A.c **** 
 270:Generated_Source\PSoC5/ADC_A.c **** 
 271:Generated_Source\PSoC5/ADC_A.c **** /*******************************************************************************
 272:Generated_Source\PSoC5/ADC_A.c **** * Function Name: ADC_A_SetPower
 273:Generated_Source\PSoC5/ADC_A.c **** ********************************************************************************
 274:Generated_Source\PSoC5/ADC_A.c **** *
 275:Generated_Source\PSoC5/ADC_A.c **** * Summary:
 276:Generated_Source\PSoC5/ADC_A.c **** *  Sets the operational power of the ADC. You should use the higher power
 277:Generated_Source\PSoC5/ADC_A.c **** *  settings with faster clock speeds.
 278:Generated_Source\PSoC5/ADC_A.c **** *
 279:Generated_Source\PSoC5/ADC_A.c **** * Parameters:
 280:Generated_Source\PSoC5/ADC_A.c **** *  power:  Power setting for ADC
 281:Generated_Source\PSoC5/ADC_A.c **** *  0 ->    Normal
 282:Generated_Source\PSoC5/ADC_A.c **** *  1 ->    Medium power
 283:Generated_Source\PSoC5/ADC_A.c **** *  2 ->    1.25 power
 284:Generated_Source\PSoC5/ADC_A.c **** *  3 ->    Minimum power.
 285:Generated_Source\PSoC5/ADC_A.c **** *
 286:Generated_Source\PSoC5/ADC_A.c **** * Return:
 287:Generated_Source\PSoC5/ADC_A.c **** *  None.
 288:Generated_Source\PSoC5/ADC_A.c **** *
 289:Generated_Source\PSoC5/ADC_A.c **** *******************************************************************************/
 290:Generated_Source\PSoC5/ADC_A.c **** void ADC_A_SetPower(uint8 power)
 291:Generated_Source\PSoC5/ADC_A.c **** {
 178              		.loc 1 291 0
 179              		.cfi_startproc
 180              		@ args = 0, pretend = 0, frame = 0
 181              		@ frame_needed = 0, uses_anonymous_args = 0
 182              		@ link register save eliminated.
 183              	.LVL12:
 292:Generated_Source\PSoC5/ADC_A.c ****     uint8 tmpReg;
 293:Generated_Source\PSoC5/ADC_A.c **** 
 294:Generated_Source\PSoC5/ADC_A.c ****     /* mask off invalid power settings */
 295:Generated_Source\PSoC5/ADC_A.c ****     power &= ADC_A_SAR_API_POWER_MASK;
 296:Generated_Source\PSoC5/ADC_A.c **** 
 297:Generated_Source\PSoC5/ADC_A.c ****     /* Set Power parameter  */
 298:Generated_Source\PSoC5/ADC_A.c ****     tmpReg = ADC_A_SAR_CSR0_REG & (uint8)~ADC_A_SAR_POWER_MASK;
 184              		.loc 1 298 0
 185 0000 044A     		ldr	r2, .L8
 186 0002 1378     		ldrb	r3, [r2]	@ zero_extendqisi2
 187 0004 03F03F03 		and	r3, r3, #63
 188              	.LVL13:
 299:Generated_Source\PSoC5/ADC_A.c ****     tmpReg |= (uint8)(power << ADC_A_SAR_POWER_SHIFT);
 189              		.loc 1 299 0
 190 0008 43EA8010 		orr	r0, r3, r0, lsl #6
 191              	.LVL14:
 192 000c C0B2     		uxtb	r0, r0
 193              	.LVL15:
 300:Generated_Source\PSoC5/ADC_A.c ****     ADC_A_SAR_CSR0_REG = tmpReg;
 194              		.loc 1 300 0
 195 000e 1070     		strb	r0, [r2]
 196 0010 7047     		bx	lr
 197              	.L9:
 198 0012 00BF     		.align	2
ARM GAS  C:\Users\Krist\AppData\Local\Temp\ccsuUa8r.s 			page 10


 199              	.L8:
 200 0014 08590040 		.word	1073764616
 201              		.cfi_endproc
 202              	.LFE4:
 203              		.size	ADC_A_SetPower, .-ADC_A_SetPower
 204              		.section	.text.ADC_A_SetResolution,"ax",%progbits
 205              		.align	1
 206              		.global	ADC_A_SetResolution
 207              		.thumb
 208              		.thumb_func
 209              		.type	ADC_A_SetResolution, %function
 210              	ADC_A_SetResolution:
 211              	.LFB5:
 301:Generated_Source\PSoC5/ADC_A.c **** }
 302:Generated_Source\PSoC5/ADC_A.c **** 
 303:Generated_Source\PSoC5/ADC_A.c **** 
 304:Generated_Source\PSoC5/ADC_A.c **** /*******************************************************************************
 305:Generated_Source\PSoC5/ADC_A.c **** * Function Name: ADC_A_SetResolution
 306:Generated_Source\PSoC5/ADC_A.c **** ********************************************************************************
 307:Generated_Source\PSoC5/ADC_A.c **** *
 308:Generated_Source\PSoC5/ADC_A.c **** * Summary:
 309:Generated_Source\PSoC5/ADC_A.c **** *  Sets the Relution of the SAR.
 310:Generated_Source\PSoC5/ADC_A.c **** *
 311:Generated_Source\PSoC5/ADC_A.c **** * Parameters:
 312:Generated_Source\PSoC5/ADC_A.c **** *  resolution:
 313:Generated_Source\PSoC5/ADC_A.c **** *  12 ->    RES12
 314:Generated_Source\PSoC5/ADC_A.c **** *  10 ->    RES10
 315:Generated_Source\PSoC5/ADC_A.c **** *  8  ->    RES8
 316:Generated_Source\PSoC5/ADC_A.c **** *
 317:Generated_Source\PSoC5/ADC_A.c **** * Return:
 318:Generated_Source\PSoC5/ADC_A.c **** *  None.
 319:Generated_Source\PSoC5/ADC_A.c **** *
 320:Generated_Source\PSoC5/ADC_A.c **** * Side Effects:
 321:Generated_Source\PSoC5/ADC_A.c **** *  The ADC resolution cannot be changed during a conversion cycle. The
 322:Generated_Source\PSoC5/ADC_A.c **** *  recommended best practice is to stop conversions with
 323:Generated_Source\PSoC5/ADC_A.c **** *  ADC_StopConvert(), change the resolution, then restart the
 324:Generated_Source\PSoC5/ADC_A.c **** *  conversions with ADC_StartConvert().
 325:Generated_Source\PSoC5/ADC_A.c **** *  If you decide not to stop conversions before calling this API, you
 326:Generated_Source\PSoC5/ADC_A.c **** *  should use ADC_IsEndConversion() to wait until conversion is complete
 327:Generated_Source\PSoC5/ADC_A.c **** *  before changing the resolution.
 328:Generated_Source\PSoC5/ADC_A.c **** *  If you call ADC_SetResolution() during a conversion, the resolution will
 329:Generated_Source\PSoC5/ADC_A.c **** *  not be changed until the current conversion is complete. Data will not be
 330:Generated_Source\PSoC5/ADC_A.c **** *  available in the new resolution for another 6 + "New Resolution(in bits)"
 331:Generated_Source\PSoC5/ADC_A.c **** *  clock cycles.
 332:Generated_Source\PSoC5/ADC_A.c **** *  You may need add a delay of this number of clock cycles after
 333:Generated_Source\PSoC5/ADC_A.c **** *  ADC_SetResolution() is called before data is valid again.
 334:Generated_Source\PSoC5/ADC_A.c **** *  Affects ADC_CountsTo_Volts(), ADC_CountsTo_mVolts(), and
 335:Generated_Source\PSoC5/ADC_A.c **** *  ADC_CountsTo_uVolts() by calculating the correct conversion between ADC
 336:Generated_Source\PSoC5/ADC_A.c **** *  counts and the applied input voltage. Calculation depends on resolution,
 337:Generated_Source\PSoC5/ADC_A.c **** *  input range, and voltage reference.
 338:Generated_Source\PSoC5/ADC_A.c **** *
 339:Generated_Source\PSoC5/ADC_A.c **** *******************************************************************************/
 340:Generated_Source\PSoC5/ADC_A.c **** void ADC_A_SetResolution(uint8 resolution)
 341:Generated_Source\PSoC5/ADC_A.c **** {
 212              		.loc 1 341 0
 213              		.cfi_startproc
 214              		@ args = 0, pretend = 0, frame = 0
ARM GAS  C:\Users\Krist\AppData\Local\Temp\ccsuUa8r.s 			page 11


 215              		@ frame_needed = 0, uses_anonymous_args = 0
 216              		@ link register save eliminated.
 217              	.LVL16:
 342:Generated_Source\PSoC5/ADC_A.c ****     uint8 tmpReg;
 343:Generated_Source\PSoC5/ADC_A.c **** 
 344:Generated_Source\PSoC5/ADC_A.c ****     /* Set SAR ADC resolution and sample width: 18 conversion cycles at 12bits + 1 gap */
 345:Generated_Source\PSoC5/ADC_A.c ****     switch (resolution)
 218              		.loc 1 345 0
 219 0000 0828     		cmp	r0, #8
 220 0002 04D0     		beq	.L12
 221 0004 0A28     		cmp	r0, #10
 346:Generated_Source\PSoC5/ADC_A.c ****     {
 347:Generated_Source\PSoC5/ADC_A.c ****         case (uint8)ADC_A__BITS_12:
 348:Generated_Source\PSoC5/ADC_A.c ****             tmpReg = ADC_A_SAR_RESOLUTION_12BIT | ADC_A_SAR_SAMPLE_WIDTH;
 222              		.loc 1 348 0
 223 0006 0CBF     		ite	eq
 224 0008 8223     		moveq	r3, #130
 225 000a C223     		movne	r3, #194
 226 000c 00E0     		b	.L13
 227              	.L12:
 228              	.LVL17:
 349:Generated_Source\PSoC5/ADC_A.c ****             break;
 350:Generated_Source\PSoC5/ADC_A.c ****         case (uint8)ADC_A__BITS_10:
 351:Generated_Source\PSoC5/ADC_A.c ****             tmpReg = ADC_A_SAR_RESOLUTION_10BIT | ADC_A_SAR_SAMPLE_WIDTH;
 352:Generated_Source\PSoC5/ADC_A.c ****             break;
 353:Generated_Source\PSoC5/ADC_A.c ****         case (uint8)ADC_A__BITS_8:
 354:Generated_Source\PSoC5/ADC_A.c ****             tmpReg = ADC_A_SAR_RESOLUTION_8BIT | ADC_A_SAR_SAMPLE_WIDTH;
 229              		.loc 1 354 0
 230 000e 4223     		movs	r3, #66
 231              	.LVL18:
 232              	.L13:
 233 0010 0838     		subs	r0, r0, #8
 234              	.LVL19:
 355:Generated_Source\PSoC5/ADC_A.c ****             break;
 356:Generated_Source\PSoC5/ADC_A.c ****         default:
 357:Generated_Source\PSoC5/ADC_A.c ****             tmpReg = ADC_A_SAR_RESOLUTION_12BIT | ADC_A_SAR_SAMPLE_WIDTH;
 358:Generated_Source\PSoC5/ADC_A.c ****             /* Halt CPU in debug mode if resolution is out of valid range */
 359:Generated_Source\PSoC5/ADC_A.c ****             CYASSERT(0u != 0u);
 360:Generated_Source\PSoC5/ADC_A.c ****             break;
 361:Generated_Source\PSoC5/ADC_A.c ****     }
 362:Generated_Source\PSoC5/ADC_A.c ****     ADC_A_SAR_CSR2_REG = tmpReg;
 235              		.loc 1 362 0
 236 0012 0E4A     		ldr	r2, .L18
 237 0014 C0B2     		uxtb	r0, r0
 238 0016 0428     		cmp	r0, #4
 239 0018 1370     		strb	r3, [r2]
 240              	.LVL20:
 241 001a 98BF     		it	ls
 242 001c 0C4B     		ldrls	r3, .L18+4
 243 001e 4FF00002 		mov	r2, #0
 244 0022 98BF     		it	ls
 245 0024 33F91010 		ldrshls	r1, [r3, r0, lsl #1]
 246              	.LBB4:
 247              	.LBB5:
 363:Generated_Source\PSoC5/ADC_A.c **** 
 364:Generated_Source\PSoC5/ADC_A.c ****      /* Calculate gain for convert counts to volts */
 365:Generated_Source\PSoC5/ADC_A.c ****     ADC_A_CalcGain(resolution);
ARM GAS  C:\Users\Krist\AppData\Local\Temp\ccsuUa8r.s 			page 12


 366:Generated_Source\PSoC5/ADC_A.c **** }
 367:Generated_Source\PSoC5/ADC_A.c **** 
 368:Generated_Source\PSoC5/ADC_A.c **** 
 369:Generated_Source\PSoC5/ADC_A.c **** #if(ADC_A_DEFAULT_CONV_MODE != ADC_A__HARDWARE_TRIGGER)
 370:Generated_Source\PSoC5/ADC_A.c **** 
 371:Generated_Source\PSoC5/ADC_A.c **** 
 372:Generated_Source\PSoC5/ADC_A.c ****     /*******************************************************************************
 373:Generated_Source\PSoC5/ADC_A.c ****     * Function Name: ADC_A_StartConvert
 374:Generated_Source\PSoC5/ADC_A.c ****     ********************************************************************************
 375:Generated_Source\PSoC5/ADC_A.c ****     *
 376:Generated_Source\PSoC5/ADC_A.c ****     * Summary:
 377:Generated_Source\PSoC5/ADC_A.c ****     *  Forces the ADC to initiate a conversion. In free-running mode, the ADC runs
 378:Generated_Source\PSoC5/ADC_A.c ****     *  continuously. In software trigger mode, the function also acts as a software
 379:Generated_Source\PSoC5/ADC_A.c ****     *  version of the SOC and every conversion must be triggered by
 380:Generated_Source\PSoC5/ADC_A.c ****     *  ADC_A_StartConvert(). This function is not available when the
 381:Generated_Source\PSoC5/ADC_A.c ****     *  Hardware Trigger sample mode is selected.
 382:Generated_Source\PSoC5/ADC_A.c ****     *
 383:Generated_Source\PSoC5/ADC_A.c ****     * Parameters:
 384:Generated_Source\PSoC5/ADC_A.c ****     *  None.
 385:Generated_Source\PSoC5/ADC_A.c ****     *
 386:Generated_Source\PSoC5/ADC_A.c ****     * Return:
 387:Generated_Source\PSoC5/ADC_A.c ****     *  None.
 388:Generated_Source\PSoC5/ADC_A.c ****     *
 389:Generated_Source\PSoC5/ADC_A.c ****     * Theory:
 390:Generated_Source\PSoC5/ADC_A.c ****     *  Forces the ADC to initiate a conversion. In Free Running mode, the ADC will
 391:Generated_Source\PSoC5/ADC_A.c ****     *  run continuously. In a software trigger mode the function also acts as a
 392:Generated_Source\PSoC5/ADC_A.c ****     *  software version of the SOC. Here every conversion has to be triggered by
 393:Generated_Source\PSoC5/ADC_A.c ****     *  the routine. This writes into the SOC bit in SAR_CTRL reg.
 394:Generated_Source\PSoC5/ADC_A.c ****     *
 395:Generated_Source\PSoC5/ADC_A.c ****     * Side Effects:
 396:Generated_Source\PSoC5/ADC_A.c ****     *  In a software trigger mode the function switches source for SOF from the
 397:Generated_Source\PSoC5/ADC_A.c ****     *  external pin to the internal SOF generation. Application should not call
 398:Generated_Source\PSoC5/ADC_A.c ****     *  StartConvert if external source used for SOF.
 399:Generated_Source\PSoC5/ADC_A.c ****     *
 400:Generated_Source\PSoC5/ADC_A.c ****     *******************************************************************************/
 401:Generated_Source\PSoC5/ADC_A.c ****     void ADC_A_StartConvert(void)
 402:Generated_Source\PSoC5/ADC_A.c ****     {
 403:Generated_Source\PSoC5/ADC_A.c ****         #if(ADC_A_DEFAULT_CONV_MODE != ADC_A__FREE_RUNNING)  /* If software triggered mode */
 404:Generated_Source\PSoC5/ADC_A.c ****             ADC_A_SAR_CSR0_REG &= (uint8)~ADC_A_SAR_MX_SOF_UDB;   /* source: SOF bit */
 405:Generated_Source\PSoC5/ADC_A.c ****         #endif /* End ADC_A_DEFAULT_CONV_MODE */
 406:Generated_Source\PSoC5/ADC_A.c **** 
 407:Generated_Source\PSoC5/ADC_A.c ****         /* Start the conversion */
 408:Generated_Source\PSoC5/ADC_A.c ****         ADC_A_SAR_CSR0_REG |= ADC_A_SAR_SOF_START_CONV;
 409:Generated_Source\PSoC5/ADC_A.c ****     }
 410:Generated_Source\PSoC5/ADC_A.c **** 
 411:Generated_Source\PSoC5/ADC_A.c **** 
 412:Generated_Source\PSoC5/ADC_A.c ****     /*******************************************************************************
 413:Generated_Source\PSoC5/ADC_A.c ****     * Function Name: ADC_A_StopConvert
 414:Generated_Source\PSoC5/ADC_A.c ****     ********************************************************************************
 415:Generated_Source\PSoC5/ADC_A.c ****     *
 416:Generated_Source\PSoC5/ADC_A.c ****     * Summary:
 417:Generated_Source\PSoC5/ADC_A.c ****     *  Forces the ADC to stop conversions. If a conversion is currently executing,
 418:Generated_Source\PSoC5/ADC_A.c ****     *  that conversion will complete, but no further conversions will occur. This
 419:Generated_Source\PSoC5/ADC_A.c ****     *  function is not available when the Hardware Trigger sample mode is selected.
 420:Generated_Source\PSoC5/ADC_A.c ****     *
 421:Generated_Source\PSoC5/ADC_A.c ****     * Parameters:
 422:Generated_Source\PSoC5/ADC_A.c ****     *  None.
ARM GAS  C:\Users\Krist\AppData\Local\Temp\ccsuUa8r.s 			page 13


 423:Generated_Source\PSoC5/ADC_A.c ****     *
 424:Generated_Source\PSoC5/ADC_A.c ****     * Return:
 425:Generated_Source\PSoC5/ADC_A.c ****     *  None.
 426:Generated_Source\PSoC5/ADC_A.c ****     *
 427:Generated_Source\PSoC5/ADC_A.c ****     * Theory:
 428:Generated_Source\PSoC5/ADC_A.c ****     *  Stops ADC conversion in Free Running mode.
 429:Generated_Source\PSoC5/ADC_A.c ****     *
 430:Generated_Source\PSoC5/ADC_A.c ****     * Side Effects:
 431:Generated_Source\PSoC5/ADC_A.c ****     *  In Software Trigger sample mode, this function sets a software version of the
 432:Generated_Source\PSoC5/ADC_A.c ****     *  SOC to low level and switches the SOC source to hardware SOC input.
 433:Generated_Source\PSoC5/ADC_A.c ****     *
 434:Generated_Source\PSoC5/ADC_A.c ****     *******************************************************************************/
 435:Generated_Source\PSoC5/ADC_A.c ****     void ADC_A_StopConvert(void)
 436:Generated_Source\PSoC5/ADC_A.c ****     {
 437:Generated_Source\PSoC5/ADC_A.c ****         /* Stop all conversions */
 438:Generated_Source\PSoC5/ADC_A.c ****         ADC_A_SAR_CSR0_REG &= (uint8)~ADC_A_SAR_SOF_START_CONV;
 439:Generated_Source\PSoC5/ADC_A.c **** 
 440:Generated_Source\PSoC5/ADC_A.c ****         #if(ADC_A_DEFAULT_CONV_MODE != ADC_A__FREE_RUNNING)  /* If software triggered mode */
 441:Generated_Source\PSoC5/ADC_A.c ****             /* Return source to UDB for hardware SOF signal */
 442:Generated_Source\PSoC5/ADC_A.c ****             ADC_A_SAR_CSR0_REG |= ADC_A_SAR_MX_SOF_UDB;    /* source: UDB */
 443:Generated_Source\PSoC5/ADC_A.c ****         #endif /* End ADC_A_DEFAULT_CONV_MODE */
 444:Generated_Source\PSoC5/ADC_A.c **** 
 445:Generated_Source\PSoC5/ADC_A.c ****     }
 446:Generated_Source\PSoC5/ADC_A.c **** 
 447:Generated_Source\PSoC5/ADC_A.c **** #endif /* End ADC_A_DEFAULT_CONV_MODE != ADC_A__HARDWARE_TRIGGER */
 448:Generated_Source\PSoC5/ADC_A.c **** 
 449:Generated_Source\PSoC5/ADC_A.c **** 
 450:Generated_Source\PSoC5/ADC_A.c **** /*******************************************************************************
 451:Generated_Source\PSoC5/ADC_A.c **** * Function Name: ADC_A_IsEndConversion
 452:Generated_Source\PSoC5/ADC_A.c **** ********************************************************************************
 453:Generated_Source\PSoC5/ADC_A.c **** *
 454:Generated_Source\PSoC5/ADC_A.c **** * Summary:
 455:Generated_Source\PSoC5/ADC_A.c **** *  Immediately returns the status of the conversion or does not return
 456:Generated_Source\PSoC5/ADC_A.c **** *  (blocking) until the conversion completes, depending on the retMode
 457:Generated_Source\PSoC5/ADC_A.c **** *  parameter.
 458:Generated_Source\PSoC5/ADC_A.c **** *
 459:Generated_Source\PSoC5/ADC_A.c **** * Parameters:
 460:Generated_Source\PSoC5/ADC_A.c **** *  retMode:  Check conversion return mode.
 461:Generated_Source\PSoC5/ADC_A.c **** *   ADC_A_RETURN_STATUS: Immediately returns the status. If the
 462:Generated_Source\PSoC5/ADC_A.c **** *     value returned is zero, the conversion is not complete, and this function
 463:Generated_Source\PSoC5/ADC_A.c **** *     should be retried until a nonzero result is returned.
 464:Generated_Source\PSoC5/ADC_A.c **** *   ADC_A_WAIT_FOR_RESULT: Does not return a result until the ADC
 465:Generated_Source\PSoC5/ADC_A.c **** *     conversion is complete.
 466:Generated_Source\PSoC5/ADC_A.c **** *
 467:Generated_Source\PSoC5/ADC_A.c **** * Return:
 468:Generated_Source\PSoC5/ADC_A.c **** *  (uint8)  0 =>  The ADC is still calculating the last result.
 469:Generated_Source\PSoC5/ADC_A.c **** *           1 =>  The last conversion is complete.
 470:Generated_Source\PSoC5/ADC_A.c **** *
 471:Generated_Source\PSoC5/ADC_A.c **** * Side Effects:
 472:Generated_Source\PSoC5/ADC_A.c **** *  This function reads the end of conversion status, which is cleared on read.
 473:Generated_Source\PSoC5/ADC_A.c **** *
 474:Generated_Source\PSoC5/ADC_A.c **** *******************************************************************************/
 475:Generated_Source\PSoC5/ADC_A.c **** uint8 ADC_A_IsEndConversion(uint8 retMode)
 476:Generated_Source\PSoC5/ADC_A.c **** {
 477:Generated_Source\PSoC5/ADC_A.c ****     uint8 status;
 478:Generated_Source\PSoC5/ADC_A.c **** 
 479:Generated_Source\PSoC5/ADC_A.c ****     do
ARM GAS  C:\Users\Krist\AppData\Local\Temp\ccsuUa8r.s 			page 14


 480:Generated_Source\PSoC5/ADC_A.c ****     {
 481:Generated_Source\PSoC5/ADC_A.c ****         status = ADC_A_SAR_CSR1_REG & ADC_A_SAR_EOF_1;
 482:Generated_Source\PSoC5/ADC_A.c ****     } while ((status != ADC_A_SAR_EOF_1) && (retMode == ADC_A_WAIT_FOR_RESULT));
 483:Generated_Source\PSoC5/ADC_A.c ****     /* If convertion complete, wait until EOF bit released */
 484:Generated_Source\PSoC5/ADC_A.c ****     if(status == ADC_A_SAR_EOF_1)
 485:Generated_Source\PSoC5/ADC_A.c ****     {
 486:Generated_Source\PSoC5/ADC_A.c ****         /* wait one ADC clock to let the EOC status bit release */
 487:Generated_Source\PSoC5/ADC_A.c ****         CyDelayUs(1u);
 488:Generated_Source\PSoC5/ADC_A.c ****         /* Do the unconditional read operation of the CSR1 register to make sure the EOC bit has be
 489:Generated_Source\PSoC5/ADC_A.c ****         CY_GET_REG8(ADC_A_SAR_CSR1_PTR);
 490:Generated_Source\PSoC5/ADC_A.c ****     }
 491:Generated_Source\PSoC5/ADC_A.c **** 
 492:Generated_Source\PSoC5/ADC_A.c ****     return(status);
 493:Generated_Source\PSoC5/ADC_A.c **** }
 494:Generated_Source\PSoC5/ADC_A.c **** 
 495:Generated_Source\PSoC5/ADC_A.c **** 
 496:Generated_Source\PSoC5/ADC_A.c **** /*******************************************************************************
 497:Generated_Source\PSoC5/ADC_A.c **** * Function Name: ADC_A_GetResult8
 498:Generated_Source\PSoC5/ADC_A.c **** ********************************************************************************
 499:Generated_Source\PSoC5/ADC_A.c **** *
 500:Generated_Source\PSoC5/ADC_A.c **** * Summary:
 501:Generated_Source\PSoC5/ADC_A.c **** *  Returns the result of an 8-bit conversion. If the resolution is set greater
 502:Generated_Source\PSoC5/ADC_A.c **** *  than 8 bits, the function returns the LSB of the result.
 503:Generated_Source\PSoC5/ADC_A.c **** *  ADC_A_IsEndConversion() should be called to verify that the data
 504:Generated_Source\PSoC5/ADC_A.c **** *   sample is ready.
 505:Generated_Source\PSoC5/ADC_A.c **** *
 506:Generated_Source\PSoC5/ADC_A.c **** * Parameters:
 507:Generated_Source\PSoC5/ADC_A.c **** *  None.
 508:Generated_Source\PSoC5/ADC_A.c **** *
 509:Generated_Source\PSoC5/ADC_A.c **** * Return:
 510:Generated_Source\PSoC5/ADC_A.c **** *  The LSB of the last ADC conversion.
 511:Generated_Source\PSoC5/ADC_A.c **** *
 512:Generated_Source\PSoC5/ADC_A.c **** * Global Variables:
 513:Generated_Source\PSoC5/ADC_A.c **** *  ADC_A_shift - used to convert the ADC counts to the 2s
 514:Generated_Source\PSoC5/ADC_A.c **** *  compliment form.
 515:Generated_Source\PSoC5/ADC_A.c **** *
 516:Generated_Source\PSoC5/ADC_A.c **** * Side Effects:
 517:Generated_Source\PSoC5/ADC_A.c **** *  Converts the ADC counts to the 2s complement form.
 518:Generated_Source\PSoC5/ADC_A.c **** *
 519:Generated_Source\PSoC5/ADC_A.c **** *******************************************************************************/
 520:Generated_Source\PSoC5/ADC_A.c **** int8 ADC_A_GetResult8( void )
 521:Generated_Source\PSoC5/ADC_A.c **** {
 522:Generated_Source\PSoC5/ADC_A.c ****     return( (int8)ADC_A_SAR_WRK0_REG - (int8)ADC_A_shift);
 523:Generated_Source\PSoC5/ADC_A.c **** }
 524:Generated_Source\PSoC5/ADC_A.c **** 
 525:Generated_Source\PSoC5/ADC_A.c **** 
 526:Generated_Source\PSoC5/ADC_A.c **** /*******************************************************************************
 527:Generated_Source\PSoC5/ADC_A.c **** * Function Name: ADC_A_GetResult16
 528:Generated_Source\PSoC5/ADC_A.c **** ********************************************************************************
 529:Generated_Source\PSoC5/ADC_A.c **** *
 530:Generated_Source\PSoC5/ADC_A.c **** * Summary:
 531:Generated_Source\PSoC5/ADC_A.c **** *  Returns a 16-bit result for a conversion with a result that has a resolution
 532:Generated_Source\PSoC5/ADC_A.c **** *  of 8 to 12 bits.
 533:Generated_Source\PSoC5/ADC_A.c **** *  ADC_A_IsEndConversion() should be called to verify that the data
 534:Generated_Source\PSoC5/ADC_A.c **** *   sample is ready
 535:Generated_Source\PSoC5/ADC_A.c **** *
 536:Generated_Source\PSoC5/ADC_A.c **** * Parameters:
ARM GAS  C:\Users\Krist\AppData\Local\Temp\ccsuUa8r.s 			page 15


 537:Generated_Source\PSoC5/ADC_A.c **** *  None.
 538:Generated_Source\PSoC5/ADC_A.c **** *
 539:Generated_Source\PSoC5/ADC_A.c **** * Return:
 540:Generated_Source\PSoC5/ADC_A.c **** *  The 16-bit result of the last ADC conversion
 541:Generated_Source\PSoC5/ADC_A.c **** *
 542:Generated_Source\PSoC5/ADC_A.c **** * Global Variables:
 543:Generated_Source\PSoC5/ADC_A.c **** *  ADC_A_shift - used to convert the ADC counts to the 2s
 544:Generated_Source\PSoC5/ADC_A.c **** *  compliment form.
 545:Generated_Source\PSoC5/ADC_A.c **** *
 546:Generated_Source\PSoC5/ADC_A.c **** * Side Effects:
 547:Generated_Source\PSoC5/ADC_A.c **** *  Converts the ADC counts to the 2s complement form.
 548:Generated_Source\PSoC5/ADC_A.c **** *
 549:Generated_Source\PSoC5/ADC_A.c **** *******************************************************************************/
 550:Generated_Source\PSoC5/ADC_A.c **** int16 ADC_A_GetResult16( void )
 551:Generated_Source\PSoC5/ADC_A.c **** {
 552:Generated_Source\PSoC5/ADC_A.c ****     uint16 res;
 553:Generated_Source\PSoC5/ADC_A.c **** 
 554:Generated_Source\PSoC5/ADC_A.c ****     res = CY_GET_REG16(ADC_A_SAR_WRK_PTR);
 555:Generated_Source\PSoC5/ADC_A.c **** 
 556:Generated_Source\PSoC5/ADC_A.c ****     return( (int16)res - ADC_A_shift );
 557:Generated_Source\PSoC5/ADC_A.c **** }
 558:Generated_Source\PSoC5/ADC_A.c **** 
 559:Generated_Source\PSoC5/ADC_A.c **** 
 560:Generated_Source\PSoC5/ADC_A.c **** /*******************************************************************************
 561:Generated_Source\PSoC5/ADC_A.c **** * Function Name: ADC_A_SetOffset
 562:Generated_Source\PSoC5/ADC_A.c **** ********************************************************************************
 563:Generated_Source\PSoC5/ADC_A.c **** *
 564:Generated_Source\PSoC5/ADC_A.c **** * Summary:
 565:Generated_Source\PSoC5/ADC_A.c **** *  Sets the ADC offset, which is used by ADC_A_CountsTo_Volts(),
 566:Generated_Source\PSoC5/ADC_A.c **** *  ADC_A_CountsTo_mVolts(), and ADC_A_CountsTo_uVolts()
 567:Generated_Source\PSoC5/ADC_A.c **** *  to subtract the offset from the given reading before calculating the voltage
 568:Generated_Source\PSoC5/ADC_A.c **** *  conversion.
 569:Generated_Source\PSoC5/ADC_A.c **** *
 570:Generated_Source\PSoC5/ADC_A.c **** * Parameters:
 571:Generated_Source\PSoC5/ADC_A.c **** *  int16: This value is measured when the inputs are shorted or connected to
 572:Generated_Source\PSoC5/ADC_A.c ****    the same input voltage.
 573:Generated_Source\PSoC5/ADC_A.c **** *
 574:Generated_Source\PSoC5/ADC_A.c **** * Return:
 575:Generated_Source\PSoC5/ADC_A.c **** *  None.
 576:Generated_Source\PSoC5/ADC_A.c **** *
 577:Generated_Source\PSoC5/ADC_A.c **** * Global Variables:
 578:Generated_Source\PSoC5/ADC_A.c **** *  The ADC_A_offset variable modified. This variable is used for
 579:Generated_Source\PSoC5/ADC_A.c **** *  offset calibration purpose.
 580:Generated_Source\PSoC5/ADC_A.c **** *  Affects the ADC_A_CountsTo_Volts,
 581:Generated_Source\PSoC5/ADC_A.c **** *  ADC_A_CountsTo_mVolts, ADC_A_CountsTo_uVolts functions
 582:Generated_Source\PSoC5/ADC_A.c **** *  by subtracting the given offset.
 583:Generated_Source\PSoC5/ADC_A.c **** *
 584:Generated_Source\PSoC5/ADC_A.c **** *******************************************************************************/
 585:Generated_Source\PSoC5/ADC_A.c **** void ADC_A_SetOffset(int16 offset)
 586:Generated_Source\PSoC5/ADC_A.c **** {
 587:Generated_Source\PSoC5/ADC_A.c ****     ADC_A_offset = offset;
 588:Generated_Source\PSoC5/ADC_A.c **** }
 589:Generated_Source\PSoC5/ADC_A.c **** 
 590:Generated_Source\PSoC5/ADC_A.c **** 
 591:Generated_Source\PSoC5/ADC_A.c **** /*******************************************************************************
 592:Generated_Source\PSoC5/ADC_A.c **** * Function Name: ADC_A_CalcGain
 593:Generated_Source\PSoC5/ADC_A.c **** ********************************************************************************
ARM GAS  C:\Users\Krist\AppData\Local\Temp\ccsuUa8r.s 			page 16


 594:Generated_Source\PSoC5/ADC_A.c **** *
 595:Generated_Source\PSoC5/ADC_A.c **** * Summary:
 596:Generated_Source\PSoC5/ADC_A.c **** *  This function calculates the ADC gain in counts per 10 volt.
 597:Generated_Source\PSoC5/ADC_A.c **** *
 598:Generated_Source\PSoC5/ADC_A.c **** * Parameters:
 599:Generated_Source\PSoC5/ADC_A.c **** *  uint8: resolution
 600:Generated_Source\PSoC5/ADC_A.c **** *
 601:Generated_Source\PSoC5/ADC_A.c **** * Return:
 602:Generated_Source\PSoC5/ADC_A.c **** *  None.
 603:Generated_Source\PSoC5/ADC_A.c **** *
 604:Generated_Source\PSoC5/ADC_A.c **** * Global Variables:
 605:Generated_Source\PSoC5/ADC_A.c **** *  ADC_A_shift variable initialized. This variable is used to
 606:Generated_Source\PSoC5/ADC_A.c **** *  convert the ADC counts to the 2s compliment form.
 607:Generated_Source\PSoC5/ADC_A.c **** *  ADC_A_countsPer10Volt variable initialized. This variable is used
 608:Generated_Source\PSoC5/ADC_A.c **** *  for gain calibration purpose.
 609:Generated_Source\PSoC5/ADC_A.c **** *
 610:Generated_Source\PSoC5/ADC_A.c **** *******************************************************************************/
 611:Generated_Source\PSoC5/ADC_A.c **** static void ADC_A_CalcGain( uint8 resolution )
 612:Generated_Source\PSoC5/ADC_A.c **** {
 613:Generated_Source\PSoC5/ADC_A.c ****     int32 counts;
 614:Generated_Source\PSoC5/ADC_A.c ****     #if(!((ADC_A_DEFAULT_RANGE == ADC_A__VSS_TO_VREF) || \
 615:Generated_Source\PSoC5/ADC_A.c ****          (ADC_A_DEFAULT_RANGE == ADC_A__VSSA_TO_VDDA) || \
 616:Generated_Source\PSoC5/ADC_A.c ****          (ADC_A_DEFAULT_RANGE == ADC_A__VSSA_TO_VDAC)) )
 617:Generated_Source\PSoC5/ADC_A.c ****         uint16 diff_zero;
 618:Generated_Source\PSoC5/ADC_A.c ****     #endif /* End ADC_A_DEFAULT_RANGE */
 619:Generated_Source\PSoC5/ADC_A.c **** 
 620:Generated_Source\PSoC5/ADC_A.c ****     switch (resolution)
 621:Generated_Source\PSoC5/ADC_A.c ****     {
 622:Generated_Source\PSoC5/ADC_A.c ****         case (uint8)ADC_A__BITS_12:
 623:Generated_Source\PSoC5/ADC_A.c ****             counts = (int32)ADC_A_SAR_WRK_MAX_12BIT;
 624:Generated_Source\PSoC5/ADC_A.c ****             #if(!((ADC_A_DEFAULT_RANGE == ADC_A__VSS_TO_VREF) || \
 625:Generated_Source\PSoC5/ADC_A.c ****                  (ADC_A_DEFAULT_RANGE == ADC_A__VSSA_TO_VDDA) || \
 626:Generated_Source\PSoC5/ADC_A.c ****                  (ADC_A_DEFAULT_RANGE == ADC_A__VSSA_TO_VDAC)) )
 627:Generated_Source\PSoC5/ADC_A.c ****                 diff_zero = ADC_A_SAR_DIFF_SHIFT;
 628:Generated_Source\PSoC5/ADC_A.c ****             #endif /* End ADC_A_DEFAULT_RANGE */
 629:Generated_Source\PSoC5/ADC_A.c ****             break;
 630:Generated_Source\PSoC5/ADC_A.c ****         case (uint8)ADC_A__BITS_10:
 631:Generated_Source\PSoC5/ADC_A.c ****             counts = (int32)ADC_A_SAR_WRK_MAX_10BIT;
 632:Generated_Source\PSoC5/ADC_A.c ****             #if(!((ADC_A_DEFAULT_RANGE == ADC_A__VSS_TO_VREF) || \
 633:Generated_Source\PSoC5/ADC_A.c ****                  (ADC_A_DEFAULT_RANGE == ADC_A__VSSA_TO_VDDA) || \
 634:Generated_Source\PSoC5/ADC_A.c ****                  (ADC_A_DEFAULT_RANGE == ADC_A__VSSA_TO_VDAC)) )
 635:Generated_Source\PSoC5/ADC_A.c ****                 diff_zero = ADC_A_SAR_DIFF_SHIFT >> 2u;
 636:Generated_Source\PSoC5/ADC_A.c ****             #endif /* End ADC_A_DEFAULT_RANGE */
 637:Generated_Source\PSoC5/ADC_A.c ****             break;
 638:Generated_Source\PSoC5/ADC_A.c ****         case (uint8)ADC_A__BITS_8:
 639:Generated_Source\PSoC5/ADC_A.c ****             counts = (int32)ADC_A_SAR_WRK_MAX_8BIT;
 640:Generated_Source\PSoC5/ADC_A.c ****             #if(!((ADC_A_DEFAULT_RANGE == ADC_A__VSS_TO_VREF) || \
 641:Generated_Source\PSoC5/ADC_A.c ****                  (ADC_A_DEFAULT_RANGE == ADC_A__VSSA_TO_VDDA) || \
 642:Generated_Source\PSoC5/ADC_A.c ****                  (ADC_A_DEFAULT_RANGE == ADC_A__VSSA_TO_VDAC)) )
 643:Generated_Source\PSoC5/ADC_A.c ****                 diff_zero = ADC_A_SAR_DIFF_SHIFT >> 4u;
 644:Generated_Source\PSoC5/ADC_A.c ****             #endif /* End ADC_A_DEFAULT_RANGE */
 645:Generated_Source\PSoC5/ADC_A.c ****             break;
 646:Generated_Source\PSoC5/ADC_A.c ****         default: /* Halt CPU in debug mode if resolution is out of valid range */
 647:Generated_Source\PSoC5/ADC_A.c ****             counts = 0;
 648:Generated_Source\PSoC5/ADC_A.c ****             #if(!((ADC_A_DEFAULT_RANGE == ADC_A__VSS_TO_VREF) || \
 649:Generated_Source\PSoC5/ADC_A.c ****                  (ADC_A_DEFAULT_RANGE == ADC_A__VSSA_TO_VDDA) || \
 650:Generated_Source\PSoC5/ADC_A.c ****                  (ADC_A_DEFAULT_RANGE == ADC_A__VSSA_TO_VDAC)) )
ARM GAS  C:\Users\Krist\AppData\Local\Temp\ccsuUa8r.s 			page 17


 651:Generated_Source\PSoC5/ADC_A.c ****                 diff_zero = 0u;
 652:Generated_Source\PSoC5/ADC_A.c ****             #endif /* End ADC_A_DEFAULT_RANGE */
 653:Generated_Source\PSoC5/ADC_A.c ****             CYASSERT(0u != 0u);
 654:Generated_Source\PSoC5/ADC_A.c ****             break;
 655:Generated_Source\PSoC5/ADC_A.c ****     }
 656:Generated_Source\PSoC5/ADC_A.c ****     ADC_A_countsPerVolt = 0; /* Clear obsolete variable */
 248              		.loc 1 656 0
 249 0028 0A4B     		ldr	r3, .L18+8
 250              	.LBE5:
 251              	.LBE4:
 362:Generated_Source\PSoC5/ADC_A.c **** 
 252              		.loc 1 362 0
 253 002a 88BF     		it	hi
 254 002c 1146     		movhi	r1, r2
 255              	.LVL21:
 256              	.LBB7:
 257              	.LBB6:
 258              		.loc 1 656 0
 259 002e 1A80     		strh	r2, [r3]	@ movhi
 657:Generated_Source\PSoC5/ADC_A.c ****     /* Calculate gain in counts per 10 volts with rounding */
 658:Generated_Source\PSoC5/ADC_A.c ****     ADC_A_countsPer10Volt = (((counts * ADC_A_10MV_COUNTS) +
 659:Generated_Source\PSoC5/ADC_A.c ****                         ADC_A_DEFAULT_REF_VOLTAGE_MV) / (ADC_A_DEFAULT_REF_VOLTAGE_MV * 2));
 260              		.loc 1 659 0
 261 0030 42F21073 		movw	r3, #10000
 262 0034 4B43     		muls	r3, r1, r3
 263 0036 41F28831 		movw	r1, #5000
 264              	.LVL22:
 265 003a 03F6C413 		addw	r3, r3, #2500
 266 003e 93FBF1F3 		sdiv	r3, r3, r1
 658:Generated_Source\PSoC5/ADC_A.c ****                         ADC_A_DEFAULT_REF_VOLTAGE_MV) / (ADC_A_DEFAULT_REF_VOLTAGE_MV * 2));
 267              		.loc 1 658 0
 268 0042 0549     		ldr	r1, .L18+12
 269 0044 0B60     		str	r3, [r1]
 660:Generated_Source\PSoC5/ADC_A.c **** 
 661:Generated_Source\PSoC5/ADC_A.c ****     #if( (ADC_A_DEFAULT_RANGE == ADC_A__VSS_TO_VREF) || \
 662:Generated_Source\PSoC5/ADC_A.c ****          (ADC_A_DEFAULT_RANGE == ADC_A__VSSA_TO_VDDA) || \
 663:Generated_Source\PSoC5/ADC_A.c ****          (ADC_A_DEFAULT_RANGE == ADC_A__VSSA_TO_VDAC) )
 664:Generated_Source\PSoC5/ADC_A.c ****         ADC_A_shift = 0;
 270              		.loc 1 664 0
 271 0046 054B     		ldr	r3, .L18+16
 272 0048 1A80     		strh	r2, [r3]	@ movhi
 273 004a 7047     		bx	lr
 274              	.L19:
 275              		.align	2
 276              	.L18:
 277 004c 0A590040 		.word	1073764618
 278 0050 00000000 		.word	.LANCHOR0
 279 0054 00000000 		.word	ADC_A_countsPerVolt
 280 0058 00000000 		.word	ADC_A_countsPer10Volt
 281 005c 00000000 		.word	ADC_A_shift
 282              	.LBE6:
 283              	.LBE7:
 284              		.cfi_endproc
 285              	.LFE5:
 286              		.size	ADC_A_SetResolution, .-ADC_A_SetResolution
 287              		.section	.text.ADC_A_Init,"ax",%progbits
 288              		.align	1
ARM GAS  C:\Users\Krist\AppData\Local\Temp\ccsuUa8r.s 			page 18


 289              		.global	ADC_A_Init
 290              		.thumb
 291              		.thumb_func
 292              		.type	ADC_A_Init, %function
 293              	ADC_A_Init:
 294              	.LFB1:
 107:Generated_Source\PSoC5/ADC_A.c **** 
 295              		.loc 1 107 0
 296              		.cfi_startproc
 297              		@ args = 0, pretend = 0, frame = 0
 298              		@ frame_needed = 0, uses_anonymous_args = 0
 299 0000 08B5     		push	{r3, lr}
 300              		.cfi_def_cfa_offset 8
 301              		.cfi_offset 3, -8
 302              		.cfi_offset 14, -4
 116:Generated_Source\PSoC5/ADC_A.c ****         (void)CyIntSetVector(ADC_A_INTC_NUMBER, &ADC_A_ISR);
 303              		.loc 1 116 0
 304 0002 0721     		movs	r1, #7
 305 0004 0220     		movs	r0, #2
 306 0006 FFF7FEFF 		bl	CyIntSetPriority
 307              	.LVL23:
 117:Generated_Source\PSoC5/ADC_A.c ****     #endif   /* End ADC_A_IRQ_REMOVE */
 308              		.loc 1 117 0
 309 000a 0849     		ldr	r1, .L21
 310 000c 0220     		movs	r0, #2
 311 000e FFF7FEFF 		bl	CyIntSetVector
 312              	.LVL24:
 121:Generated_Source\PSoC5/ADC_A.c **** 
 313              		.loc 1 121 0
 314 0012 074A     		ldr	r2, .L21+4
 124:Generated_Source\PSoC5/ADC_A.c ****     ADC_A_offset = 0;
 315              		.loc 1 124 0
 316 0014 0C20     		movs	r0, #12
 121:Generated_Source\PSoC5/ADC_A.c **** 
 317              		.loc 1 121 0
 318 0016 1378     		ldrb	r3, [r2]	@ zero_extendqisi2
 319 0018 43F00603 		orr	r3, r3, #6
 320 001c 1370     		strb	r3, [r2]
 124:Generated_Source\PSoC5/ADC_A.c ****     ADC_A_offset = 0;
 321              		.loc 1 124 0
 322 001e FFF7FEFF 		bl	ADC_A_SetResolution
 323              	.LVL25:
 125:Generated_Source\PSoC5/ADC_A.c **** }
 324              		.loc 1 125 0
 325 0022 044B     		ldr	r3, .L21+8
 326 0024 0022     		movs	r2, #0
 327 0026 1A80     		strh	r2, [r3]	@ movhi
 328 0028 08BD     		pop	{r3, pc}
 329              	.L22:
 330 002a 00BF     		.align	2
 331              	.L21:
 332 002c 00000000 		.word	ADC_A_ISR
 333 0030 09590040 		.word	1073764617
 334 0034 00000000 		.word	ADC_A_offset
 335              		.cfi_endproc
 336              	.LFE1:
 337              		.size	ADC_A_Init, .-ADC_A_Init
ARM GAS  C:\Users\Krist\AppData\Local\Temp\ccsuUa8r.s 			page 19


 338              		.section	.text.ADC_A_Start,"ax",%progbits
 339              		.align	1
 340              		.global	ADC_A_Start
 341              		.thumb
 342              		.thumb_func
 343              		.type	ADC_A_Start, %function
 344              	ADC_A_Start:
 345              	.LFB0:
  75:Generated_Source\PSoC5/ADC_A.c **** 
 346              		.loc 1 75 0
 347              		.cfi_startproc
 348              		@ args = 0, pretend = 0, frame = 0
 349              		@ frame_needed = 0, uses_anonymous_args = 0
 350 0000 10B5     		push	{r4, lr}
 351              		.cfi_def_cfa_offset 8
 352              		.cfi_offset 4, -8
 353              		.cfi_offset 14, -4
  78:Generated_Source\PSoC5/ADC_A.c ****     {
 354              		.loc 1 78 0
 355 0002 054C     		ldr	r4, .L25
 356 0004 2378     		ldrb	r3, [r4]	@ zero_extendqisi2
 357 0006 1BB9     		cbnz	r3, .L24
  80:Generated_Source\PSoC5/ADC_A.c ****         ADC_A_initVar = 1u;
 358              		.loc 1 80 0
 359 0008 FFF7FEFF 		bl	ADC_A_Init
 360              	.LVL26:
  81:Generated_Source\PSoC5/ADC_A.c ****     }
 361              		.loc 1 81 0
 362 000c 0123     		movs	r3, #1
 363 000e 2370     		strb	r3, [r4]
 364              	.L24:
  84:Generated_Source\PSoC5/ADC_A.c **** 
 365              		.loc 1 84 0
 366 0010 BDE81040 		pop	{r4, lr}
 367              		.cfi_restore 14
 368              		.cfi_restore 4
 369              		.cfi_def_cfa_offset 0
  83:Generated_Source\PSoC5/ADC_A.c **** }
 370              		.loc 1 83 0
 371 0014 FFF7FEBF 		b	ADC_A_Enable
 372              	.LVL27:
 373              	.L26:
 374              		.align	2
 375              	.L25:
 376 0018 00000000 		.word	.LANCHOR1
 377              		.cfi_endproc
 378              	.LFE0:
 379              		.size	ADC_A_Start, .-ADC_A_Start
 380              		.section	.text.ADC_A_StartConvert,"ax",%progbits
 381              		.align	1
 382              		.global	ADC_A_StartConvert
 383              		.thumb
 384              		.thumb_func
 385              		.type	ADC_A_StartConvert, %function
 386              	ADC_A_StartConvert:
 387              	.LFB6:
 402:Generated_Source\PSoC5/ADC_A.c ****         #if(ADC_A_DEFAULT_CONV_MODE != ADC_A__FREE_RUNNING)  /* If software triggered mode */
ARM GAS  C:\Users\Krist\AppData\Local\Temp\ccsuUa8r.s 			page 20


 388              		.loc 1 402 0
 389              		.cfi_startproc
 390              		@ args = 0, pretend = 0, frame = 0
 391              		@ frame_needed = 0, uses_anonymous_args = 0
 392              		@ link register save eliminated.
 408:Generated_Source\PSoC5/ADC_A.c ****     }
 393              		.loc 1 408 0
 394 0000 024A     		ldr	r2, .L28
 395 0002 1378     		ldrb	r3, [r2]	@ zero_extendqisi2
 396 0004 43F00103 		orr	r3, r3, #1
 397 0008 1370     		strb	r3, [r2]
 398 000a 7047     		bx	lr
 399              	.L29:
 400              		.align	2
 401              	.L28:
 402 000c 08590040 		.word	1073764616
 403              		.cfi_endproc
 404              	.LFE6:
 405              		.size	ADC_A_StartConvert, .-ADC_A_StartConvert
 406              		.section	.text.ADC_A_StopConvert,"ax",%progbits
 407              		.align	1
 408              		.global	ADC_A_StopConvert
 409              		.thumb
 410              		.thumb_func
 411              		.type	ADC_A_StopConvert, %function
 412              	ADC_A_StopConvert:
 413              	.LFB7:
 436:Generated_Source\PSoC5/ADC_A.c ****         /* Stop all conversions */
 414              		.loc 1 436 0
 415              		.cfi_startproc
 416              		@ args = 0, pretend = 0, frame = 0
 417              		@ frame_needed = 0, uses_anonymous_args = 0
 418              		@ link register save eliminated.
 438:Generated_Source\PSoC5/ADC_A.c **** 
 419              		.loc 1 438 0
 420 0000 024A     		ldr	r2, .L31
 421 0002 1378     		ldrb	r3, [r2]	@ zero_extendqisi2
 422 0004 03F0FE03 		and	r3, r3, #254
 423 0008 1370     		strb	r3, [r2]
 424 000a 7047     		bx	lr
 425              	.L32:
 426              		.align	2
 427              	.L31:
 428 000c 08590040 		.word	1073764616
 429              		.cfi_endproc
 430              	.LFE7:
 431              		.size	ADC_A_StopConvert, .-ADC_A_StopConvert
 432              		.section	.text.ADC_A_IsEndConversion,"ax",%progbits
 433              		.align	1
 434              		.global	ADC_A_IsEndConversion
 435              		.thumb
 436              		.thumb_func
 437              		.type	ADC_A_IsEndConversion, %function
 438              	ADC_A_IsEndConversion:
 439              	.LFB8:
 476:Generated_Source\PSoC5/ADC_A.c ****     uint8 status;
 440              		.loc 1 476 0
ARM GAS  C:\Users\Krist\AppData\Local\Temp\ccsuUa8r.s 			page 21


 441              		.cfi_startproc
 442              		@ args = 0, pretend = 0, frame = 0
 443              		@ frame_needed = 0, uses_anonymous_args = 0
 444              	.LVL28:
 445 0000 10B5     		push	{r4, lr}
 446              		.cfi_def_cfa_offset 8
 447              		.cfi_offset 4, -8
 448              		.cfi_offset 14, -4
 481:Generated_Source\PSoC5/ADC_A.c ****     } while ((status != ADC_A_SAR_EOF_1) && (retMode == ADC_A_WAIT_FOR_RESULT));
 449              		.loc 1 481 0
 450 0002 084B     		ldr	r3, .L40
 451              	.L35:
 481:Generated_Source\PSoC5/ADC_A.c ****     } while ((status != ADC_A_SAR_EOF_1) && (retMode == ADC_A_WAIT_FOR_RESULT));
 452              		.loc 1 481 0 is_stmt 0 discriminator 2
 453 0004 1C78     		ldrb	r4, [r3]	@ zero_extendqisi2
 454              	.LVL29:
 482:Generated_Source\PSoC5/ADC_A.c ****     /* If convertion complete, wait until EOF bit released */
 455              		.loc 1 482 0 is_stmt 1 discriminator 2
 456 0006 14F00104 		ands	r4, r4, #1
 457              	.LVL30:
 458 000a 03D1     		bne	.L34
 482:Generated_Source\PSoC5/ADC_A.c ****     /* If convertion complete, wait until EOF bit released */
 459              		.loc 1 482 0 is_stmt 0 discriminator 1
 460 000c 0028     		cmp	r0, #0
 461 000e F9D0     		beq	.L35
 462 0010 0024     		movs	r4, #0
 463 0012 04E0     		b	.L39
 464              	.L34:
 487:Generated_Source\PSoC5/ADC_A.c ****         /* Do the unconditional read operation of the CSR1 register to make sure the EOC bit has be
 465              		.loc 1 487 0 is_stmt 1
 466 0014 2046     		mov	r0, r4
 467              	.LVL31:
 468 0016 FFF7FEFF 		bl	CyDelayUs
 469              	.LVL32:
 489:Generated_Source\PSoC5/ADC_A.c ****     }
 470              		.loc 1 489 0
 471 001a 024B     		ldr	r3, .L40
 472 001c 1B78     		ldrb	r3, [r3]	@ zero_extendqisi2
 473              	.L39:
 493:Generated_Source\PSoC5/ADC_A.c **** 
 474              		.loc 1 493 0
 475 001e 2046     		mov	r0, r4
 476 0020 10BD     		pop	{r4, pc}
 477              	.L41:
 478 0022 00BF     		.align	2
 479              	.L40:
 480 0024 09590040 		.word	1073764617
 481              		.cfi_endproc
 482              	.LFE8:
 483              		.size	ADC_A_IsEndConversion, .-ADC_A_IsEndConversion
 484              		.section	.text.ADC_A_GetResult8,"ax",%progbits
 485              		.align	1
 486              		.global	ADC_A_GetResult8
 487              		.thumb
 488              		.thumb_func
 489              		.type	ADC_A_GetResult8, %function
 490              	ADC_A_GetResult8:
ARM GAS  C:\Users\Krist\AppData\Local\Temp\ccsuUa8r.s 			page 22


 491              	.LFB9:
 521:Generated_Source\PSoC5/ADC_A.c ****     return( (int8)ADC_A_SAR_WRK0_REG - (int8)ADC_A_shift);
 492              		.loc 1 521 0
 493              		.cfi_startproc
 494              		@ args = 0, pretend = 0, frame = 0
 495              		@ frame_needed = 0, uses_anonymous_args = 0
 496              		@ link register save eliminated.
 522:Generated_Source\PSoC5/ADC_A.c **** }
 497              		.loc 1 522 0
 498 0000 034A     		ldr	r2, .L43
 499 0002 044B     		ldr	r3, .L43+4
 500 0004 1B78     		ldrb	r3, [r3]	@ zero_extendqisi2
 501 0006 1088     		ldrh	r0, [r2]
 502 0008 181A     		subs	r0, r3, r0
 523:Generated_Source\PSoC5/ADC_A.c **** 
 503              		.loc 1 523 0
 504 000a 40B2     		sxtb	r0, r0
 505 000c 7047     		bx	lr
 506              	.L44:
 507 000e 00BF     		.align	2
 508              	.L43:
 509 0010 00000000 		.word	ADC_A_shift
 510 0014 A25B0040 		.word	1073765282
 511              		.cfi_endproc
 512              	.LFE9:
 513              		.size	ADC_A_GetResult8, .-ADC_A_GetResult8
 514              		.section	.text.ADC_A_GetResult16,"ax",%progbits
 515              		.align	1
 516              		.global	ADC_A_GetResult16
 517              		.thumb
 518              		.thumb_func
 519              		.type	ADC_A_GetResult16, %function
 520              	ADC_A_GetResult16:
 521              	.LFB10:
 551:Generated_Source\PSoC5/ADC_A.c ****     uint16 res;
 522              		.loc 1 551 0
 523              		.cfi_startproc
 524              		@ args = 0, pretend = 0, frame = 0
 525              		@ frame_needed = 0, uses_anonymous_args = 0
 526              		@ link register save eliminated.
 556:Generated_Source\PSoC5/ADC_A.c **** }
 527              		.loc 1 556 0
 528 0000 034A     		ldr	r2, .L46
 554:Generated_Source\PSoC5/ADC_A.c **** 
 529              		.loc 1 554 0
 530 0002 044B     		ldr	r3, .L46+4
 531 0004 1B88     		ldrh	r3, [r3]
 532              	.LVL33:
 556:Generated_Source\PSoC5/ADC_A.c **** }
 533              		.loc 1 556 0
 534 0006 1088     		ldrh	r0, [r2]
 535 0008 181A     		subs	r0, r3, r0
 557:Generated_Source\PSoC5/ADC_A.c **** 
 536              		.loc 1 557 0
 537 000a 00B2     		sxth	r0, r0
 538 000c 7047     		bx	lr
 539              	.L47:
ARM GAS  C:\Users\Krist\AppData\Local\Temp\ccsuUa8r.s 			page 23


 540 000e 00BF     		.align	2
 541              	.L46:
 542 0010 00000000 		.word	ADC_A_shift
 543 0014 A25B0040 		.word	1073765282
 544              		.cfi_endproc
 545              	.LFE10:
 546              		.size	ADC_A_GetResult16, .-ADC_A_GetResult16
 547              		.section	.text.ADC_A_SetOffset,"ax",%progbits
 548              		.align	1
 549              		.global	ADC_A_SetOffset
 550              		.thumb
 551              		.thumb_func
 552              		.type	ADC_A_SetOffset, %function
 553              	ADC_A_SetOffset:
 554              	.LFB11:
 586:Generated_Source\PSoC5/ADC_A.c ****     ADC_A_offset = offset;
 555              		.loc 1 586 0
 556              		.cfi_startproc
 557              		@ args = 0, pretend = 0, frame = 0
 558              		@ frame_needed = 0, uses_anonymous_args = 0
 559              		@ link register save eliminated.
 560              	.LVL34:
 587:Generated_Source\PSoC5/ADC_A.c **** }
 561              		.loc 1 587 0
 562 0000 014B     		ldr	r3, .L49
 563 0002 1880     		strh	r0, [r3]	@ movhi
 564 0004 7047     		bx	lr
 565              	.L50:
 566 0006 00BF     		.align	2
 567              	.L49:
 568 0008 00000000 		.word	ADC_A_offset
 569              		.cfi_endproc
 570              	.LFE11:
 571              		.size	ADC_A_SetOffset, .-ADC_A_SetOffset
 572              		.section	.text.ADC_A_SetGain,"ax",%progbits
 573              		.align	1
 574              		.global	ADC_A_SetGain
 575              		.thumb
 576              		.thumb_func
 577              		.type	ADC_A_SetGain, %function
 578              	ADC_A_SetGain:
 579              	.LFB13:
 665:Generated_Source\PSoC5/ADC_A.c ****     #else
 666:Generated_Source\PSoC5/ADC_A.c ****         ADC_A_shift = diff_zero;
 667:Generated_Source\PSoC5/ADC_A.c ****     #endif /* End ADC_A_DEFAULT_RANGE */
 668:Generated_Source\PSoC5/ADC_A.c **** }
 669:Generated_Source\PSoC5/ADC_A.c **** 
 670:Generated_Source\PSoC5/ADC_A.c **** 
 671:Generated_Source\PSoC5/ADC_A.c **** /*******************************************************************************
 672:Generated_Source\PSoC5/ADC_A.c **** * Function Name: ADC_A_SetGain
 673:Generated_Source\PSoC5/ADC_A.c **** ********************************************************************************
 674:Generated_Source\PSoC5/ADC_A.c **** *
 675:Generated_Source\PSoC5/ADC_A.c **** * Summary:
 676:Generated_Source\PSoC5/ADC_A.c **** *  Sets the ADC gain in counts per volt for the voltage conversion functions
 677:Generated_Source\PSoC5/ADC_A.c **** *  that follow. This value is set by default by the reference and input range
 678:Generated_Source\PSoC5/ADC_A.c **** *  settings. It should only be used to further calibrate the ADC with a known
 679:Generated_Source\PSoC5/ADC_A.c **** *  input or if the ADC is using an external reference.
ARM GAS  C:\Users\Krist\AppData\Local\Temp\ccsuUa8r.s 			page 24


 680:Generated_Source\PSoC5/ADC_A.c **** *
 681:Generated_Source\PSoC5/ADC_A.c **** * Parameters:
 682:Generated_Source\PSoC5/ADC_A.c **** *  int16 adcGain counts per volt
 683:Generated_Source\PSoC5/ADC_A.c **** *
 684:Generated_Source\PSoC5/ADC_A.c **** * Return:
 685:Generated_Source\PSoC5/ADC_A.c **** *  None.
 686:Generated_Source\PSoC5/ADC_A.c **** *
 687:Generated_Source\PSoC5/ADC_A.c **** * Global Variables:
 688:Generated_Source\PSoC5/ADC_A.c **** *  ADC_A_countsPer10Volt variable modified. This variable is used
 689:Generated_Source\PSoC5/ADC_A.c **** *  for gain calibration purpose.
 690:Generated_Source\PSoC5/ADC_A.c **** *
 691:Generated_Source\PSoC5/ADC_A.c **** *******************************************************************************/
 692:Generated_Source\PSoC5/ADC_A.c **** void ADC_A_SetGain(int16 adcGain)
 693:Generated_Source\PSoC5/ADC_A.c **** {
 580              		.loc 1 693 0
 581              		.cfi_startproc
 582              		@ args = 0, pretend = 0, frame = 0
 583              		@ frame_needed = 0, uses_anonymous_args = 0
 584              		@ link register save eliminated.
 585              	.LVL35:
 694:Generated_Source\PSoC5/ADC_A.c ****     ADC_A_countsPer10Volt = (int32)adcGain * 10;
 586              		.loc 1 694 0
 587 0000 0A23     		movs	r3, #10
 588 0002 5843     		muls	r0, r3, r0
 589              	.LVL36:
 590 0004 014B     		ldr	r3, .L52
 591 0006 1860     		str	r0, [r3]
 592 0008 7047     		bx	lr
 593              	.L53:
 594 000a 00BF     		.align	2
 595              	.L52:
 596 000c 00000000 		.word	ADC_A_countsPer10Volt
 597              		.cfi_endproc
 598              	.LFE13:
 599              		.size	ADC_A_SetGain, .-ADC_A_SetGain
 600              		.section	.text.ADC_A_SetScaledGain,"ax",%progbits
 601              		.align	1
 602              		.global	ADC_A_SetScaledGain
 603              		.thumb
 604              		.thumb_func
 605              		.type	ADC_A_SetScaledGain, %function
 606              	ADC_A_SetScaledGain:
 607              	.LFB14:
 695:Generated_Source\PSoC5/ADC_A.c **** }
 696:Generated_Source\PSoC5/ADC_A.c **** 
 697:Generated_Source\PSoC5/ADC_A.c **** 
 698:Generated_Source\PSoC5/ADC_A.c **** /*******************************************************************************
 699:Generated_Source\PSoC5/ADC_A.c **** * Function Name: ADC_A_SetScaledGain
 700:Generated_Source\PSoC5/ADC_A.c **** ********************************************************************************
 701:Generated_Source\PSoC5/ADC_A.c **** *
 702:Generated_Source\PSoC5/ADC_A.c **** * Summary:
 703:Generated_Source\PSoC5/ADC_A.c **** *  Sets the ADC gain in counts per 10 volt for the voltage conversion functions
 704:Generated_Source\PSoC5/ADC_A.c **** *  that follow. This value is set by default by the reference and input range
 705:Generated_Source\PSoC5/ADC_A.c **** *  settings. It should only be used to further calibrate the ADC with a known
 706:Generated_Source\PSoC5/ADC_A.c **** *  input or if the ADC is using an external reference.
 707:Generated_Source\PSoC5/ADC_A.c **** *
 708:Generated_Source\PSoC5/ADC_A.c **** * Parameters:
ARM GAS  C:\Users\Krist\AppData\Local\Temp\ccsuUa8r.s 			page 25


 709:Generated_Source\PSoC5/ADC_A.c **** *  int32 adcGain  counts per 10 volt
 710:Generated_Source\PSoC5/ADC_A.c **** *
 711:Generated_Source\PSoC5/ADC_A.c **** * Return:
 712:Generated_Source\PSoC5/ADC_A.c **** *  None.
 713:Generated_Source\PSoC5/ADC_A.c **** *
 714:Generated_Source\PSoC5/ADC_A.c **** * Global Variables:
 715:Generated_Source\PSoC5/ADC_A.c **** *  ADC_A_countsPer10Volt variable modified. This variable is used
 716:Generated_Source\PSoC5/ADC_A.c **** *  for gain calibration purpose.
 717:Generated_Source\PSoC5/ADC_A.c **** *
 718:Generated_Source\PSoC5/ADC_A.c **** *******************************************************************************/
 719:Generated_Source\PSoC5/ADC_A.c **** void ADC_A_SetScaledGain(int32 adcGain)
 720:Generated_Source\PSoC5/ADC_A.c **** {
 608              		.loc 1 720 0
 609              		.cfi_startproc
 610              		@ args = 0, pretend = 0, frame = 0
 611              		@ frame_needed = 0, uses_anonymous_args = 0
 612              		@ link register save eliminated.
 613              	.LVL37:
 721:Generated_Source\PSoC5/ADC_A.c ****     ADC_A_countsPer10Volt = adcGain;
 614              		.loc 1 721 0
 615 0000 014B     		ldr	r3, .L55
 616 0002 1860     		str	r0, [r3]
 617 0004 7047     		bx	lr
 618              	.L56:
 619 0006 00BF     		.align	2
 620              	.L55:
 621 0008 00000000 		.word	ADC_A_countsPer10Volt
 622              		.cfi_endproc
 623              	.LFE14:
 624              		.size	ADC_A_SetScaledGain, .-ADC_A_SetScaledGain
 625              		.section	.text.ADC_A_CountsTo_mVolts,"ax",%progbits
 626              		.align	1
 627              		.global	ADC_A_CountsTo_mVolts
 628              		.thumb
 629              		.thumb_func
 630              		.type	ADC_A_CountsTo_mVolts, %function
 631              	ADC_A_CountsTo_mVolts:
 632              	.LFB15:
 722:Generated_Source\PSoC5/ADC_A.c **** }
 723:Generated_Source\PSoC5/ADC_A.c **** 
 724:Generated_Source\PSoC5/ADC_A.c **** 
 725:Generated_Source\PSoC5/ADC_A.c **** /*******************************************************************************
 726:Generated_Source\PSoC5/ADC_A.c **** * Function Name: ADC_A_CountsTo_mVolts
 727:Generated_Source\PSoC5/ADC_A.c **** ********************************************************************************
 728:Generated_Source\PSoC5/ADC_A.c **** *
 729:Generated_Source\PSoC5/ADC_A.c **** * Summary:
 730:Generated_Source\PSoC5/ADC_A.c **** *  Converts the ADC output to millivolts as a 16-bit integer.
 731:Generated_Source\PSoC5/ADC_A.c **** *
 732:Generated_Source\PSoC5/ADC_A.c **** * Parameters:
 733:Generated_Source\PSoC5/ADC_A.c **** *  int16 adcCounts:  Result from the ADC conversion
 734:Generated_Source\PSoC5/ADC_A.c **** *
 735:Generated_Source\PSoC5/ADC_A.c **** * Return:
 736:Generated_Source\PSoC5/ADC_A.c **** *  int16 Result in mVolts
 737:Generated_Source\PSoC5/ADC_A.c **** *
 738:Generated_Source\PSoC5/ADC_A.c **** * Global Variables:
 739:Generated_Source\PSoC5/ADC_A.c **** *  ADC_A_offset variable used.
 740:Generated_Source\PSoC5/ADC_A.c **** *  ADC_A_countsPer10Volt variable used.
ARM GAS  C:\Users\Krist\AppData\Local\Temp\ccsuUa8r.s 			page 26


 741:Generated_Source\PSoC5/ADC_A.c **** *
 742:Generated_Source\PSoC5/ADC_A.c **** *******************************************************************************/
 743:Generated_Source\PSoC5/ADC_A.c **** int16 ADC_A_CountsTo_mVolts(int16 adcCounts)
 744:Generated_Source\PSoC5/ADC_A.c **** {
 633              		.loc 1 744 0
 634              		.cfi_startproc
 635              		@ args = 0, pretend = 0, frame = 0
 636              		@ frame_needed = 0, uses_anonymous_args = 0
 637              		@ link register save eliminated.
 638              	.LVL38:
 745:Generated_Source\PSoC5/ADC_A.c ****     int16 mVolts;
 746:Generated_Source\PSoC5/ADC_A.c ****     int32 countsPer10Volt;
 747:Generated_Source\PSoC5/ADC_A.c **** 
 748:Generated_Source\PSoC5/ADC_A.c ****     if(ADC_A_countsPerVolt != 0)
 639              		.loc 1 748 0
 640 0000 0E4A     		ldr	r2, .L62
 641 0002 1388     		ldrh	r3, [r2]
 642 0004 1BB2     		sxth	r3, r3
 643 0006 23B1     		cbz	r3, .L58
 749:Generated_Source\PSoC5/ADC_A.c ****     {   /* Support obsolete method */
 750:Generated_Source\PSoC5/ADC_A.c ****         countsPer10Volt = (int32)ADC_A_countsPerVolt * 10;
 644              		.loc 1 750 0
 645 0008 1188     		ldrh	r1, [r2]
 646 000a 0A23     		movs	r3, #10
 647 000c 09B2     		sxth	r1, r1
 648 000e 5943     		muls	r1, r3, r1
 649              	.LVL39:
 650 0010 01E0     		b	.L59
 651              	.LVL40:
 652              	.L58:
 751:Generated_Source\PSoC5/ADC_A.c ****     }
 752:Generated_Source\PSoC5/ADC_A.c ****     else
 753:Generated_Source\PSoC5/ADC_A.c ****     {
 754:Generated_Source\PSoC5/ADC_A.c ****         countsPer10Volt = ADC_A_countsPer10Volt;
 653              		.loc 1 754 0
 654 0012 0B4B     		ldr	r3, .L62+4
 655 0014 1968     		ldr	r1, [r3]
 656              	.LVL41:
 657              	.L59:
 755:Generated_Source\PSoC5/ADC_A.c ****     }
 756:Generated_Source\PSoC5/ADC_A.c **** 
 757:Generated_Source\PSoC5/ADC_A.c ****     /* Subtract ADC offset */
 758:Generated_Source\PSoC5/ADC_A.c ****     adcCounts -= ADC_A_offset;
 658              		.loc 1 758 0
 659 0016 0B4B     		ldr	r3, .L62+8
 660 0018 1B88     		ldrh	r3, [r3]
 661 001a C01A     		subs	r0, r0, r3
 662              	.LVL42:
 759:Generated_Source\PSoC5/ADC_A.c ****     /* Convert to millivolts with rounding */
 760:Generated_Source\PSoC5/ADC_A.c ****     mVolts = (int16)( (( (int32)adcCounts * ADC_A_10MV_COUNTS ) + ( (adcCounts > 0) ?
 663              		.loc 1 760 0
 664 001c 42F21073 		movw	r3, #10000
 758:Generated_Source\PSoC5/ADC_A.c ****     /* Convert to millivolts with rounding */
 665              		.loc 1 758 0
 666 0020 00B2     		sxth	r0, r0
 667              	.LVL43:
 668              		.loc 1 760 0
ARM GAS  C:\Users\Krist\AppData\Local\Temp\ccsuUa8r.s 			page 27


 669 0022 03FB00F2 		mul	r2, r3, r0
 670 0026 0223     		movs	r3, #2
 761:Generated_Source\PSoC5/ADC_A.c ****                        (countsPer10Volt / 2) : (-(countsPer10Volt / 2)) )) / countsPer10Volt);
 671              		.loc 1 761 0
 672 0028 91FBF3F3 		sdiv	r3, r1, r3
 673 002c 0028     		cmp	r0, #0
 674 002e D8BF     		it	le
 675 0030 5B42     		rsble	r3, r3, #0
 676              	.LVL44:
 762:Generated_Source\PSoC5/ADC_A.c **** 
 763:Generated_Source\PSoC5/ADC_A.c ****     return( mVolts );
 677              		.loc 1 763 0
 678 0032 1344     		add	r3, r3, r2
 679              	.LVL45:
 680 0034 93FBF1F0 		sdiv	r0, r3, r1
 681              	.LVL46:
 764:Generated_Source\PSoC5/ADC_A.c **** }
 682              		.loc 1 764 0
 683 0038 00B2     		sxth	r0, r0
 684 003a 7047     		bx	lr
 685              	.L63:
 686              		.align	2
 687              	.L62:
 688 003c 00000000 		.word	ADC_A_countsPerVolt
 689 0040 00000000 		.word	ADC_A_countsPer10Volt
 690 0044 00000000 		.word	ADC_A_offset
 691              		.cfi_endproc
 692              	.LFE15:
 693              		.size	ADC_A_CountsTo_mVolts, .-ADC_A_CountsTo_mVolts
 694              		.global	__aeabi_ldivmod
 695              		.section	.text.ADC_A_CountsTo_uVolts,"ax",%progbits
 696              		.align	1
 697              		.global	ADC_A_CountsTo_uVolts
 698              		.thumb
 699              		.thumb_func
 700              		.type	ADC_A_CountsTo_uVolts, %function
 701              	ADC_A_CountsTo_uVolts:
 702              	.LFB16:
 765:Generated_Source\PSoC5/ADC_A.c **** 
 766:Generated_Source\PSoC5/ADC_A.c **** 
 767:Generated_Source\PSoC5/ADC_A.c **** /*******************************************************************************
 768:Generated_Source\PSoC5/ADC_A.c **** * Function Name: ADC_A_CountsTo_uVolts
 769:Generated_Source\PSoC5/ADC_A.c **** ********************************************************************************
 770:Generated_Source\PSoC5/ADC_A.c **** *
 771:Generated_Source\PSoC5/ADC_A.c **** * Summary:
 772:Generated_Source\PSoC5/ADC_A.c **** *  Converts the ADC output to microvolts as a 32-bit integer.
 773:Generated_Source\PSoC5/ADC_A.c **** *
 774:Generated_Source\PSoC5/ADC_A.c **** * Parameters:
 775:Generated_Source\PSoC5/ADC_A.c **** *  int16 adcCounts: Result from the ADC conversion
 776:Generated_Source\PSoC5/ADC_A.c **** *
 777:Generated_Source\PSoC5/ADC_A.c **** * Return:
 778:Generated_Source\PSoC5/ADC_A.c **** *  int32 Result in micro Volts
 779:Generated_Source\PSoC5/ADC_A.c **** *
 780:Generated_Source\PSoC5/ADC_A.c **** * Global Variables:
 781:Generated_Source\PSoC5/ADC_A.c **** *  ADC_A_offset variable used.
 782:Generated_Source\PSoC5/ADC_A.c **** *  ADC_A_countsPer10Volt used to convert ADC counts to uVolts.
 783:Generated_Source\PSoC5/ADC_A.c **** *
ARM GAS  C:\Users\Krist\AppData\Local\Temp\ccsuUa8r.s 			page 28


 784:Generated_Source\PSoC5/ADC_A.c **** *******************************************************************************/
 785:Generated_Source\PSoC5/ADC_A.c **** int32 ADC_A_CountsTo_uVolts(int16 adcCounts)
 786:Generated_Source\PSoC5/ADC_A.c **** {
 703              		.loc 1 786 0
 704              		.cfi_startproc
 705              		@ args = 0, pretend = 0, frame = 0
 706              		@ frame_needed = 0, uses_anonymous_args = 0
 707              	.LVL47:
 787:Generated_Source\PSoC5/ADC_A.c **** 
 788:Generated_Source\PSoC5/ADC_A.c ****     int64 uVolts;
 789:Generated_Source\PSoC5/ADC_A.c ****     int32 countsPer10Volt;
 790:Generated_Source\PSoC5/ADC_A.c **** 
 791:Generated_Source\PSoC5/ADC_A.c ****     if(ADC_A_countsPerVolt != 0)
 708              		.loc 1 791 0
 709 0000 0C4A     		ldr	r2, .L67
 786:Generated_Source\PSoC5/ADC_A.c **** 
 710              		.loc 1 786 0
 711 0002 38B5     		push	{r3, r4, r5, lr}
 712              		.cfi_def_cfa_offset 16
 713              		.cfi_offset 3, -16
 714              		.cfi_offset 4, -12
 715              		.cfi_offset 5, -8
 716              		.cfi_offset 14, -4
 717              		.loc 1 791 0
 718 0004 1388     		ldrh	r3, [r2]
 719 0006 1BB2     		sxth	r3, r3
 720 0008 23B1     		cbz	r3, .L65
 792:Generated_Source\PSoC5/ADC_A.c ****     {   /* Support obsolete method */
 793:Generated_Source\PSoC5/ADC_A.c ****         countsPer10Volt = (int32)ADC_A_countsPerVolt * 10;
 721              		.loc 1 793 0
 722 000a 1288     		ldrh	r2, [r2]
 723 000c 0A23     		movs	r3, #10
 724 000e 12B2     		sxth	r2, r2
 725 0010 5A43     		muls	r2, r3, r2
 726              	.LVL48:
 727 0012 01E0     		b	.L66
 728              	.LVL49:
 729              	.L65:
 794:Generated_Source\PSoC5/ADC_A.c ****     }
 795:Generated_Source\PSoC5/ADC_A.c ****     else
 796:Generated_Source\PSoC5/ADC_A.c ****     {
 797:Generated_Source\PSoC5/ADC_A.c ****         countsPer10Volt = ADC_A_countsPer10Volt;
 730              		.loc 1 797 0
 731 0014 084B     		ldr	r3, .L67+4
 732 0016 1A68     		ldr	r2, [r3]
 733              	.LVL50:
 734              	.L66:
 798:Generated_Source\PSoC5/ADC_A.c ****     }
 799:Generated_Source\PSoC5/ADC_A.c **** 
 800:Generated_Source\PSoC5/ADC_A.c ****     /* Subtract ADC offset */
 801:Generated_Source\PSoC5/ADC_A.c ****     adcCounts -= ADC_A_offset;
 735              		.loc 1 801 0
 736 0018 084B     		ldr	r3, .L67+8
 737 001a 1C88     		ldrh	r4, [r3]
 802:Generated_Source\PSoC5/ADC_A.c ****     /* To convert adcCounts to microVolts it is required to be multiplied
 803:Generated_Source\PSoC5/ADC_A.c ****     *  on 10 million and later divide on gain in counts per 10V.
 804:Generated_Source\PSoC5/ADC_A.c ****     */
ARM GAS  C:\Users\Krist\AppData\Local\Temp\ccsuUa8r.s 			page 29


 805:Generated_Source\PSoC5/ADC_A.c ****     uVolts = (( (int64)adcCounts * ADC_A_10UV_COUNTS ) / countsPer10Volt);
 806:Generated_Source\PSoC5/ADC_A.c **** 
 807:Generated_Source\PSoC5/ADC_A.c ****     return( uVolts );
 738              		.loc 1 807 0
 739 001c 084B     		ldr	r3, .L67+12
 801:Generated_Source\PSoC5/ADC_A.c ****     /* To convert adcCounts to microVolts it is required to be multiplied
 740              		.loc 1 801 0
 741 001e 041B     		subs	r4, r0, r4
 742              	.LVL51:
 743              		.loc 1 807 0
 744 0020 24B2     		sxth	r4, r4
 745 0022 A4FB0301 		umull	r0, r1, r4, r3
 746 0026 E517     		asrs	r5, r4, #31
 747 0028 03FB0511 		mla	r1, r3, r5, r1
 748 002c D317     		asrs	r3, r2, #31
 749 002e FFF7FEFF 		bl	__aeabi_ldivmod
 750              	.LVL52:
 808:Generated_Source\PSoC5/ADC_A.c **** }
 751              		.loc 1 808 0
 752 0032 38BD     		pop	{r3, r4, r5, pc}
 753              	.LVL53:
 754              	.L68:
 755              		.align	2
 756              	.L67:
 757 0034 00000000 		.word	ADC_A_countsPerVolt
 758 0038 00000000 		.word	ADC_A_countsPer10Volt
 759 003c 00000000 		.word	ADC_A_offset
 760 0040 80969800 		.word	10000000
 761              		.cfi_endproc
 762              	.LFE16:
 763              		.size	ADC_A_CountsTo_uVolts, .-ADC_A_CountsTo_uVolts
 764              		.global	__aeabi_i2f
 765              		.global	__aeabi_fmul
 766              		.global	__aeabi_fdiv
 767              		.section	.text.ADC_A_CountsTo_Volts,"ax",%progbits
 768              		.align	1
 769              		.global	ADC_A_CountsTo_Volts
 770              		.thumb
 771              		.thumb_func
 772              		.type	ADC_A_CountsTo_Volts, %function
 773              	ADC_A_CountsTo_Volts:
 774              	.LFB17:
 809:Generated_Source\PSoC5/ADC_A.c **** 
 810:Generated_Source\PSoC5/ADC_A.c **** 
 811:Generated_Source\PSoC5/ADC_A.c **** /*******************************************************************************
 812:Generated_Source\PSoC5/ADC_A.c **** * Function Name: ADC_A_CountsTo_Volts
 813:Generated_Source\PSoC5/ADC_A.c **** ********************************************************************************
 814:Generated_Source\PSoC5/ADC_A.c **** *
 815:Generated_Source\PSoC5/ADC_A.c **** * Summary:
 816:Generated_Source\PSoC5/ADC_A.c **** *  Converts the ADC output to volts as a floating-point number.
 817:Generated_Source\PSoC5/ADC_A.c **** *
 818:Generated_Source\PSoC5/ADC_A.c **** * Parameters:
 819:Generated_Source\PSoC5/ADC_A.c **** *  int16 adcCounts: Result from the ADC conversion
 820:Generated_Source\PSoC5/ADC_A.c **** *
 821:Generated_Source\PSoC5/ADC_A.c **** * Return:
 822:Generated_Source\PSoC5/ADC_A.c **** *  float Result in Volts
 823:Generated_Source\PSoC5/ADC_A.c **** *
ARM GAS  C:\Users\Krist\AppData\Local\Temp\ccsuUa8r.s 			page 30


 824:Generated_Source\PSoC5/ADC_A.c **** * Global Variables:
 825:Generated_Source\PSoC5/ADC_A.c **** *  ADC_A_offset variable used.
 826:Generated_Source\PSoC5/ADC_A.c **** *  ADC_A_countsPer10Volt used to convert ADC counts to Volts.
 827:Generated_Source\PSoC5/ADC_A.c **** *
 828:Generated_Source\PSoC5/ADC_A.c **** *******************************************************************************/
 829:Generated_Source\PSoC5/ADC_A.c **** float32 ADC_A_CountsTo_Volts(int16 adcCounts)
 830:Generated_Source\PSoC5/ADC_A.c **** {
 775              		.loc 1 830 0
 776              		.cfi_startproc
 777              		@ args = 0, pretend = 0, frame = 0
 778              		@ frame_needed = 0, uses_anonymous_args = 0
 779              	.LVL54:
 831:Generated_Source\PSoC5/ADC_A.c ****     float32 volts;
 832:Generated_Source\PSoC5/ADC_A.c ****     int32 countsPer10Volt;
 833:Generated_Source\PSoC5/ADC_A.c **** 
 834:Generated_Source\PSoC5/ADC_A.c ****     if(ADC_A_countsPerVolt != 0)
 780              		.loc 1 834 0
 781 0000 0E4A     		ldr	r2, .L72
 830:Generated_Source\PSoC5/ADC_A.c ****     float32 volts;
 782              		.loc 1 830 0
 783 0002 38B5     		push	{r3, r4, r5, lr}
 784              		.cfi_def_cfa_offset 16
 785              		.cfi_offset 3, -16
 786              		.cfi_offset 4, -12
 787              		.cfi_offset 5, -8
 788              		.cfi_offset 14, -4
 789              		.loc 1 834 0
 790 0004 1388     		ldrh	r3, [r2]
 791 0006 1BB2     		sxth	r3, r3
 792 0008 23B1     		cbz	r3, .L70
 835:Generated_Source\PSoC5/ADC_A.c ****     {   /* Support obsolete method */
 836:Generated_Source\PSoC5/ADC_A.c ****         countsPer10Volt = (int32)ADC_A_countsPerVolt * 10;
 793              		.loc 1 836 0
 794 000a 1488     		ldrh	r4, [r2]
 795 000c 0A23     		movs	r3, #10
 796 000e 24B2     		sxth	r4, r4
 797 0010 5C43     		muls	r4, r3, r4
 798              	.LVL55:
 799 0012 01E0     		b	.L71
 800              	.LVL56:
 801              	.L70:
 837:Generated_Source\PSoC5/ADC_A.c ****     }
 838:Generated_Source\PSoC5/ADC_A.c ****     else
 839:Generated_Source\PSoC5/ADC_A.c ****     {
 840:Generated_Source\PSoC5/ADC_A.c ****         countsPer10Volt = ADC_A_countsPer10Volt;
 802              		.loc 1 840 0
 803 0014 0A4B     		ldr	r3, .L72+4
 804 0016 1C68     		ldr	r4, [r3]
 805              	.LVL57:
 806              	.L71:
 841:Generated_Source\PSoC5/ADC_A.c ****     }
 842:Generated_Source\PSoC5/ADC_A.c **** 
 843:Generated_Source\PSoC5/ADC_A.c ****     /* Subtract ADC offset */
 844:Generated_Source\PSoC5/ADC_A.c ****     adcCounts -= ADC_A_offset;
 807              		.loc 1 844 0
 808 0018 0A4B     		ldr	r3, .L72+8
 809 001a 1B88     		ldrh	r3, [r3]
ARM GAS  C:\Users\Krist\AppData\Local\Temp\ccsuUa8r.s 			page 31


 810 001c C01A     		subs	r0, r0, r3
 811              	.LVL58:
 845:Generated_Source\PSoC5/ADC_A.c **** 
 846:Generated_Source\PSoC5/ADC_A.c ****     volts = ((float32)adcCounts * ADC_A_10V_COUNTS) / (float32)countsPer10Volt;
 847:Generated_Source\PSoC5/ADC_A.c **** 
 848:Generated_Source\PSoC5/ADC_A.c ****     return( volts );
 812              		.loc 1 848 0
 813 001e 00B2     		sxth	r0, r0
 814 0020 FFF7FEFF 		bl	__aeabi_i2f
 815              	.LVL59:
 816 0024 0849     		ldr	r1, .L72+12
 817 0026 FFF7FEFF 		bl	__aeabi_fmul
 818              	.LVL60:
 819 002a 0546     		mov	r5, r0
 820 002c 2046     		mov	r0, r4
 821 002e FFF7FEFF 		bl	__aeabi_i2f
 822              	.LVL61:
 823 0032 0146     		mov	r1, r0
 824 0034 2846     		mov	r0, r5
 825 0036 FFF7FEFF 		bl	__aeabi_fdiv
 826              	.LVL62:
 849:Generated_Source\PSoC5/ADC_A.c **** }
 827              		.loc 1 849 0
 828 003a 38BD     		pop	{r3, r4, r5, pc}
 829              	.LVL63:
 830              	.L73:
 831              		.align	2
 832              	.L72:
 833 003c 00000000 		.word	ADC_A_countsPerVolt
 834 0040 00000000 		.word	ADC_A_countsPer10Volt
 835 0044 00000000 		.word	ADC_A_offset
 836 0048 00002041 		.word	1092616192
 837              		.cfi_endproc
 838              	.LFE17:
 839              		.size	ADC_A_CountsTo_Volts, .-ADC_A_CountsTo_Volts
 840              		.comm	ADC_A_shift,2,2
 841              		.comm	ADC_A_countsPer10Volt,4,4
 842              		.comm	ADC_A_countsPerVolt,2,2
 843              		.comm	ADC_A_offset,2,2
 844              		.global	ADC_A_initVar
 845              		.section	.rodata
 846              		.align	1
 847              		.set	.LANCHOR0,. + 0
 848              		.type	CSWTCH.24, %object
 849              		.size	CSWTCH.24, 10
 850              	CSWTCH.24:
 851 0000 0001     		.short	256
 852 0002 0000     		.short	0
 853 0004 0004     		.short	1024
 854 0006 0000     		.short	0
 855 0008 0010     		.short	4096
 856              		.bss
 857              		.set	.LANCHOR1,. + 0
 858              		.type	ADC_A_initVar, %object
 859              		.size	ADC_A_initVar, 1
 860              	ADC_A_initVar:
 861 0000 00       		.space	1
ARM GAS  C:\Users\Krist\AppData\Local\Temp\ccsuUa8r.s 			page 32


 862              		.text
 863              	.Letext0:
 864              		.file 2 "Generated_Source\\PSoC5\\cytypes.h"
 865              		.file 3 "Generated_Source\\PSoC5\\CyLib.h"