ARM GAS  C:\Users\Krist\AppData\Local\Temp\ccGR1XIy.s 			page 1


   1              		.syntax unified
   2              		.cpu cortex-m3
   3              		.fpu softvfp
   4              		.eabi_attribute 20, 1
   5              		.eabi_attribute 21, 1
   6              		.eabi_attribute 23, 3
   7              		.eabi_attribute 24, 1
   8              		.eabi_attribute 25, 1
   9              		.eabi_attribute 26, 1
  10              		.eabi_attribute 30, 4
  11              		.eabi_attribute 34, 1
  12              		.eabi_attribute 18, 4
  13              		.thumb
  14              		.syntax unified
  15              		.file	"Counter_PM.c"
  16              		.text
  17              	.Ltext0:
  18              		.cfi_sections	.debug_frame
  19              		.section	.text.Counter_SaveConfig,"ax",%progbits
  20              		.align	1
  21              		.global	Counter_SaveConfig
  22              		.thumb
  23              		.thumb_func
  24              		.type	Counter_SaveConfig, %function
  25              	Counter_SaveConfig:
  26              	.LFB5:
  27              		.cfi_startproc
  28              		@ args = 0, pretend = 0, frame = 0
  29              		@ frame_needed = 0, uses_anonymous_args = 0
  30              		@ link register save eliminated.
  31 0000 7047     		bx	lr
  32              		.cfi_endproc
  33              	.LFE5:
  34              		.size	Counter_SaveConfig, .-Counter_SaveConfig
  35              		.section	.text.Counter_RestoreConfig,"ax",%progbits
  36              		.align	1
  37              		.global	Counter_RestoreConfig
  38              		.thumb
  39              		.thumb_func
  40              		.type	Counter_RestoreConfig, %function
  41              	Counter_RestoreConfig:
  42              	.LFB1:
  43              		.file 1 "Generated_Source\\PSoC5\\Counter_PM.c"
   1:Generated_Source\PSoC5/Counter_PM.c **** /*******************************************************************************
   2:Generated_Source\PSoC5/Counter_PM.c **** * File Name: Counter_PM.c  
   3:Generated_Source\PSoC5/Counter_PM.c **** * Version 3.0
   4:Generated_Source\PSoC5/Counter_PM.c **** *
   5:Generated_Source\PSoC5/Counter_PM.c **** *  Description:
   6:Generated_Source\PSoC5/Counter_PM.c **** *    This file provides the power management source code to API for the
   7:Generated_Source\PSoC5/Counter_PM.c **** *    Counter.  
   8:Generated_Source\PSoC5/Counter_PM.c **** *
   9:Generated_Source\PSoC5/Counter_PM.c **** *   Note:
  10:Generated_Source\PSoC5/Counter_PM.c **** *     None
  11:Generated_Source\PSoC5/Counter_PM.c **** *
  12:Generated_Source\PSoC5/Counter_PM.c **** ********************************************************************************
  13:Generated_Source\PSoC5/Counter_PM.c **** * Copyright 2008-2012, Cypress Semiconductor Corporation.  All rights reserved.
  14:Generated_Source\PSoC5/Counter_PM.c **** * You may use this file only in accordance with the license, terms, conditions, 
ARM GAS  C:\Users\Krist\AppData\Local\Temp\ccGR1XIy.s 			page 2


  15:Generated_Source\PSoC5/Counter_PM.c **** * disclaimers, and limitations in the end user license agreement accompanying 
  16:Generated_Source\PSoC5/Counter_PM.c **** * the software package with which this file was provided.
  17:Generated_Source\PSoC5/Counter_PM.c **** *******************************************************************************/
  18:Generated_Source\PSoC5/Counter_PM.c **** 
  19:Generated_Source\PSoC5/Counter_PM.c **** #include "Counter.h"
  20:Generated_Source\PSoC5/Counter_PM.c **** 
  21:Generated_Source\PSoC5/Counter_PM.c **** static Counter_backupStruct Counter_backup;
  22:Generated_Source\PSoC5/Counter_PM.c **** 
  23:Generated_Source\PSoC5/Counter_PM.c **** 
  24:Generated_Source\PSoC5/Counter_PM.c **** /*******************************************************************************
  25:Generated_Source\PSoC5/Counter_PM.c **** * Function Name: Counter_SaveConfig
  26:Generated_Source\PSoC5/Counter_PM.c **** ********************************************************************************
  27:Generated_Source\PSoC5/Counter_PM.c **** * Summary:
  28:Generated_Source\PSoC5/Counter_PM.c **** *     Save the current user configuration
  29:Generated_Source\PSoC5/Counter_PM.c **** *
  30:Generated_Source\PSoC5/Counter_PM.c **** * Parameters:  
  31:Generated_Source\PSoC5/Counter_PM.c **** *  void
  32:Generated_Source\PSoC5/Counter_PM.c **** *
  33:Generated_Source\PSoC5/Counter_PM.c **** * Return: 
  34:Generated_Source\PSoC5/Counter_PM.c **** *  void
  35:Generated_Source\PSoC5/Counter_PM.c **** *
  36:Generated_Source\PSoC5/Counter_PM.c **** * Global variables:
  37:Generated_Source\PSoC5/Counter_PM.c **** *  Counter_backup:  Variables of this global structure are modified to 
  38:Generated_Source\PSoC5/Counter_PM.c **** *  store the values of non retention configuration registers when Sleep() API is 
  39:Generated_Source\PSoC5/Counter_PM.c **** *  called.
  40:Generated_Source\PSoC5/Counter_PM.c **** *
  41:Generated_Source\PSoC5/Counter_PM.c **** *******************************************************************************/
  42:Generated_Source\PSoC5/Counter_PM.c **** void Counter_SaveConfig(void) 
  43:Generated_Source\PSoC5/Counter_PM.c **** {
  44:Generated_Source\PSoC5/Counter_PM.c ****     #if (!Counter_UsingFixedFunction)
  45:Generated_Source\PSoC5/Counter_PM.c **** 
  46:Generated_Source\PSoC5/Counter_PM.c ****         Counter_backup.CounterUdb = Counter_ReadCounter();
  47:Generated_Source\PSoC5/Counter_PM.c **** 
  48:Generated_Source\PSoC5/Counter_PM.c ****         #if(!Counter_ControlRegRemoved)
  49:Generated_Source\PSoC5/Counter_PM.c ****             Counter_backup.CounterControlRegister = Counter_ReadControlRegister();
  50:Generated_Source\PSoC5/Counter_PM.c ****         #endif /* (!Counter_ControlRegRemoved) */
  51:Generated_Source\PSoC5/Counter_PM.c **** 
  52:Generated_Source\PSoC5/Counter_PM.c ****     #endif /* (!Counter_UsingFixedFunction) */
  53:Generated_Source\PSoC5/Counter_PM.c **** }
  54:Generated_Source\PSoC5/Counter_PM.c **** 
  55:Generated_Source\PSoC5/Counter_PM.c **** 
  56:Generated_Source\PSoC5/Counter_PM.c **** /*******************************************************************************
  57:Generated_Source\PSoC5/Counter_PM.c **** * Function Name: Counter_RestoreConfig
  58:Generated_Source\PSoC5/Counter_PM.c **** ********************************************************************************
  59:Generated_Source\PSoC5/Counter_PM.c **** *
  60:Generated_Source\PSoC5/Counter_PM.c **** * Summary:
  61:Generated_Source\PSoC5/Counter_PM.c **** *  Restores the current user configuration.
  62:Generated_Source\PSoC5/Counter_PM.c **** *
  63:Generated_Source\PSoC5/Counter_PM.c **** * Parameters:  
  64:Generated_Source\PSoC5/Counter_PM.c **** *  void
  65:Generated_Source\PSoC5/Counter_PM.c **** *
  66:Generated_Source\PSoC5/Counter_PM.c **** * Return: 
  67:Generated_Source\PSoC5/Counter_PM.c **** *  void
  68:Generated_Source\PSoC5/Counter_PM.c **** *
  69:Generated_Source\PSoC5/Counter_PM.c **** * Global variables:
  70:Generated_Source\PSoC5/Counter_PM.c **** *  Counter_backup:  Variables of this global structure are used to 
  71:Generated_Source\PSoC5/Counter_PM.c **** *  restore the values of non retention registers on wakeup from sleep mode.
ARM GAS  C:\Users\Krist\AppData\Local\Temp\ccGR1XIy.s 			page 3


  72:Generated_Source\PSoC5/Counter_PM.c **** *
  73:Generated_Source\PSoC5/Counter_PM.c **** *******************************************************************************/
  74:Generated_Source\PSoC5/Counter_PM.c **** void Counter_RestoreConfig(void) 
  75:Generated_Source\PSoC5/Counter_PM.c **** {      
  44              		.loc 1 75 0
  45              		.cfi_startproc
  46              		@ args = 0, pretend = 0, frame = 0
  47              		@ frame_needed = 0, uses_anonymous_args = 0
  48              		@ link register save eliminated.
  49 0000 7047     		bx	lr
  50              		.cfi_endproc
  51              	.LFE1:
  52              		.size	Counter_RestoreConfig, .-Counter_RestoreConfig
  53              		.section	.text.Counter_Sleep,"ax",%progbits
  54              		.align	1
  55              		.global	Counter_Sleep
  56              		.thumb
  57              		.thumb_func
  58              		.type	Counter_Sleep, %function
  59              	Counter_Sleep:
  60              	.LFB2:
  76:Generated_Source\PSoC5/Counter_PM.c ****     #if (!Counter_UsingFixedFunction)
  77:Generated_Source\PSoC5/Counter_PM.c **** 
  78:Generated_Source\PSoC5/Counter_PM.c ****        Counter_WriteCounter(Counter_backup.CounterUdb);
  79:Generated_Source\PSoC5/Counter_PM.c **** 
  80:Generated_Source\PSoC5/Counter_PM.c ****         #if(!Counter_ControlRegRemoved)
  81:Generated_Source\PSoC5/Counter_PM.c ****             Counter_WriteControlRegister(Counter_backup.CounterControlRegister);
  82:Generated_Source\PSoC5/Counter_PM.c ****         #endif /* (!Counter_ControlRegRemoved) */
  83:Generated_Source\PSoC5/Counter_PM.c **** 
  84:Generated_Source\PSoC5/Counter_PM.c ****     #endif /* (!Counter_UsingFixedFunction) */
  85:Generated_Source\PSoC5/Counter_PM.c **** }
  86:Generated_Source\PSoC5/Counter_PM.c **** 
  87:Generated_Source\PSoC5/Counter_PM.c **** 
  88:Generated_Source\PSoC5/Counter_PM.c **** /*******************************************************************************
  89:Generated_Source\PSoC5/Counter_PM.c **** * Function Name: Counter_Sleep
  90:Generated_Source\PSoC5/Counter_PM.c **** ********************************************************************************
  91:Generated_Source\PSoC5/Counter_PM.c **** * Summary:
  92:Generated_Source\PSoC5/Counter_PM.c **** *     Stop and Save the user configuration
  93:Generated_Source\PSoC5/Counter_PM.c **** *
  94:Generated_Source\PSoC5/Counter_PM.c **** * Parameters:  
  95:Generated_Source\PSoC5/Counter_PM.c **** *  void
  96:Generated_Source\PSoC5/Counter_PM.c **** *
  97:Generated_Source\PSoC5/Counter_PM.c **** * Return: 
  98:Generated_Source\PSoC5/Counter_PM.c **** *  void
  99:Generated_Source\PSoC5/Counter_PM.c **** *
 100:Generated_Source\PSoC5/Counter_PM.c **** * Global variables:
 101:Generated_Source\PSoC5/Counter_PM.c **** *  Counter_backup.enableState:  Is modified depending on the enable 
 102:Generated_Source\PSoC5/Counter_PM.c **** *  state of the block before entering sleep mode.
 103:Generated_Source\PSoC5/Counter_PM.c **** *
 104:Generated_Source\PSoC5/Counter_PM.c **** *******************************************************************************/
 105:Generated_Source\PSoC5/Counter_PM.c **** void Counter_Sleep(void) 
 106:Generated_Source\PSoC5/Counter_PM.c **** {
  61              		.loc 1 106 0
  62              		.cfi_startproc
  63              		@ args = 0, pretend = 0, frame = 0
  64              		@ frame_needed = 0, uses_anonymous_args = 0
  65              		@ link register save eliminated.
ARM GAS  C:\Users\Krist\AppData\Local\Temp\ccGR1XIy.s 			page 4


 107:Generated_Source\PSoC5/Counter_PM.c ****     #if(!Counter_ControlRegRemoved)
 108:Generated_Source\PSoC5/Counter_PM.c ****         /* Save Counter's enable state */
 109:Generated_Source\PSoC5/Counter_PM.c ****         if(Counter_CTRL_ENABLE == (Counter_CONTROL & Counter_CTRL_ENABLE))
  66              		.loc 1 109 0
  67 0000 044B     		ldr	r3, .L6
  68 0002 054A     		ldr	r2, .L6+4
  69 0004 1B78     		ldrb	r3, [r3]	@ zero_extendqisi2
  70 0006 13F00103 		ands	r3, r3, #1
 110:Generated_Source\PSoC5/Counter_PM.c ****         {
 111:Generated_Source\PSoC5/Counter_PM.c ****             /* Counter is enabled */
 112:Generated_Source\PSoC5/Counter_PM.c ****             Counter_backup.CounterEnableState = 1u;
  71              		.loc 1 112 0
  72 000a 18BF     		it	ne
  73 000c 0123     		movne	r3, #1
 113:Generated_Source\PSoC5/Counter_PM.c ****         }
 114:Generated_Source\PSoC5/Counter_PM.c ****         else
 115:Generated_Source\PSoC5/Counter_PM.c ****         {
 116:Generated_Source\PSoC5/Counter_PM.c ****             /* Counter is disabled */
 117:Generated_Source\PSoC5/Counter_PM.c ****             Counter_backup.CounterEnableState = 0u;
  74              		.loc 1 117 0
  75 000e 1370     		strb	r3, [r2]
 118:Generated_Source\PSoC5/Counter_PM.c ****         }
 119:Generated_Source\PSoC5/Counter_PM.c ****     #else
 120:Generated_Source\PSoC5/Counter_PM.c ****         Counter_backup.CounterEnableState = 1u;
 121:Generated_Source\PSoC5/Counter_PM.c ****         if(Counter_backup.CounterEnableState != 0u)
 122:Generated_Source\PSoC5/Counter_PM.c ****         {
 123:Generated_Source\PSoC5/Counter_PM.c ****             Counter_backup.CounterEnableState = 0u;
 124:Generated_Source\PSoC5/Counter_PM.c ****         }
 125:Generated_Source\PSoC5/Counter_PM.c ****     #endif /* (!Counter_ControlRegRemoved) */
 126:Generated_Source\PSoC5/Counter_PM.c ****     
 127:Generated_Source\PSoC5/Counter_PM.c ****     Counter_Stop();
  76              		.loc 1 127 0
  77 0010 FFF7FEBF 		b	Counter_Stop
  78              	.LVL0:
  79              	.L7:
  80              		.align	2
  81              	.L6:
  82 0014 004F0040 		.word	1073762048
  83 0018 00000000 		.word	.LANCHOR0
  84              		.cfi_endproc
  85              	.LFE2:
  86              		.size	Counter_Sleep, .-Counter_Sleep
  87              		.section	.text.Counter_Wakeup,"ax",%progbits
  88              		.align	1
  89              		.global	Counter_Wakeup
  90              		.thumb
  91              		.thumb_func
  92              		.type	Counter_Wakeup, %function
  93              	Counter_Wakeup:
  94              	.LFB3:
 128:Generated_Source\PSoC5/Counter_PM.c ****     Counter_SaveConfig();
 129:Generated_Source\PSoC5/Counter_PM.c **** }
 130:Generated_Source\PSoC5/Counter_PM.c **** 
 131:Generated_Source\PSoC5/Counter_PM.c **** 
 132:Generated_Source\PSoC5/Counter_PM.c **** /*******************************************************************************
 133:Generated_Source\PSoC5/Counter_PM.c **** * Function Name: Counter_Wakeup
 134:Generated_Source\PSoC5/Counter_PM.c **** ********************************************************************************
ARM GAS  C:\Users\Krist\AppData\Local\Temp\ccGR1XIy.s 			page 5


 135:Generated_Source\PSoC5/Counter_PM.c **** *
 136:Generated_Source\PSoC5/Counter_PM.c **** * Summary:
 137:Generated_Source\PSoC5/Counter_PM.c **** *  Restores and enables the user configuration
 138:Generated_Source\PSoC5/Counter_PM.c **** *  
 139:Generated_Source\PSoC5/Counter_PM.c **** * Parameters:  
 140:Generated_Source\PSoC5/Counter_PM.c **** *  void
 141:Generated_Source\PSoC5/Counter_PM.c **** *
 142:Generated_Source\PSoC5/Counter_PM.c **** * Return: 
 143:Generated_Source\PSoC5/Counter_PM.c **** *  void
 144:Generated_Source\PSoC5/Counter_PM.c **** *
 145:Generated_Source\PSoC5/Counter_PM.c **** * Global variables:
 146:Generated_Source\PSoC5/Counter_PM.c **** *  Counter_backup.enableState:  Is used to restore the enable state of 
 147:Generated_Source\PSoC5/Counter_PM.c **** *  block on wakeup from sleep mode.
 148:Generated_Source\PSoC5/Counter_PM.c **** *
 149:Generated_Source\PSoC5/Counter_PM.c **** *******************************************************************************/
 150:Generated_Source\PSoC5/Counter_PM.c **** void Counter_Wakeup(void) 
 151:Generated_Source\PSoC5/Counter_PM.c **** {
  95              		.loc 1 151 0
  96              		.cfi_startproc
  97              		@ args = 0, pretend = 0, frame = 0
  98              		@ frame_needed = 0, uses_anonymous_args = 0
  99              		@ link register save eliminated.
 152:Generated_Source\PSoC5/Counter_PM.c ****     Counter_RestoreConfig();
 153:Generated_Source\PSoC5/Counter_PM.c ****     #if(!Counter_ControlRegRemoved)
 154:Generated_Source\PSoC5/Counter_PM.c ****         if(Counter_backup.CounterEnableState == 1u)
 100              		.loc 1 154 0
 101 0000 034B     		ldr	r3, .L11
 102 0002 1B78     		ldrb	r3, [r3]	@ zero_extendqisi2
 103 0004 012B     		cmp	r3, #1
 104 0006 01D1     		bne	.L8
 155:Generated_Source\PSoC5/Counter_PM.c ****         {
 156:Generated_Source\PSoC5/Counter_PM.c ****             /* Enable Counter's operation */
 157:Generated_Source\PSoC5/Counter_PM.c ****             Counter_Enable();
 105              		.loc 1 157 0
 106 0008 FFF7FEBF 		b	Counter_Enable
 107              	.LVL1:
 108              	.L8:
 109 000c 7047     		bx	lr
 110              	.L12:
 111 000e 00BF     		.align	2
 112              	.L11:
 113 0010 00000000 		.word	.LANCHOR0
 114              		.cfi_endproc
 115              	.LFE3:
 116              		.size	Counter_Wakeup, .-Counter_Wakeup
 117              		.bss
 118              		.align	1
 119              		.set	.LANCHOR0,. + 0
 120              		.type	Counter_backup, %object
 121              		.size	Counter_backup, 6
 122              	Counter_backup:
 123 0000 00000000 		.space	6
 123      0000
 124              		.text
 125              	.Letext0:
 126              		.file 2 "Generated_Source\\PSoC5\\cytypes.h"
 127              		.file 3 "Generated_Source\\PSoC5\\Counter.h"
ARM GAS  C:\Users\Krist\AppData\Local\Temp\ccGR1XIy.s 			page 6

