ARM GAS  C:\Users\Krist\AppData\Local\Temp\ccqyN6G1.s 			page 1


   1              		.syntax unified
   2              		.cpu cortex-m3
   3              		.fpu softvfp
   4              		.eabi_attribute 20, 1
   5              		.eabi_attribute 21, 1
   6              		.eabi_attribute 23, 3
   7              		.eabi_attribute 24, 1
   8              		.eabi_attribute 25, 1
   9              		.eabi_attribute 26, 1
  10              		.eabi_attribute 30, 4
  11              		.eabi_attribute 34, 1
  12              		.eabi_attribute 18, 4
  13              		.thumb
  14              		.syntax unified
  15              		.file	"cyfitter_cfg.c"
  16              		.text
  17              	.Ltext0:
  18              		.cfi_sections	.debug_frame
  19              		.section	.text.SetAnalogRoutingPumps,"ax",%progbits
  20              		.align	1
  21              		.global	SetAnalogRoutingPumps
  22              		.thumb
  23              		.thumb_func
  24              		.type	SetAnalogRoutingPumps, %function
  25              	SetAnalogRoutingPumps:
  26              	.LFB7:
  27              		.file 1 "Generated_Source\\PSoC5\\cyfitter_cfg.c"
   1:Generated_Source\PSoC5/cyfitter_cfg.c **** 
   2:Generated_Source\PSoC5/cyfitter_cfg.c **** /*******************************************************************************
   3:Generated_Source\PSoC5/cyfitter_cfg.c **** * File Name: cyfitter_cfg.c
   4:Generated_Source\PSoC5/cyfitter_cfg.c **** * 
   5:Generated_Source\PSoC5/cyfitter_cfg.c **** * PSoC Creator  4.1 Update 1
   6:Generated_Source\PSoC5/cyfitter_cfg.c **** *
   7:Generated_Source\PSoC5/cyfitter_cfg.c **** * Description:
   8:Generated_Source\PSoC5/cyfitter_cfg.c **** * This file contains device initialization code.
   9:Generated_Source\PSoC5/cyfitter_cfg.c **** * Except for the user defined sections in CyClockStartupError(), this file should not be modified.
  10:Generated_Source\PSoC5/cyfitter_cfg.c **** * This file is automatically generated by PSoC Creator.
  11:Generated_Source\PSoC5/cyfitter_cfg.c **** *
  12:Generated_Source\PSoC5/cyfitter_cfg.c **** ********************************************************************************
  13:Generated_Source\PSoC5/cyfitter_cfg.c **** * Copyright (c) 2007-2017 Cypress Semiconductor.  All rights reserved.
  14:Generated_Source\PSoC5/cyfitter_cfg.c **** * You may use this file only in accordance with the license, terms, conditions, 
  15:Generated_Source\PSoC5/cyfitter_cfg.c **** * disclaimers, and limitations in the end user license agreement accompanying 
  16:Generated_Source\PSoC5/cyfitter_cfg.c **** * the software package with which this file was provided.
  17:Generated_Source\PSoC5/cyfitter_cfg.c **** ********************************************************************************/
  18:Generated_Source\PSoC5/cyfitter_cfg.c **** 
  19:Generated_Source\PSoC5/cyfitter_cfg.c **** #include <string.h>
  20:Generated_Source\PSoC5/cyfitter_cfg.c **** #include "cytypes.h"
  21:Generated_Source\PSoC5/cyfitter_cfg.c **** #include "cydevice_trm.h"
  22:Generated_Source\PSoC5/cyfitter_cfg.c **** #include "cyfitter.h"
  23:Generated_Source\PSoC5/cyfitter_cfg.c **** #include "CyLib.h"
  24:Generated_Source\PSoC5/cyfitter_cfg.c **** #include "cyfitter_cfg.h"
  25:Generated_Source\PSoC5/cyfitter_cfg.c **** #include "cyapicallbacks.h"
  26:Generated_Source\PSoC5/cyfitter_cfg.c **** 
  27:Generated_Source\PSoC5/cyfitter_cfg.c **** #define CY_NEED_CYCLOCKSTARTUPERROR 1
  28:Generated_Source\PSoC5/cyfitter_cfg.c **** 
  29:Generated_Source\PSoC5/cyfitter_cfg.c **** 
  30:Generated_Source\PSoC5/cyfitter_cfg.c **** #if defined(__GNUC__) || defined(__ARMCC_VERSION)
ARM GAS  C:\Users\Krist\AppData\Local\Temp\ccqyN6G1.s 			page 2


  31:Generated_Source\PSoC5/cyfitter_cfg.c ****     #define CYPACKED 
  32:Generated_Source\PSoC5/cyfitter_cfg.c ****     #define CYPACKED_ATTR __attribute__ ((packed))
  33:Generated_Source\PSoC5/cyfitter_cfg.c ****     #define CYALIGNED __attribute__ ((aligned))
  34:Generated_Source\PSoC5/cyfitter_cfg.c ****     #define CY_CFG_UNUSED __attribute__ ((unused))
  35:Generated_Source\PSoC5/cyfitter_cfg.c ****     #ifndef CY_CFG_SECTION
  36:Generated_Source\PSoC5/cyfitter_cfg.c ****         #define CY_CFG_SECTION __attribute__ ((section(".psocinit")))
  37:Generated_Source\PSoC5/cyfitter_cfg.c ****     #endif
  38:Generated_Source\PSoC5/cyfitter_cfg.c ****     
  39:Generated_Source\PSoC5/cyfitter_cfg.c ****     #if defined(__ARMCC_VERSION)
  40:Generated_Source\PSoC5/cyfitter_cfg.c ****         #define CY_CFG_MEMORY_BARRIER() __memory_changed()
  41:Generated_Source\PSoC5/cyfitter_cfg.c ****     #else
  42:Generated_Source\PSoC5/cyfitter_cfg.c ****         #define CY_CFG_MEMORY_BARRIER() __sync_synchronize()
  43:Generated_Source\PSoC5/cyfitter_cfg.c ****     #endif
  44:Generated_Source\PSoC5/cyfitter_cfg.c ****     
  45:Generated_Source\PSoC5/cyfitter_cfg.c **** #elif defined(__ICCARM__)
  46:Generated_Source\PSoC5/cyfitter_cfg.c ****     #include <intrinsics.h>
  47:Generated_Source\PSoC5/cyfitter_cfg.c **** 
  48:Generated_Source\PSoC5/cyfitter_cfg.c ****     #define CYPACKED __packed
  49:Generated_Source\PSoC5/cyfitter_cfg.c ****     #define CYPACKED_ATTR 
  50:Generated_Source\PSoC5/cyfitter_cfg.c ****     #define CYALIGNED _Pragma("data_alignment=4")
  51:Generated_Source\PSoC5/cyfitter_cfg.c ****     #define CY_CFG_UNUSED _Pragma("diag_suppress=Pe177")
  52:Generated_Source\PSoC5/cyfitter_cfg.c ****     #define CY_CFG_SECTION _Pragma("location=\".psocinit\"")
  53:Generated_Source\PSoC5/cyfitter_cfg.c ****     
  54:Generated_Source\PSoC5/cyfitter_cfg.c ****     #define CY_CFG_MEMORY_BARRIER() __DMB()
  55:Generated_Source\PSoC5/cyfitter_cfg.c ****     
  56:Generated_Source\PSoC5/cyfitter_cfg.c **** #else
  57:Generated_Source\PSoC5/cyfitter_cfg.c ****     #error Unsupported toolchain
  58:Generated_Source\PSoC5/cyfitter_cfg.c **** #endif
  59:Generated_Source\PSoC5/cyfitter_cfg.c **** 
  60:Generated_Source\PSoC5/cyfitter_cfg.c **** #ifndef CYCODE
  61:Generated_Source\PSoC5/cyfitter_cfg.c ****     #define CYCODE
  62:Generated_Source\PSoC5/cyfitter_cfg.c **** #endif
  63:Generated_Source\PSoC5/cyfitter_cfg.c **** #ifndef CYDATA
  64:Generated_Source\PSoC5/cyfitter_cfg.c ****     #define CYDATA
  65:Generated_Source\PSoC5/cyfitter_cfg.c **** #endif
  66:Generated_Source\PSoC5/cyfitter_cfg.c **** #ifndef CYFAR
  67:Generated_Source\PSoC5/cyfitter_cfg.c ****     #define CYFAR
  68:Generated_Source\PSoC5/cyfitter_cfg.c **** #endif
  69:Generated_Source\PSoC5/cyfitter_cfg.c **** #ifndef CYXDATA
  70:Generated_Source\PSoC5/cyfitter_cfg.c ****     #define CYXDATA
  71:Generated_Source\PSoC5/cyfitter_cfg.c **** #endif
  72:Generated_Source\PSoC5/cyfitter_cfg.c **** 
  73:Generated_Source\PSoC5/cyfitter_cfg.c **** 
  74:Generated_Source\PSoC5/cyfitter_cfg.c **** CY_CFG_UNUSED
  75:Generated_Source\PSoC5/cyfitter_cfg.c **** static void CYMEMZERO(void *s, size_t n);
  76:Generated_Source\PSoC5/cyfitter_cfg.c **** CY_CFG_UNUSED
  77:Generated_Source\PSoC5/cyfitter_cfg.c **** static void CYMEMZERO(void *s, size_t n)
  78:Generated_Source\PSoC5/cyfitter_cfg.c **** {
  79:Generated_Source\PSoC5/cyfitter_cfg.c **** 	(void)memset(s, 0, n);
  80:Generated_Source\PSoC5/cyfitter_cfg.c **** }
  81:Generated_Source\PSoC5/cyfitter_cfg.c **** CY_CFG_UNUSED
  82:Generated_Source\PSoC5/cyfitter_cfg.c **** static void CYCONFIGCPY(void *dest, const void *src, size_t n);
  83:Generated_Source\PSoC5/cyfitter_cfg.c **** CY_CFG_UNUSED
  84:Generated_Source\PSoC5/cyfitter_cfg.c **** static void CYCONFIGCPY(void *dest, const void *src, size_t n)
  85:Generated_Source\PSoC5/cyfitter_cfg.c **** {
  86:Generated_Source\PSoC5/cyfitter_cfg.c **** 	(void)memcpy(dest, src, n);
  87:Generated_Source\PSoC5/cyfitter_cfg.c **** }
ARM GAS  C:\Users\Krist\AppData\Local\Temp\ccqyN6G1.s 			page 3


  88:Generated_Source\PSoC5/cyfitter_cfg.c **** CY_CFG_UNUSED
  89:Generated_Source\PSoC5/cyfitter_cfg.c **** static void CYCONFIGCPYCODE(void *dest, const void *src, size_t n);
  90:Generated_Source\PSoC5/cyfitter_cfg.c **** CY_CFG_UNUSED
  91:Generated_Source\PSoC5/cyfitter_cfg.c **** static void CYCONFIGCPYCODE(void *dest, const void *src, size_t n)
  92:Generated_Source\PSoC5/cyfitter_cfg.c **** {
  93:Generated_Source\PSoC5/cyfitter_cfg.c **** 	(void)memcpy(dest, src, n);
  94:Generated_Source\PSoC5/cyfitter_cfg.c **** }
  95:Generated_Source\PSoC5/cyfitter_cfg.c **** 
  96:Generated_Source\PSoC5/cyfitter_cfg.c **** 
  97:Generated_Source\PSoC5/cyfitter_cfg.c **** 
  98:Generated_Source\PSoC5/cyfitter_cfg.c **** 
  99:Generated_Source\PSoC5/cyfitter_cfg.c **** /* Clock startup error codes                                                   */
 100:Generated_Source\PSoC5/cyfitter_cfg.c **** #define CYCLOCKSTART_NO_ERROR    0u
 101:Generated_Source\PSoC5/cyfitter_cfg.c **** #define CYCLOCKSTART_XTAL_ERROR  1u
 102:Generated_Source\PSoC5/cyfitter_cfg.c **** #define CYCLOCKSTART_32KHZ_ERROR 2u
 103:Generated_Source\PSoC5/cyfitter_cfg.c **** #define CYCLOCKSTART_PLL_ERROR   3u
 104:Generated_Source\PSoC5/cyfitter_cfg.c **** #define CYCLOCKSTART_FLL_ERROR   4u
 105:Generated_Source\PSoC5/cyfitter_cfg.c **** 
 106:Generated_Source\PSoC5/cyfitter_cfg.c **** 
 107:Generated_Source\PSoC5/cyfitter_cfg.c **** #ifdef CY_NEED_CYCLOCKSTARTUPERROR
 108:Generated_Source\PSoC5/cyfitter_cfg.c **** /*******************************************************************************
 109:Generated_Source\PSoC5/cyfitter_cfg.c **** * Function Name: CyClockStartupError
 110:Generated_Source\PSoC5/cyfitter_cfg.c **** ********************************************************************************
 111:Generated_Source\PSoC5/cyfitter_cfg.c **** * Summary:
 112:Generated_Source\PSoC5/cyfitter_cfg.c **** *  If an error is encountered during clock configuration (crystal startup error,
 113:Generated_Source\PSoC5/cyfitter_cfg.c **** *  PLL lock error, etc.), the system will end up here.  Unless reimplemented by
 114:Generated_Source\PSoC5/cyfitter_cfg.c **** *  the customer, this function will stop in an infinite loop.
 115:Generated_Source\PSoC5/cyfitter_cfg.c **** *
 116:Generated_Source\PSoC5/cyfitter_cfg.c **** * Parameters:
 117:Generated_Source\PSoC5/cyfitter_cfg.c **** *   void
 118:Generated_Source\PSoC5/cyfitter_cfg.c **** *
 119:Generated_Source\PSoC5/cyfitter_cfg.c **** * Return:
 120:Generated_Source\PSoC5/cyfitter_cfg.c **** *   void
 121:Generated_Source\PSoC5/cyfitter_cfg.c **** *
 122:Generated_Source\PSoC5/cyfitter_cfg.c **** *******************************************************************************/
 123:Generated_Source\PSoC5/cyfitter_cfg.c **** CY_CFG_UNUSED
 124:Generated_Source\PSoC5/cyfitter_cfg.c **** static void CyClockStartupError(uint8 errorCode);
 125:Generated_Source\PSoC5/cyfitter_cfg.c **** CY_CFG_UNUSED
 126:Generated_Source\PSoC5/cyfitter_cfg.c **** static void CyClockStartupError(uint8 errorCode)
 127:Generated_Source\PSoC5/cyfitter_cfg.c **** {
 128:Generated_Source\PSoC5/cyfitter_cfg.c ****     /* To remove the compiler warning if errorCode not used. */
 129:Generated_Source\PSoC5/cyfitter_cfg.c **** #if defined(CY_PSOC3) && (CY_PSOC3)
 130:Generated_Source\PSoC5/cyfitter_cfg.c ****     errorCode = errorCode;
 131:Generated_Source\PSoC5/cyfitter_cfg.c **** #else
 132:Generated_Source\PSoC5/cyfitter_cfg.c ****     (void)errorCode;
 133:Generated_Source\PSoC5/cyfitter_cfg.c **** #endif /* CY_PSOC3 */
 134:Generated_Source\PSoC5/cyfitter_cfg.c **** 
 135:Generated_Source\PSoC5/cyfitter_cfg.c ****     /* If we have a clock startup error (bad MHz crystal, PLL lock, etc.),  */
 136:Generated_Source\PSoC5/cyfitter_cfg.c ****     /* we will end up here to allow the customer to implement something to  */
 137:Generated_Source\PSoC5/cyfitter_cfg.c ****     /* deal with the clock condition.                                       */
 138:Generated_Source\PSoC5/cyfitter_cfg.c **** 
 139:Generated_Source\PSoC5/cyfitter_cfg.c **** #ifdef CY_CFG_CLOCK_STARTUP_ERROR_CALLBACK
 140:Generated_Source\PSoC5/cyfitter_cfg.c ****     CY_CFG_Clock_Startup_ErrorCallback();
 141:Generated_Source\PSoC5/cyfitter_cfg.c **** #else
 142:Generated_Source\PSoC5/cyfitter_cfg.c ****     /*  If not using CY_CFG_CLOCK_STARTUP_ERROR_CALLBACK, place your clock startup code here. */
 143:Generated_Source\PSoC5/cyfitter_cfg.c ****     /* `#START CyClockStartupError` */
 144:Generated_Source\PSoC5/cyfitter_cfg.c **** 
ARM GAS  C:\Users\Krist\AppData\Local\Temp\ccqyN6G1.s 			page 4


 145:Generated_Source\PSoC5/cyfitter_cfg.c **** 
 146:Generated_Source\PSoC5/cyfitter_cfg.c **** 
 147:Generated_Source\PSoC5/cyfitter_cfg.c ****     /* `#END` */
 148:Generated_Source\PSoC5/cyfitter_cfg.c **** 
 149:Generated_Source\PSoC5/cyfitter_cfg.c ****     while(1) {}
 150:Generated_Source\PSoC5/cyfitter_cfg.c **** #endif /* CY_CFG_CLOCK_STARTUP_ERROR_CALLBACK */
 151:Generated_Source\PSoC5/cyfitter_cfg.c **** }
 152:Generated_Source\PSoC5/cyfitter_cfg.c **** #endif
 153:Generated_Source\PSoC5/cyfitter_cfg.c **** 
 154:Generated_Source\PSoC5/cyfitter_cfg.c **** #define CY_CFG_BASE_ADDR_COUNT 28u
 155:Generated_Source\PSoC5/cyfitter_cfg.c **** CYPACKED typedef struct
 156:Generated_Source\PSoC5/cyfitter_cfg.c **** {
 157:Generated_Source\PSoC5/cyfitter_cfg.c **** 	uint8 offset;
 158:Generated_Source\PSoC5/cyfitter_cfg.c **** 	uint8 value;
 159:Generated_Source\PSoC5/cyfitter_cfg.c **** } CYPACKED_ATTR cy_cfg_addrvalue_t;
 160:Generated_Source\PSoC5/cyfitter_cfg.c **** 
 161:Generated_Source\PSoC5/cyfitter_cfg.c **** #define cy_cfg_addr_table ((const uint32 CYFAR *)0x48000000u)
 162:Generated_Source\PSoC5/cyfitter_cfg.c **** #define cy_cfg_data_table ((const cy_cfg_addrvalue_t CYFAR *)0x48000070u)
 163:Generated_Source\PSoC5/cyfitter_cfg.c **** 
 164:Generated_Source\PSoC5/cyfitter_cfg.c **** /* UDB_0_1_1_CONFIG Address: CYDEV_UCFG_B1_P4_U0_BASE Size (bytes): 128 */
 165:Generated_Source\PSoC5/cyfitter_cfg.c **** #define BS_UDB_0_1_1_CONFIG_VAL ((const uint8 CYFAR *)0x4800037Cu)
 166:Generated_Source\PSoC5/cyfitter_cfg.c **** 
 167:Generated_Source\PSoC5/cyfitter_cfg.c **** /* IOPINS0_7 Address: CYREG_PRT12_DR Size (bytes): 10 */
 168:Generated_Source\PSoC5/cyfitter_cfg.c **** #define BS_IOPINS0_7_VAL ((const uint8 CYFAR *)0x480003FCu)
 169:Generated_Source\PSoC5/cyfitter_cfg.c **** 
 170:Generated_Source\PSoC5/cyfitter_cfg.c **** /* IOPINS0_1 Address: CYREG_PRT1_DM0 Size (bytes): 8 */
 171:Generated_Source\PSoC5/cyfitter_cfg.c **** #define BS_IOPINS0_1_VAL ((const uint8 CYFAR *)0x48000408u)
 172:Generated_Source\PSoC5/cyfitter_cfg.c **** 
 173:Generated_Source\PSoC5/cyfitter_cfg.c **** /* IOPINS0_2 Address: CYREG_PRT2_DM0 Size (bytes): 8 */
 174:Generated_Source\PSoC5/cyfitter_cfg.c **** #define BS_IOPINS0_2_VAL ((const uint8 CYFAR *)0x48000410u)
 175:Generated_Source\PSoC5/cyfitter_cfg.c **** 
 176:Generated_Source\PSoC5/cyfitter_cfg.c **** /* CYDEV_CLKDIST_ACFG0_CFG0 Address: CYREG_CLKDIST_ACFG0_CFG0 Size (bytes): 8 */
 177:Generated_Source\PSoC5/cyfitter_cfg.c **** #define BS_CYDEV_CLKDIST_ACFG0_CFG0_VAL ((const uint8 CYFAR *)0x48000418u)
 178:Generated_Source\PSoC5/cyfitter_cfg.c **** 
 179:Generated_Source\PSoC5/cyfitter_cfg.c **** 
 180:Generated_Source\PSoC5/cyfitter_cfg.c **** /*******************************************************************************
 181:Generated_Source\PSoC5/cyfitter_cfg.c **** * Function Name: cfg_write_bytes32
 182:Generated_Source\PSoC5/cyfitter_cfg.c **** ********************************************************************************
 183:Generated_Source\PSoC5/cyfitter_cfg.c **** * Summary:
 184:Generated_Source\PSoC5/cyfitter_cfg.c **** *  This function is used for setting up the chip configuration areas that
 185:Generated_Source\PSoC5/cyfitter_cfg.c **** *  contain relatively sparse data.
 186:Generated_Source\PSoC5/cyfitter_cfg.c **** *
 187:Generated_Source\PSoC5/cyfitter_cfg.c **** * Parameters:
 188:Generated_Source\PSoC5/cyfitter_cfg.c **** *   void
 189:Generated_Source\PSoC5/cyfitter_cfg.c **** *
 190:Generated_Source\PSoC5/cyfitter_cfg.c **** * Return:
 191:Generated_Source\PSoC5/cyfitter_cfg.c **** *   void
 192:Generated_Source\PSoC5/cyfitter_cfg.c **** *
 193:Generated_Source\PSoC5/cyfitter_cfg.c **** *******************************************************************************/
 194:Generated_Source\PSoC5/cyfitter_cfg.c **** static void cfg_write_bytes32(const uint32 addr_table[], const cy_cfg_addrvalue_t data_table[]);
 195:Generated_Source\PSoC5/cyfitter_cfg.c **** static void cfg_write_bytes32(const uint32 addr_table[], const cy_cfg_addrvalue_t data_table[])
 196:Generated_Source\PSoC5/cyfitter_cfg.c **** {
 197:Generated_Source\PSoC5/cyfitter_cfg.c **** 	/* For 32-bit little-endian architectures */
 198:Generated_Source\PSoC5/cyfitter_cfg.c **** 	uint32 i, j = 0u;
 199:Generated_Source\PSoC5/cyfitter_cfg.c **** 	for (i = 0u; i < CY_CFG_BASE_ADDR_COUNT; i++)
 200:Generated_Source\PSoC5/cyfitter_cfg.c **** 	{
 201:Generated_Source\PSoC5/cyfitter_cfg.c **** 		uint32 baseAddr = addr_table[i];
ARM GAS  C:\Users\Krist\AppData\Local\Temp\ccqyN6G1.s 			page 5


 202:Generated_Source\PSoC5/cyfitter_cfg.c **** 		uint8 count = (uint8)baseAddr;
 203:Generated_Source\PSoC5/cyfitter_cfg.c **** 		baseAddr &= 0xFFFFFF00u;
 204:Generated_Source\PSoC5/cyfitter_cfg.c **** 		while (count != 0u)
 205:Generated_Source\PSoC5/cyfitter_cfg.c **** 		{
 206:Generated_Source\PSoC5/cyfitter_cfg.c **** 			CY_SET_REG8((void *)(baseAddr + data_table[j].offset), data_table[j].value);
 207:Generated_Source\PSoC5/cyfitter_cfg.c **** 			j++;
 208:Generated_Source\PSoC5/cyfitter_cfg.c **** 			count--;
 209:Generated_Source\PSoC5/cyfitter_cfg.c **** 		}
 210:Generated_Source\PSoC5/cyfitter_cfg.c **** 	}
 211:Generated_Source\PSoC5/cyfitter_cfg.c **** }
 212:Generated_Source\PSoC5/cyfitter_cfg.c **** 
 213:Generated_Source\PSoC5/cyfitter_cfg.c **** /*******************************************************************************
 214:Generated_Source\PSoC5/cyfitter_cfg.c **** * Function Name: ClockSetup
 215:Generated_Source\PSoC5/cyfitter_cfg.c **** ********************************************************************************
 216:Generated_Source\PSoC5/cyfitter_cfg.c **** *
 217:Generated_Source\PSoC5/cyfitter_cfg.c **** * Summary:
 218:Generated_Source\PSoC5/cyfitter_cfg.c **** *  Performs the initialization of all of the clocks in the device based on the
 219:Generated_Source\PSoC5/cyfitter_cfg.c **** *  settings in the Clock tab of the DWR.  This includes enabling the requested
 220:Generated_Source\PSoC5/cyfitter_cfg.c **** *  clocks and setting the necessary dividers to produce the desired frequency. 
 221:Generated_Source\PSoC5/cyfitter_cfg.c **** *
 222:Generated_Source\PSoC5/cyfitter_cfg.c **** * Parameters:
 223:Generated_Source\PSoC5/cyfitter_cfg.c **** *  void
 224:Generated_Source\PSoC5/cyfitter_cfg.c **** *
 225:Generated_Source\PSoC5/cyfitter_cfg.c **** * Return:
 226:Generated_Source\PSoC5/cyfitter_cfg.c **** *  void
 227:Generated_Source\PSoC5/cyfitter_cfg.c **** *
 228:Generated_Source\PSoC5/cyfitter_cfg.c **** *******************************************************************************/
 229:Generated_Source\PSoC5/cyfitter_cfg.c **** static void ClockSetup(void);
 230:Generated_Source\PSoC5/cyfitter_cfg.c **** static void ClockSetup(void)
 231:Generated_Source\PSoC5/cyfitter_cfg.c **** {
 232:Generated_Source\PSoC5/cyfitter_cfg.c **** 	uint32 timeout;
 233:Generated_Source\PSoC5/cyfitter_cfg.c **** 	uint8 pllLock;
 234:Generated_Source\PSoC5/cyfitter_cfg.c **** 
 235:Generated_Source\PSoC5/cyfitter_cfg.c **** 
 236:Generated_Source\PSoC5/cyfitter_cfg.c **** 	/* Configure Digital Clocks based on settings from Clock DWR */
 237:Generated_Source\PSoC5/cyfitter_cfg.c **** 	CY_SET_XTND_REG16((void CYFAR *)(CYREG_CLKDIST_DCFG0_CFG0), 0x0017u);
 238:Generated_Source\PSoC5/cyfitter_cfg.c **** 	CY_SET_XTND_REG8((void CYFAR *)(CYREG_CLKDIST_DCFG0_CFG0 + 0x2u), 0x19u);
 239:Generated_Source\PSoC5/cyfitter_cfg.c **** 	CY_SET_XTND_REG16((void CYFAR *)(CYREG_CLKDIST_DCFG1_CFG0), 0x0019u);
 240:Generated_Source\PSoC5/cyfitter_cfg.c **** 	CY_SET_XTND_REG8((void CYFAR *)(CYREG_CLKDIST_DCFG1_CFG0 + 0x2u), 0x19u);
 241:Generated_Source\PSoC5/cyfitter_cfg.c **** 
 242:Generated_Source\PSoC5/cyfitter_cfg.c **** 	/* Configure Analog Clocks based on settings from Clock DWR */
 243:Generated_Source\PSoC5/cyfitter_cfg.c **** 	CYCONFIGCPY((void CYFAR *)(CYREG_CLKDIST_ACFG0_CFG0), (const void CYFAR *)(BS_CYDEV_CLKDIST_ACFG0_
 244:Generated_Source\PSoC5/cyfitter_cfg.c **** 
 245:Generated_Source\PSoC5/cyfitter_cfg.c **** 	/* Configure ILO based on settings from Clock DWR */
 246:Generated_Source\PSoC5/cyfitter_cfg.c **** 	CY_SET_XTND_REG8((void CYFAR *)(CYREG_SLOWCLK_ILO_CR0), 0x02u);
 247:Generated_Source\PSoC5/cyfitter_cfg.c **** 	CY_SET_XTND_REG8((void CYFAR *)(CYREG_CLKDIST_CR), 0x08u);
 248:Generated_Source\PSoC5/cyfitter_cfg.c **** 
 249:Generated_Source\PSoC5/cyfitter_cfg.c **** 	/* Configure IMO based on settings from Clock DWR */
 250:Generated_Source\PSoC5/cyfitter_cfg.c **** 	CY_SET_XTND_REG8((void CYFAR *)(CYREG_FASTCLK_IMO_CR), 0x02u);
 251:Generated_Source\PSoC5/cyfitter_cfg.c **** 	CY_SET_XTND_REG8((void CYFAR *)(CYREG_IMO_TR1), (CY_GET_XTND_REG8((void CYFAR *)CYREG_FLSHID_CUST_
 252:Generated_Source\PSoC5/cyfitter_cfg.c **** 
 253:Generated_Source\PSoC5/cyfitter_cfg.c **** 	/* Configure PLL based on settings from Clock DWR */
 254:Generated_Source\PSoC5/cyfitter_cfg.c **** 	CY_SET_XTND_REG16((void CYFAR *)(CYREG_FASTCLK_PLL_P), 0x0710u);
 255:Generated_Source\PSoC5/cyfitter_cfg.c **** 	CY_SET_XTND_REG16((void CYFAR *)(CYREG_FASTCLK_PLL_CFG0), 0x1251u);
 256:Generated_Source\PSoC5/cyfitter_cfg.c **** 	/* Wait up to 250us for the PLL to lock */
 257:Generated_Source\PSoC5/cyfitter_cfg.c **** 	pllLock = 0u;
 258:Generated_Source\PSoC5/cyfitter_cfg.c **** 	for (timeout = 250u / 10u; (timeout > 0u) && (pllLock != 0x03u); timeout--)
ARM GAS  C:\Users\Krist\AppData\Local\Temp\ccqyN6G1.s 			page 6


 259:Generated_Source\PSoC5/cyfitter_cfg.c **** 	{ 
 260:Generated_Source\PSoC5/cyfitter_cfg.c **** 		pllLock = 0x03u & ((uint8)((uint8)pllLock << 1) | ((CY_GET_XTND_REG8((void CYFAR *)CYREG_FASTCLK_
 261:Generated_Source\PSoC5/cyfitter_cfg.c **** 		CyDelayCycles(10u * 48u); /* Delay 10us based on 48MHz clock */
 262:Generated_Source\PSoC5/cyfitter_cfg.c **** 	}
 263:Generated_Source\PSoC5/cyfitter_cfg.c **** 	/* If we ran out of time the PLL didn't lock so go to the error function */
 264:Generated_Source\PSoC5/cyfitter_cfg.c **** 	if (timeout == 0u)
 265:Generated_Source\PSoC5/cyfitter_cfg.c **** 	{
 266:Generated_Source\PSoC5/cyfitter_cfg.c **** 		CyClockStartupError(CYCLOCKSTART_PLL_ERROR);
 267:Generated_Source\PSoC5/cyfitter_cfg.c **** 	}
 268:Generated_Source\PSoC5/cyfitter_cfg.c **** 
 269:Generated_Source\PSoC5/cyfitter_cfg.c **** 	/* Configure Bus/Master Clock based on settings from Clock DWR */
 270:Generated_Source\PSoC5/cyfitter_cfg.c **** 	CY_SET_XTND_REG16((void CYFAR *)(CYREG_CLKDIST_MSTR0), 0x0100u);
 271:Generated_Source\PSoC5/cyfitter_cfg.c **** 	CY_SET_XTND_REG8((void CYFAR *)(CYREG_CLKDIST_MSTR0), 0x07u);
 272:Generated_Source\PSoC5/cyfitter_cfg.c **** 	CY_SET_XTND_REG8((void CYFAR *)(CYREG_CLKDIST_BCFG0), 0x00u);
 273:Generated_Source\PSoC5/cyfitter_cfg.c **** 	CY_SET_XTND_REG8((void CYFAR *)(CYREG_CLKDIST_BCFG2), 0x48u);
 274:Generated_Source\PSoC5/cyfitter_cfg.c **** 	CY_SET_XTND_REG8((void CYFAR *)(CYREG_CLKDIST_MSTR0), 0x00u);
 275:Generated_Source\PSoC5/cyfitter_cfg.c **** 	CY_SET_XTND_REG8((void CYFAR *)(CYREG_CLKDIST_LD), 0x02u);
 276:Generated_Source\PSoC5/cyfitter_cfg.c **** 	CY_SET_XTND_REG8((void CYFAR *)(CYREG_CLKDIST_DLY1), 0x04u);
 277:Generated_Source\PSoC5/cyfitter_cfg.c **** 
 278:Generated_Source\PSoC5/cyfitter_cfg.c **** 	CY_SET_XTND_REG8((void CYFAR *)(CYREG_PM_ACT_CFG2), ((CY_GET_XTND_REG8((void CYFAR *)CYREG_PM_ACT_
 279:Generated_Source\PSoC5/cyfitter_cfg.c **** 	CY_SET_XTND_REG8((void CYFAR *)(CYREG_PM_ACT_CFG1), ((CY_GET_XTND_REG8((void CYFAR *)CYREG_PM_ACT_
 280:Generated_Source\PSoC5/cyfitter_cfg.c **** 	CY_SET_XTND_REG8((void CYFAR *)(CYREG_PM_ACT_CFG0), ((CY_GET_XTND_REG8((void CYFAR *)CYREG_PM_ACT_
 281:Generated_Source\PSoC5/cyfitter_cfg.c **** }
 282:Generated_Source\PSoC5/cyfitter_cfg.c **** 
 283:Generated_Source\PSoC5/cyfitter_cfg.c **** 
 284:Generated_Source\PSoC5/cyfitter_cfg.c **** /* Analog API Functions */
 285:Generated_Source\PSoC5/cyfitter_cfg.c **** 
 286:Generated_Source\PSoC5/cyfitter_cfg.c **** 
 287:Generated_Source\PSoC5/cyfitter_cfg.c **** /*******************************************************************************
 288:Generated_Source\PSoC5/cyfitter_cfg.c **** * Function Name: AnalogSetDefault
 289:Generated_Source\PSoC5/cyfitter_cfg.c **** ********************************************************************************
 290:Generated_Source\PSoC5/cyfitter_cfg.c **** *
 291:Generated_Source\PSoC5/cyfitter_cfg.c **** * Summary:
 292:Generated_Source\PSoC5/cyfitter_cfg.c **** *  Sets up the analog portions of the chip to default values based on chip
 293:Generated_Source\PSoC5/cyfitter_cfg.c **** *  configuration options from the project.
 294:Generated_Source\PSoC5/cyfitter_cfg.c **** *
 295:Generated_Source\PSoC5/cyfitter_cfg.c **** * Parameters:
 296:Generated_Source\PSoC5/cyfitter_cfg.c **** *  void
 297:Generated_Source\PSoC5/cyfitter_cfg.c **** *
 298:Generated_Source\PSoC5/cyfitter_cfg.c **** * Return:
 299:Generated_Source\PSoC5/cyfitter_cfg.c **** *  void
 300:Generated_Source\PSoC5/cyfitter_cfg.c **** *
 301:Generated_Source\PSoC5/cyfitter_cfg.c **** *******************************************************************************/
 302:Generated_Source\PSoC5/cyfitter_cfg.c **** static void AnalogSetDefault(void);
 303:Generated_Source\PSoC5/cyfitter_cfg.c **** static void AnalogSetDefault(void)
 304:Generated_Source\PSoC5/cyfitter_cfg.c **** {
 305:Generated_Source\PSoC5/cyfitter_cfg.c **** 	uint8 bg_xover_inl_trim = CY_GET_XTND_REG8((void CYFAR *)(CYREG_FLSHID_MFG_CFG_BG_XOVER_INL_TRIM +
 306:Generated_Source\PSoC5/cyfitter_cfg.c **** 	uint8 cr4 = CY_GET_XTND_REG8((void CYFAR *)(CYREG_RESET_CR4));
 307:Generated_Source\PSoC5/cyfitter_cfg.c **** 	uint8 cr5 = CY_GET_XTND_REG8((void CYFAR *)(CYREG_RESET_CR5));
 308:Generated_Source\PSoC5/cyfitter_cfg.c **** 	CY_SET_XTND_REG8((void CYFAR *)(CYREG_BG_DFT0), (bg_xover_inl_trim & 0x07u));
 309:Generated_Source\PSoC5/cyfitter_cfg.c **** 	CY_SET_XTND_REG8((void CYFAR *)(CYREG_BG_DFT1), ((bg_xover_inl_trim >> 4) & 0x0Fu));
 310:Generated_Source\PSoC5/cyfitter_cfg.c **** 	/* Disable PRES while setting up SAR voltage reference */
 311:Generated_Source\PSoC5/cyfitter_cfg.c **** 	CY_SET_XTND_REG8((void CYFAR *)(CYREG_RESET_CR4), (cr4 | 0x03u));
 312:Generated_Source\PSoC5/cyfitter_cfg.c **** 	CY_SET_XTND_REG8((void CYFAR *)(CYREG_RESET_CR5), (cr5 | 0x03u));
 313:Generated_Source\PSoC5/cyfitter_cfg.c **** 	CY_SET_XTND_REG8((void CYFAR *)CYREG_PRT1_AMUX, 0x40u);
 314:Generated_Source\PSoC5/cyfitter_cfg.c **** 	CY_SET_XTND_REG8((void CYFAR *)CYREG_PRT2_AG, 0x40u);
 315:Generated_Source\PSoC5/cyfitter_cfg.c **** 	CY_SET_XTND_REG8((void CYFAR *)CYREG_BG_CR0, 0x02u);
ARM GAS  C:\Users\Krist\AppData\Local\Temp\ccqyN6G1.s 			page 7


 316:Generated_Source\PSoC5/cyfitter_cfg.c **** 	CY_SET_XTND_REG8((void CYFAR *)CYREG_SAR0_CSR1, 0x40u);
 317:Generated_Source\PSoC5/cyfitter_cfg.c **** 	CY_SET_XTND_REG8((void CYFAR *)CYREG_SAR0_CSR3, 0x40u);
 318:Generated_Source\PSoC5/cyfitter_cfg.c **** 	CY_SET_XTND_REG8((void CYFAR *)CYREG_SAR1_CSR1, 0x40u);
 319:Generated_Source\PSoC5/cyfitter_cfg.c **** 	CY_SET_XTND_REG8((void CYFAR *)CYREG_SAR1_CSR3, 0x40u);
 320:Generated_Source\PSoC5/cyfitter_cfg.c **** 	CY_SET_XTND_REG8((void CYFAR *)CYREG_SC0_SW3, 0x01u);
 321:Generated_Source\PSoC5/cyfitter_cfg.c **** 	CY_SET_XTND_REG8((void CYFAR *)CYREG_SC0_SW4, 0x40u);
 322:Generated_Source\PSoC5/cyfitter_cfg.c **** 	CY_SET_XTND_REG8((void CYFAR *)CYREG_SC0_SW10, 0x08u);
 323:Generated_Source\PSoC5/cyfitter_cfg.c **** 	CY_SET_XTND_REG8((void CYFAR *)CYREG_SC1_SW0, 0x04u);
 324:Generated_Source\PSoC5/cyfitter_cfg.c **** 	CY_SET_XTND_REG8((void CYFAR *)CYREG_SC1_SW4, 0x40u);
 325:Generated_Source\PSoC5/cyfitter_cfg.c **** 	CY_SET_XTND_REG8((void CYFAR *)CYREG_SC1_SW8, 0x08u);
 326:Generated_Source\PSoC5/cyfitter_cfg.c **** 	CY_SET_XTND_REG8((void CYFAR *)CYREG_SC2_SW0, 0x80u);
 327:Generated_Source\PSoC5/cyfitter_cfg.c **** 	CY_SET_XTND_REG8((void CYFAR *)CYREG_SC2_SW4, 0x20u);
 328:Generated_Source\PSoC5/cyfitter_cfg.c **** 	CY_SET_XTND_REG8((void CYFAR *)CYREG_SC2_SW8, 0x01u);
 329:Generated_Source\PSoC5/cyfitter_cfg.c **** 	CY_SET_XTND_REG8((void CYFAR *)CYREG_SC3_SW3, 0x01u);
 330:Generated_Source\PSoC5/cyfitter_cfg.c **** 	CY_SET_XTND_REG8((void CYFAR *)CYREG_SC3_SW4, 0x20u);
 331:Generated_Source\PSoC5/cyfitter_cfg.c **** 	CY_SET_XTND_REG8((void CYFAR *)CYREG_SC3_SW8, 0x10u);
 332:Generated_Source\PSoC5/cyfitter_cfg.c **** 	CY_SET_XTND_REG8((void CYFAR *)CYREG_CMP0_SW3, 0x01u);
 333:Generated_Source\PSoC5/cyfitter_cfg.c **** 	CY_SET_XTND_REG8((void CYFAR *)CYREG_CMP0_SW6, 0x08u);
 334:Generated_Source\PSoC5/cyfitter_cfg.c **** 	CY_SET_XTND_REG8((void CYFAR *)CYREG_CMP1_SW3, 0x40u);
 335:Generated_Source\PSoC5/cyfitter_cfg.c **** 	CY_SET_XTND_REG8((void CYFAR *)CYREG_CMP1_SW4, 0x40u);
 336:Generated_Source\PSoC5/cyfitter_cfg.c **** 	CY_SET_XTND_REG8((void CYFAR *)CYREG_CMP3_SW0, 0x80u);
 337:Generated_Source\PSoC5/cyfitter_cfg.c **** 	CY_SET_XTND_REG8((void CYFAR *)CYREG_CMP3_SW4, 0x08u);
 338:Generated_Source\PSoC5/cyfitter_cfg.c **** 	CY_SET_XTND_REG8((void CYFAR *)CYREG_DSM0_SW3, 0x40u);
 339:Generated_Source\PSoC5/cyfitter_cfg.c **** 	CY_SET_XTND_REG8((void CYFAR *)CYREG_DSM0_SW4, 0x20u);
 340:Generated_Source\PSoC5/cyfitter_cfg.c **** 	CY_SET_XTND_REG8((void CYFAR *)CYREG_SAR0_SW0, 0x01u);
 341:Generated_Source\PSoC5/cyfitter_cfg.c **** 	CY_SET_XTND_REG8((void CYFAR *)CYREG_SAR0_SW3, 0x20u);
 342:Generated_Source\PSoC5/cyfitter_cfg.c **** 	CY_SET_XTND_REG8((void CYFAR *)CYREG_SAR1_SW0, 0x10u);
 343:Generated_Source\PSoC5/cyfitter_cfg.c **** 	CY_SET_XTND_REG8((void CYFAR *)CYREG_SAR1_SW3, 0x20u);
 344:Generated_Source\PSoC5/cyfitter_cfg.c **** 	CY_SET_XTND_REG8((void CYFAR *)CYREG_BUS_SW0, 0xE4u);
 345:Generated_Source\PSoC5/cyfitter_cfg.c **** 	CY_SET_XTND_REG8((void CYFAR *)CYREG_BUS_SW3, 0x01u);
 346:Generated_Source\PSoC5/cyfitter_cfg.c **** 	CyDelayUs(10u); /* Allow vref to settle before re-enabling PRES */
 347:Generated_Source\PSoC5/cyfitter_cfg.c **** 	CY_SET_XTND_REG8((void CYFAR *)(CYREG_RESET_CR5), (cr5));
 348:Generated_Source\PSoC5/cyfitter_cfg.c **** 	CY_SET_XTND_REG8((void CYFAR *)(CYREG_RESET_CR4), (cr4));
 349:Generated_Source\PSoC5/cyfitter_cfg.c **** 	CY_SET_XTND_REG8((void CYFAR *)CYREG_PUMP_CR0, 0x44u);
 350:Generated_Source\PSoC5/cyfitter_cfg.c **** }
 351:Generated_Source\PSoC5/cyfitter_cfg.c **** 
 352:Generated_Source\PSoC5/cyfitter_cfg.c **** 
 353:Generated_Source\PSoC5/cyfitter_cfg.c **** /*******************************************************************************
 354:Generated_Source\PSoC5/cyfitter_cfg.c **** * Function Name: SetAnalogRoutingPumps
 355:Generated_Source\PSoC5/cyfitter_cfg.c **** ********************************************************************************
 356:Generated_Source\PSoC5/cyfitter_cfg.c **** *
 357:Generated_Source\PSoC5/cyfitter_cfg.c **** * Summary:
 358:Generated_Source\PSoC5/cyfitter_cfg.c **** * Enables or disables the analog pumps feeding analog routing switches.
 359:Generated_Source\PSoC5/cyfitter_cfg.c **** * Intended to be called at startup, based on the Vdda system configuration;
 360:Generated_Source\PSoC5/cyfitter_cfg.c **** * may be called during operation when the user informs us that the Vdda voltage
 361:Generated_Source\PSoC5/cyfitter_cfg.c **** * crossed the pump threshold.
 362:Generated_Source\PSoC5/cyfitter_cfg.c **** *
 363:Generated_Source\PSoC5/cyfitter_cfg.c **** * Parameters:
 364:Generated_Source\PSoC5/cyfitter_cfg.c **** *  enabled - 1 to enable the pumps, 0 to disable the pumps
 365:Generated_Source\PSoC5/cyfitter_cfg.c **** *
 366:Generated_Source\PSoC5/cyfitter_cfg.c **** * Return:
 367:Generated_Source\PSoC5/cyfitter_cfg.c **** *  void
 368:Generated_Source\PSoC5/cyfitter_cfg.c **** *
 369:Generated_Source\PSoC5/cyfitter_cfg.c **** *******************************************************************************/
 370:Generated_Source\PSoC5/cyfitter_cfg.c **** void SetAnalogRoutingPumps(uint8 enabled)
 371:Generated_Source\PSoC5/cyfitter_cfg.c **** {
  28              		.loc 1 371 0
ARM GAS  C:\Users\Krist\AppData\Local\Temp\ccqyN6G1.s 			page 8


  29              		.cfi_startproc
  30              		@ args = 0, pretend = 0, frame = 0
  31              		@ frame_needed = 0, uses_anonymous_args = 0
  32              		@ link register save eliminated.
  33              	.LVL0:
 372:Generated_Source\PSoC5/cyfitter_cfg.c **** 	uint8 regValue = CY_GET_XTND_REG8((void CYFAR *)CYREG_PUMP_CR0);
  34              		.loc 1 372 0
  35 0000 054A     		ldr	r2, .L5
  36 0002 1378     		ldrb	r3, [r2]	@ zero_extendqisi2
  37 0004 DBB2     		uxtb	r3, r3
  38              	.LVL1:
 373:Generated_Source\PSoC5/cyfitter_cfg.c **** 	if (enabled != 0u)
  39              		.loc 1 373 0
  40 0006 10B1     		cbz	r0, .L2
 374:Generated_Source\PSoC5/cyfitter_cfg.c **** 	{
 375:Generated_Source\PSoC5/cyfitter_cfg.c **** 		regValue |= 0x22u;
  41              		.loc 1 375 0
  42 0008 43F02203 		orr	r3, r3, #34
  43              	.LVL2:
  44 000c 01E0     		b	.L3
  45              	.L2:
 376:Generated_Source\PSoC5/cyfitter_cfg.c **** 	}
 377:Generated_Source\PSoC5/cyfitter_cfg.c **** 	else
 378:Generated_Source\PSoC5/cyfitter_cfg.c **** 	{
 379:Generated_Source\PSoC5/cyfitter_cfg.c **** 		regValue &= (uint8)~0x22u;
  46              		.loc 1 379 0
  47 000e 03F0DD03 		and	r3, r3, #221
  48              	.LVL3:
  49              	.L3:
 380:Generated_Source\PSoC5/cyfitter_cfg.c **** 	}
 381:Generated_Source\PSoC5/cyfitter_cfg.c **** 	CY_SET_XTND_REG8((void CYFAR *)CYREG_PUMP_CR0, regValue);
  50              		.loc 1 381 0
  51 0012 1370     		strb	r3, [r2]
  52 0014 7047     		bx	lr
  53              	.L6:
  54 0016 00BF     		.align	2
  55              	.L5:
  56 0018 76580040 		.word	1073764470
  57              		.cfi_endproc
  58              	.LFE7:
  59              		.size	SetAnalogRoutingPumps, .-SetAnalogRoutingPumps
  60              		.section	.text.cyfitter_cfg,"ax",%progbits
  61              		.align	1
  62              		.global	cyfitter_cfg
  63              		.thumb
  64              		.thumb_func
  65              		.type	cyfitter_cfg, %function
  66              	cyfitter_cfg:
  67              	.LFB8:
 382:Generated_Source\PSoC5/cyfitter_cfg.c **** }
 383:Generated_Source\PSoC5/cyfitter_cfg.c **** 
 384:Generated_Source\PSoC5/cyfitter_cfg.c **** 
 385:Generated_Source\PSoC5/cyfitter_cfg.c **** 
 386:Generated_Source\PSoC5/cyfitter_cfg.c **** 
 387:Generated_Source\PSoC5/cyfitter_cfg.c **** /*******************************************************************************
 388:Generated_Source\PSoC5/cyfitter_cfg.c **** * Function Name: cyfitter_cfg
 389:Generated_Source\PSoC5/cyfitter_cfg.c **** ********************************************************************************
ARM GAS  C:\Users\Krist\AppData\Local\Temp\ccqyN6G1.s 			page 9


 390:Generated_Source\PSoC5/cyfitter_cfg.c **** * Summary:
 391:Generated_Source\PSoC5/cyfitter_cfg.c **** *  This function is called by the start-up code for the selected device. It
 392:Generated_Source\PSoC5/cyfitter_cfg.c **** *  performs all of the necessary device configuration based on the design
 393:Generated_Source\PSoC5/cyfitter_cfg.c **** *  settings.  This includes settings from the Design Wide Resources (DWR) such
 394:Generated_Source\PSoC5/cyfitter_cfg.c **** *  as Clocks and Pins as well as any component configuration that is necessary.
 395:Generated_Source\PSoC5/cyfitter_cfg.c **** *
 396:Generated_Source\PSoC5/cyfitter_cfg.c **** * Parameters:
 397:Generated_Source\PSoC5/cyfitter_cfg.c **** *   void
 398:Generated_Source\PSoC5/cyfitter_cfg.c **** *
 399:Generated_Source\PSoC5/cyfitter_cfg.c **** * Return:
 400:Generated_Source\PSoC5/cyfitter_cfg.c **** *   void
 401:Generated_Source\PSoC5/cyfitter_cfg.c **** *
 402:Generated_Source\PSoC5/cyfitter_cfg.c **** *******************************************************************************/
 403:Generated_Source\PSoC5/cyfitter_cfg.c **** 
 404:Generated_Source\PSoC5/cyfitter_cfg.c **** void cyfitter_cfg(void)
 405:Generated_Source\PSoC5/cyfitter_cfg.c **** {
  68              		.loc 1 405 0
  69              		.cfi_startproc
  70              		@ args = 0, pretend = 0, frame = 0
  71              		@ frame_needed = 0, uses_anonymous_args = 0
  72 0000 2DE9F843 		push	{r3, r4, r5, r6, r7, r8, r9, lr}
  73              		.cfi_def_cfa_offset 32
  74              		.cfi_offset 3, -32
  75              		.cfi_offset 4, -28
  76              		.cfi_offset 5, -24
  77              		.cfi_offset 6, -20
  78              		.cfi_offset 7, -16
  79              		.cfi_offset 8, -12
  80              		.cfi_offset 9, -8
  81              		.cfi_offset 14, -4
 406:Generated_Source\PSoC5/cyfitter_cfg.c **** #ifdef CYGlobalIntDisable
 407:Generated_Source\PSoC5/cyfitter_cfg.c **** 	/* Disable interrupts by default. Let user enable if/when they want. */
 408:Generated_Source\PSoC5/cyfitter_cfg.c **** 	CYGlobalIntDisable
  82              		.loc 1 408 0
  83              		.syntax unified
  84              	@ 408 "Generated_Source\PSoC5\cyfitter_cfg.c" 1
  85 0004 72B6     		CPSID   i
  86              	@ 0 "" 2
 409:Generated_Source\PSoC5/cyfitter_cfg.c **** #endif
 410:Generated_Source\PSoC5/cyfitter_cfg.c **** 
 411:Generated_Source\PSoC5/cyfitter_cfg.c **** 	/* Enable/Disable Debug functionality based on settings from System DWR */
 412:Generated_Source\PSoC5/cyfitter_cfg.c **** 	CY_SET_XTND_REG8((void CYFAR *)CYREG_MLOGIC_DEBUG, (CY_GET_XTND_REG8((void CYFAR *)CYREG_MLOGIC_DE
  87              		.loc 1 412 0
  88              		.thumb
  89              		.syntax unified
  90 0006 9B4A     		ldr	r2, .L22
  91              	.LBB44:
  92              	.LBB45:
 413:Generated_Source\PSoC5/cyfitter_cfg.c **** 
 414:Generated_Source\PSoC5/cyfitter_cfg.c **** 	{
 415:Generated_Source\PSoC5/cyfitter_cfg.c **** 
 416:Generated_Source\PSoC5/cyfitter_cfg.c **** 		CYPACKED typedef struct {
 417:Generated_Source\PSoC5/cyfitter_cfg.c **** 			void CYFAR *address;
 418:Generated_Source\PSoC5/cyfitter_cfg.c **** 			uint16 size;
 419:Generated_Source\PSoC5/cyfitter_cfg.c **** 		} CYPACKED_ATTR cfg_memset_t;
 420:Generated_Source\PSoC5/cyfitter_cfg.c **** 
 421:Generated_Source\PSoC5/cyfitter_cfg.c **** 
ARM GAS  C:\Users\Krist\AppData\Local\Temp\ccqyN6G1.s 			page 10


 422:Generated_Source\PSoC5/cyfitter_cfg.c **** 		CYPACKED typedef struct {
 423:Generated_Source\PSoC5/cyfitter_cfg.c **** 			void CYFAR *dest;
 424:Generated_Source\PSoC5/cyfitter_cfg.c **** 			const void CYFAR *src;
 425:Generated_Source\PSoC5/cyfitter_cfg.c **** 			uint16 size;
 426:Generated_Source\PSoC5/cyfitter_cfg.c **** 		} CYPACKED_ATTR cfg_memcpy_t;
 427:Generated_Source\PSoC5/cyfitter_cfg.c **** 
 428:Generated_Source\PSoC5/cyfitter_cfg.c **** 		static const cfg_memset_t CYCODE cfg_memset_list[] = {
 429:Generated_Source\PSoC5/cyfitter_cfg.c **** 			/* address, size */
 430:Generated_Source\PSoC5/cyfitter_cfg.c **** 			{(void CYFAR *)(CYREG_TMR0_CFG0), 12u},
 431:Generated_Source\PSoC5/cyfitter_cfg.c **** 			{(void CYFAR *)(CYREG_PRT0_DR), 16u},
 432:Generated_Source\PSoC5/cyfitter_cfg.c **** 			{(void CYFAR *)(CYREG_PRT3_DR), 64u},
 433:Generated_Source\PSoC5/cyfitter_cfg.c **** 			{(void CYFAR *)(CYREG_PRT15_DR), 16u},
 434:Generated_Source\PSoC5/cyfitter_cfg.c **** 			{(void CYFAR *)(CYDEV_UCFG_B0_P0_U0_BASE), 4096u},
 435:Generated_Source\PSoC5/cyfitter_cfg.c **** 			{(void CYFAR *)(CYDEV_UCFG_B1_P2_U0_BASE), 1024u},
 436:Generated_Source\PSoC5/cyfitter_cfg.c **** 			{(void CYFAR *)(CYDEV_UCFG_B1_P4_U1_BASE), 896u},
 437:Generated_Source\PSoC5/cyfitter_cfg.c **** 			{(void CYFAR *)(CYDEV_UCFG_DSI0_BASE), 2560u},
 438:Generated_Source\PSoC5/cyfitter_cfg.c **** 			{(void CYFAR *)(CYDEV_UCFG_DSI12_BASE), 512u},
 439:Generated_Source\PSoC5/cyfitter_cfg.c **** 			{(void CYFAR *)(CYREG_BCTL0_MDCLK_EN), 32u},
 440:Generated_Source\PSoC5/cyfitter_cfg.c **** 		};
 441:Generated_Source\PSoC5/cyfitter_cfg.c **** 
 442:Generated_Source\PSoC5/cyfitter_cfg.c **** 		static const cfg_memcpy_t CYCODE cfg_memcpy_list [] = {
 443:Generated_Source\PSoC5/cyfitter_cfg.c **** 			/* dest, src, size */
 444:Generated_Source\PSoC5/cyfitter_cfg.c **** 			{(void CYFAR *)(CYDEV_UCFG_B1_P4_U0_BASE), BS_UDB_0_1_1_CONFIG_VAL, 128u},
 445:Generated_Source\PSoC5/cyfitter_cfg.c **** 		};
 446:Generated_Source\PSoC5/cyfitter_cfg.c **** 
 447:Generated_Source\PSoC5/cyfitter_cfg.c **** 		uint8 CYDATA i;
 448:Generated_Source\PSoC5/cyfitter_cfg.c **** 
 449:Generated_Source\PSoC5/cyfitter_cfg.c **** 		/* Zero out critical memory blocks before beginning configuration */
 450:Generated_Source\PSoC5/cyfitter_cfg.c **** 		for (i = 0u; i < (sizeof(cfg_memset_list)/sizeof(cfg_memset_list[0])); i++)
 451:Generated_Source\PSoC5/cyfitter_cfg.c **** 		{
 452:Generated_Source\PSoC5/cyfitter_cfg.c **** 			const cfg_memset_t CYCODE * CYDATA ms = &cfg_memset_list[i];
 453:Generated_Source\PSoC5/cyfitter_cfg.c **** 			CYMEMZERO(ms->address, (size_t)(uint32)(ms->size));
  93              		.loc 1 453 0
  94 0008 9B4D     		ldr	r5, .L22+4
  95              	.LBE45:
  96              	.LBE44:
 412:Generated_Source\PSoC5/cyfitter_cfg.c **** 
  97              		.loc 1 412 0
  98 000a 1378     		ldrb	r3, [r2]	@ zero_extendqisi2
  99 000c 0024     		movs	r4, #0
 100 000e 43F00403 		orr	r3, r3, #4
 101 0012 1370     		strb	r3, [r2]
 102              	.LVL4:
 103              	.LBB60:
 104              	.LBB48:
 105              		.loc 1 453 0
 106 0014 0626     		movs	r6, #6
 107              	.LVL5:
 108              	.L8:
 109              		.loc 1 453 0 is_stmt 0 discriminator 3
 110 0016 06FB0453 		mla	r3, r6, r4, r5
 111              	.LBB46:
 112              	.LBB47:
  79:Generated_Source\PSoC5/cyfitter_cfg.c **** }
 113              		.loc 1 79 0 is_stmt 1 discriminator 3
 114 001a 0021     		movs	r1, #0
 115 001c 9A88     		ldrh	r2, [r3, #4]	@ unaligned
ARM GAS  C:\Users\Krist\AppData\Local\Temp\ccqyN6G1.s 			page 11


 116 001e 1868     		ldr	r0, [r3]	@ unaligned
 117 0020 0134     		adds	r4, r4, #1
 118              	.LVL6:
 119 0022 FFF7FEFF 		bl	memset
 120              	.LVL7:
 121              	.LBE47:
 122              	.LBE46:
 123              	.LBE48:
 450:Generated_Source\PSoC5/cyfitter_cfg.c **** 		{
 124              		.loc 1 450 0 discriminator 3
 125 0026 0A2C     		cmp	r4, #10
 126 0028 F5D1     		bne	.L8
 127              	.LVL8:
 128              	.LBB49:
 129              	.LBB50:
 130              	.LBB51:
  86:Generated_Source\PSoC5/cyfitter_cfg.c **** }
 131              		.loc 1 86 0 discriminator 3
 132 002a 8022     		movs	r2, #128
 133 002c 9349     		ldr	r1, .L22+8
 134 002e 9448     		ldr	r0, .L22+12
 135 0030 FFF7FEFF 		bl	memcpy
 136              	.LVL9:
 137              	.LBE51:
 138              	.LBE50:
 139              	.LBE49:
 140              	.LBB54:
 141              	.LBB55:
 199:Generated_Source\PSoC5/cyfitter_cfg.c **** 	{
 142              		.loc 1 199 0 discriminator 3
 143 0034 934D     		ldr	r5, .L22+16
 144              	.LBE55:
 145              	.LBE54:
 146              	.LBB58:
 147              	.LBB53:
 148              	.LBB52:
  86:Generated_Source\PSoC5/cyfitter_cfg.c **** }
 149              		.loc 1 86 0 discriminator 3
 150 0036 9448     		ldr	r0, .L22+20
 151 0038 0024     		movs	r4, #0
 152              	.LVL10:
 153              	.L11:
 154              	.LBE52:
 155              	.LBE53:
 156              	.LBE58:
 157              	.LBB59:
 158              	.LBB57:
 159              	.LBB56:
 201:Generated_Source\PSoC5/cyfitter_cfg.c **** 		uint8 count = (uint8)baseAddr;
 160              		.loc 1 201 0
 161 003a 50F8041F 		ldr	r1, [r0, #4]!
 162              	.LVL11:
 163 003e 04F11053 		add	r3, r4, #603979776
 164 0042 03F13802 		add	r2, r3, #56
 203:Generated_Source\PSoC5/cyfitter_cfg.c **** 		while (count != 0u)
 165              		.loc 1 203 0
 166 0046 21F0FF06 		bic	r6, r1, #255
ARM GAS  C:\Users\Krist\AppData\Local\Temp\ccqyN6G1.s 			page 12


 167              	.LVL12:
 168 004a 3933     		adds	r3, r3, #57
 169 004c C9B2     		uxtb	r1, r1
 170 004e 0B44     		add	r3, r3, r1
 171 0050 5200     		lsls	r2, r2, #1
 172 0052 5B00     		lsls	r3, r3, #1
 173              	.LVL13:
 174              	.L9:
 175 0054 0232     		adds	r2, r2, #2
 204:Generated_Source\PSoC5/cyfitter_cfg.c **** 		{
 176              		.loc 1 204 0
 177 0056 9342     		cmp	r3, r2
 178 0058 06D0     		beq	.L21
 206:Generated_Source\PSoC5/cyfitter_cfg.c **** 			j++;
 179              		.loc 1 206 0
 180 005a 12F8027C 		ldrb	r7, [r2, #-2]	@ zero_extendqisi2
 181 005e 12F801EC 		ldrb	lr, [r2, #-1]	@ zero_extendqisi2
 182 0062 07F806E0 		strb	lr, [r7, r6]
 183 0066 F5E7     		b	.L9
 184              	.L21:
 185              	.LBE56:
 199:Generated_Source\PSoC5/cyfitter_cfg.c **** 	{
 186              		.loc 1 199 0
 187 0068 A842     		cmp	r0, r5
 188 006a 0C44     		add	r4, r4, r1
 189              	.LVL14:
 190 006c E5D1     		bne	.L11
 191              	.LVL15:
 192              	.LBE57:
 193              	.LBE59:
 454:Generated_Source\PSoC5/cyfitter_cfg.c **** 		}
 455:Generated_Source\PSoC5/cyfitter_cfg.c **** 
 456:Generated_Source\PSoC5/cyfitter_cfg.c **** 		/* Copy device configuration data into registers */
 457:Generated_Source\PSoC5/cyfitter_cfg.c **** 		for (i = 0u; i < (sizeof(cfg_memcpy_list)/sizeof(cfg_memcpy_list[0])); i++)
 458:Generated_Source\PSoC5/cyfitter_cfg.c **** 		{
 459:Generated_Source\PSoC5/cyfitter_cfg.c **** 			const cfg_memcpy_t CYCODE * CYDATA mc = &cfg_memcpy_list[i];
 460:Generated_Source\PSoC5/cyfitter_cfg.c **** 			void * CYDATA destPtr = mc->dest;
 461:Generated_Source\PSoC5/cyfitter_cfg.c **** 			const void * CYDATA srcPtr = mc->src;
 462:Generated_Source\PSoC5/cyfitter_cfg.c **** 			uint16 CYDATA numBytes = mc->size;
 463:Generated_Source\PSoC5/cyfitter_cfg.c **** 			CYCONFIGCPY(destPtr, srcPtr, numBytes);
 464:Generated_Source\PSoC5/cyfitter_cfg.c **** 		}
 465:Generated_Source\PSoC5/cyfitter_cfg.c **** 
 466:Generated_Source\PSoC5/cyfitter_cfg.c **** 		cfg_write_bytes32(cy_cfg_addr_table, cy_cfg_data_table);
 467:Generated_Source\PSoC5/cyfitter_cfg.c **** 
 468:Generated_Source\PSoC5/cyfitter_cfg.c **** 		/* Perform normal device configuration. Order is not critical for these items. */
 469:Generated_Source\PSoC5/cyfitter_cfg.c **** 		CY_SET_XTND_REG16((void CYFAR *)(CYREG_LUT0_CR), 0x0003u);
 194              		.loc 1 469 0
 195 006e 874B     		ldr	r3, .L22+24
 196 0070 0322     		movs	r2, #3
 197 0072 1A80     		strh	r2, [r3]	@ movhi
 470:Generated_Source\PSoC5/cyfitter_cfg.c **** 		CY_SET_XTND_REG16((void CYFAR *)(CYREG_LUT3_CR), 0x0303u);
 198              		.loc 1 470 0
 199 0074 40F20332 		movw	r2, #771
 200 0078 DA80     		strh	r2, [r3, #6]	@ movhi
 471:Generated_Source\PSoC5/cyfitter_cfg.c **** 
 472:Generated_Source\PSoC5/cyfitter_cfg.c **** 		/* Enable digital routing */
 473:Generated_Source\PSoC5/cyfitter_cfg.c **** 		CY_SET_XTND_REG8((void CYFAR *)CYREG_BCTL0_BANK_CTL, CY_GET_XTND_REG8((void CYFAR *)CYREG_BCTL0_B
ARM GAS  C:\Users\Krist\AppData\Local\Temp\ccqyN6G1.s 			page 13


 201              		.loc 1 473 0
 202 007a 854A     		ldr	r2, .L22+28
 474:Generated_Source\PSoC5/cyfitter_cfg.c **** 		CY_SET_XTND_REG8((void CYFAR *)CYREG_BCTL1_BANK_CTL, CY_GET_XTND_REG8((void CYFAR *)CYREG_BCTL1_B
 475:Generated_Source\PSoC5/cyfitter_cfg.c **** 
 476:Generated_Source\PSoC5/cyfitter_cfg.c **** 		/* Enable UDB array */
 477:Generated_Source\PSoC5/cyfitter_cfg.c **** 		CY_SET_XTND_REG8((void CYFAR *)CYREG_PM_ACT_CFG0, CY_GET_XTND_REG8((void CYFAR *)CYREG_PM_ACT_CFG
 203              		.loc 1 477 0
 204 007c 854E     		ldr	r6, .L22+32
 473:Generated_Source\PSoC5/cyfitter_cfg.c **** 		CY_SET_XTND_REG8((void CYFAR *)CYREG_BCTL1_BANK_CTL, CY_GET_XTND_REG8((void CYFAR *)CYREG_BCTL1_B
 205              		.loc 1 473 0
 206 007e 1378     		ldrb	r3, [r2]	@ zero_extendqisi2
 207              	.LBE60:
 208              	.LBB61:
 209              	.LBB62:
 238:Generated_Source\PSoC5/cyfitter_cfg.c **** 	CY_SET_XTND_REG16((void CYFAR *)(CYREG_CLKDIST_DCFG1_CFG0), 0x0019u);
 210              		.loc 1 238 0
 211 0080 1924     		movs	r4, #25
 212              	.LBE62:
 213              	.LBE61:
 214              	.LBB73:
 473:Generated_Source\PSoC5/cyfitter_cfg.c **** 		CY_SET_XTND_REG8((void CYFAR *)CYREG_BCTL1_BANK_CTL, CY_GET_XTND_REG8((void CYFAR *)CYREG_BCTL1_B
 215              		.loc 1 473 0
 216 0082 43F00203 		orr	r3, r3, #2
 217 0086 1370     		strb	r3, [r2]
 474:Generated_Source\PSoC5/cyfitter_cfg.c **** 		CY_SET_XTND_REG8((void CYFAR *)CYREG_BCTL1_BANK_CTL, CY_GET_XTND_REG8((void CYFAR *)CYREG_BCTL1_B
 218              		.loc 1 474 0
 219 0088 137C     		ldrb	r3, [r2, #16]	@ zero_extendqisi2
 220              	.LBE73:
 221              	.LBB74:
 222              	.LBB67:
 260:Generated_Source\PSoC5/cyfitter_cfg.c **** 		CyDelayCycles(10u * 48u); /* Delay 10us based on 48MHz clock */
 223              		.loc 1 260 0
 224 008a 834F     		ldr	r7, .L22+36
 225              	.LBE67:
 226              	.LBE74:
 227              	.LBB75:
 474:Generated_Source\PSoC5/cyfitter_cfg.c **** 
 228              		.loc 1 474 0
 229 008c 43F00203 		orr	r3, r3, #2
 230 0090 1374     		strb	r3, [r2, #16]
 231              		.loc 1 477 0
 232 0092 3378     		ldrb	r3, [r6]	@ zero_extendqisi2
 478:Generated_Source\PSoC5/cyfitter_cfg.c **** 		CY_SET_XTND_REG8((void CYFAR *)CYREG_PM_AVAIL_CR2, CY_GET_XTND_REG8((void CYFAR *)CYREG_PM_AVAIL_
 233              		.loc 1 478 0
 234 0094 A2F58632 		sub	r2, r2, #68608
 477:Generated_Source\PSoC5/cyfitter_cfg.c **** 		CY_SET_XTND_REG8((void CYFAR *)CYREG_PM_AVAIL_CR2, CY_GET_XTND_REG8((void CYFAR *)CYREG_PM_AVAIL_
 235              		.loc 1 477 0
 236 0098 43F04003 		orr	r3, r3, #64
 237 009c 3370     		strb	r3, [r6]
 238              		.loc 1 478 0
 239 009e 413A     		subs	r2, r2, #65
 240 00a0 1378     		ldrb	r3, [r2]	@ zero_extendqisi2
 241              	.LBE75:
 242              	.LBB76:
 243              	.LBB68:
 257:Generated_Source\PSoC5/cyfitter_cfg.c **** 	for (timeout = 250u / 10u; (timeout > 0u) && (pllLock != 0x03u); timeout--)
 244              		.loc 1 257 0
ARM GAS  C:\Users\Krist\AppData\Local\Temp\ccqyN6G1.s 			page 14


 245 00a2 0025     		movs	r5, #0
 246              	.LBE68:
 247              	.LBE76:
 248              	.LBB77:
 249              		.loc 1 478 0
 250 00a4 43F01003 		orr	r3, r3, #16
 251 00a8 1370     		strb	r3, [r2]
 252              	.LVL16:
 253              	.LBE77:
 254              	.LBB78:
 255              	.LBB79:
  86:Generated_Source\PSoC5/cyfitter_cfg.c **** }
 256              		.loc 1 86 0
 257 00aa 7C4A     		ldr	r2, .L22+40
 258 00ac 7C4B     		ldr	r3, .L22+44
 259 00ae 07CA     		ldmia	r2, {r0, r1, r2}
 260 00b0 03C3     		stmia	r3!, {r0, r1}
 261 00b2 1A80     		strh	r2, [r3]	@ movhi
 262              	.LVL17:
 263              	.LBE79:
 264              	.LBE78:
 265              	.LBB80:
 266              	.LBB81:
 267 00b4 7B4A     		ldr	r2, .L22+48
 268 00b6 7C4B     		ldr	r3, .L22+52
 269 00b8 03CB     		ldmia	r3!, {r0, r1}
 270 00ba 1060     		str	r0, [r2]	@ unaligned
 271 00bc 5160     		str	r1, [r2, #4]	@ unaligned
 272              	.LVL18:
 273              	.LBE81:
 274              	.LBE80:
 275              	.LBB82:
 276              	.LBB83:
 277 00be 03CB     		ldmia	r3!, {r0, r1}
 278 00c0 5161     		str	r1, [r2, #20]	@ unaligned
 279              	.LVL19:
 280              	.LBE83:
 281              	.LBE82:
 479:Generated_Source\PSoC5/cyfitter_cfg.c **** 	}
 480:Generated_Source\PSoC5/cyfitter_cfg.c **** 
 481:Generated_Source\PSoC5/cyfitter_cfg.c **** 
 482:Generated_Source\PSoC5/cyfitter_cfg.c **** 	/* Perform second pass device configuration. These items must be configured in specific order afte
 483:Generated_Source\PSoC5/cyfitter_cfg.c **** 	CYCONFIGCPY((void CYFAR *)(CYREG_PRT12_DR), (const void CYFAR *)(BS_IOPINS0_7_VAL), 10u);
 484:Generated_Source\PSoC5/cyfitter_cfg.c **** 	CYCONFIGCPY((void CYFAR *)(CYREG_PRT1_DM0), (const void CYFAR *)(BS_IOPINS0_1_VAL), 8u);
 485:Generated_Source\PSoC5/cyfitter_cfg.c **** 	CYCONFIGCPY((void CYFAR *)(CYREG_PRT2_DM0), (const void CYFAR *)(BS_IOPINS0_2_VAL), 8u);
 486:Generated_Source\PSoC5/cyfitter_cfg.c **** 	/* Switch Boost to the precision bandgap reference from its internal reference */
 487:Generated_Source\PSoC5/cyfitter_cfg.c **** 	CY_SET_REG8((void CYXDATA *)CYREG_BOOST_CR2, (CY_GET_REG8((void CYXDATA *)CYREG_BOOST_CR2) | 0x08u
 282              		.loc 1 487 0
 283 00c2 7A49     		ldr	r1, .L22+56
 284              	.LBB85:
 285              	.LBB84:
  86:Generated_Source\PSoC5/cyfitter_cfg.c **** }
 286              		.loc 1 86 0
 287 00c4 1061     		str	r0, [r2, #16]	@ unaligned
 288              	.LBE84:
 289              	.LBE85:
 290              		.loc 1 487 0
ARM GAS  C:\Users\Krist\AppData\Local\Temp\ccqyN6G1.s 			page 15


 291 00c6 0A78     		ldrb	r2, [r1]	@ zero_extendqisi2
 292 00c8 42F00802 		orr	r2, r2, #8
 293 00cc 0A70     		strb	r2, [r1]
 488:Generated_Source\PSoC5/cyfitter_cfg.c **** 
 489:Generated_Source\PSoC5/cyfitter_cfg.c **** 	/* Set Flash Cycles based on max possible frequency in case a glitch occurs during ClockSetup(). *
 490:Generated_Source\PSoC5/cyfitter_cfg.c **** 	CY_SET_XTND_REG8((void CYFAR *)(CYREG_CACHE_CC_CTL), (((CYDEV_INSTRUCT_CACHE_ENABLED) != 0) ? 0x61
 294              		.loc 1 490 0
 295 00ce 784A     		ldr	r2, .L22+60
 296 00d0 6121     		movs	r1, #97
 297 00d2 1170     		strb	r1, [r2]
 298              	.LBB86:
 299              	.LBB69:
 237:Generated_Source\PSoC5/cyfitter_cfg.c **** 	CY_SET_XTND_REG8((void CYFAR *)(CYREG_CLKDIST_DCFG0_CFG0 + 0x2u), 0x19u);
 300              		.loc 1 237 0
 301 00d4 A2F5F062 		sub	r2, r2, #1920
 302 00d8 1721     		movs	r1, #23
 303 00da 1180     		strh	r1, [r2]	@ movhi
 238:Generated_Source\PSoC5/cyfitter_cfg.c **** 	CY_SET_XTND_REG16((void CYFAR *)(CYREG_CLKDIST_DCFG1_CFG0), 0x0019u);
 304              		.loc 1 238 0
 305 00dc 9470     		strb	r4, [r2, #2]
 239:Generated_Source\PSoC5/cyfitter_cfg.c **** 	CY_SET_XTND_REG8((void CYFAR *)(CYREG_CLKDIST_DCFG1_CFG0 + 0x2u), 0x19u);
 306              		.loc 1 239 0
 307 00de 9480     		strh	r4, [r2, #4]	@ movhi
 240:Generated_Source\PSoC5/cyfitter_cfg.c **** 
 308              		.loc 1 240 0
 309 00e0 9471     		strb	r4, [r2, #6]
 310              	.LVL20:
 311              	.LBB63:
 312              	.LBB64:
  86:Generated_Source\PSoC5/cyfitter_cfg.c **** }
 313              		.loc 1 86 0
 314 00e2 93E80300 		ldmia	r3, {r0, r1}
 315 00e6 8032     		adds	r2, r2, #128
 316              	.LBE64:
 317              	.LBE63:
 246:Generated_Source\PSoC5/cyfitter_cfg.c **** 	CY_SET_XTND_REG8((void CYFAR *)(CYREG_CLKDIST_CR), 0x08u);
 318              		.loc 1 246 0
 319 00e8 0223     		movs	r3, #2
 320 00ea 82F80032 		strb	r3, [r2, #512]
 321              	.LBB66:
 322              	.LBB65:
  86:Generated_Source\PSoC5/cyfitter_cfg.c **** }
 323              		.loc 1 86 0
 324 00ee 82E80300 		stmia	r2, {r0, r1}
 325              	.LVL21:
 326              	.LBE65:
 327              	.LBE66:
 247:Generated_Source\PSoC5/cyfitter_cfg.c **** 
 328              		.loc 1 247 0
 329 00f2 4FF04022 		mov	r2, #1073758208
 330 00f6 0821     		movs	r1, #8
 331 00f8 1170     		strb	r1, [r2]
 250:Generated_Source\PSoC5/cyfitter_cfg.c **** 	CY_SET_XTND_REG8((void CYFAR *)(CYREG_IMO_TR1), (CY_GET_XTND_REG8((void CYFAR *)CYREG_FLSHID_CUST_
 332              		.loc 1 250 0
 333 00fa 82F80032 		strb	r3, [r2, #512]
 251:Generated_Source\PSoC5/cyfitter_cfg.c **** 
 334              		.loc 1 251 0
ARM GAS  C:\Users\Krist\AppData\Local\Temp\ccqyN6G1.s 			page 16


 335 00fe 6D4B     		ldr	r3, .L22+64
 336 0100 1B78     		ldrb	r3, [r3]	@ zero_extendqisi2
 337 0102 DBB2     		uxtb	r3, r3
 338 0104 82F8A136 		strb	r3, [r2, #1697]
 254:Generated_Source\PSoC5/cyfitter_cfg.c **** 	CY_SET_XTND_REG16((void CYFAR *)(CYREG_FASTCLK_PLL_CFG0), 0x1251u);
 339              		.loc 1 254 0
 340 0108 6B4B     		ldr	r3, .L22+68
 341 010a 4FF4E262 		mov	r2, #1808
 342 010e 1A80     		strh	r2, [r3]	@ movhi
 255:Generated_Source\PSoC5/cyfitter_cfg.c **** 	/* Wait up to 250us for the PLL to lock */
 343              		.loc 1 255 0
 344 0110 41F25122 		movw	r2, #4689
 345 0114 23F8022C 		strh	r2, [r3, #-2]	@ movhi
 346              	.LVL22:
 347              	.L13:
 260:Generated_Source\PSoC5/cyfitter_cfg.c **** 		CyDelayCycles(10u * 48u); /* Delay 10us based on 48MHz clock */
 348              		.loc 1 260 0
 349 0118 3B78     		ldrb	r3, [r7]	@ zero_extendqisi2
 261:Generated_Source\PSoC5/cyfitter_cfg.c **** 	}
 350              		.loc 1 261 0
 351 011a 4FF4F070 		mov	r0, #480
 260:Generated_Source\PSoC5/cyfitter_cfg.c **** 		CyDelayCycles(10u * 48u); /* Delay 10us based on 48MHz clock */
 352              		.loc 1 260 0
 353 011e 03F00103 		and	r3, r3, #1
 354 0122 43EA4505 		orr	r5, r3, r5, lsl #1
 355              	.LVL23:
 261:Generated_Source\PSoC5/cyfitter_cfg.c **** 	}
 356              		.loc 1 261 0
 357 0126 FFF7FEFF 		bl	CyDelayCycles
 358              	.LVL24:
 258:Generated_Source\PSoC5/cyfitter_cfg.c **** 	{ 
 359              		.loc 1 258 0
 360 012a 013C     		subs	r4, r4, #1
 361              	.LVL25:
 260:Generated_Source\PSoC5/cyfitter_cfg.c **** 		CyDelayCycles(10u * 48u); /* Delay 10us based on 48MHz clock */
 362              		.loc 1 260 0
 363 012c 05F00305 		and	r5, r5, #3
 364              	.LVL26:
 258:Generated_Source\PSoC5/cyfitter_cfg.c **** 	{ 
 365              		.loc 1 258 0
 366 0130 00F09F80 		beq	.L12
 367              	.LVL27:
 368 0134 032D     		cmp	r5, #3
 369 0136 EFD1     		bne	.L13
 270:Generated_Source\PSoC5/cyfitter_cfg.c **** 	CY_SET_XTND_REG8((void CYFAR *)(CYREG_CLKDIST_MSTR0), 0x07u);
 370              		.loc 1 270 0
 371 0138 604B     		ldr	r3, .L22+72
 372 013a 4FF48072 		mov	r2, #256
 373 013e 1A80     		strh	r2, [r3]	@ movhi
 272:Generated_Source\PSoC5/cyfitter_cfg.c **** 	CY_SET_XTND_REG8((void CYFAR *)(CYREG_CLKDIST_BCFG2), 0x48u);
 374              		.loc 1 272 0
 375 0140 5F49     		ldr	r1, .L22+76
 271:Generated_Source\PSoC5/cyfitter_cfg.c **** 	CY_SET_XTND_REG8((void CYFAR *)(CYREG_CLKDIST_BCFG0), 0x00u);
 376              		.loc 1 271 0
 377 0142 0722     		movs	r2, #7
 378 0144 1A70     		strb	r2, [r3]
 273:Generated_Source\PSoC5/cyfitter_cfg.c **** 	CY_SET_XTND_REG8((void CYFAR *)(CYREG_CLKDIST_MSTR0), 0x00u);
ARM GAS  C:\Users\Krist\AppData\Local\Temp\ccqyN6G1.s 			page 17


 379              		.loc 1 273 0
 380 0146 4820     		movs	r0, #72
 272:Generated_Source\PSoC5/cyfitter_cfg.c **** 	CY_SET_XTND_REG8((void CYFAR *)(CYREG_CLKDIST_BCFG2), 0x48u);
 381              		.loc 1 272 0
 382 0148 0022     		movs	r2, #0
 383 014a 0A70     		strb	r2, [r1]
 273:Generated_Source\PSoC5/cyfitter_cfg.c **** 	CY_SET_XTND_REG8((void CYFAR *)(CYREG_CLKDIST_MSTR0), 0x00u);
 384              		.loc 1 273 0
 385 014c 8870     		strb	r0, [r1, #2]
 274:Generated_Source\PSoC5/cyfitter_cfg.c **** 	CY_SET_XTND_REG8((void CYFAR *)(CYREG_CLKDIST_LD), 0x02u);
 386              		.loc 1 274 0
 387 014e 1A70     		strb	r2, [r3]
 276:Generated_Source\PSoC5/cyfitter_cfg.c **** 
 388              		.loc 1 276 0
 389 0150 0421     		movs	r1, #4
 278:Generated_Source\PSoC5/cyfitter_cfg.c **** 	CY_SET_XTND_REG8((void CYFAR *)(CYREG_PM_ACT_CFG1), ((CY_GET_XTND_REG8((void CYFAR *)CYREG_PM_ACT_
 390              		.loc 1 278 0
 391 0152 5C4A     		ldr	r2, .L22+80
 275:Generated_Source\PSoC5/cyfitter_cfg.c **** 	CY_SET_XTND_REG8((void CYFAR *)(CYREG_CLKDIST_DLY1), 0x04u);
 392              		.loc 1 275 0
 393 0154 0220     		movs	r0, #2
 394 0156 03F8030C 		strb	r0, [r3, #-3]
 276:Generated_Source\PSoC5/cyfitter_cfg.c **** 
 395              		.loc 1 276 0
 396 015a D971     		strb	r1, [r3, #7]
 278:Generated_Source\PSoC5/cyfitter_cfg.c **** 	CY_SET_XTND_REG8((void CYFAR *)(CYREG_PM_ACT_CFG1), ((CY_GET_XTND_REG8((void CYFAR *)CYREG_PM_ACT_
 397              		.loc 1 278 0
 398 015c 1378     		ldrb	r3, [r2]	@ zero_extendqisi2
 399              	.LBE69:
 400              	.LBE86:
 401              	.LBB87:
 402              	.LBB88:
 306:Generated_Source\PSoC5/cyfitter_cfg.c **** 	uint8 cr5 = CY_GET_XTND_REG8((void CYFAR *)(CYREG_RESET_CR5));
 403              		.loc 1 306 0
 404 015e 5A4F     		ldr	r7, .L22+84
 405              	.LBE88:
 406              	.LBE87:
 407              	.LBB93:
 408              	.LBB70:
 278:Generated_Source\PSoC5/cyfitter_cfg.c **** 	CY_SET_XTND_REG8((void CYFAR *)(CYREG_PM_ACT_CFG1), ((CY_GET_XTND_REG8((void CYFAR *)CYREG_PM_ACT_
 409              		.loc 1 278 0
 410 0160 43F00303 		orr	r3, r3, #3
 411 0164 1370     		strb	r3, [r2]
 279:Generated_Source\PSoC5/cyfitter_cfg.c **** 	CY_SET_XTND_REG8((void CYFAR *)(CYREG_PM_ACT_CFG0), ((CY_GET_XTND_REG8((void CYFAR *)CYREG_PM_ACT_
 412              		.loc 1 279 0
 413 0166 12F8013C 		ldrb	r3, [r2, #-1]	@ zero_extendqisi2
 414              	.LBE70:
 415              	.LBE93:
 416              	.LBB94:
 417              	.LBB89:
 307:Generated_Source\PSoC5/cyfitter_cfg.c **** 	CY_SET_XTND_REG8((void CYFAR *)(CYREG_BG_DFT0), (bg_xover_inl_trim & 0x07u));
 418              		.loc 1 307 0
 419 016a DFF87C81 		ldr	r8, .L22+116
 420              	.LBE89:
 421              	.LBE94:
 422              	.LBB95:
 423              	.LBB71:
ARM GAS  C:\Users\Krist\AppData\Local\Temp\ccqyN6G1.s 			page 18


 279:Generated_Source\PSoC5/cyfitter_cfg.c **** 	CY_SET_XTND_REG8((void CYFAR *)(CYREG_PM_ACT_CFG0), ((CY_GET_XTND_REG8((void CYFAR *)CYREG_PM_ACT_
 424              		.loc 1 279 0
 425 016e 43F00303 		orr	r3, r3, #3
 426 0172 02F8013C 		strb	r3, [r2, #-1]
 280:Generated_Source\PSoC5/cyfitter_cfg.c **** }
 427              		.loc 1 280 0
 428 0176 3378     		ldrb	r3, [r6]	@ zero_extendqisi2
 429              	.LBE71:
 430              	.LBE95:
 491:Generated_Source\PSoC5/cyfitter_cfg.c **** 	/* Setup clocks based on selections from Clock DWR */
 492:Generated_Source\PSoC5/cyfitter_cfg.c **** 	ClockSetup();
 493:Generated_Source\PSoC5/cyfitter_cfg.c **** 	/* Set Flash Cycles based on newly configured 48.00MHz Bus Clock. */
 494:Generated_Source\PSoC5/cyfitter_cfg.c **** 	CY_SET_XTND_REG8((void CYFAR *)(CYREG_CACHE_CC_CTL), (((CYDEV_INSTRUCT_CACHE_ENABLED) != 0) ? 0xC1
 431              		.loc 1 494 0
 432 0178 C122     		movs	r2, #193
 433              	.LBB96:
 434              	.LBB72:
 280:Generated_Source\PSoC5/cyfitter_cfg.c **** }
 435              		.loc 1 280 0
 436 017a 43F08003 		orr	r3, r3, #128
 437 017e 3370     		strb	r3, [r6]
 438              	.LVL28:
 439              	.LBE72:
 440              	.LBE96:
 441              		.loc 1 494 0
 442 0180 4B4B     		ldr	r3, .L22+60
 443              	.LBB97:
 444              	.LBB90:
 308:Generated_Source\PSoC5/cyfitter_cfg.c **** 	CY_SET_XTND_REG8((void CYFAR *)(CYREG_BG_DFT1), ((bg_xover_inl_trim >> 4) & 0x0Fu));
 445              		.loc 1 308 0
 446 0182 DFF868E1 		ldr	lr, .L22+120
 447              	.LBE90:
 448              	.LBE97:
 449              		.loc 1 494 0
 450 0186 1A70     		strb	r2, [r3]
 495:Generated_Source\PSoC5/cyfitter_cfg.c **** 	CY_SET_XTND_REG8((void CYFAR *)(CYREG_PANTHER_WAITPIPE), 0x01u);
 451              		.loc 1 495 0
 452 0188 03F5F723 		add	r3, r3, #505856
 453 018c 0122     		movs	r2, #1
 454 018e 0433     		adds	r3, r3, #4
 455 0190 1A70     		strb	r2, [r3]
 456              	.LBB98:
 457              	.LBB91:
 305:Generated_Source\PSoC5/cyfitter_cfg.c **** 	uint8 cr4 = CY_GET_XTND_REG8((void CYFAR *)(CYREG_RESET_CR4));
 458              		.loc 1 305 0
 459 0192 4E4B     		ldr	r3, .L22+88
 313:Generated_Source\PSoC5/cyfitter_cfg.c **** 	CY_SET_XTND_REG8((void CYFAR *)CYREG_PRT2_AG, 0x40u);
 460              		.loc 1 313 0
 461 0194 AEF2527E 		subw	lr, lr, #1874
 305:Generated_Source\PSoC5/cyfitter_cfg.c **** 	uint8 cr4 = CY_GET_XTND_REG8((void CYFAR *)(CYREG_RESET_CR4));
 462              		.loc 1 305 0
 463 0198 1B78     		ldrb	r3, [r3]	@ zero_extendqisi2
 306:Generated_Source\PSoC5/cyfitter_cfg.c **** 	uint8 cr5 = CY_GET_XTND_REG8((void CYFAR *)(CYREG_RESET_CR5));
 464              		.loc 1 306 0
 465 019a 3C78     		ldrb	r4, [r7]	@ zero_extendqisi2
 305:Generated_Source\PSoC5/cyfitter_cfg.c **** 	uint8 cr4 = CY_GET_XTND_REG8((void CYFAR *)(CYREG_RESET_CR4));
 466              		.loc 1 305 0
ARM GAS  C:\Users\Krist\AppData\Local\Temp\ccqyN6G1.s 			page 19


 467 019c DBB2     		uxtb	r3, r3
 468              	.LVL29:
 307:Generated_Source\PSoC5/cyfitter_cfg.c **** 	CY_SET_XTND_REG8((void CYFAR *)(CYREG_BG_DFT0), (bg_xover_inl_trim & 0x07u));
 469              		.loc 1 307 0
 470 019e 98F80050 		ldrb	r5, [r8]	@ zero_extendqisi2
 306:Generated_Source\PSoC5/cyfitter_cfg.c **** 	uint8 cr5 = CY_GET_XTND_REG8((void CYFAR *)(CYREG_RESET_CR5));
 471              		.loc 1 306 0
 472 01a2 E4B2     		uxtb	r4, r4
 473              	.LVL30:
 308:Generated_Source\PSoC5/cyfitter_cfg.c **** 	CY_SET_XTND_REG8((void CYFAR *)(CYREG_BG_DFT1), ((bg_xover_inl_trim >> 4) & 0x0Fu));
 474              		.loc 1 308 0
 475 01a4 03F0070C 		and	ip, r3, #7
 309:Generated_Source\PSoC5/cyfitter_cfg.c **** 	/* Disable PRES while setting up SAR voltage reference */
 476              		.loc 1 309 0
 477 01a8 CB40     		lsrs	r3, r3, r1
 478              	.LVL31:
 308:Generated_Source\PSoC5/cyfitter_cfg.c **** 	CY_SET_XTND_REG8((void CYFAR *)(CYREG_BG_DFT1), ((bg_xover_inl_trim >> 4) & 0x0Fu));
 479              		.loc 1 308 0
 480 01aa 8EF852C7 		strb	ip, [lr, #1874]
 307:Generated_Source\PSoC5/cyfitter_cfg.c **** 	CY_SET_XTND_REG8((void CYFAR *)(CYREG_BG_DFT0), (bg_xover_inl_trim & 0x07u));
 481              		.loc 1 307 0
 482 01ae EDB2     		uxtb	r5, r5
 483              	.LVL32:
 309:Generated_Source\PSoC5/cyfitter_cfg.c **** 	/* Disable PRES while setting up SAR voltage reference */
 484              		.loc 1 309 0
 485 01b0 8EF85337 		strb	r3, [lr, #1875]
 311:Generated_Source\PSoC5/cyfitter_cfg.c **** 	CY_SET_XTND_REG8((void CYFAR *)(CYREG_RESET_CR5), (cr5 | 0x03u));
 486              		.loc 1 311 0
 487 01b4 44F00303 		orr	r3, r4, #3
 488 01b8 3B70     		strb	r3, [r7]
 312:Generated_Source\PSoC5/cyfitter_cfg.c **** 	CY_SET_XTND_REG8((void CYFAR *)CYREG_PRT1_AMUX, 0x40u);
 489              		.loc 1 312 0
 490 01ba 45F00303 		orr	r3, r5, #3
 491 01be 88F80030 		strb	r3, [r8]
 313:Generated_Source\PSoC5/cyfitter_cfg.c **** 	CY_SET_XTND_REG8((void CYFAR *)CYREG_PRT2_AG, 0x40u);
 492              		.loc 1 313 0
 493 01c2 4023     		movs	r3, #64
 494 01c4 8EF80030 		strb	r3, [lr]
 314:Generated_Source\PSoC5/cyfitter_cfg.c **** 	CY_SET_XTND_REG8((void CYFAR *)CYREG_BG_CR0, 0x02u);
 495              		.loc 1 314 0
 496 01c8 8EF81130 		strb	r3, [lr, #17]
 315:Generated_Source\PSoC5/cyfitter_cfg.c **** 	CY_SET_XTND_REG8((void CYFAR *)CYREG_SAR0_CSR1, 0x40u);
 497              		.loc 1 315 0
 498 01cc 8EF85007 		strb	r0, [lr, #1872]
 316:Generated_Source\PSoC5/cyfitter_cfg.c **** 	CY_SET_XTND_REG8((void CYFAR *)CYREG_SAR0_CSR3, 0x40u);
 499              		.loc 1 316 0
 500 01d0 3F48     		ldr	r0, .L22+92
 326:Generated_Source\PSoC5/cyfitter_cfg.c **** 	CY_SET_XTND_REG8((void CYFAR *)CYREG_SC2_SW4, 0x20u);
 501              		.loc 1 326 0
 502 01d2 4FF0800C 		mov	ip, #128
 316:Generated_Source\PSoC5/cyfitter_cfg.c **** 	CY_SET_XTND_REG8((void CYFAR *)CYREG_SAR0_CSR3, 0x40u);
 503              		.loc 1 316 0
 504 01d6 0370     		strb	r3, [r0]
 317:Generated_Source\PSoC5/cyfitter_cfg.c **** 	CY_SET_XTND_REG8((void CYFAR *)CYREG_SAR1_CSR1, 0x40u);
 505              		.loc 1 317 0
 506 01d8 8370     		strb	r3, [r0, #2]
 318:Generated_Source\PSoC5/cyfitter_cfg.c **** 	CY_SET_XTND_REG8((void CYFAR *)CYREG_SAR1_CSR3, 0x40u);
ARM GAS  C:\Users\Krist\AppData\Local\Temp\ccqyN6G1.s 			page 20


 507              		.loc 1 318 0
 508 01da 0372     		strb	r3, [r0, #8]
 319:Generated_Source\PSoC5/cyfitter_cfg.c **** 	CY_SET_XTND_REG8((void CYFAR *)CYREG_SC0_SW3, 0x01u);
 509              		.loc 1 319 0
 510 01dc 8372     		strb	r3, [r0, #10]
 320:Generated_Source\PSoC5/cyfitter_cfg.c **** 	CY_SET_XTND_REG8((void CYFAR *)CYREG_SC0_SW4, 0x40u);
 511              		.loc 1 320 0
 512 01de 80F80221 		strb	r2, [r0, #258]
 321:Generated_Source\PSoC5/cyfitter_cfg.c **** 	CY_SET_XTND_REG8((void CYFAR *)CYREG_SC0_SW10, 0x08u);
 513              		.loc 1 321 0
 514 01e2 80F80331 		strb	r3, [r0, #259]
 322:Generated_Source\PSoC5/cyfitter_cfg.c **** 	CY_SET_XTND_REG8((void CYFAR *)CYREG_SC1_SW0, 0x04u);
 515              		.loc 1 322 0
 516 01e6 0820     		movs	r0, #8
 517 01e8 8EF8EE08 		strb	r0, [lr, #2286]
 323:Generated_Source\PSoC5/cyfitter_cfg.c **** 	CY_SET_XTND_REG8((void CYFAR *)CYREG_SC1_SW4, 0x40u);
 518              		.loc 1 323 0
 519 01ec 8EF8F418 		strb	r1, [lr, #2292]
 324:Generated_Source\PSoC5/cyfitter_cfg.c **** 	CY_SET_XTND_REG8((void CYFAR *)CYREG_SC1_SW8, 0x08u);
 520              		.loc 1 324 0
 521 01f0 3849     		ldr	r1, .L22+96
 331:Generated_Source\PSoC5/cyfitter_cfg.c **** 	CY_SET_XTND_REG8((void CYFAR *)CYREG_CMP0_SW3, 0x01u);
 522              		.loc 1 331 0
 523 01f2 DFF8FC90 		ldr	r9, .L22+124
 324:Generated_Source\PSoC5/cyfitter_cfg.c **** 	CY_SET_XTND_REG8((void CYFAR *)CYREG_SC1_SW8, 0x08u);
 524              		.loc 1 324 0
 525 01f6 0B70     		strb	r3, [r1]
 325:Generated_Source\PSoC5/cyfitter_cfg.c **** 	CY_SET_XTND_REG8((void CYFAR *)CYREG_SC2_SW0, 0x80u);
 526              		.loc 1 325 0
 527 01f8 0871     		strb	r0, [r1, #4]
 326:Generated_Source\PSoC5/cyfitter_cfg.c **** 	CY_SET_XTND_REG8((void CYFAR *)CYREG_SC2_SW4, 0x20u);
 528              		.loc 1 326 0
 529 01fa 81F80CC0 		strb	ip, [r1, #12]
 327:Generated_Source\PSoC5/cyfitter_cfg.c **** 	CY_SET_XTND_REG8((void CYFAR *)CYREG_SC2_SW8, 0x01u);
 530              		.loc 1 327 0
 531 01fe 2021     		movs	r1, #32
 532 0200 8EF80819 		strb	r1, [lr, #2312]
 328:Generated_Source\PSoC5/cyfitter_cfg.c **** 	CY_SET_XTND_REG8((void CYFAR *)CYREG_SC3_SW3, 0x01u);
 533              		.loc 1 328 0
 534 0204 8EF80C29 		strb	r2, [lr, #2316]
 329:Generated_Source\PSoC5/cyfitter_cfg.c **** 	CY_SET_XTND_REG8((void CYFAR *)CYREG_SC3_SW4, 0x20u);
 535              		.loc 1 329 0
 536 0208 8EF81729 		strb	r2, [lr, #2327]
 330:Generated_Source\PSoC5/cyfitter_cfg.c **** 	CY_SET_XTND_REG8((void CYFAR *)CYREG_SC3_SW8, 0x10u);
 537              		.loc 1 330 0
 538 020c 8EF81819 		strb	r1, [lr, #2328]
 331:Generated_Source\PSoC5/cyfitter_cfg.c **** 	CY_SET_XTND_REG8((void CYFAR *)CYREG_CMP0_SW3, 0x01u);
 539              		.loc 1 331 0
 540 0210 4FF0100E 		mov	lr, #16
 541 0214 89F800E0 		strb	lr, [r9]
 332:Generated_Source\PSoC5/cyfitter_cfg.c **** 	CY_SET_XTND_REG8((void CYFAR *)CYREG_CMP0_SW6, 0x08u);
 542              		.loc 1 332 0
 543 0218 89F88B20 		strb	r2, [r9, #139]
 333:Generated_Source\PSoC5/cyfitter_cfg.c **** 	CY_SET_XTND_REG8((void CYFAR *)CYREG_CMP1_SW3, 0x40u);
 544              		.loc 1 333 0
 545 021c 89F88E00 		strb	r0, [r9, #142]
 334:Generated_Source\PSoC5/cyfitter_cfg.c **** 	CY_SET_XTND_REG8((void CYFAR *)CYREG_CMP1_SW4, 0x40u);
ARM GAS  C:\Users\Krist\AppData\Local\Temp\ccqyN6G1.s 			page 21


 546              		.loc 1 334 0
 547 0220 89F89330 		strb	r3, [r9, #147]
 335:Generated_Source\PSoC5/cyfitter_cfg.c **** 	CY_SET_XTND_REG8((void CYFAR *)CYREG_CMP3_SW0, 0x80u);
 548              		.loc 1 335 0
 549 0224 89F89430 		strb	r3, [r9, #148]
 336:Generated_Source\PSoC5/cyfitter_cfg.c **** 	CY_SET_XTND_REG8((void CYFAR *)CYREG_CMP3_SW4, 0x08u);
 550              		.loc 1 336 0
 551 0228 89F8A0C0 		strb	ip, [r9, #160]
 337:Generated_Source\PSoC5/cyfitter_cfg.c **** 	CY_SET_XTND_REG8((void CYFAR *)CYREG_DSM0_SW3, 0x40u);
 552              		.loc 1 337 0
 553 022c DFF8C4C0 		ldr	ip, .L22+128
 554 0230 8CF80000 		strb	r0, [ip]
 338:Generated_Source\PSoC5/cyfitter_cfg.c **** 	CY_SET_XTND_REG8((void CYFAR *)CYREG_DSM0_SW4, 0x20u);
 555              		.loc 1 338 0
 556 0234 2848     		ldr	r0, .L22+100
 557 0236 0370     		strb	r3, [r0]
 339:Generated_Source\PSoC5/cyfitter_cfg.c **** 	CY_SET_XTND_REG8((void CYFAR *)CYREG_SAR0_SW0, 0x01u);
 558              		.loc 1 339 0
 559 0238 284B     		ldr	r3, .L22+104
 346:Generated_Source\PSoC5/cyfitter_cfg.c **** 	CY_SET_XTND_REG8((void CYFAR *)(CYREG_RESET_CR5), (cr5));
 560              		.loc 1 346 0
 561 023a 0A20     		movs	r0, #10
 339:Generated_Source\PSoC5/cyfitter_cfg.c **** 	CY_SET_XTND_REG8((void CYFAR *)CYREG_SAR0_SW0, 0x01u);
 562              		.loc 1 339 0
 563 023c 1970     		strb	r1, [r3]
 340:Generated_Source\PSoC5/cyfitter_cfg.c **** 	CY_SET_XTND_REG8((void CYFAR *)CYREG_SAR0_SW3, 0x20u);
 564              		.loc 1 340 0
 565 023e 1A77     		strb	r2, [r3, #28]
 341:Generated_Source\PSoC5/cyfitter_cfg.c **** 	CY_SET_XTND_REG8((void CYFAR *)CYREG_SAR1_SW0, 0x10u);
 566              		.loc 1 341 0
 567 0240 D977     		strb	r1, [r3, #31]
 342:Generated_Source\PSoC5/cyfitter_cfg.c **** 	CY_SET_XTND_REG8((void CYFAR *)CYREG_SAR1_SW3, 0x20u);
 568              		.loc 1 342 0
 569 0242 83F824E0 		strb	lr, [r3, #36]
 343:Generated_Source\PSoC5/cyfitter_cfg.c **** 	CY_SET_XTND_REG8((void CYFAR *)CYREG_BUS_SW0, 0xE4u);
 570              		.loc 1 343 0
 571 0246 83F82710 		strb	r1, [r3, #39]
 344:Generated_Source\PSoC5/cyfitter_cfg.c **** 	CY_SET_XTND_REG8((void CYFAR *)CYREG_BUS_SW3, 0x01u);
 572              		.loc 1 344 0
 573 024a E421     		movs	r1, #228
 574 024c 83F85410 		strb	r1, [r3, #84]
 345:Generated_Source\PSoC5/cyfitter_cfg.c **** 	CyDelayUs(10u); /* Allow vref to settle before re-enabling PRES */
 575              		.loc 1 345 0
 576 0250 83F85720 		strb	r2, [r3, #87]
 346:Generated_Source\PSoC5/cyfitter_cfg.c **** 	CY_SET_XTND_REG8((void CYFAR *)(CYREG_RESET_CR5), (cr5));
 577              		.loc 1 346 0
 578 0254 FFF7FEFF 		bl	CyDelayUs
 579              	.LVL33:
 349:Generated_Source\PSoC5/cyfitter_cfg.c **** }
 580              		.loc 1 349 0
 581 0258 214B     		ldr	r3, .L22+108
 347:Generated_Source\PSoC5/cyfitter_cfg.c **** 	CY_SET_XTND_REG8((void CYFAR *)(CYREG_RESET_CR4), (cr4));
 582              		.loc 1 347 0
 583 025a 88F80050 		strb	r5, [r8]
 349:Generated_Source\PSoC5/cyfitter_cfg.c **** }
 584              		.loc 1 349 0
 585 025e 4422     		movs	r2, #68
ARM GAS  C:\Users\Krist\AppData\Local\Temp\ccqyN6G1.s 			page 22


 348:Generated_Source\PSoC5/cyfitter_cfg.c **** 	CY_SET_XTND_REG8((void CYFAR *)CYREG_PUMP_CR0, 0x44u);
 586              		.loc 1 348 0
 587 0260 3C70     		strb	r4, [r7]
 588              	.LBE91:
 589              	.LBE98:
 590              	.LBB99:
 591              	.LBB100:
  86:Generated_Source\PSoC5/cyfitter_cfg.c **** }
 592              		.loc 1 86 0
 593 0262 204C     		ldr	r4, .L22+112
 594              	.LVL34:
 595              	.LBE100:
 596              	.LBE99:
 597              	.LBB102:
 598              	.LBB92:
 349:Generated_Source\PSoC5/cyfitter_cfg.c **** }
 599              		.loc 1 349 0
 600 0264 1A70     		strb	r2, [r3]
 601              	.LVL35:
 602              	.LBE92:
 603              	.LBE102:
 604              	.LBB103:
 605              	.LBB101:
  86:Generated_Source\PSoC5/cyfitter_cfg.c **** }
 606              		.loc 1 86 0
 607 0266 96E80F00 		ldmia	r6, {r0, r1, r2, r3}
 608 026a 07C4     		stmia	r4!, {r0, r1, r2}
 609 026c 2380     		strh	r3, [r4]	@ movhi
 610              	.LVL36:
 611 026e BDE8F883 		pop	{r3, r4, r5, r6, r7, r8, r9, pc}
 612              	.LVL37:
 613              	.L12:
 614 0272 FEE7     		b	.L12
 615              	.L23:
 616              		.align	2
 617              	.L22:
 618 0274 E8460040 		.word	1073759976
 619 0278 00000000 		.word	.LANCHOR0
 620 027c 7C030048 		.word	1207960444
 621 0280 00180140 		.word	1073813504
 622 0284 6C000048 		.word	1207959660
 623 0288 FCFFFF47 		.word	1207959548
 624 028c 48580040 		.word	1073764424
 625 0290 03500140 		.word	1073827843
 626 0294 A0430040 		.word	1073759136
 627 0298 25420040 		.word	1073758757
 628 029c FC030048 		.word	1207960572
 629 02a0 C0510040 		.word	1073762752
 630 02a4 12510040 		.word	1073762578
 631 02a8 08040048 		.word	1207960584
 632 02ac 22430040 		.word	1073759010
 633 02b0 00480040 		.word	1073760256
 634 02b4 0B010049 		.word	1224737035
 635 02b8 22420040 		.word	1073758754
 636 02bc 04400040 		.word	1073758212
 637 02c0 06400040 		.word	1073758214
 638 02c4 A2430040 		.word	1073759138
ARM GAS  C:\Users\Krist\AppData\Local\Temp\ccqyN6G1.s 			page 23


 639 02c8 F8460040 		.word	1073759992
 640 02cc CF010049 		.word	1224737231
 641 02d0 01590040 		.word	1073764609
 642 02d4 145A0040 		.word	1073764884
 643 02d8 035B0040 		.word	1073765123
 644 02dc 045B0040 		.word	1073765124
 645 02e0 76580040 		.word	1073764470
 646 02e4 B0430040 		.word	1073759152
 647 02e8 F9460040 		.word	1073759993
 648 02ec 6E580040 		.word	1073764462
 649 02f0 385A0040 		.word	1073764920
 650 02f4 DC5A0040 		.word	1073765084
 651              	.LBE101:
 652              	.LBE103:
 653              		.cfi_endproc
 654              	.LFE8:
 655              		.size	cyfitter_cfg, .-cyfitter_cfg
 656              		.section	.rodata
 657              		.set	.LANCHOR0,. + 0
 658              		.type	cfg_memset_list.5010, %object
 659              		.size	cfg_memset_list.5010, 60
 660              	cfg_memset_list.5010:
 661 0000 004F0040 		.4byte	1073762048
 662 0004 0C00     		.2byte	12
 663 0006 00510040 		.4byte	1073762560
 664 000a 1000     		.2byte	16
 665 000c 30510040 		.4byte	1073762608
 666 0010 4000     		.2byte	64
 667 0012 F0510040 		.4byte	1073762800
 668 0016 1000     		.2byte	16
 669 0018 00000140 		.4byte	1073807360
 670 001c 0010     		.2byte	4096
 671 001e 00140140 		.4byte	1073812480
 672 0022 0004     		.2byte	1024
 673 0024 80180140 		.4byte	1073813632
 674 0028 8003     		.2byte	896
 675 002a 00400140 		.4byte	1073823744
 676 002e 000A     		.2byte	2560
 677 0030 004C0140 		.4byte	1073826816
 678 0034 0002     		.2byte	512
 679 0036 00500140 		.4byte	1073827840
 680 003a 2000     		.2byte	32
 681              		.text
 682              	.Letext0:
 683              		.file 2 "c:\\program files (x86)\\cypress\\psoc creator\\4.1\\psoc creator\\import\\gnu\\arm\\5.4.
 684              		.file 3 "Generated_Source\\PSoC5\\cytypes.h"
 685              		.file 4 "Generated_Source\\PSoC5\\CyLib.h"