ARM GAS  C:\Users\Krist\AppData\Local\Temp\ccb1eda0.s 			page 1


   1              		.syntax unified
   2              		.cpu cortex-m3
   3              		.fpu softvfp
   4              		.eabi_attribute 20, 1
   5              		.eabi_attribute 21, 1
   6              		.eabi_attribute 23, 3
   7              		.eabi_attribute 24, 1
   8              		.eabi_attribute 25, 1
   9              		.eabi_attribute 26, 1
  10              		.eabi_attribute 30, 4
  11              		.eabi_attribute 34, 1
  12              		.eabi_attribute 18, 4
  13              		.thumb
  14              		.syntax unified
  15              		.file	"main.c"
  16              		.text
  17              	.Ltext0:
  18              		.cfi_sections	.debug_frame
  19              		.section	.text.ISR_A_Interrupt,"ax",%progbits
  20              		.align	1
  21              		.global	ISR_A_Interrupt
  22              		.thumb
  23              		.thumb_func
  24              		.type	ISR_A_Interrupt, %function
  25              	ISR_A_Interrupt:
  26              	.LFB64:
  27              		.file 1 "main.c"
   1:main.c        **** /* ========================================
   2:main.c        ****  *
   3:main.c        ****  * Copyright YOUR COMPANY, THE YEAR
   4:main.c        ****  * All Rights Reserved
   5:main.c        ****  * UNPUBLISHED, LICENSED SOFTWARE.
   6:main.c        ****  *
   7:main.c        ****  * CONFIDENTIAL AND PROPRIETARY INFORMATION
   8:main.c        ****  * WHICH IS THE PROPERTY OF your company.
   9:main.c        ****  *
  10:main.c        ****  * ========================================
  11:main.c        **** */
  12:main.c        **** #include "project.h"
  13:main.c        **** #include <stdint.h>
  14:main.c        **** #include "stdio.h"
  15:main.c        **** 
  16:main.c        **** 
  17:main.c        **** char TransmitBufferUSB[16];
  18:main.c        **** #define DATA_LENGTH 100
  19:main.c        **** 
  20:main.c        **** typedef struct {
  21:main.c        ****     uint16_t time;
  22:main.c        ****     int16 value;
  23:main.c        **** } datapoint;
  24:main.c        **** 
  25:main.c        **** datapoint DataA[DATA_LENGTH];
  26:main.c        **** datapoint DataB[DATA_LENGTH];
  27:main.c        **** uint8 indexA = 0;
  28:main.c        **** uint8 indexB = 0;
  29:main.c        **** 
  30:main.c        **** 
ARM GAS  C:\Users\Krist\AppData\Local\Temp\ccb1eda0.s 			page 2


  31:main.c        **** CY_ISR(ISR_A_Interrupt){
  28              		.loc 1 31 0
  29              		.cfi_startproc
  30              		@ args = 0, pretend = 0, frame = 0
  31              		@ frame_needed = 0, uses_anonymous_args = 0
  32 0000 70B5     		push	{r4, r5, r6, lr}
  33              		.cfi_def_cfa_offset 16
  34              		.cfi_offset 4, -16
  35              		.cfi_offset 5, -12
  36              		.cfi_offset 6, -8
  37              		.cfi_offset 14, -4
  32:main.c        ****     //sprintf(TransmitBufferUSB, "\tEntered ISR_A - A:%d - B:%d\n\r",indexA, indexB);
  33:main.c        ****     //UART_1_PutString(TransmitBufferUSB);
  34:main.c        ****     
  35:main.c        ****     if (!indexA && !indexB) {
  38              		.loc 1 35 0
  39 0002 0F4C     		ldr	r4, .L7
  40 0004 2378     		ldrb	r3, [r4]	@ zero_extendqisi2
  41 0006 1BB9     		cbnz	r3, .L2
  42              		.loc 1 35 0 is_stmt 0 discriminator 1
  43 0008 6078     		ldrb	r0, [r4, #1]	@ zero_extendqisi2
  44 000a 08B9     		cbnz	r0, .L2
  36:main.c        ****         
  37:main.c        ****         //sprintf(TransmitBufferUSB, "resetting counter... ");
  38:main.c        ****         //UART_1_PutString(TransmitBufferUSB);
  39:main.c        ****         Counter_WriteCounter(0);
  45              		.loc 1 39 0 is_stmt 1
  46 000c FFF7FEFF 		bl	Counter_WriteCounter
  47              	.LVL0:
  48              	.L2:
  40:main.c        ****         
  41:main.c        ****     //sprintf(TransmitBufferUSB, "Counter reset.\n\r");
  42:main.c        ****     //UART_1_PutString(TransmitBufferUSB);
  43:main.c        ****     }
  44:main.c        ****     
  45:main.c        ****     //sprintf(TransmitBufferUSB, "Starting sample...");
  46:main.c        ****     //UART_1_PutString(TransmitBufferUSB);
  47:main.c        ****     //Sample 1 value
  48:main.c        ****     ADC_A_StartConvert();
  49              		.loc 1 48 0
  50 0010 FFF7FEFF 		bl	ADC_A_StartConvert
  51              	.LVL1:
  52              	.L3:
  49:main.c        ****     //sprintf(TransmitBufferUSB, "Sample started...");
  50:main.c        ****     //UART_1_PutString(TransmitBufferUSB);
  51:main.c        ****     
  52:main.c        ****     //Wait for result
  53:main.c        ****     while(!ADC_A_IsEndConversion(ADC_A_WAIT_FOR_RESULT)){}
  53              		.loc 1 53 0 discriminator 1
  54 0014 0020     		movs	r0, #0
  55 0016 FFF7FEFF 		bl	ADC_A_IsEndConversion
  56              	.LVL2:
  57 001a 0028     		cmp	r0, #0
  58 001c FAD0     		beq	.L3
  54:main.c        ****     //sprintf(TransmitBufferUSB, "Sample ended.\n\rGetting results...");
  55:main.c        ****     //UART_1_PutString(TransmitBufferUSB);
  56:main.c        ****     
ARM GAS  C:\Users\Krist\AppData\Local\Temp\ccb1eda0.s 			page 3


  57:main.c        ****     //Save result to 'value'
  58:main.c        ****     
  59:main.c        ****     DataA[indexA] = (datapoint) {ADC_A_GetResult16(), 
  59              		.loc 1 59 0
  60 001e 2578     		ldrb	r5, [r4]	@ zero_extendqisi2
  61 0020 FFF7FEFF 		bl	ADC_A_GetResult16
  62              	.LVL3:
  63 0024 0646     		mov	r6, r0
  60:main.c        ****                                  Counter_ReadCounter()};
  64              		.loc 1 60 0
  65 0026 FFF7FEFF 		bl	Counter_ReadCounter
  66              	.LVL4:
  59:main.c        ****                                  Counter_ReadCounter()};
  67              		.loc 1 59 0
  68 002a 064B     		ldr	r3, .L7+4
  69 002c 23F82560 		strh	r6, [r3, r5, lsl #2]	@ movhi
  70 0030 03EB8503 		add	r3, r3, r5, lsl #2
  71 0034 5880     		strh	r0, [r3, #2]	@ movhi
  61:main.c        ****     indexA++;
  72              		.loc 1 61 0
  73 0036 2378     		ldrb	r3, [r4]	@ zero_extendqisi2
  74 0038 0133     		adds	r3, r3, #1
  75 003a 2370     		strb	r3, [r4]
  76 003c 70BD     		pop	{r4, r5, r6, pc}
  77              	.L8:
  78 003e 00BF     		.align	2
  79              	.L7:
  80 0040 00000000 		.word	.LANCHOR0
  81 0044 00000000 		.word	DataA
  82              		.cfi_endproc
  83              	.LFE64:
  84              		.size	ISR_A_Interrupt, .-ISR_A_Interrupt
  85              		.section	.text.ISR_B_Interrupt,"ax",%progbits
  86              		.align	1
  87              		.global	ISR_B_Interrupt
  88              		.thumb
  89              		.thumb_func
  90              		.type	ISR_B_Interrupt, %function
  91              	ISR_B_Interrupt:
  92              	.LFB65:
  62:main.c        ****     //sprintf(TransmitBufferUSB, "Got results okay. DataA[%d].time = %d\n\r", indexA, DataA[indexA]
  63:main.c        ****     //UART_1_PutString(TransmitBufferUSB);
  64:main.c        ****     
  65:main.c        **** }
  66:main.c        **** 
  67:main.c        **** CY_ISR(ISR_B_Interrupt){
  93              		.loc 1 67 0
  94              		.cfi_startproc
  95              		@ args = 0, pretend = 0, frame = 0
  96              		@ frame_needed = 0, uses_anonymous_args = 0
  97 0000 70B5     		push	{r4, r5, r6, lr}
  98              		.cfi_def_cfa_offset 16
  99              		.cfi_offset 4, -16
 100              		.cfi_offset 5, -12
 101              		.cfi_offset 6, -8
 102              		.cfi_offset 14, -4
  68:main.c        ****     //sprintf(TransmitBufferUSB, "Entered ISR_B - A:%d - B:%d\n\r",indexA, indexB);
ARM GAS  C:\Users\Krist\AppData\Local\Temp\ccb1eda0.s 			page 4


  69:main.c        ****     //UART_1_PutString(TransmitBufferUSB);
  70:main.c        ****     
  71:main.c        ****     
  72:main.c        ****     if (!indexB && !indexB) {
 103              		.loc 1 72 0
 104 0002 0E4C     		ldr	r4, .L14
 105 0004 6078     		ldrb	r0, [r4, #1]	@ zero_extendqisi2
 106 0006 08B9     		cbnz	r0, .L10
  73:main.c        ****         Counter_WriteCounter(0);
 107              		.loc 1 73 0
 108 0008 FFF7FEFF 		bl	Counter_WriteCounter
 109              	.LVL5:
 110              	.L10:
  74:main.c        ****     }
  75:main.c        ****     
  76:main.c        ****     //Sample 1 value
  77:main.c        ****     ADC_B_StartConvert();
 111              		.loc 1 77 0
 112 000c FFF7FEFF 		bl	ADC_B_StartConvert
 113              	.LVL6:
 114              	.L11:
  78:main.c        ****     //Wait for result
  79:main.c        ****     while(!ADC_B_IsEndConversion(ADC_B_WAIT_FOR_RESULT)){}
 115              		.loc 1 79 0 discriminator 1
 116 0010 0020     		movs	r0, #0
 117 0012 FFF7FEFF 		bl	ADC_B_IsEndConversion
 118              	.LVL7:
 119 0016 0028     		cmp	r0, #0
 120 0018 FAD0     		beq	.L11
  80:main.c        ****     
  81:main.c        ****     
  82:main.c        ****     //Save result to 'value'
  83:main.c        ****     DataB[indexB] = (datapoint) {ADC_B_GetResult16(),
 121              		.loc 1 83 0
 122 001a 6578     		ldrb	r5, [r4, #1]	@ zero_extendqisi2
 123 001c FFF7FEFF 		bl	ADC_B_GetResult16
 124              	.LVL8:
 125 0020 0646     		mov	r6, r0
  84:main.c        ****                                  Counter_ReadCounter()};
 126              		.loc 1 84 0
 127 0022 FFF7FEFF 		bl	Counter_ReadCounter
 128              	.LVL9:
  83:main.c        ****                                  Counter_ReadCounter()};
 129              		.loc 1 83 0
 130 0026 064B     		ldr	r3, .L14+4
 131 0028 23F82560 		strh	r6, [r3, r5, lsl #2]	@ movhi
 132 002c 03EB8503 		add	r3, r3, r5, lsl #2
 133 0030 5880     		strh	r0, [r3, #2]	@ movhi
  85:main.c        ****     indexB++;
 134              		.loc 1 85 0
 135 0032 6378     		ldrb	r3, [r4, #1]	@ zero_extendqisi2
 136 0034 0133     		adds	r3, r3, #1
 137 0036 6370     		strb	r3, [r4, #1]
 138 0038 70BD     		pop	{r4, r5, r6, pc}
 139              	.L15:
 140 003a 00BF     		.align	2
 141              	.L14:
ARM GAS  C:\Users\Krist\AppData\Local\Temp\ccb1eda0.s 			page 5


 142 003c 00000000 		.word	.LANCHOR0
 143 0040 00000000 		.word	DataB
 144              		.cfi_endproc
 145              	.LFE65:
 146              		.size	ISR_B_Interrupt, .-ISR_B_Interrupt
 147              		.section	.text.calc_delta_time,"ax",%progbits
 148              		.align	1
 149              		.global	calc_delta_time
 150              		.thumb
 151              		.thumb_func
 152              		.type	calc_delta_time, %function
 153              	calc_delta_time:
 154              	.LFB66:
  86:main.c        ****     
  87:main.c        **** }
  88:main.c        **** 
  89:main.c        **** int32_t calc_delta_time() {
 155              		.loc 1 89 0
 156              		.cfi_startproc
 157              		@ args = 0, pretend = 0, frame = 0
 158              		@ frame_needed = 0, uses_anonymous_args = 0
 159              	.LVL10:
 160 0000 0023     		movs	r3, #0
  90:main.c        ****     uint8_t DataA_Pos = 0;
 161              		.loc 1 90 0
 162 0002 1946     		mov	r1, r3
  89:main.c        ****     uint8_t DataA_Pos = 0;
 163              		.loc 1 89 0
 164 0004 30B5     		push	{r4, r5, lr}
 165              		.cfi_def_cfa_offset 12
 166              		.cfi_offset 4, -12
 167              		.cfi_offset 5, -8
 168              		.cfi_offset 14, -4
 169              	.LBB5:
  91:main.c        ****     uint8_t DataB_Pos = 0;
  92:main.c        ****     
  93:main.c        ****     int16_t tmp_amp = 0;
  94:main.c        ****     
  95:main.c        ****     for (uint8_t i = 0; i < DATA_LENGTH; i++) {
  96:main.c        ****         if (DataA[i].value > tmp_amp) {
 170              		.loc 1 96 0
 171 0006 114C     		ldr	r4, .L23
 172              	.LVL11:
 173              	.L18:
 174 0008 04EB8300 		add	r0, r4, r3, lsl #2
 175 000c B0F90200 		ldrsh	r0, [r0, #2]
 176 0010 DAB2     		uxtb	r2, r3
 177              	.LVL12:
 178 0012 0133     		adds	r3, r3, #1
 179 0014 0028     		cmp	r0, #0
 180 0016 C8BF     		it	gt
 181 0018 1146     		movgt	r1, r2
 182              	.LVL13:
  95:main.c        ****         if (DataA[i].value > tmp_amp) {
 183              		.loc 1 95 0
 184 001a 642B     		cmp	r3, #100
 185 001c F4D1     		bne	.L18
ARM GAS  C:\Users\Krist\AppData\Local\Temp\ccb1eda0.s 			page 6


 186 001e 0023     		movs	r3, #0
 187 0020 1A46     		mov	r2, r3
 188              	.LBE5:
 189              	.LBB6:
  97:main.c        ****             DataA_Pos = i;
  98:main.c        ****         }
  99:main.c        ****     }
 100:main.c        ****     
 101:main.c        ****     tmp_amp = 0;
 102:main.c        ****     
 103:main.c        ****     for (uint8_t i = 0; i < DATA_LENGTH; i++) {
 104:main.c        ****         if (DataB[i].value > tmp_amp) {
 190              		.loc 1 104 0
 191 0022 0B4D     		ldr	r5, .L23+4
 192              	.LVL14:
 193              	.L20:
 194 0024 05EB8304 		add	r4, r5, r3, lsl #2
 195 0028 B4F90240 		ldrsh	r4, [r4, #2]
 196 002c D8B2     		uxtb	r0, r3
 197              	.LVL15:
 198 002e 0133     		adds	r3, r3, #1
 199 0030 002C     		cmp	r4, #0
 200 0032 C8BF     		it	gt
 201 0034 0246     		movgt	r2, r0
 202              	.LVL16:
 103:main.c        ****         if (DataB[i].value > tmp_amp) {
 203              		.loc 1 103 0
 204 0036 642B     		cmp	r3, #100
 205 0038 F4D1     		bne	.L20
 206              	.LBE6:
 105:main.c        ****             DataB_Pos = i;
 106:main.c        ****         }
 107:main.c        ****     }
 108:main.c        ****     
 109:main.c        ****     return DataA[DataA_Pos].time - DataB[DataB_Pos].time;
 207              		.loc 1 109 0
 208 003a 044B     		ldr	r3, .L23
 209 003c 33F82100 		ldrh	r0, [r3, r1, lsl #2]
 210 0040 034B     		ldr	r3, .L23+4
 211 0042 33F82230 		ldrh	r3, [r3, r2, lsl #2]
 110:main.c        **** }
 212              		.loc 1 110 0
 213 0046 C01A     		subs	r0, r0, r3
 214 0048 30BD     		pop	{r4, r5, pc}
 215              	.L24:
 216 004a 00BF     		.align	2
 217              	.L23:
 218 004c 00000000 		.word	DataA
 219 0050 00000000 		.word	DataB
 220              		.cfi_endproc
 221              	.LFE66:
 222              		.size	calc_delta_time, .-calc_delta_time
 223              		.global	__aeabi_i2f
 224              		.global	__aeabi_fmul
 225              		.global	__aeabi_f2iz
 226              		.section	.text.convert_time_to_angle,"ax",%progbits
 227              		.align	1
ARM GAS  C:\Users\Krist\AppData\Local\Temp\ccb1eda0.s 			page 7


 228              		.global	convert_time_to_angle
 229              		.thumb
 230              		.thumb_func
 231              		.type	convert_time_to_angle, %function
 232              	convert_time_to_angle:
 233              	.LFB67:
 111:main.c        **** 
 112:main.c        **** int8_t convert_time_to_angle(float time_to_angle_factor, 
 113:main.c        ****                                     int32_t time_delta) {
 234              		.loc 1 113 0
 235              		.cfi_startproc
 236              		@ args = 0, pretend = 0, frame = 0
 237              		@ frame_needed = 0, uses_anonymous_args = 0
 238              	.LVL17:
 239 0000 10B5     		push	{r4, lr}
 240              		.cfi_def_cfa_offset 8
 241              		.cfi_offset 4, -8
 242              		.cfi_offset 14, -4
 243              		.loc 1 113 0
 244 0002 0446     		mov	r4, r0
 114:main.c        ****     return (int8_t)(time_to_angle_factor * time_delta);
 245              		.loc 1 114 0
 246 0004 0846     		mov	r0, r1
 247              	.LVL18:
 248 0006 FFF7FEFF 		bl	__aeabi_i2f
 249              	.LVL19:
 250 000a 2146     		mov	r1, r4
 251 000c FFF7FEFF 		bl	__aeabi_fmul
 252              	.LVL20:
 253 0010 FFF7FEFF 		bl	__aeabi_f2iz
 254              	.LVL21:
 115:main.c        **** }
 255              		.loc 1 115 0
 256 0014 40B2     		sxtb	r0, r0
 257 0016 10BD     		pop	{r4, pc}
 258              		.cfi_endproc
 259              	.LFE67:
 260              		.size	convert_time_to_angle, .-convert_time_to_angle
 261              		.section	.text.startup.main,"ax",%progbits
 262              		.align	1
 263              		.global	main
 264              		.thumb
 265              		.thumb_func
 266              		.type	main, %function
 267              	main:
 268              	.LFB68:
 116:main.c        **** 
 117:main.c        **** int main(void)
 118:main.c        **** {    
 269              		.loc 1 118 0
 270              		.cfi_startproc
 271              		@ args = 0, pretend = 0, frame = 0
 272              		@ frame_needed = 0, uses_anonymous_args = 0
 273 0000 38B5     		push	{r3, r4, r5, lr}
 274              		.cfi_def_cfa_offset 16
 275              		.cfi_offset 3, -16
 276              		.cfi_offset 4, -12
ARM GAS  C:\Users\Krist\AppData\Local\Temp\ccb1eda0.s 			page 8


 277              		.cfi_offset 5, -8
 278              		.cfi_offset 14, -4
 119:main.c        ****     Mixer_PD_A_Start();
 279              		.loc 1 119 0
 280 0002 FFF7FEFF 		bl	Mixer_PD_A_Start
 281              	.LVL22:
 120:main.c        ****     Mixer_PD_A_Start();
 282              		.loc 1 120 0
 283 0006 FFF7FEFF 		bl	Mixer_PD_A_Start
 284              	.LVL23:
 121:main.c        ****     Comp_PD_A_Start();
 285              		.loc 1 121 0
 286 000a FFF7FEFF 		bl	Comp_PD_A_Start
 287              	.LVL24:
 122:main.c        ****     Comp_PD_B_Start();
 288              		.loc 1 122 0
 289 000e FFF7FEFF 		bl	Comp_PD_B_Start
 290              	.LVL25:
 123:main.c        ****     Mixer_A_Start();
 291              		.loc 1 123 0
 292 0012 FFF7FEFF 		bl	Mixer_A_Start
 293              	.LVL26:
 124:main.c        ****     Mixer_B_Start();
 294              		.loc 1 124 0
 295 0016 FFF7FEFF 		bl	Mixer_B_Start
 296              	.LVL27:
 125:main.c        ****     ADC_A_Start();
 297              		.loc 1 125 0
 298 001a FFF7FEFF 		bl	ADC_A_Start
 299              	.LVL28:
 126:main.c        ****     ADC_B_Start();
 300              		.loc 1 126 0
 301 001e FFF7FEFF 		bl	ADC_B_Start
 302              	.LVL29:
 127:main.c        ****     UART_1_Start();
 303              		.loc 1 127 0
 304 0022 FFF7FEFF 		bl	UART_1_Start
 305              	.LVL30:
 128:main.c        ****     sprintf(TransmitBufferUSB,"\n\n\n\n\rHello World\n\r");
 306              		.loc 1 128 0
 307 0026 2749     		ldr	r1, .L29
 308 0028 2748     		ldr	r0, .L29+4
 309 002a FFF7FEFF 		bl	strcpy
 310              	.LVL31:
 129:main.c        ****     UART_1_PutString(TransmitBufferUSB);
 311              		.loc 1 129 0
 312 002e 2648     		ldr	r0, .L29+4
 313 0030 FFF7FEFF 		bl	UART_1_PutString
 314              	.LVL32:
 130:main.c        ****     
 131:main.c        ****     ISR_PIN_A_StartEx(ISR_A_Interrupt);
 132:main.c        ****     ISR_PIN_B_StartEx(ISR_B_Interrupt);
 133:main.c        ****     
 134:main.c        ****     
 135:main.c        ****     sprintf(TransmitBufferUSB, "A:%d - B:%d\n\r",indexA, indexB);
 315              		.loc 1 135 0
 316 0034 254C     		ldr	r4, .L29+8
ARM GAS  C:\Users\Krist\AppData\Local\Temp\ccb1eda0.s 			page 9


 131:main.c        ****     ISR_PIN_B_StartEx(ISR_B_Interrupt);
 317              		.loc 1 131 0
 318 0036 2648     		ldr	r0, .L29+12
 319 0038 FFF7FEFF 		bl	ISR_PIN_A_StartEx
 320              	.LVL33:
 132:main.c        ****     
 321              		.loc 1 132 0
 322 003c 2548     		ldr	r0, .L29+16
 323 003e FFF7FEFF 		bl	ISR_PIN_B_StartEx
 324              	.LVL34:
 325              		.loc 1 135 0
 326 0042 6378     		ldrb	r3, [r4, #1]	@ zero_extendqisi2
 327 0044 2278     		ldrb	r2, [r4]	@ zero_extendqisi2
 328 0046 2449     		ldr	r1, .L29+20
 329 0048 1F48     		ldr	r0, .L29+4
 330 004a FFF7FEFF 		bl	sprintf
 331              	.LVL35:
 136:main.c        ****     UART_1_PutString(TransmitBufferUSB);
 332              		.loc 1 136 0
 333 004e 1E48     		ldr	r0, .L29+4
 334 0050 FFF7FEFF 		bl	UART_1_PutString
 335              	.LVL36:
 137:main.c        ****     CyGlobalIntEnable; /* Enable global interrupts. */
 336              		.loc 1 137 0
 337              		.syntax unified
 338              	@ 137 "main.c" 1
 339 0054 62B6     		CPSIE   i
 340              	@ 0 "" 2
 138:main.c        ****     sprintf(TransmitBufferUSB, "\n\n\n\rISR IS FIXED\n\r");
 341              		.loc 1 138 0
 342              		.thumb
 343              		.syntax unified
 344 0056 2149     		ldr	r1, .L29+24
 345 0058 1B48     		ldr	r0, .L29+4
 346 005a FFF7FEFF 		bl	strcpy
 347              	.LVL37:
 139:main.c        ****     UART_1_PutString(TransmitBufferUSB);
 348              		.loc 1 139 0
 349 005e 1A48     		ldr	r0, .L29+4
 350 0060 FFF7FEFF 		bl	UART_1_PutString
 351              	.LVL38:
 140:main.c        ****     
 141:main.c        ****     
 142:main.c        ****     /* Place your initialization/startup code here (e.g. MyInst_Start()) */
 143:main.c        **** 
 144:main.c        ****     const float time_to_angle_factor = 0.2058;
 145:main.c        ****     int8_t angle = 0;
 146:main.c        ****     sprintf(TransmitBufferUSB, "A:%d - B:%d\n",indexA, indexB);
 352              		.loc 1 146 0
 353 0064 6378     		ldrb	r3, [r4, #1]	@ zero_extendqisi2
 354 0066 2278     		ldrb	r2, [r4]	@ zero_extendqisi2
 355 0068 1D49     		ldr	r1, .L29+28
 356 006a 1748     		ldr	r0, .L29+4
 357 006c FFF7FEFF 		bl	sprintf
 358              	.LVL39:
 147:main.c        ****     UART_1_PutString(TransmitBufferUSB);
 359              		.loc 1 147 0
ARM GAS  C:\Users\Krist\AppData\Local\Temp\ccb1eda0.s 			page 10


 360 0070 1548     		ldr	r0, .L29+4
 361 0072 FFF7FEFF 		bl	UART_1_PutString
 362              	.LVL40:
 148:main.c        ****     
 149:main.c        ****     for(;;)
 150:main.c        ****     {
 151:main.c        ****         /* if DataA and DataB are full,
 152:main.c        ****          * then calculate the angle and reset indices
 153:main.c        ****          */
 154:main.c        ****         sprintf(TransmitBufferUSB, "A:%d - B:%d\n\r",indexA, indexB);
 363              		.loc 1 154 0
 364 0076 2546     		mov	r5, r4
 365              	.LVL41:
 366              	.L27:
 367 0078 6378     		ldrb	r3, [r4, #1]	@ zero_extendqisi2
 368 007a 2278     		ldrb	r2, [r4]	@ zero_extendqisi2
 369 007c 1649     		ldr	r1, .L29+20
 370 007e 1248     		ldr	r0, .L29+4
 371 0080 FFF7FEFF 		bl	sprintf
 372              	.LVL42:
 155:main.c        ****         UART_1_PutString(TransmitBufferUSB);
 373              		.loc 1 155 0
 374 0084 1048     		ldr	r0, .L29+4
 375 0086 FFF7FEFF 		bl	UART_1_PutString
 376              	.LVL43:
 156:main.c        ****         if (indexA > 100 && indexB > 100) {
 377              		.loc 1 156 0
 378 008a 2378     		ldrb	r3, [r4]	@ zero_extendqisi2
 379 008c 642B     		cmp	r3, #100
 380 008e F3D9     		bls	.L27
 381              		.loc 1 156 0 is_stmt 0 discriminator 1
 382 0090 6B78     		ldrb	r3, [r5, #1]	@ zero_extendqisi2
 383 0092 642B     		cmp	r3, #100
 384 0094 F0D9     		bls	.L27
 385              	.LBB7:
 157:main.c        ****             CyGlobalIntDisable;
 386              		.loc 1 157 0 is_stmt 1
 387              		.syntax unified
 388              	@ 157 "main.c" 1
 389 0096 72B6     		CPSID   i
 390              	@ 0 "" 2
 158:main.c        ****             int32_t time_delta = calc_delta_time();
 391              		.loc 1 158 0
 392              		.thumb
 393              		.syntax unified
 394 0098 FFF7FEFF 		bl	calc_delta_time
 395              	.LVL44:
 159:main.c        ****             angle = convert_time_to_angle(time_to_angle_factor, 
 160:main.c        ****                                           time_delta);
 161:main.c        ****             sprintf(TransmitBufferUSB, "%d\n", angle);
 396              		.loc 1 161 0
 397 009c FFF7FEFF 		bl	__aeabi_i2f
 398              	.LVL45:
 399 00a0 1049     		ldr	r1, .L29+32
 400 00a2 FFF7FEFF 		bl	__aeabi_fmul
 401              	.LVL46:
 402 00a6 FFF7FEFF 		bl	__aeabi_f2iz
ARM GAS  C:\Users\Krist\AppData\Local\Temp\ccb1eda0.s 			page 11


 403              	.LVL47:
 404 00aa 0F49     		ldr	r1, .L29+36
 405 00ac 42B2     		sxtb	r2, r0
 406 00ae 0648     		ldr	r0, .L29+4
 407 00b0 FFF7FEFF 		bl	sprintf
 408              	.LVL48:
 162:main.c        ****             UART_1_PutString(TransmitBufferUSB);
 409              		.loc 1 162 0
 410 00b4 0448     		ldr	r0, .L29+4
 411 00b6 FFF7FEFF 		bl	UART_1_PutString
 412              	.LVL49:
 163:main.c        ****             
 164:main.c        ****             indexA = indexB = 0;
 413              		.loc 1 164 0
 414 00ba 0023     		movs	r3, #0
 415 00bc 6B70     		strb	r3, [r5, #1]
 416 00be 2B70     		strb	r3, [r5]
 165:main.c        ****             CyGlobalIntEnable;
 417              		.loc 1 165 0
 418              		.syntax unified
 419              	@ 165 "main.c" 1
 420 00c0 62B6     		CPSIE   i
 421              	@ 0 "" 2
 422              		.thumb
 423              		.syntax unified
 424 00c2 D9E7     		b	.L27
 425              	.L30:
 426              		.align	2
 427              	.L29:
 428 00c4 00000000 		.word	.LC0
 429 00c8 00000000 		.word	TransmitBufferUSB
 430 00cc 00000000 		.word	.LANCHOR0
 431 00d0 00000000 		.word	ISR_A_Interrupt
 432 00d4 00000000 		.word	ISR_B_Interrupt
 433 00d8 13000000 		.word	.LC1
 434 00dc 21000000 		.word	.LC2
 435 00e0 34000000 		.word	.LC3
 436 00e4 3CBD523E 		.word	1045609788
 437 00e8 41000000 		.word	.LC4
 438              	.LBE7:
 439              		.cfi_endproc
 440              	.LFE68:
 441              		.size	main, .-main
 442              		.global	indexB
 443              		.global	indexA
 444              		.comm	DataB,400,2
 445              		.comm	DataA,400,2
 446              		.comm	TransmitBufferUSB,16,1
 447              		.section	.rodata.str1.1,"aMS",%progbits,1
 448              	.LC0:
 449 0000 0A0A0A0A 		.ascii	"\012\012\012\012\015Hello World\012\015\000"
 449      0D48656C 
 449      6C6F2057 
 449      6F726C64 
 449      0A0D00
 450              	.LC1:
 451 0013 413A2564 		.ascii	"A:%d - B:%d\012\015\000"
ARM GAS  C:\Users\Krist\AppData\Local\Temp\ccb1eda0.s 			page 12


 451      202D2042 
 451      3A25640A 
 451      0D00
 452              	.LC2:
 453 0021 0A0A0A0D 		.ascii	"\012\012\012\015ISR IS FIXED\012\015\000"
 453      49535220 
 453      49532046 
 453      49584544 
 453      0A0D00
 454              	.LC3:
 455 0034 413A2564 		.ascii	"A:%d - B:%d\012\000"
 455      202D2042 
 455      3A25640A 
 455      00
 456              	.LC4:
 457 0041 25640A00 		.ascii	"%d\012\000"
 458              		.bss
 459              		.set	.LANCHOR0,. + 0
 460              		.type	indexA, %object
 461              		.size	indexA, 1
 462              	indexA:
 463 0000 00       		.space	1
 464              		.type	indexB, %object
 465              		.size	indexB, 1
 466              	indexB:
 467 0001 00       		.space	1
 468              		.text
 469              	.Letext0:
 470              		.file 2 "c:\\program files (x86)\\cypress\\psoc creator\\4.1\\psoc creator\\import\\gnu\\arm\\5.4.
 471              		.file 3 "c:\\program files (x86)\\cypress\\psoc creator\\4.1\\psoc creator\\import\\gnu\\arm\\5.4.
 472              		.file 4 "Generated_Source\\PSoC5/cytypes.h"
 473              		.file 5 "Generated_Source\\PSoC5/core_cm3.h"
 474              		.file 6 "Generated_Source\\PSoC5/Counter.h"
 475              		.file 7 "Generated_Source\\PSoC5/ADC_A.h"
 476              		.file 8 "Generated_Source\\PSoC5/ADC_B.h"
 477              		.file 9 "c:\\program files (x86)\\cypress\\psoc creator\\4.1\\psoc creator\\import\\gnu\\arm\\5.4.
 478              		.file 10 "Generated_Source\\PSoC5/UART_1.h"
 479              		.file 11 "Generated_Source\\PSoC5/Mixer_PD_A.h"
 480              		.file 12 "Generated_Source\\PSoC5/Comp_PD_A.h"
 481              		.file 13 "Generated_Source\\PSoC5/Comp_PD_B.h"
 482              		.file 14 "Generated_Source\\PSoC5/Mixer_A.h"
 483              		.file 15 "Generated_Source\\PSoC5/Mixer_B.h"
 484              		.file 16 "Generated_Source\\PSoC5/ISR_PIN_A.h"
 485              		.file 17 "Generated_Source\\PSoC5/ISR_PIN_B.h"
 486              		.file 18 "<built-in>"