ARM GAS  C:\Users\Krist\AppData\Local\Temp\cc3mI0pN.s 			page 1


   1              		.syntax unified
   2              		.cpu cortex-m3
   3              		.fpu softvfp
   4              		.eabi_attribute 20, 1
   5              		.eabi_attribute 21, 1
   6              		.eabi_attribute 23, 3
   7              		.eabi_attribute 24, 1
   8              		.eabi_attribute 25, 1
   9              		.eabi_attribute 26, 1
  10              		.eabi_attribute 30, 4
  11              		.eabi_attribute 34, 1
  12              		.eabi_attribute 18, 4
  13              		.thumb
  14              		.syntax unified
  15              		.file	"Mixer_PD_B_PM.c"
  16              		.text
  17              	.Ltext0:
  18              		.cfi_sections	.debug_frame
  19              		.section	.text.Mixer_PD_B_SaveConfig,"ax",%progbits
  20              		.align	1
  21              		.global	Mixer_PD_B_SaveConfig
  22              		.thumb
  23              		.thumb_func
  24              		.type	Mixer_PD_B_SaveConfig, %function
  25              	Mixer_PD_B_SaveConfig:
  26              	.LFB5:
  27              		.cfi_startproc
  28              		@ args = 0, pretend = 0, frame = 0
  29              		@ frame_needed = 0, uses_anonymous_args = 0
  30              		@ link register save eliminated.
  31 0000 7047     		bx	lr
  32              		.cfi_endproc
  33              	.LFE5:
  34              		.size	Mixer_PD_B_SaveConfig, .-Mixer_PD_B_SaveConfig
  35              		.section	.text.Mixer_PD_B_RestoreConfig,"ax",%progbits
  36              		.align	1
  37              		.global	Mixer_PD_B_RestoreConfig
  38              		.thumb
  39              		.thumb_func
  40              		.type	Mixer_PD_B_RestoreConfig, %function
  41              	Mixer_PD_B_RestoreConfig:
  42              	.LFB1:
  43              		.file 1 "Generated_Source\\PSoC5\\Mixer_PD_B_PM.c"
   1:Generated_Source\PSoC5/Mixer_PD_B_PM.c **** /*******************************************************************************
   2:Generated_Source\PSoC5/Mixer_PD_B_PM.c **** * File Name: Mixer_PD_B_PM.c  
   3:Generated_Source\PSoC5/Mixer_PD_B_PM.c **** * Version 2.0
   4:Generated_Source\PSoC5/Mixer_PD_B_PM.c **** *
   5:Generated_Source\PSoC5/Mixer_PD_B_PM.c **** * Description:
   6:Generated_Source\PSoC5/Mixer_PD_B_PM.c **** *  This file provides the power manager source code to the API for 
   7:Generated_Source\PSoC5/Mixer_PD_B_PM.c **** *  the MIXER component.
   8:Generated_Source\PSoC5/Mixer_PD_B_PM.c **** *
   9:Generated_Source\PSoC5/Mixer_PD_B_PM.c **** * Note:
  10:Generated_Source\PSoC5/Mixer_PD_B_PM.c **** *
  11:Generated_Source\PSoC5/Mixer_PD_B_PM.c **** *******************************************************************************
  12:Generated_Source\PSoC5/Mixer_PD_B_PM.c **** * Copyright 2008-2012, Cypress Semiconductor Corporation.  All rights reserved.
  13:Generated_Source\PSoC5/Mixer_PD_B_PM.c **** * You may use this file only in accordance with the license, terms, conditions, 
  14:Generated_Source\PSoC5/Mixer_PD_B_PM.c **** * disclaimers, and limitations in the end user license agreement accompanying 
ARM GAS  C:\Users\Krist\AppData\Local\Temp\cc3mI0pN.s 			page 2


  15:Generated_Source\PSoC5/Mixer_PD_B_PM.c **** * the software package with which this file was provided.
  16:Generated_Source\PSoC5/Mixer_PD_B_PM.c **** *******************************************************************************/
  17:Generated_Source\PSoC5/Mixer_PD_B_PM.c **** 
  18:Generated_Source\PSoC5/Mixer_PD_B_PM.c **** #include "Mixer_PD_B.h"
  19:Generated_Source\PSoC5/Mixer_PD_B_PM.c **** 
  20:Generated_Source\PSoC5/Mixer_PD_B_PM.c **** static Mixer_PD_B_backupStruct  Mixer_PD_B_backup;
  21:Generated_Source\PSoC5/Mixer_PD_B_PM.c **** 
  22:Generated_Source\PSoC5/Mixer_PD_B_PM.c **** 
  23:Generated_Source\PSoC5/Mixer_PD_B_PM.c **** /*******************************************************************************
  24:Generated_Source\PSoC5/Mixer_PD_B_PM.c **** * Function Name: Mixer_PD_B_SaveConfig
  25:Generated_Source\PSoC5/Mixer_PD_B_PM.c **** ********************************************************************************
  26:Generated_Source\PSoC5/Mixer_PD_B_PM.c **** *
  27:Generated_Source\PSoC5/Mixer_PD_B_PM.c **** * Summary:
  28:Generated_Source\PSoC5/Mixer_PD_B_PM.c **** *  Saves the current user configuration.
  29:Generated_Source\PSoC5/Mixer_PD_B_PM.c **** *  
  30:Generated_Source\PSoC5/Mixer_PD_B_PM.c **** * Parameters:  
  31:Generated_Source\PSoC5/Mixer_PD_B_PM.c **** *  void.
  32:Generated_Source\PSoC5/Mixer_PD_B_PM.c **** *
  33:Generated_Source\PSoC5/Mixer_PD_B_PM.c **** * Return: 
  34:Generated_Source\PSoC5/Mixer_PD_B_PM.c **** *  void.
  35:Generated_Source\PSoC5/Mixer_PD_B_PM.c **** *
  36:Generated_Source\PSoC5/Mixer_PD_B_PM.c **** *******************************************************************************/
  37:Generated_Source\PSoC5/Mixer_PD_B_PM.c **** void Mixer_PD_B_SaveConfig(void) 
  38:Generated_Source\PSoC5/Mixer_PD_B_PM.c **** {
  39:Generated_Source\PSoC5/Mixer_PD_B_PM.c ****     /* Nothing to save before entering into sleep mode as all the registers used 
  40:Generated_Source\PSoC5/Mixer_PD_B_PM.c ****        here are retension registers. */
  41:Generated_Source\PSoC5/Mixer_PD_B_PM.c **** }
  42:Generated_Source\PSoC5/Mixer_PD_B_PM.c **** 
  43:Generated_Source\PSoC5/Mixer_PD_B_PM.c **** 
  44:Generated_Source\PSoC5/Mixer_PD_B_PM.c **** /*******************************************************************************
  45:Generated_Source\PSoC5/Mixer_PD_B_PM.c **** * Function Name: Mixer_PD_B_RestoreConfig
  46:Generated_Source\PSoC5/Mixer_PD_B_PM.c **** ********************************************************************************
  47:Generated_Source\PSoC5/Mixer_PD_B_PM.c **** *
  48:Generated_Source\PSoC5/Mixer_PD_B_PM.c **** * Summary:
  49:Generated_Source\PSoC5/Mixer_PD_B_PM.c **** *  Restores the current user configuration.
  50:Generated_Source\PSoC5/Mixer_PD_B_PM.c **** *
  51:Generated_Source\PSoC5/Mixer_PD_B_PM.c **** * Parameters:  
  52:Generated_Source\PSoC5/Mixer_PD_B_PM.c **** *  void.
  53:Generated_Source\PSoC5/Mixer_PD_B_PM.c **** *
  54:Generated_Source\PSoC5/Mixer_PD_B_PM.c **** * Return: 
  55:Generated_Source\PSoC5/Mixer_PD_B_PM.c **** *  void
  56:Generated_Source\PSoC5/Mixer_PD_B_PM.c **** *
  57:Generated_Source\PSoC5/Mixer_PD_B_PM.c **** *******************************************************************************/
  58:Generated_Source\PSoC5/Mixer_PD_B_PM.c **** void Mixer_PD_B_RestoreConfig(void) 
  59:Generated_Source\PSoC5/Mixer_PD_B_PM.c **** {
  44              		.loc 1 59 0
  45              		.cfi_startproc
  46              		@ args = 0, pretend = 0, frame = 0
  47              		@ frame_needed = 0, uses_anonymous_args = 0
  48              		@ link register save eliminated.
  49 0000 7047     		bx	lr
  50              		.cfi_endproc
  51              	.LFE1:
  52              		.size	Mixer_PD_B_RestoreConfig, .-Mixer_PD_B_RestoreConfig
  53              		.section	.text.Mixer_PD_B_Sleep,"ax",%progbits
  54              		.align	1
  55              		.global	Mixer_PD_B_Sleep
ARM GAS  C:\Users\Krist\AppData\Local\Temp\cc3mI0pN.s 			page 3


  56              		.thumb
  57              		.thumb_func
  58              		.type	Mixer_PD_B_Sleep, %function
  59              	Mixer_PD_B_Sleep:
  60              	.LFB2:
  60:Generated_Source\PSoC5/Mixer_PD_B_PM.c ****     /* Nothing to restore */
  61:Generated_Source\PSoC5/Mixer_PD_B_PM.c **** }
  62:Generated_Source\PSoC5/Mixer_PD_B_PM.c **** 
  63:Generated_Source\PSoC5/Mixer_PD_B_PM.c **** 
  64:Generated_Source\PSoC5/Mixer_PD_B_PM.c **** /*******************************************************************************
  65:Generated_Source\PSoC5/Mixer_PD_B_PM.c **** * Function Name: Mixer_PD_B_Sleep
  66:Generated_Source\PSoC5/Mixer_PD_B_PM.c **** ********************************************************************************
  67:Generated_Source\PSoC5/Mixer_PD_B_PM.c **** *
  68:Generated_Source\PSoC5/Mixer_PD_B_PM.c **** * Summary:
  69:Generated_Source\PSoC5/Mixer_PD_B_PM.c **** *  Disables block's operation and saves its configuration. Should be called 
  70:Generated_Source\PSoC5/Mixer_PD_B_PM.c **** *  just prior to entering sleep.
  71:Generated_Source\PSoC5/Mixer_PD_B_PM.c **** *  
  72:Generated_Source\PSoC5/Mixer_PD_B_PM.c **** * Parameters:  
  73:Generated_Source\PSoC5/Mixer_PD_B_PM.c **** *  None
  74:Generated_Source\PSoC5/Mixer_PD_B_PM.c **** *
  75:Generated_Source\PSoC5/Mixer_PD_B_PM.c **** * Return: 
  76:Generated_Source\PSoC5/Mixer_PD_B_PM.c **** *  None
  77:Generated_Source\PSoC5/Mixer_PD_B_PM.c **** *
  78:Generated_Source\PSoC5/Mixer_PD_B_PM.c **** * Global variables:
  79:Generated_Source\PSoC5/Mixer_PD_B_PM.c **** *  Mixer_PD_B_backup:  The structure field 'enableState' is modified 
  80:Generated_Source\PSoC5/Mixer_PD_B_PM.c **** *  depending on the enable state of the block before entering to sleep mode.
  81:Generated_Source\PSoC5/Mixer_PD_B_PM.c **** *
  82:Generated_Source\PSoC5/Mixer_PD_B_PM.c **** *******************************************************************************/
  83:Generated_Source\PSoC5/Mixer_PD_B_PM.c **** void Mixer_PD_B_Sleep(void) 
  84:Generated_Source\PSoC5/Mixer_PD_B_PM.c **** {
  61              		.loc 1 84 0
  62              		.cfi_startproc
  63              		@ args = 0, pretend = 0, frame = 0
  64              		@ frame_needed = 0, uses_anonymous_args = 0
  65              		@ link register save eliminated.
  85:Generated_Source\PSoC5/Mixer_PD_B_PM.c ****     /* Save Mixer enable state */
  86:Generated_Source\PSoC5/Mixer_PD_B_PM.c ****     if((Mixer_PD_B_PM_ACT_CFG_REG & Mixer_PD_B_ACT_PWR_EN) != 0u)
  66              		.loc 1 86 0
  67 0000 064B     		ldr	r3, .L6
  68 0002 074A     		ldr	r2, .L6+4
  69 0004 1B78     		ldrb	r3, [r3]	@ zero_extendqisi2
  70 0006 03F00203 		and	r3, r3, #2
  71 000a 03F0FF01 		and	r1, r3, #255
  72 000e 1BB1     		cbz	r3, .L4
  87:Generated_Source\PSoC5/Mixer_PD_B_PM.c ****     {
  88:Generated_Source\PSoC5/Mixer_PD_B_PM.c ****         /* Component is enabled */
  89:Generated_Source\PSoC5/Mixer_PD_B_PM.c ****         Mixer_PD_B_backup.enableState = 1u;
  73              		.loc 1 89 0
  74 0010 0123     		movs	r3, #1
  75 0012 1370     		strb	r3, [r2]
  90:Generated_Source\PSoC5/Mixer_PD_B_PM.c ****         /* Stop the configuration */
  91:Generated_Source\PSoC5/Mixer_PD_B_PM.c ****         Mixer_PD_B_Stop();
  76              		.loc 1 91 0
  77 0014 FFF7FEBF 		b	Mixer_PD_B_Stop
  78              	.LVL0:
  79              	.L4:
  92:Generated_Source\PSoC5/Mixer_PD_B_PM.c ****     }
ARM GAS  C:\Users\Krist\AppData\Local\Temp\cc3mI0pN.s 			page 4


  93:Generated_Source\PSoC5/Mixer_PD_B_PM.c ****     else
  94:Generated_Source\PSoC5/Mixer_PD_B_PM.c ****     {
  95:Generated_Source\PSoC5/Mixer_PD_B_PM.c ****         /* Component is disabled */
  96:Generated_Source\PSoC5/Mixer_PD_B_PM.c ****         Mixer_PD_B_backup.enableState = 0u;
  80              		.loc 1 96 0
  81 0018 1170     		strb	r1, [r2]
  82 001a 7047     		bx	lr
  83              	.L7:
  84              		.align	2
  85              	.L6:
  86 001c A9430040 		.word	1073759145
  87 0020 00000000 		.word	.LANCHOR0
  88              		.cfi_endproc
  89              	.LFE2:
  90              		.size	Mixer_PD_B_Sleep, .-Mixer_PD_B_Sleep
  91              		.section	.text.Mixer_PD_B_Wakeup,"ax",%progbits
  92              		.align	1
  93              		.global	Mixer_PD_B_Wakeup
  94              		.thumb
  95              		.thumb_func
  96              		.type	Mixer_PD_B_Wakeup, %function
  97              	Mixer_PD_B_Wakeup:
  98              	.LFB3:
  97:Generated_Source\PSoC5/Mixer_PD_B_PM.c ****     }
  98:Generated_Source\PSoC5/Mixer_PD_B_PM.c ****     /* Saves the user configuration */
  99:Generated_Source\PSoC5/Mixer_PD_B_PM.c ****     Mixer_PD_B_SaveConfig();
 100:Generated_Source\PSoC5/Mixer_PD_B_PM.c **** }
 101:Generated_Source\PSoC5/Mixer_PD_B_PM.c **** 
 102:Generated_Source\PSoC5/Mixer_PD_B_PM.c **** 
 103:Generated_Source\PSoC5/Mixer_PD_B_PM.c **** /*******************************************************************************
 104:Generated_Source\PSoC5/Mixer_PD_B_PM.c **** * Function Name: Mixer_PD_B_Wakeup
 105:Generated_Source\PSoC5/Mixer_PD_B_PM.c **** ********************************************************************************
 106:Generated_Source\PSoC5/Mixer_PD_B_PM.c **** *
 107:Generated_Source\PSoC5/Mixer_PD_B_PM.c **** * Summary:
 108:Generated_Source\PSoC5/Mixer_PD_B_PM.c **** *  Enables block's operation and restores its configuration. Should be called
 109:Generated_Source\PSoC5/Mixer_PD_B_PM.c **** *  just after awaking from sleep.
 110:Generated_Source\PSoC5/Mixer_PD_B_PM.c **** *  
 111:Generated_Source\PSoC5/Mixer_PD_B_PM.c **** * Parameters:  
 112:Generated_Source\PSoC5/Mixer_PD_B_PM.c **** *  None
 113:Generated_Source\PSoC5/Mixer_PD_B_PM.c **** *
 114:Generated_Source\PSoC5/Mixer_PD_B_PM.c **** * Return: 
 115:Generated_Source\PSoC5/Mixer_PD_B_PM.c **** *  void
 116:Generated_Source\PSoC5/Mixer_PD_B_PM.c **** *
 117:Generated_Source\PSoC5/Mixer_PD_B_PM.c **** * Global variables:
 118:Generated_Source\PSoC5/Mixer_PD_B_PM.c **** *  Mixer_PD_B_backup:  The structure field 'enableState' is used to 
 119:Generated_Source\PSoC5/Mixer_PD_B_PM.c **** *  restore the enable state of block after wakeup from sleep mode.
 120:Generated_Source\PSoC5/Mixer_PD_B_PM.c **** *
 121:Generated_Source\PSoC5/Mixer_PD_B_PM.c **** *******************************************************************************/
 122:Generated_Source\PSoC5/Mixer_PD_B_PM.c **** void Mixer_PD_B_Wakeup(void) 
 123:Generated_Source\PSoC5/Mixer_PD_B_PM.c **** {
  99              		.loc 1 123 0
 100              		.cfi_startproc
 101              		@ args = 0, pretend = 0, frame = 0
 102              		@ frame_needed = 0, uses_anonymous_args = 0
 103              		@ link register save eliminated.
 124:Generated_Source\PSoC5/Mixer_PD_B_PM.c ****     /* Restore the user configuration */
 125:Generated_Source\PSoC5/Mixer_PD_B_PM.c ****     Mixer_PD_B_RestoreConfig();
ARM GAS  C:\Users\Krist\AppData\Local\Temp\cc3mI0pN.s 			page 5


 126:Generated_Source\PSoC5/Mixer_PD_B_PM.c ****     
 127:Generated_Source\PSoC5/Mixer_PD_B_PM.c ****     /* Enable's the component operation */
 128:Generated_Source\PSoC5/Mixer_PD_B_PM.c ****     if(Mixer_PD_B_backup.enableState == 1u)
 104              		.loc 1 128 0
 105 0000 034B     		ldr	r3, .L10
 106 0002 1B78     		ldrb	r3, [r3]	@ zero_extendqisi2
 107 0004 012B     		cmp	r3, #1
 108 0006 01D1     		bne	.L8
 129:Generated_Source\PSoC5/Mixer_PD_B_PM.c ****     {
 130:Generated_Source\PSoC5/Mixer_PD_B_PM.c ****         Mixer_PD_B_Enable();
 109              		.loc 1 130 0
 110 0008 FFF7FEBF 		b	Mixer_PD_B_Enable
 111              	.LVL1:
 112              	.L8:
 113 000c 7047     		bx	lr
 114              	.L11:
 115 000e 00BF     		.align	2
 116              	.L10:
 117 0010 00000000 		.word	.LANCHOR0
 118              		.cfi_endproc
 119              	.LFE3:
 120              		.size	Mixer_PD_B_Wakeup, .-Mixer_PD_B_Wakeup
 121              		.bss
 122              		.set	.LANCHOR0,. + 0
 123              		.type	Mixer_PD_B_backup, %object
 124              		.size	Mixer_PD_B_backup, 4
 125              	Mixer_PD_B_backup:
 126 0000 00000000 		.space	4
 127              		.text
 128              	.Letext0:
 129              		.file 2 "Generated_Source\\PSoC5\\cytypes.h"
 130              		.file 3 "Generated_Source\\PSoC5\\Mixer_PD_B.h"