ARM GAS  C:\Users\Krist\AppData\Local\Temp\cc0b5sx5.s 			page 1


   1              		.syntax unified
   2              		.cpu cortex-m3
   3              		.fpu softvfp
   4              		.eabi_attribute 20, 1
   5              		.eabi_attribute 21, 1
   6              		.eabi_attribute 23, 3
   7              		.eabi_attribute 24, 1
   8              		.eabi_attribute 25, 1
   9              		.eabi_attribute 26, 1
  10              		.eabi_attribute 30, 4
  11              		.eabi_attribute 34, 1
  12              		.eabi_attribute 18, 4
  13              		.thumb
  14              		.syntax unified
  15              		.file	"VDAC_PM.c"
  16              		.text
  17              	.Ltext0:
  18              		.cfi_sections	.debug_frame
  19              		.section	.text.VDAC_SaveConfig,"ax",%progbits
  20              		.align	1
  21              		.global	VDAC_SaveConfig
  22              		.thumb
  23              		.thumb_func
  24              		.type	VDAC_SaveConfig, %function
  25              	VDAC_SaveConfig:
  26              	.LFB0:
  27              		.file 1 "Generated_Source\\PSoC5\\VDAC_PM.c"
   1:Generated_Source\PSoC5/VDAC_PM.c **** /*******************************************************************************
   2:Generated_Source\PSoC5/VDAC_PM.c **** * File Name: VDAC_PM.c  
   3:Generated_Source\PSoC5/VDAC_PM.c **** * Version 1.90
   4:Generated_Source\PSoC5/VDAC_PM.c **** *
   5:Generated_Source\PSoC5/VDAC_PM.c **** * Description:
   6:Generated_Source\PSoC5/VDAC_PM.c **** *  This file provides the power management source code to API for the
   7:Generated_Source\PSoC5/VDAC_PM.c **** *  VDAC8.  
   8:Generated_Source\PSoC5/VDAC_PM.c **** *
   9:Generated_Source\PSoC5/VDAC_PM.c **** * Note:
  10:Generated_Source\PSoC5/VDAC_PM.c **** *  None
  11:Generated_Source\PSoC5/VDAC_PM.c **** *
  12:Generated_Source\PSoC5/VDAC_PM.c **** ********************************************************************************
  13:Generated_Source\PSoC5/VDAC_PM.c **** * Copyright 2008-2012, Cypress Semiconductor Corporation.  All rights reserved.
  14:Generated_Source\PSoC5/VDAC_PM.c **** * You may use this file only in accordance with the license, terms, conditions, 
  15:Generated_Source\PSoC5/VDAC_PM.c **** * disclaimers, and limitations in the end user license agreement accompanying 
  16:Generated_Source\PSoC5/VDAC_PM.c **** * the software package with which this file was provided.
  17:Generated_Source\PSoC5/VDAC_PM.c **** *******************************************************************************/
  18:Generated_Source\PSoC5/VDAC_PM.c **** 
  19:Generated_Source\PSoC5/VDAC_PM.c **** #include "VDAC.h"
  20:Generated_Source\PSoC5/VDAC_PM.c **** 
  21:Generated_Source\PSoC5/VDAC_PM.c **** static VDAC_backupStruct VDAC_backup;
  22:Generated_Source\PSoC5/VDAC_PM.c **** 
  23:Generated_Source\PSoC5/VDAC_PM.c **** 
  24:Generated_Source\PSoC5/VDAC_PM.c **** /*******************************************************************************
  25:Generated_Source\PSoC5/VDAC_PM.c **** * Function Name: VDAC_SaveConfig
  26:Generated_Source\PSoC5/VDAC_PM.c **** ********************************************************************************
  27:Generated_Source\PSoC5/VDAC_PM.c **** * Summary:
  28:Generated_Source\PSoC5/VDAC_PM.c **** *  Save the current user configuration
  29:Generated_Source\PSoC5/VDAC_PM.c **** *
  30:Generated_Source\PSoC5/VDAC_PM.c **** * Parameters:  
ARM GAS  C:\Users\Krist\AppData\Local\Temp\cc0b5sx5.s 			page 2


  31:Generated_Source\PSoC5/VDAC_PM.c **** *  void  
  32:Generated_Source\PSoC5/VDAC_PM.c **** *
  33:Generated_Source\PSoC5/VDAC_PM.c **** * Return: 
  34:Generated_Source\PSoC5/VDAC_PM.c **** *  void
  35:Generated_Source\PSoC5/VDAC_PM.c **** *
  36:Generated_Source\PSoC5/VDAC_PM.c **** *******************************************************************************/
  37:Generated_Source\PSoC5/VDAC_PM.c **** void VDAC_SaveConfig(void) 
  38:Generated_Source\PSoC5/VDAC_PM.c **** {
  28              		.loc 1 38 0
  29              		.cfi_startproc
  30              		@ args = 0, pretend = 0, frame = 0
  31              		@ frame_needed = 0, uses_anonymous_args = 0
  32              		@ link register save eliminated.
  39:Generated_Source\PSoC5/VDAC_PM.c ****     if (!((VDAC_CR1 & VDAC_SRC_MASK) == VDAC_SRC_UDB))
  33              		.loc 1 39 0
  34 0000 044B     		ldr	r3, .L3
  35 0002 1B78     		ldrb	r3, [r3]	@ zero_extendqisi2
  36 0004 9B06     		lsls	r3, r3, #26
  40:Generated_Source\PSoC5/VDAC_PM.c ****     {
  41:Generated_Source\PSoC5/VDAC_PM.c ****         VDAC_backup.data_value = VDAC_Data;
  37              		.loc 1 41 0
  38 0006 5FBF     		itttt	pl
  39 0008 034B     		ldrpl	r3, .L3+4
  40 000a 1A78     		ldrbpl	r2, [r3]	@ zero_extendqisi2
  41 000c 034B     		ldrpl	r3, .L3+8
  42 000e 5A70     		strbpl	r2, [r3, #1]
  43 0010 7047     		bx	lr
  44              	.L4:
  45 0012 00BF     		.align	2
  46              	.L3:
  47 0014 21580040 		.word	1073764385
  48 0018 805B0040 		.word	1073765248
  49 001c 00000000 		.word	.LANCHOR0
  50              		.cfi_endproc
  51              	.LFE0:
  52              		.size	VDAC_SaveConfig, .-VDAC_SaveConfig
  53              		.section	.text.VDAC_RestoreConfig,"ax",%progbits
  54              		.align	1
  55              		.global	VDAC_RestoreConfig
  56              		.thumb
  57              		.thumb_func
  58              		.type	VDAC_RestoreConfig, %function
  59              	VDAC_RestoreConfig:
  60              	.LFB1:
  42:Generated_Source\PSoC5/VDAC_PM.c ****     }
  43:Generated_Source\PSoC5/VDAC_PM.c **** }
  44:Generated_Source\PSoC5/VDAC_PM.c **** 
  45:Generated_Source\PSoC5/VDAC_PM.c **** 
  46:Generated_Source\PSoC5/VDAC_PM.c **** /*******************************************************************************
  47:Generated_Source\PSoC5/VDAC_PM.c **** * Function Name: VDAC_RestoreConfig
  48:Generated_Source\PSoC5/VDAC_PM.c **** ********************************************************************************
  49:Generated_Source\PSoC5/VDAC_PM.c **** *
  50:Generated_Source\PSoC5/VDAC_PM.c **** * Summary:
  51:Generated_Source\PSoC5/VDAC_PM.c **** *  Restores the current user configuration.
  52:Generated_Source\PSoC5/VDAC_PM.c **** *
  53:Generated_Source\PSoC5/VDAC_PM.c **** * Parameters:  
  54:Generated_Source\PSoC5/VDAC_PM.c **** *  void
ARM GAS  C:\Users\Krist\AppData\Local\Temp\cc0b5sx5.s 			page 3


  55:Generated_Source\PSoC5/VDAC_PM.c **** *
  56:Generated_Source\PSoC5/VDAC_PM.c **** * Return: 
  57:Generated_Source\PSoC5/VDAC_PM.c **** *  void
  58:Generated_Source\PSoC5/VDAC_PM.c **** *
  59:Generated_Source\PSoC5/VDAC_PM.c **** *******************************************************************************/
  60:Generated_Source\PSoC5/VDAC_PM.c **** void VDAC_RestoreConfig(void) 
  61:Generated_Source\PSoC5/VDAC_PM.c **** {
  61              		.loc 1 61 0
  62              		.cfi_startproc
  63              		@ args = 0, pretend = 0, frame = 0
  64              		@ frame_needed = 0, uses_anonymous_args = 0
  65              		@ link register save eliminated.
  62:Generated_Source\PSoC5/VDAC_PM.c ****     if (!((VDAC_CR1 & VDAC_SRC_MASK) == VDAC_SRC_UDB))
  66              		.loc 1 62 0
  67 0000 0C4B     		ldr	r3, .L9
  68 0002 1B78     		ldrb	r3, [r3]	@ zero_extendqisi2
  69 0004 9B06     		lsls	r3, r3, #26
  70 0006 13D4     		bmi	.L5
  63:Generated_Source\PSoC5/VDAC_PM.c ****     {
  64:Generated_Source\PSoC5/VDAC_PM.c ****         if((VDAC_Strobe & VDAC_STRB_MASK) == VDAC_STRB_EN)
  71              		.loc 1 64 0
  72 0008 0B4B     		ldr	r3, .L9+4
  73 000a 0C48     		ldr	r0, .L9+8
  74 000c 1A78     		ldrb	r2, [r3]	@ zero_extendqisi2
  75 000e 0C49     		ldr	r1, .L9+12
  76 0010 12F0080F 		tst	r2, #8
  77 0014 0AD0     		beq	.L7
  78              	.LBB4:
  79              	.LBB5:
  65:Generated_Source\PSoC5/VDAC_PM.c ****         {
  66:Generated_Source\PSoC5/VDAC_PM.c ****             VDAC_Strobe &= (uint8)(~VDAC_STRB_MASK);
  80              		.loc 1 66 0
  81 0016 1A78     		ldrb	r2, [r3]	@ zero_extendqisi2
  82 0018 02F0F702 		and	r2, r2, #247
  83 001c 1A70     		strb	r2, [r3]
  67:Generated_Source\PSoC5/VDAC_PM.c ****             VDAC_Data = VDAC_backup.data_value;
  84              		.loc 1 67 0
  85 001e 4278     		ldrb	r2, [r0, #1]	@ zero_extendqisi2
  86 0020 0A70     		strb	r2, [r1]
  68:Generated_Source\PSoC5/VDAC_PM.c ****             VDAC_Strobe |= VDAC_STRB_EN;
  87              		.loc 1 68 0
  88 0022 1A78     		ldrb	r2, [r3]	@ zero_extendqisi2
  89 0024 42F00802 		orr	r2, r2, #8
  90 0028 1A70     		strb	r2, [r3]
  91 002a 7047     		bx	lr
  92              	.L7:
  93              	.LBE5:
  94              	.LBE4:
  69:Generated_Source\PSoC5/VDAC_PM.c ****         }
  70:Generated_Source\PSoC5/VDAC_PM.c ****         else
  71:Generated_Source\PSoC5/VDAC_PM.c ****         {
  72:Generated_Source\PSoC5/VDAC_PM.c ****             VDAC_Data = VDAC_backup.data_value;
  95              		.loc 1 72 0
  96 002c 4378     		ldrb	r3, [r0, #1]	@ zero_extendqisi2
  97 002e 0B70     		strb	r3, [r1]
  98              	.L5:
  99 0030 7047     		bx	lr
ARM GAS  C:\Users\Krist\AppData\Local\Temp\cc0b5sx5.s 			page 4


 100              	.L10:
 101 0032 00BF     		.align	2
 102              	.L9:
 103 0034 21580040 		.word	1073764385
 104 0038 875A0040 		.word	1073764999
 105 003c 00000000 		.word	.LANCHOR0
 106 0040 805B0040 		.word	1073765248
 107              		.cfi_endproc
 108              	.LFE1:
 109              		.size	VDAC_RestoreConfig, .-VDAC_RestoreConfig
 110              		.section	.text.VDAC_Sleep,"ax",%progbits
 111              		.align	1
 112              		.global	VDAC_Sleep
 113              		.thumb
 114              		.thumb_func
 115              		.type	VDAC_Sleep, %function
 116              	VDAC_Sleep:
 117              	.LFB2:
  73:Generated_Source\PSoC5/VDAC_PM.c ****         }
  74:Generated_Source\PSoC5/VDAC_PM.c ****     }
  75:Generated_Source\PSoC5/VDAC_PM.c **** }
  76:Generated_Source\PSoC5/VDAC_PM.c **** 
  77:Generated_Source\PSoC5/VDAC_PM.c **** 
  78:Generated_Source\PSoC5/VDAC_PM.c **** /*******************************************************************************
  79:Generated_Source\PSoC5/VDAC_PM.c **** * Function Name: VDAC_Sleep
  80:Generated_Source\PSoC5/VDAC_PM.c **** ********************************************************************************
  81:Generated_Source\PSoC5/VDAC_PM.c **** * Summary:
  82:Generated_Source\PSoC5/VDAC_PM.c **** *  Stop and Save the user configuration
  83:Generated_Source\PSoC5/VDAC_PM.c **** *
  84:Generated_Source\PSoC5/VDAC_PM.c **** * Parameters:  
  85:Generated_Source\PSoC5/VDAC_PM.c **** *  void:  
  86:Generated_Source\PSoC5/VDAC_PM.c **** *
  87:Generated_Source\PSoC5/VDAC_PM.c **** * Return: 
  88:Generated_Source\PSoC5/VDAC_PM.c **** *  void
  89:Generated_Source\PSoC5/VDAC_PM.c **** *
  90:Generated_Source\PSoC5/VDAC_PM.c **** * Global variables:
  91:Generated_Source\PSoC5/VDAC_PM.c **** *  VDAC_backup.enableState:  Is modified depending on the enable 
  92:Generated_Source\PSoC5/VDAC_PM.c **** *  state  of the block before entering sleep mode.
  93:Generated_Source\PSoC5/VDAC_PM.c **** *
  94:Generated_Source\PSoC5/VDAC_PM.c **** *******************************************************************************/
  95:Generated_Source\PSoC5/VDAC_PM.c **** void VDAC_Sleep(void) 
  96:Generated_Source\PSoC5/VDAC_PM.c **** {
 118              		.loc 1 96 0
 119              		.cfi_startproc
 120              		@ args = 0, pretend = 0, frame = 0
 121              		@ frame_needed = 0, uses_anonymous_args = 0
 122 0000 08B5     		push	{r3, lr}
 123              		.cfi_def_cfa_offset 8
 124              		.cfi_offset 3, -8
 125              		.cfi_offset 14, -4
  97:Generated_Source\PSoC5/VDAC_PM.c ****     /* Save VDAC8's enable state */    
  98:Generated_Source\PSoC5/VDAC_PM.c ****     if(VDAC_ACT_PWR_EN == (VDAC_PWRMGR & VDAC_ACT_PWR_EN))
 126              		.loc 1 98 0
 127 0002 074B     		ldr	r3, .L14
 128 0004 074A     		ldr	r2, .L14+4
 129 0006 1B78     		ldrb	r3, [r3]	@ zero_extendqisi2
 130 0008 13F00103 		ands	r3, r3, #1
ARM GAS  C:\Users\Krist\AppData\Local\Temp\cc0b5sx5.s 			page 5


  99:Generated_Source\PSoC5/VDAC_PM.c ****     {
 100:Generated_Source\PSoC5/VDAC_PM.c ****         /* VDAC8 is enabled */
 101:Generated_Source\PSoC5/VDAC_PM.c ****         VDAC_backup.enableState = 1u;
 131              		.loc 1 101 0
 132 000c 18BF     		it	ne
 133 000e 0123     		movne	r3, #1
 102:Generated_Source\PSoC5/VDAC_PM.c ****     }
 103:Generated_Source\PSoC5/VDAC_PM.c ****     else
 104:Generated_Source\PSoC5/VDAC_PM.c ****     {
 105:Generated_Source\PSoC5/VDAC_PM.c ****         /* VDAC8 is disabled */
 106:Generated_Source\PSoC5/VDAC_PM.c ****         VDAC_backup.enableState = 0u;
 134              		.loc 1 106 0
 135 0010 1370     		strb	r3, [r2]
 107:Generated_Source\PSoC5/VDAC_PM.c ****     }
 108:Generated_Source\PSoC5/VDAC_PM.c ****     
 109:Generated_Source\PSoC5/VDAC_PM.c ****     VDAC_Stop();
 136              		.loc 1 109 0
 137 0012 FFF7FEFF 		bl	VDAC_Stop
 138              	.LVL0:
 110:Generated_Source\PSoC5/VDAC_PM.c ****     VDAC_SaveConfig();
 111:Generated_Source\PSoC5/VDAC_PM.c **** }
 139              		.loc 1 111 0
 140 0016 BDE80840 		pop	{r3, lr}
 141              		.cfi_restore 14
 142              		.cfi_restore 3
 143              		.cfi_def_cfa_offset 0
 110:Generated_Source\PSoC5/VDAC_PM.c ****     VDAC_SaveConfig();
 144              		.loc 1 110 0
 145 001a FFF7FEBF 		b	VDAC_SaveConfig
 146              	.LVL1:
 147              	.L15:
 148 001e 00BF     		.align	2
 149              	.L14:
 150 0020 A8430040 		.word	1073759144
 151 0024 00000000 		.word	.LANCHOR0
 152              		.cfi_endproc
 153              	.LFE2:
 154              		.size	VDAC_Sleep, .-VDAC_Sleep
 155              		.section	.text.VDAC_Wakeup,"ax",%progbits
 156              		.align	1
 157              		.global	VDAC_Wakeup
 158              		.thumb
 159              		.thumb_func
 160              		.type	VDAC_Wakeup, %function
 161              	VDAC_Wakeup:
 162              	.LFB3:
 112:Generated_Source\PSoC5/VDAC_PM.c **** 
 113:Generated_Source\PSoC5/VDAC_PM.c **** 
 114:Generated_Source\PSoC5/VDAC_PM.c **** /*******************************************************************************
 115:Generated_Source\PSoC5/VDAC_PM.c **** * Function Name: VDAC_Wakeup
 116:Generated_Source\PSoC5/VDAC_PM.c **** ********************************************************************************
 117:Generated_Source\PSoC5/VDAC_PM.c **** *
 118:Generated_Source\PSoC5/VDAC_PM.c **** * Summary:
 119:Generated_Source\PSoC5/VDAC_PM.c **** *  Restores and enables the user configuration
 120:Generated_Source\PSoC5/VDAC_PM.c **** *  
 121:Generated_Source\PSoC5/VDAC_PM.c **** * Parameters:  
 122:Generated_Source\PSoC5/VDAC_PM.c **** *  void
ARM GAS  C:\Users\Krist\AppData\Local\Temp\cc0b5sx5.s 			page 6


 123:Generated_Source\PSoC5/VDAC_PM.c **** *
 124:Generated_Source\PSoC5/VDAC_PM.c **** * Return: 
 125:Generated_Source\PSoC5/VDAC_PM.c **** *  void
 126:Generated_Source\PSoC5/VDAC_PM.c **** *
 127:Generated_Source\PSoC5/VDAC_PM.c **** * Global variables:
 128:Generated_Source\PSoC5/VDAC_PM.c **** *  VDAC_backup.enableState:  Is used to restore the enable state of 
 129:Generated_Source\PSoC5/VDAC_PM.c **** *  block on wakeup from sleep mode.
 130:Generated_Source\PSoC5/VDAC_PM.c **** *
 131:Generated_Source\PSoC5/VDAC_PM.c **** *******************************************************************************/
 132:Generated_Source\PSoC5/VDAC_PM.c **** void VDAC_Wakeup(void) 
 133:Generated_Source\PSoC5/VDAC_PM.c **** {
 163              		.loc 1 133 0
 164              		.cfi_startproc
 165              		@ args = 0, pretend = 0, frame = 0
 166              		@ frame_needed = 0, uses_anonymous_args = 0
 167 0000 08B5     		push	{r3, lr}
 168              		.cfi_def_cfa_offset 8
 169              		.cfi_offset 3, -8
 170              		.cfi_offset 14, -4
 134:Generated_Source\PSoC5/VDAC_PM.c ****     VDAC_RestoreConfig();
 171              		.loc 1 134 0
 172 0002 FFF7FEFF 		bl	VDAC_RestoreConfig
 173              	.LVL2:
 135:Generated_Source\PSoC5/VDAC_PM.c ****     
 136:Generated_Source\PSoC5/VDAC_PM.c ****     if(VDAC_backup.enableState == 1u)
 174              		.loc 1 136 0
 175 0006 064B     		ldr	r3, .L18
 176 0008 1B78     		ldrb	r3, [r3]	@ zero_extendqisi2
 177 000a 012B     		cmp	r3, #1
 178 000c 07D1     		bne	.L16
 137:Generated_Source\PSoC5/VDAC_PM.c ****     {
 138:Generated_Source\PSoC5/VDAC_PM.c ****         /* Enable VDAC8's operation */
 139:Generated_Source\PSoC5/VDAC_PM.c ****         VDAC_Enable();
 179              		.loc 1 139 0
 180 000e FFF7FEFF 		bl	VDAC_Enable
 181              	.LVL3:
 140:Generated_Source\PSoC5/VDAC_PM.c **** 
 141:Generated_Source\PSoC5/VDAC_PM.c ****         /* Restore the data register */
 142:Generated_Source\PSoC5/VDAC_PM.c ****         VDAC_SetValue(VDAC_Data);
 182              		.loc 1 142 0
 183 0012 044B     		ldr	r3, .L18+4
 184 0014 1878     		ldrb	r0, [r3]	@ zero_extendqisi2
 143:Generated_Source\PSoC5/VDAC_PM.c ****     } /* Do nothing if VDAC8 was disabled before */    
 144:Generated_Source\PSoC5/VDAC_PM.c **** }
 185              		.loc 1 144 0
 186 0016 BDE80840 		pop	{r3, lr}
 187              		.cfi_remember_state
 188              		.cfi_restore 14
 189              		.cfi_restore 3
 190              		.cfi_def_cfa_offset 0
 142:Generated_Source\PSoC5/VDAC_PM.c ****     } /* Do nothing if VDAC8 was disabled before */    
 191              		.loc 1 142 0
 192 001a FFF7FEBF 		b	VDAC_SetValue
 193              	.LVL4:
 194              	.L16:
 195              		.cfi_restore_state
 196 001e 08BD     		pop	{r3, pc}
ARM GAS  C:\Users\Krist\AppData\Local\Temp\cc0b5sx5.s 			page 7


 197              	.L19:
 198              		.align	2
 199              	.L18:
 200 0020 00000000 		.word	.LANCHOR0
 201 0024 805B0040 		.word	1073765248
 202              		.cfi_endproc
 203              	.LFE3:
 204              		.size	VDAC_Wakeup, .-VDAC_Wakeup
 205              		.bss
 206              		.set	.LANCHOR0,. + 0
 207              		.type	VDAC_backup, %object
 208              		.size	VDAC_backup, 2
 209              	VDAC_backup:
 210 0000 0000     		.space	2
 211              		.text
 212              	.Letext0:
 213              		.file 2 "Generated_Source\\PSoC5\\cytypes.h"
 214              		.file 3 "Generated_Source\\PSoC5\\VDAC.h"