ARM GAS  C:\Users\rens_\AppData\Local\Temp\ccX8lphE.s 			page 1


   1              		.syntax unified
   2              		.cpu cortex-m3
   3              		.fpu softvfp
   4              		.eabi_attribute 20, 1
   5              		.eabi_attribute 21, 1
   6              		.eabi_attribute 23, 3
   7              		.eabi_attribute 24, 1
   8              		.eabi_attribute 25, 1
   9              		.eabi_attribute 26, 1
  10              		.eabi_attribute 30, 4
  11              		.eabi_attribute 34, 1
  12              		.eabi_attribute 18, 4
  13              		.thumb
  14              		.syntax unified
  15              		.file	"ADC_SAR_B_PM.c"
  16              		.text
  17              	.Ltext0:
  18              		.cfi_sections	.debug_frame
  19              		.section	.text.ADC_SAR_B_SaveConfig,"ax",%progbits
  20              		.align	1
  21              		.global	ADC_SAR_B_SaveConfig
  22              		.thumb
  23              		.thumb_func
  24              		.type	ADC_SAR_B_SaveConfig, %function
  25              	ADC_SAR_B_SaveConfig:
  26              	.LFB5:
  27              		.cfi_startproc
  28              		@ args = 0, pretend = 0, frame = 0
  29              		@ frame_needed = 0, uses_anonymous_args = 0
  30              		@ link register save eliminated.
  31 0000 7047     		bx	lr
  32              		.cfi_endproc
  33              	.LFE5:
  34              		.size	ADC_SAR_B_SaveConfig, .-ADC_SAR_B_SaveConfig
  35              		.section	.text.ADC_SAR_B_RestoreConfig,"ax",%progbits
  36              		.align	1
  37              		.global	ADC_SAR_B_RestoreConfig
  38              		.thumb
  39              		.thumb_func
  40              		.type	ADC_SAR_B_RestoreConfig, %function
  41              	ADC_SAR_B_RestoreConfig:
  42              	.LFB1:
  43              		.file 1 "Generated_Source\\PSoC5\\ADC_SAR_B_PM.c"
   1:Generated_Source\PSoC5/ADC_SAR_B_PM.c **** /*******************************************************************************
   2:Generated_Source\PSoC5/ADC_SAR_B_PM.c **** * File Name: ADC_SAR_B_PM.c
   3:Generated_Source\PSoC5/ADC_SAR_B_PM.c **** * Version 3.10
   4:Generated_Source\PSoC5/ADC_SAR_B_PM.c **** *
   5:Generated_Source\PSoC5/ADC_SAR_B_PM.c **** * Description:
   6:Generated_Source\PSoC5/ADC_SAR_B_PM.c **** *  This file provides Sleep/WakeUp APIs functionality.
   7:Generated_Source\PSoC5/ADC_SAR_B_PM.c **** *
   8:Generated_Source\PSoC5/ADC_SAR_B_PM.c **** * Note:
   9:Generated_Source\PSoC5/ADC_SAR_B_PM.c **** *
  10:Generated_Source\PSoC5/ADC_SAR_B_PM.c **** ********************************************************************************
  11:Generated_Source\PSoC5/ADC_SAR_B_PM.c **** * Copyright 2008-2015, Cypress Semiconductor Corporation.  All rights reserved.
  12:Generated_Source\PSoC5/ADC_SAR_B_PM.c **** * You may use this file only in accordance with the license, terms, conditions,
  13:Generated_Source\PSoC5/ADC_SAR_B_PM.c **** * disclaimers, and limitations in the end user license agreement accompanying
  14:Generated_Source\PSoC5/ADC_SAR_B_PM.c **** * the software package with which this file was provided.
ARM GAS  C:\Users\rens_\AppData\Local\Temp\ccX8lphE.s 			page 2


  15:Generated_Source\PSoC5/ADC_SAR_B_PM.c **** *******************************************************************************/
  16:Generated_Source\PSoC5/ADC_SAR_B_PM.c **** 
  17:Generated_Source\PSoC5/ADC_SAR_B_PM.c **** #include "ADC_SAR_B.h"
  18:Generated_Source\PSoC5/ADC_SAR_B_PM.c **** 
  19:Generated_Source\PSoC5/ADC_SAR_B_PM.c **** 
  20:Generated_Source\PSoC5/ADC_SAR_B_PM.c **** /***************************************
  21:Generated_Source\PSoC5/ADC_SAR_B_PM.c **** * Local data allocation
  22:Generated_Source\PSoC5/ADC_SAR_B_PM.c **** ***************************************/
  23:Generated_Source\PSoC5/ADC_SAR_B_PM.c **** 
  24:Generated_Source\PSoC5/ADC_SAR_B_PM.c **** static ADC_SAR_B_BACKUP_STRUCT  ADC_SAR_B_backup =
  25:Generated_Source\PSoC5/ADC_SAR_B_PM.c **** {
  26:Generated_Source\PSoC5/ADC_SAR_B_PM.c ****     ADC_SAR_B_DISABLED
  27:Generated_Source\PSoC5/ADC_SAR_B_PM.c **** };
  28:Generated_Source\PSoC5/ADC_SAR_B_PM.c **** 
  29:Generated_Source\PSoC5/ADC_SAR_B_PM.c **** 
  30:Generated_Source\PSoC5/ADC_SAR_B_PM.c **** /*******************************************************************************
  31:Generated_Source\PSoC5/ADC_SAR_B_PM.c **** * Function Name: ADC_SAR_B_SaveConfig
  32:Generated_Source\PSoC5/ADC_SAR_B_PM.c **** ********************************************************************************
  33:Generated_Source\PSoC5/ADC_SAR_B_PM.c **** *
  34:Generated_Source\PSoC5/ADC_SAR_B_PM.c **** * Summary:
  35:Generated_Source\PSoC5/ADC_SAR_B_PM.c **** *  Saves the current user configuration.
  36:Generated_Source\PSoC5/ADC_SAR_B_PM.c **** *
  37:Generated_Source\PSoC5/ADC_SAR_B_PM.c **** * Parameters:
  38:Generated_Source\PSoC5/ADC_SAR_B_PM.c **** *  None.
  39:Generated_Source\PSoC5/ADC_SAR_B_PM.c **** *
  40:Generated_Source\PSoC5/ADC_SAR_B_PM.c **** * Return:
  41:Generated_Source\PSoC5/ADC_SAR_B_PM.c **** *  None.
  42:Generated_Source\PSoC5/ADC_SAR_B_PM.c **** *
  43:Generated_Source\PSoC5/ADC_SAR_B_PM.c **** *******************************************************************************/
  44:Generated_Source\PSoC5/ADC_SAR_B_PM.c **** void ADC_SAR_B_SaveConfig(void)
  45:Generated_Source\PSoC5/ADC_SAR_B_PM.c **** {
  46:Generated_Source\PSoC5/ADC_SAR_B_PM.c ****     /* All configuration registers are marked as [reset_all_retention] */
  47:Generated_Source\PSoC5/ADC_SAR_B_PM.c **** }
  48:Generated_Source\PSoC5/ADC_SAR_B_PM.c **** 
  49:Generated_Source\PSoC5/ADC_SAR_B_PM.c **** 
  50:Generated_Source\PSoC5/ADC_SAR_B_PM.c **** /*******************************************************************************
  51:Generated_Source\PSoC5/ADC_SAR_B_PM.c **** * Function Name: ADC_SAR_B_RestoreConfig
  52:Generated_Source\PSoC5/ADC_SAR_B_PM.c **** ********************************************************************************
  53:Generated_Source\PSoC5/ADC_SAR_B_PM.c **** *
  54:Generated_Source\PSoC5/ADC_SAR_B_PM.c **** * Summary:
  55:Generated_Source\PSoC5/ADC_SAR_B_PM.c **** *  Restores the current user configuration.
  56:Generated_Source\PSoC5/ADC_SAR_B_PM.c **** *
  57:Generated_Source\PSoC5/ADC_SAR_B_PM.c **** * Parameters:
  58:Generated_Source\PSoC5/ADC_SAR_B_PM.c **** *  None.
  59:Generated_Source\PSoC5/ADC_SAR_B_PM.c **** *
  60:Generated_Source\PSoC5/ADC_SAR_B_PM.c **** * Return:
  61:Generated_Source\PSoC5/ADC_SAR_B_PM.c **** *  None.
  62:Generated_Source\PSoC5/ADC_SAR_B_PM.c **** *
  63:Generated_Source\PSoC5/ADC_SAR_B_PM.c **** *******************************************************************************/
  64:Generated_Source\PSoC5/ADC_SAR_B_PM.c **** void ADC_SAR_B_RestoreConfig(void)
  65:Generated_Source\PSoC5/ADC_SAR_B_PM.c **** {
  44              		.loc 1 65 0
  45              		.cfi_startproc
  46              		@ args = 0, pretend = 0, frame = 0
  47              		@ frame_needed = 0, uses_anonymous_args = 0
  48              		@ link register save eliminated.
  49 0000 7047     		bx	lr
ARM GAS  C:\Users\rens_\AppData\Local\Temp\ccX8lphE.s 			page 3


  50              		.cfi_endproc
  51              	.LFE1:
  52              		.size	ADC_SAR_B_RestoreConfig, .-ADC_SAR_B_RestoreConfig
  53              		.section	.text.ADC_SAR_B_Sleep,"ax",%progbits
  54              		.align	1
  55              		.global	ADC_SAR_B_Sleep
  56              		.thumb
  57              		.thumb_func
  58              		.type	ADC_SAR_B_Sleep, %function
  59              	ADC_SAR_B_Sleep:
  60              	.LFB2:
  66:Generated_Source\PSoC5/ADC_SAR_B_PM.c ****     /* All congiguration registers are marked as [reset_all_retention] */
  67:Generated_Source\PSoC5/ADC_SAR_B_PM.c **** }
  68:Generated_Source\PSoC5/ADC_SAR_B_PM.c **** 
  69:Generated_Source\PSoC5/ADC_SAR_B_PM.c **** 
  70:Generated_Source\PSoC5/ADC_SAR_B_PM.c **** /*******************************************************************************
  71:Generated_Source\PSoC5/ADC_SAR_B_PM.c **** * Function Name: ADC_SAR_B_Sleep
  72:Generated_Source\PSoC5/ADC_SAR_B_PM.c **** ********************************************************************************
  73:Generated_Source\PSoC5/ADC_SAR_B_PM.c **** *
  74:Generated_Source\PSoC5/ADC_SAR_B_PM.c **** * Summary:
  75:Generated_Source\PSoC5/ADC_SAR_B_PM.c **** *  This is the preferred routine to prepare the component for sleep.
  76:Generated_Source\PSoC5/ADC_SAR_B_PM.c **** *  The ADC_SAR_B_Sleep() routine saves the current component state,
  77:Generated_Source\PSoC5/ADC_SAR_B_PM.c **** *  then it calls the ADC_Stop() function.
  78:Generated_Source\PSoC5/ADC_SAR_B_PM.c **** *
  79:Generated_Source\PSoC5/ADC_SAR_B_PM.c **** * Parameters:
  80:Generated_Source\PSoC5/ADC_SAR_B_PM.c **** *  None.
  81:Generated_Source\PSoC5/ADC_SAR_B_PM.c **** *
  82:Generated_Source\PSoC5/ADC_SAR_B_PM.c **** * Return:
  83:Generated_Source\PSoC5/ADC_SAR_B_PM.c **** *  None.
  84:Generated_Source\PSoC5/ADC_SAR_B_PM.c **** *
  85:Generated_Source\PSoC5/ADC_SAR_B_PM.c **** * Global Variables:
  86:Generated_Source\PSoC5/ADC_SAR_B_PM.c **** *  ADC_SAR_B_backup - The structure field 'enableState' is modified
  87:Generated_Source\PSoC5/ADC_SAR_B_PM.c **** *  depending on the enable state of the block before entering to sleep mode.
  88:Generated_Source\PSoC5/ADC_SAR_B_PM.c **** *
  89:Generated_Source\PSoC5/ADC_SAR_B_PM.c **** *******************************************************************************/
  90:Generated_Source\PSoC5/ADC_SAR_B_PM.c **** void ADC_SAR_B_Sleep(void)
  91:Generated_Source\PSoC5/ADC_SAR_B_PM.c **** {
  61              		.loc 1 91 0
  62              		.cfi_startproc
  63              		@ args = 0, pretend = 0, frame = 0
  64              		@ frame_needed = 0, uses_anonymous_args = 0
  65              		@ link register save eliminated.
  92:Generated_Source\PSoC5/ADC_SAR_B_PM.c ****     if((ADC_SAR_B_PWRMGR_SAR_REG  & ADC_SAR_B_ACT_PWR_SAR_EN) != 0u)
  66              		.loc 1 92 0
  67 0000 084B     		ldr	r3, .L9
  68 0002 094A     		ldr	r2, .L9+4
  69 0004 1B78     		ldrb	r3, [r3]	@ zero_extendqisi2
  70 0006 13F00103 		ands	r3, r3, #1
  71 000a 08D0     		beq	.L4
  93:Generated_Source\PSoC5/ADC_SAR_B_PM.c ****     {
  94:Generated_Source\PSoC5/ADC_SAR_B_PM.c ****         if((ADC_SAR_B_SAR_CSR0_REG & ADC_SAR_B_SAR_SOF_START_CONV) != 0u)
  72              		.loc 1 94 0
  73 000c 074B     		ldr	r3, .L9+8
  74 000e 1B78     		ldrb	r3, [r3]	@ zero_extendqisi2
  75 0010 DB07     		lsls	r3, r3, #31
  95:Generated_Source\PSoC5/ADC_SAR_B_PM.c ****         {
  96:Generated_Source\PSoC5/ADC_SAR_B_PM.c ****             ADC_SAR_B_backup.enableState = ADC_SAR_B_ENABLED | ADC_SAR_B_STARTED;
ARM GAS  C:\Users\rens_\AppData\Local\Temp\ccX8lphE.s 			page 4


  76              		.loc 1 96 0
  77 0012 4CBF     		ite	mi
  78 0014 0323     		movmi	r3, #3
  97:Generated_Source\PSoC5/ADC_SAR_B_PM.c ****         }
  98:Generated_Source\PSoC5/ADC_SAR_B_PM.c ****         else
  99:Generated_Source\PSoC5/ADC_SAR_B_PM.c ****         {
 100:Generated_Source\PSoC5/ADC_SAR_B_PM.c ****             ADC_SAR_B_backup.enableState = ADC_SAR_B_ENABLED;
  79              		.loc 1 100 0
  80 0016 0123     		movpl	r3, #1
  81 0018 1370     		strb	r3, [r2]
 101:Generated_Source\PSoC5/ADC_SAR_B_PM.c ****         }
 102:Generated_Source\PSoC5/ADC_SAR_B_PM.c ****         ADC_SAR_B_Stop();
  82              		.loc 1 102 0
  83 001a FFF7FEBF 		b	ADC_SAR_B_Stop
  84              	.LVL0:
  85              	.L4:
 103:Generated_Source\PSoC5/ADC_SAR_B_PM.c ****     }
 104:Generated_Source\PSoC5/ADC_SAR_B_PM.c ****     else
 105:Generated_Source\PSoC5/ADC_SAR_B_PM.c ****     {
 106:Generated_Source\PSoC5/ADC_SAR_B_PM.c ****         ADC_SAR_B_backup.enableState = ADC_SAR_B_DISABLED;
  86              		.loc 1 106 0
  87 001e 1370     		strb	r3, [r2]
  88 0020 7047     		bx	lr
  89              	.L10:
  90 0022 00BF     		.align	2
  91              	.L9:
  92 0024 AB430040 		.word	1073759147
  93 0028 00000000 		.word	.LANCHOR0
  94 002c 00590040 		.word	1073764608
  95              		.cfi_endproc
  96              	.LFE2:
  97              		.size	ADC_SAR_B_Sleep, .-ADC_SAR_B_Sleep
  98              		.section	.text.ADC_SAR_B_Wakeup,"ax",%progbits
  99              		.align	1
 100              		.global	ADC_SAR_B_Wakeup
 101              		.thumb
 102              		.thumb_func
 103              		.type	ADC_SAR_B_Wakeup, %function
 104              	ADC_SAR_B_Wakeup:
 105              	.LFB3:
 107:Generated_Source\PSoC5/ADC_SAR_B_PM.c ****     }
 108:Generated_Source\PSoC5/ADC_SAR_B_PM.c **** }
 109:Generated_Source\PSoC5/ADC_SAR_B_PM.c **** 
 110:Generated_Source\PSoC5/ADC_SAR_B_PM.c **** 
 111:Generated_Source\PSoC5/ADC_SAR_B_PM.c **** /*******************************************************************************
 112:Generated_Source\PSoC5/ADC_SAR_B_PM.c **** * Function Name: ADC_SAR_B_Wakeup
 113:Generated_Source\PSoC5/ADC_SAR_B_PM.c **** ********************************************************************************
 114:Generated_Source\PSoC5/ADC_SAR_B_PM.c **** *
 115:Generated_Source\PSoC5/ADC_SAR_B_PM.c **** * Summary:
 116:Generated_Source\PSoC5/ADC_SAR_B_PM.c **** *  This is the preferred routine to restore the component to the state when
 117:Generated_Source\PSoC5/ADC_SAR_B_PM.c **** *  ADC_SAR_B_Sleep() was called. If the component was enabled before the
 118:Generated_Source\PSoC5/ADC_SAR_B_PM.c **** *  ADC_SAR_B_Sleep() function was called, the
 119:Generated_Source\PSoC5/ADC_SAR_B_PM.c **** *  ADC_SAR_B_Wakeup() function also re-enables the component.
 120:Generated_Source\PSoC5/ADC_SAR_B_PM.c **** *
 121:Generated_Source\PSoC5/ADC_SAR_B_PM.c **** * Parameters:
 122:Generated_Source\PSoC5/ADC_SAR_B_PM.c **** *  None.
 123:Generated_Source\PSoC5/ADC_SAR_B_PM.c **** *
ARM GAS  C:\Users\rens_\AppData\Local\Temp\ccX8lphE.s 			page 5


 124:Generated_Source\PSoC5/ADC_SAR_B_PM.c **** * Return:
 125:Generated_Source\PSoC5/ADC_SAR_B_PM.c **** *  None.
 126:Generated_Source\PSoC5/ADC_SAR_B_PM.c **** *
 127:Generated_Source\PSoC5/ADC_SAR_B_PM.c **** * Global Variables:
 128:Generated_Source\PSoC5/ADC_SAR_B_PM.c **** *  ADC_SAR_B_backup - The structure field 'enableState' is used to
 129:Generated_Source\PSoC5/ADC_SAR_B_PM.c **** *  restore the enable state of block after wakeup from sleep mode.
 130:Generated_Source\PSoC5/ADC_SAR_B_PM.c **** *
 131:Generated_Source\PSoC5/ADC_SAR_B_PM.c **** *******************************************************************************/
 132:Generated_Source\PSoC5/ADC_SAR_B_PM.c **** void ADC_SAR_B_Wakeup(void)
 133:Generated_Source\PSoC5/ADC_SAR_B_PM.c **** {
 106              		.loc 1 133 0
 107              		.cfi_startproc
 108              		@ args = 0, pretend = 0, frame = 0
 109              		@ frame_needed = 0, uses_anonymous_args = 0
 110 0000 10B5     		push	{r4, lr}
 111              		.cfi_def_cfa_offset 8
 112              		.cfi_offset 4, -8
 113              		.cfi_offset 14, -4
 134:Generated_Source\PSoC5/ADC_SAR_B_PM.c ****     if(ADC_SAR_B_backup.enableState != ADC_SAR_B_DISABLED)
 114              		.loc 1 134 0
 115 0002 064C     		ldr	r4, .L18
 116 0004 2378     		ldrb	r3, [r4]	@ zero_extendqisi2
 117 0006 43B1     		cbz	r3, .L11
 135:Generated_Source\PSoC5/ADC_SAR_B_PM.c ****     {
 136:Generated_Source\PSoC5/ADC_SAR_B_PM.c ****         ADC_SAR_B_Enable();
 118              		.loc 1 136 0
 119 0008 FFF7FEFF 		bl	ADC_SAR_B_Enable
 120              	.LVL1:
 137:Generated_Source\PSoC5/ADC_SAR_B_PM.c ****         #if(ADC_SAR_B_DEFAULT_CONV_MODE != ADC_SAR_B__HARDWARE_TRIGGER)
 138:Generated_Source\PSoC5/ADC_SAR_B_PM.c ****             if((ADC_SAR_B_backup.enableState & ADC_SAR_B_STARTED) != 0u)
 121              		.loc 1 138 0
 122 000c 2378     		ldrb	r3, [r4]	@ zero_extendqisi2
 123 000e 9B07     		lsls	r3, r3, #30
 124 0010 03D5     		bpl	.L11
 139:Generated_Source\PSoC5/ADC_SAR_B_PM.c ****             {
 140:Generated_Source\PSoC5/ADC_SAR_B_PM.c ****                 ADC_SAR_B_StartConvert();
 141:Generated_Source\PSoC5/ADC_SAR_B_PM.c ****             }
 142:Generated_Source\PSoC5/ADC_SAR_B_PM.c ****         #endif /* End ADC_SAR_B_DEFAULT_CONV_MODE != ADC_SAR_B__HARDWARE_TRIGGER */
 143:Generated_Source\PSoC5/ADC_SAR_B_PM.c ****     }
 144:Generated_Source\PSoC5/ADC_SAR_B_PM.c **** }
 125              		.loc 1 144 0
 126 0012 BDE81040 		pop	{r4, lr}
 127              		.cfi_remember_state
 128              		.cfi_restore 14
 129              		.cfi_restore 4
 130              		.cfi_def_cfa_offset 0
 140:Generated_Source\PSoC5/ADC_SAR_B_PM.c ****             }
 131              		.loc 1 140 0
 132 0016 FFF7FEBF 		b	ADC_SAR_B_StartConvert
 133              	.LVL2:
 134              	.L11:
 135              		.cfi_restore_state
 136 001a 10BD     		pop	{r4, pc}
 137              	.L19:
 138              		.align	2
 139              	.L18:
 140 001c 00000000 		.word	.LANCHOR0
ARM GAS  C:\Users\rens_\AppData\Local\Temp\ccX8lphE.s 			page 6


 141              		.cfi_endproc
 142              	.LFE3:
 143              		.size	ADC_SAR_B_Wakeup, .-ADC_SAR_B_Wakeup
 144              		.bss
 145              		.set	.LANCHOR0,. + 0
 146              		.type	ADC_SAR_B_backup, %object
 147              		.size	ADC_SAR_B_backup, 1
 148              	ADC_SAR_B_backup:
 149 0000 00       		.space	1
 150              		.text
 151              	.Letext0:
 152              		.file 2 "Generated_Source\\PSoC5\\cytypes.h"
 153              		.file 3 "Generated_Source\\PSoC5\\ADC_SAR_B.h"