ARM GAS  C:\Users\ALEXAN~1\AppData\Local\Temp\ccyDS4Mg.s 			page 1


   1              		.syntax unified
   2              		.cpu cortex-m3
   3              		.fpu softvfp
   4              		.eabi_attribute 20, 1
   5              		.eabi_attribute 21, 1
   6              		.eabi_attribute 23, 3
   7              		.eabi_attribute 24, 1
   8              		.eabi_attribute 25, 1
   9              		.eabi_attribute 26, 1
  10              		.eabi_attribute 30, 4
  11              		.eabi_attribute 34, 1
  12              		.eabi_attribute 18, 4
  13              		.thumb
  14              		.syntax unified
  15              		.file	"ADC_SAR_B.c"
  16              		.text
  17              	.Ltext0:
  18              		.cfi_sections	.debug_frame
  19              		.section	.text.ADC_SAR_B_Enable,"ax",%progbits
  20              		.align	1
  21              		.global	ADC_SAR_B_Enable
  22              		.thumb
  23              		.thumb_func
  24              		.type	ADC_SAR_B_Enable, %function
  25              	ADC_SAR_B_Enable:
  26              	.LFB2:
  27              		.file 1 "Generated_Source\\PSoC5\\ADC_SAR_B.c"
   1:Generated_Source\PSoC5/ADC_SAR_B.c **** /*******************************************************************************
   2:Generated_Source\PSoC5/ADC_SAR_B.c **** * File Name: ADC_SAR_B.c
   3:Generated_Source\PSoC5/ADC_SAR_B.c **** * Version 3.10
   4:Generated_Source\PSoC5/ADC_SAR_B.c **** *
   5:Generated_Source\PSoC5/ADC_SAR_B.c **** * Description:
   6:Generated_Source\PSoC5/ADC_SAR_B.c **** *  This file provides the source code to the API for the Successive
   7:Generated_Source\PSoC5/ADC_SAR_B.c **** *  approximation ADC Component.
   8:Generated_Source\PSoC5/ADC_SAR_B.c **** *
   9:Generated_Source\PSoC5/ADC_SAR_B.c **** * Note:
  10:Generated_Source\PSoC5/ADC_SAR_B.c **** *
  11:Generated_Source\PSoC5/ADC_SAR_B.c **** ********************************************************************************
  12:Generated_Source\PSoC5/ADC_SAR_B.c **** * Copyright 2008-2015, Cypress Semiconductor Corporation.  All rights reserved.
  13:Generated_Source\PSoC5/ADC_SAR_B.c **** * You may use this file only in accordance with the license, terms, conditions,
  14:Generated_Source\PSoC5/ADC_SAR_B.c **** * disclaimers, and limitations in the end user license agreement accompanying
  15:Generated_Source\PSoC5/ADC_SAR_B.c **** * the software package with which this file was provided.
  16:Generated_Source\PSoC5/ADC_SAR_B.c **** *******************************************************************************/
  17:Generated_Source\PSoC5/ADC_SAR_B.c **** 
  18:Generated_Source\PSoC5/ADC_SAR_B.c **** #include "CyLib.h"
  19:Generated_Source\PSoC5/ADC_SAR_B.c **** #include "ADC_SAR_B.h"
  20:Generated_Source\PSoC5/ADC_SAR_B.c **** 
  21:Generated_Source\PSoC5/ADC_SAR_B.c **** #if(ADC_SAR_B_DEFAULT_INTERNAL_CLK)
  22:Generated_Source\PSoC5/ADC_SAR_B.c ****     #include "ADC_SAR_B_theACLK.h"
  23:Generated_Source\PSoC5/ADC_SAR_B.c **** #endif /* End ADC_SAR_B_DEFAULT_INTERNAL_CLK */
  24:Generated_Source\PSoC5/ADC_SAR_B.c **** 
  25:Generated_Source\PSoC5/ADC_SAR_B.c **** 
  26:Generated_Source\PSoC5/ADC_SAR_B.c **** /***************************************
  27:Generated_Source\PSoC5/ADC_SAR_B.c **** * Forward function references
  28:Generated_Source\PSoC5/ADC_SAR_B.c **** ***************************************/
  29:Generated_Source\PSoC5/ADC_SAR_B.c **** static void ADC_SAR_B_CalcGain(uint8 resolution);
  30:Generated_Source\PSoC5/ADC_SAR_B.c **** 
ARM GAS  C:\Users\ALEXAN~1\AppData\Local\Temp\ccyDS4Mg.s 			page 2


  31:Generated_Source\PSoC5/ADC_SAR_B.c **** 
  32:Generated_Source\PSoC5/ADC_SAR_B.c **** /***************************************
  33:Generated_Source\PSoC5/ADC_SAR_B.c **** * Global data allocation
  34:Generated_Source\PSoC5/ADC_SAR_B.c **** ***************************************/
  35:Generated_Source\PSoC5/ADC_SAR_B.c **** uint8 ADC_SAR_B_initVar = 0u;
  36:Generated_Source\PSoC5/ADC_SAR_B.c **** volatile int16 ADC_SAR_B_offset;
  37:Generated_Source\PSoC5/ADC_SAR_B.c **** volatile int16 ADC_SAR_B_countsPerVolt;     /* Obsolete Gain compensation */
  38:Generated_Source\PSoC5/ADC_SAR_B.c **** volatile int32 ADC_SAR_B_countsPer10Volt;   /* Gain compensation */
  39:Generated_Source\PSoC5/ADC_SAR_B.c **** volatile int16 ADC_SAR_B_shift;
  40:Generated_Source\PSoC5/ADC_SAR_B.c **** 
  41:Generated_Source\PSoC5/ADC_SAR_B.c **** 
  42:Generated_Source\PSoC5/ADC_SAR_B.c **** /*******************************************************************************
  43:Generated_Source\PSoC5/ADC_SAR_B.c **** * Function Name: ADC_SAR_B_Start
  44:Generated_Source\PSoC5/ADC_SAR_B.c **** ********************************************************************************
  45:Generated_Source\PSoC5/ADC_SAR_B.c **** *
  46:Generated_Source\PSoC5/ADC_SAR_B.c **** * Summary:
  47:Generated_Source\PSoC5/ADC_SAR_B.c **** *  This is the preferred method to begin component operation.
  48:Generated_Source\PSoC5/ADC_SAR_B.c **** *  ADC_SAR_B_Start() sets the initVar variable, calls the
  49:Generated_Source\PSoC5/ADC_SAR_B.c **** *  ADC_SAR_B_Init() function, and then calls the
  50:Generated_Source\PSoC5/ADC_SAR_B.c **** *  ADC_SAR_B_Enable() function.
  51:Generated_Source\PSoC5/ADC_SAR_B.c **** *
  52:Generated_Source\PSoC5/ADC_SAR_B.c **** * Parameters:
  53:Generated_Source\PSoC5/ADC_SAR_B.c **** *  None.
  54:Generated_Source\PSoC5/ADC_SAR_B.c **** *
  55:Generated_Source\PSoC5/ADC_SAR_B.c **** * Return:
  56:Generated_Source\PSoC5/ADC_SAR_B.c **** *  None.
  57:Generated_Source\PSoC5/ADC_SAR_B.c **** *
  58:Generated_Source\PSoC5/ADC_SAR_B.c **** * Global variables:
  59:Generated_Source\PSoC5/ADC_SAR_B.c **** *  The ADC_SAR_B_initVar variable is used to indicate when/if initial
  60:Generated_Source\PSoC5/ADC_SAR_B.c **** *  configuration of this component has happened. The variable is initialized to
  61:Generated_Source\PSoC5/ADC_SAR_B.c **** *  zero and set to 1 the first time ADC_Start() is called. This allows for
  62:Generated_Source\PSoC5/ADC_SAR_B.c **** *  component Re-Start without re-initialization in all subsequent calls to the
  63:Generated_Source\PSoC5/ADC_SAR_B.c **** *  ADC_SAR_B_Start() routine.
  64:Generated_Source\PSoC5/ADC_SAR_B.c **** *  If re-initialization of the component is required the variable should be set
  65:Generated_Source\PSoC5/ADC_SAR_B.c **** *  to zero before call of ADC_SAR_B_Start() routine, or the user may call
  66:Generated_Source\PSoC5/ADC_SAR_B.c **** *  ADC_SAR_B_Init() and ADC_SAR_B_Enable() as done in the
  67:Generated_Source\PSoC5/ADC_SAR_B.c **** *  ADC_SAR_B_Start() routine.
  68:Generated_Source\PSoC5/ADC_SAR_B.c **** *
  69:Generated_Source\PSoC5/ADC_SAR_B.c **** * Side Effect:
  70:Generated_Source\PSoC5/ADC_SAR_B.c **** *  If the initVar variable is already set, this function only calls the
  71:Generated_Source\PSoC5/ADC_SAR_B.c **** *  ADC_SAR_B_Enable() function.
  72:Generated_Source\PSoC5/ADC_SAR_B.c **** *
  73:Generated_Source\PSoC5/ADC_SAR_B.c **** *******************************************************************************/
  74:Generated_Source\PSoC5/ADC_SAR_B.c **** void ADC_SAR_B_Start(void)
  75:Generated_Source\PSoC5/ADC_SAR_B.c **** {
  76:Generated_Source\PSoC5/ADC_SAR_B.c **** 
  77:Generated_Source\PSoC5/ADC_SAR_B.c ****     /* If not Initialized then initialize all required hardware and software */
  78:Generated_Source\PSoC5/ADC_SAR_B.c ****     if(ADC_SAR_B_initVar == 0u)
  79:Generated_Source\PSoC5/ADC_SAR_B.c ****     {
  80:Generated_Source\PSoC5/ADC_SAR_B.c ****         ADC_SAR_B_Init();
  81:Generated_Source\PSoC5/ADC_SAR_B.c ****         ADC_SAR_B_initVar = 1u;
  82:Generated_Source\PSoC5/ADC_SAR_B.c ****     }
  83:Generated_Source\PSoC5/ADC_SAR_B.c ****     ADC_SAR_B_Enable();
  84:Generated_Source\PSoC5/ADC_SAR_B.c **** }
  85:Generated_Source\PSoC5/ADC_SAR_B.c **** 
  86:Generated_Source\PSoC5/ADC_SAR_B.c **** 
  87:Generated_Source\PSoC5/ADC_SAR_B.c **** /*******************************************************************************
ARM GAS  C:\Users\ALEXAN~1\AppData\Local\Temp\ccyDS4Mg.s 			page 3


  88:Generated_Source\PSoC5/ADC_SAR_B.c **** * Function Name: ADC_SAR_B_Init
  89:Generated_Source\PSoC5/ADC_SAR_B.c **** ********************************************************************************
  90:Generated_Source\PSoC5/ADC_SAR_B.c **** *
  91:Generated_Source\PSoC5/ADC_SAR_B.c **** * Summary:
  92:Generated_Source\PSoC5/ADC_SAR_B.c **** *  Initialize component's parameters to the parameters set by user in the
  93:Generated_Source\PSoC5/ADC_SAR_B.c **** *  customizer of the component placed onto schematic. Usually called in
  94:Generated_Source\PSoC5/ADC_SAR_B.c **** *  ADC_SAR_B_Start().
  95:Generated_Source\PSoC5/ADC_SAR_B.c **** *
  96:Generated_Source\PSoC5/ADC_SAR_B.c **** * Parameters:
  97:Generated_Source\PSoC5/ADC_SAR_B.c **** *  None.
  98:Generated_Source\PSoC5/ADC_SAR_B.c **** *
  99:Generated_Source\PSoC5/ADC_SAR_B.c **** * Return:
 100:Generated_Source\PSoC5/ADC_SAR_B.c **** *  None.
 101:Generated_Source\PSoC5/ADC_SAR_B.c **** *
 102:Generated_Source\PSoC5/ADC_SAR_B.c **** * Global variables:
 103:Generated_Source\PSoC5/ADC_SAR_B.c **** *  The ADC_SAR_B_offset variable is initialized to 0.
 104:Generated_Source\PSoC5/ADC_SAR_B.c **** *
 105:Generated_Source\PSoC5/ADC_SAR_B.c **** *******************************************************************************/
 106:Generated_Source\PSoC5/ADC_SAR_B.c **** void ADC_SAR_B_Init(void)
 107:Generated_Source\PSoC5/ADC_SAR_B.c **** {
 108:Generated_Source\PSoC5/ADC_SAR_B.c **** 
 109:Generated_Source\PSoC5/ADC_SAR_B.c ****     /* This is only valid if there is an internal clock */
 110:Generated_Source\PSoC5/ADC_SAR_B.c ****     #if(ADC_SAR_B_DEFAULT_INTERNAL_CLK)
 111:Generated_Source\PSoC5/ADC_SAR_B.c ****         ADC_SAR_B_theACLK_SetMode(CYCLK_DUTY);
 112:Generated_Source\PSoC5/ADC_SAR_B.c ****     #endif /* End ADC_SAR_B_DEFAULT_INTERNAL_CLK */
 113:Generated_Source\PSoC5/ADC_SAR_B.c **** 
 114:Generated_Source\PSoC5/ADC_SAR_B.c ****     #if(ADC_SAR_B_IRQ_REMOVE == 0u)
 115:Generated_Source\PSoC5/ADC_SAR_B.c ****         /* Start and set interrupt vector */
 116:Generated_Source\PSoC5/ADC_SAR_B.c ****         CyIntSetPriority(ADC_SAR_B_INTC_NUMBER, ADC_SAR_B_INTC_PRIOR_NUMBER);
 117:Generated_Source\PSoC5/ADC_SAR_B.c ****         (void)CyIntSetVector(ADC_SAR_B_INTC_NUMBER, &ADC_SAR_B_ISR);
 118:Generated_Source\PSoC5/ADC_SAR_B.c ****     #endif   /* End ADC_SAR_B_IRQ_REMOVE */
 119:Generated_Source\PSoC5/ADC_SAR_B.c **** 
 120:Generated_Source\PSoC5/ADC_SAR_B.c ****     /* Enable IRQ mode*/
 121:Generated_Source\PSoC5/ADC_SAR_B.c ****     ADC_SAR_B_SAR_CSR1_REG |= ADC_SAR_B_SAR_IRQ_MASK_EN | ADC_SAR_B_SAR_IRQ_MODE_EDGE;
 122:Generated_Source\PSoC5/ADC_SAR_B.c **** 
 123:Generated_Source\PSoC5/ADC_SAR_B.c ****     /*Set SAR ADC resolution ADC */
 124:Generated_Source\PSoC5/ADC_SAR_B.c ****     ADC_SAR_B_SetResolution(ADC_SAR_B_DEFAULT_RESOLUTION);
 125:Generated_Source\PSoC5/ADC_SAR_B.c ****     ADC_SAR_B_offset = 0;
 126:Generated_Source\PSoC5/ADC_SAR_B.c **** }
 127:Generated_Source\PSoC5/ADC_SAR_B.c **** 
 128:Generated_Source\PSoC5/ADC_SAR_B.c **** 
 129:Generated_Source\PSoC5/ADC_SAR_B.c **** /*******************************************************************************
 130:Generated_Source\PSoC5/ADC_SAR_B.c **** * Function Name: ADC_SAR_B_Enable
 131:Generated_Source\PSoC5/ADC_SAR_B.c **** ********************************************************************************
 132:Generated_Source\PSoC5/ADC_SAR_B.c **** *
 133:Generated_Source\PSoC5/ADC_SAR_B.c **** * Summary:
 134:Generated_Source\PSoC5/ADC_SAR_B.c **** *  Enables the reference, clock and power for SAR ADC.
 135:Generated_Source\PSoC5/ADC_SAR_B.c **** *
 136:Generated_Source\PSoC5/ADC_SAR_B.c **** * Parameters:
 137:Generated_Source\PSoC5/ADC_SAR_B.c **** *  None.
 138:Generated_Source\PSoC5/ADC_SAR_B.c **** *
 139:Generated_Source\PSoC5/ADC_SAR_B.c **** * Return:
 140:Generated_Source\PSoC5/ADC_SAR_B.c **** *  None.
 141:Generated_Source\PSoC5/ADC_SAR_B.c **** *
 142:Generated_Source\PSoC5/ADC_SAR_B.c **** *******************************************************************************/
 143:Generated_Source\PSoC5/ADC_SAR_B.c **** void ADC_SAR_B_Enable(void)
 144:Generated_Source\PSoC5/ADC_SAR_B.c **** {
ARM GAS  C:\Users\ALEXAN~1\AppData\Local\Temp\ccyDS4Mg.s 			page 4


  28              		.loc 1 144 0
  29              		.cfi_startproc
  30              		@ args = 0, pretend = 0, frame = 0
  31              		@ frame_needed = 0, uses_anonymous_args = 0
  32 0000 38B5     		push	{r3, r4, r5, lr}
  33              		.cfi_def_cfa_offset 16
  34              		.cfi_offset 3, -16
  35              		.cfi_offset 4, -12
  36              		.cfi_offset 5, -8
  37              		.cfi_offset 14, -4
 145:Generated_Source\PSoC5/ADC_SAR_B.c ****     uint8 tmpReg;
 146:Generated_Source\PSoC5/ADC_SAR_B.c ****     uint8 enableInterrupts;
 147:Generated_Source\PSoC5/ADC_SAR_B.c ****     enableInterrupts = CyEnterCriticalSection();
  38              		.loc 1 147 0
  39 0002 FFF7FEFF 		bl	CyEnterCriticalSection
  40              	.LVL0:
 148:Generated_Source\PSoC5/ADC_SAR_B.c **** 
 149:Generated_Source\PSoC5/ADC_SAR_B.c ****     /* Enable the SAR ADC block in Active Power Mode */
 150:Generated_Source\PSoC5/ADC_SAR_B.c ****     ADC_SAR_B_PWRMGR_SAR_REG |= ADC_SAR_B_ACT_PWR_SAR_EN;
  41              		.loc 1 150 0
  42 0006 204A     		ldr	r2, .L2
 147:Generated_Source\PSoC5/ADC_SAR_B.c **** 
  43              		.loc 1 147 0
  44 0008 0446     		mov	r4, r0
  45              	.LVL1:
  46              		.loc 1 150 0
  47 000a 1378     		ldrb	r3, [r2]	@ zero_extendqisi2
 151:Generated_Source\PSoC5/ADC_SAR_B.c **** 
 152:Generated_Source\PSoC5/ADC_SAR_B.c ****      /* Enable the SAR ADC in Standby Power Mode*/
 153:Generated_Source\PSoC5/ADC_SAR_B.c ****     ADC_SAR_B_STBY_PWRMGR_SAR_REG |= ADC_SAR_B_STBY_PWR_SAR_EN;
 154:Generated_Source\PSoC5/ADC_SAR_B.c **** 
 155:Generated_Source\PSoC5/ADC_SAR_B.c ****     /* This is only valid if there is an internal clock */
 156:Generated_Source\PSoC5/ADC_SAR_B.c ****     #if(ADC_SAR_B_DEFAULT_INTERNAL_CLK)
 157:Generated_Source\PSoC5/ADC_SAR_B.c ****         ADC_SAR_B_PWRMGR_CLK_REG |= ADC_SAR_B_ACT_PWR_CLK_EN;
 158:Generated_Source\PSoC5/ADC_SAR_B.c ****         ADC_SAR_B_STBY_PWRMGR_CLK_REG |= ADC_SAR_B_STBY_PWR_CLK_EN;
 159:Generated_Source\PSoC5/ADC_SAR_B.c ****     #endif /* End ADC_SAR_B_DEFAULT_INTERNAL_CLK */
 160:Generated_Source\PSoC5/ADC_SAR_B.c **** 
 161:Generated_Source\PSoC5/ADC_SAR_B.c ****     /* Enable VCM buffer and Enable Int Ref Amp */
 162:Generated_Source\PSoC5/ADC_SAR_B.c ****     tmpReg = ADC_SAR_B_SAR_CSR3_REG;
 163:Generated_Source\PSoC5/ADC_SAR_B.c ****     tmpReg |= ADC_SAR_B_SAR_EN_BUF_VCM_EN;
 164:Generated_Source\PSoC5/ADC_SAR_B.c ****     /* PD_BUF_VREF is OFF in External reference or Vdda reference mode */
 165:Generated_Source\PSoC5/ADC_SAR_B.c ****     #if((ADC_SAR_B_DEFAULT_REFERENCE == ADC_SAR_B__EXT_REF) || \
 166:Generated_Source\PSoC5/ADC_SAR_B.c ****         (ADC_SAR_B_DEFAULT_RANGE == ADC_SAR_B__VNEG_VDDA_DIFF))
 167:Generated_Source\PSoC5/ADC_SAR_B.c ****         tmpReg &= (uint8)~ADC_SAR_B_SAR_EN_BUF_VREF_EN;
 168:Generated_Source\PSoC5/ADC_SAR_B.c ****     #else /* In INTREF or INTREF Bypassed this buffer is ON */
 169:Generated_Source\PSoC5/ADC_SAR_B.c ****         tmpReg |= ADC_SAR_B_SAR_EN_BUF_VREF_EN;
 170:Generated_Source\PSoC5/ADC_SAR_B.c ****     #endif /* ADC_SAR_B_DEFAULT_REFERENCE == ADC_SAR_B__EXT_REF */
 171:Generated_Source\PSoC5/ADC_SAR_B.c ****     ADC_SAR_B_SAR_CSR3_REG = tmpReg;
 172:Generated_Source\PSoC5/ADC_SAR_B.c **** 
 173:Generated_Source\PSoC5/ADC_SAR_B.c ****     /* Set reference for ADC */
 174:Generated_Source\PSoC5/ADC_SAR_B.c ****     #if(ADC_SAR_B_DEFAULT_RANGE == ADC_SAR_B__VNEG_VDDA_DIFF)
 175:Generated_Source\PSoC5/ADC_SAR_B.c ****         #if(ADC_SAR_B_DEFAULT_REFERENCE == ADC_SAR_B__EXT_REF)
 176:Generated_Source\PSoC5/ADC_SAR_B.c ****             ADC_SAR_B_SAR_CSR6_REG = ADC_SAR_B_INT_BYPASS_EXT_VREF; /* S2 */
 177:Generated_Source\PSoC5/ADC_SAR_B.c ****         #else /* Internal Vdda reference or obsolete bypass mode */
 178:Generated_Source\PSoC5/ADC_SAR_B.c ****             ADC_SAR_B_SAR_CSR6_REG = ADC_SAR_B_VDDA_VREF;           /* S7 */
 179:Generated_Source\PSoC5/ADC_SAR_B.c ****         #endif /* ADC_SAR_B_DEFAULT_REFERENCE == ADC_SAR_B__EXT_REF */
 180:Generated_Source\PSoC5/ADC_SAR_B.c ****     #else  /* Reference goes through internal buffer */
ARM GAS  C:\Users\ALEXAN~1\AppData\Local\Temp\ccyDS4Mg.s 			page 5


 181:Generated_Source\PSoC5/ADC_SAR_B.c ****         #if(ADC_SAR_B_DEFAULT_REFERENCE == ADC_SAR_B__INT_REF_NOT_BYPASSED)
 182:Generated_Source\PSoC5/ADC_SAR_B.c ****             ADC_SAR_B_SAR_CSR6_REG = ADC_SAR_B_INT_VREF;            /* S3 + S4 */
 183:Generated_Source\PSoC5/ADC_SAR_B.c ****         #else /* INTREF Bypassed of External */
 184:Generated_Source\PSoC5/ADC_SAR_B.c ****             ADC_SAR_B_SAR_CSR6_REG = ADC_SAR_B_INT_BYPASS_EXT_VREF; /* S2 */
 185:Generated_Source\PSoC5/ADC_SAR_B.c ****         #endif /* ADC_SAR_B_DEFAULT_REFERENCE == ADC_SAR_B__INT_REF_NOT_BYPASSED */
 186:Generated_Source\PSoC5/ADC_SAR_B.c ****     #endif /* VNEG_VDDA_DIFF */
 187:Generated_Source\PSoC5/ADC_SAR_B.c **** 
 188:Generated_Source\PSoC5/ADC_SAR_B.c ****     /* Low non-overlap delay for sampling clock signals (for 1MSPS) */
 189:Generated_Source\PSoC5/ADC_SAR_B.c ****     #if(ADC_SAR_B_HIGH_POWER_PULSE == 0u) /* MinPulseWidth <= 50 ns */
 190:Generated_Source\PSoC5/ADC_SAR_B.c ****         ADC_SAR_B_SAR_CSR5_REG &= (uint8)~ADC_SAR_B_SAR_DLY_INC;
 191:Generated_Source\PSoC5/ADC_SAR_B.c ****     #else /* Set High non-overlap delay for sampling clock signals (for <500KSPS)*/
 192:Generated_Source\PSoC5/ADC_SAR_B.c ****         ADC_SAR_B_SAR_CSR5_REG |= ADC_SAR_B_SAR_DLY_INC;
 193:Generated_Source\PSoC5/ADC_SAR_B.c ****     #endif /* ADC_SAR_B_HIGH_POWER_PULSE == 0u */
 194:Generated_Source\PSoC5/ADC_SAR_B.c **** 
 195:Generated_Source\PSoC5/ADC_SAR_B.c ****     /* Increase comparator latch enable delay by 20%, 
 196:Generated_Source\PSoC5/ADC_SAR_B.c ****     *  Increase comparator bias current by 30% without impacting delaysDelay 
 197:Generated_Source\PSoC5/ADC_SAR_B.c ****     *  Default for 1MSPS) 
 198:Generated_Source\PSoC5/ADC_SAR_B.c ****     */
 199:Generated_Source\PSoC5/ADC_SAR_B.c ****     #if(ADC_SAR_B_HIGH_POWER_PULSE == 0u)    /* MinPulseWidth <= 50 ns */
 200:Generated_Source\PSoC5/ADC_SAR_B.c ****         ADC_SAR_B_SAR_CSR5_REG |= ADC_SAR_B_SAR_SEL_CSEL_DFT_CHAR;
 201:Generated_Source\PSoC5/ADC_SAR_B.c ****     #else /* for <500ksps */
 202:Generated_Source\PSoC5/ADC_SAR_B.c ****         ADC_SAR_B_SAR_CSR5_REG &= (uint8)~ADC_SAR_B_SAR_SEL_CSEL_DFT_CHAR;
 203:Generated_Source\PSoC5/ADC_SAR_B.c ****     #endif /* ADC_SAR_B_HIGH_POWER_PULSE == 0u */
 204:Generated_Source\PSoC5/ADC_SAR_B.c **** 
 205:Generated_Source\PSoC5/ADC_SAR_B.c ****     /* Set default power and other configurations for control register 0 in multiple lines */
 206:Generated_Source\PSoC5/ADC_SAR_B.c ****     ADC_SAR_B_SAR_CSR0_REG = (uint8)((uint8)ADC_SAR_B_DEFAULT_POWER << ADC_SAR_B_SAR_POWER_SHIFT)
  48              		.loc 1 206 0
  49 000c 0825     		movs	r5, #8
 150:Generated_Source\PSoC5/ADC_SAR_B.c **** 
  50              		.loc 1 150 0
  51 000e 43F00103 		orr	r3, r3, #1
  52 0012 1370     		strb	r3, [r2]
 153:Generated_Source\PSoC5/ADC_SAR_B.c **** 
  53              		.loc 1 153 0
  54 0014 137C     		ldrb	r3, [r2, #16]	@ zero_extendqisi2
 207:Generated_Source\PSoC5/ADC_SAR_B.c ****     /* SAR_HIZ_CLEAR:   Should not be used for LP */
 208:Generated_Source\PSoC5/ADC_SAR_B.c ****     #if ((CY_PSOC5LP) || (ADC_SAR_B_DEFAULT_REFERENCE != ADC_SAR_B__EXT_REF))
 209:Generated_Source\PSoC5/ADC_SAR_B.c ****         | ADC_SAR_B_SAR_HIZ_CLEAR
 210:Generated_Source\PSoC5/ADC_SAR_B.c ****     #endif /* SAR_HIZ_CLEAR */
 211:Generated_Source\PSoC5/ADC_SAR_B.c ****     /*Set Convertion mode */
 212:Generated_Source\PSoC5/ADC_SAR_B.c ****     #if(ADC_SAR_B_DEFAULT_CONV_MODE != ADC_SAR_B__FREE_RUNNING)      /* If triggered mode */
 213:Generated_Source\PSoC5/ADC_SAR_B.c ****         | ADC_SAR_B_SAR_MX_SOF_UDB           /* source: UDB */
 214:Generated_Source\PSoC5/ADC_SAR_B.c ****         | ADC_SAR_B_SAR_SOF_MODE_EDGE        /* Set edge-sensitive sof source */
 215:Generated_Source\PSoC5/ADC_SAR_B.c ****     #endif /* ADC_SAR_B_DEFAULT_CONV_MODE */
 216:Generated_Source\PSoC5/ADC_SAR_B.c ****     ; /* end of multiple line initialization */
 217:Generated_Source\PSoC5/ADC_SAR_B.c **** 
 218:Generated_Source\PSoC5/ADC_SAR_B.c ****     ADC_SAR_B_SAR_TR0_REG = ADC_SAR_B_SAR_CAP_TRIM_2;
 219:Generated_Source\PSoC5/ADC_SAR_B.c **** 
 220:Generated_Source\PSoC5/ADC_SAR_B.c ****     /* Enable clock for SAR ADC*/
 221:Generated_Source\PSoC5/ADC_SAR_B.c ****     ADC_SAR_B_SAR_CLK_REG |= ADC_SAR_B_SAR_MX_CLK_EN;
 222:Generated_Source\PSoC5/ADC_SAR_B.c **** 
 223:Generated_Source\PSoC5/ADC_SAR_B.c ****     CyDelayUs(10u); /* The block is ready to use 10 us after the enable signal is set high. */
  55              		.loc 1 223 0
  56 0016 0A20     		movs	r0, #10
 153:Generated_Source\PSoC5/ADC_SAR_B.c **** 
  57              		.loc 1 153 0
  58 0018 43F00103 		orr	r3, r3, #1
ARM GAS  C:\Users\ALEXAN~1\AppData\Local\Temp\ccyDS4Mg.s 			page 6


  59 001c 1374     		strb	r3, [r2, #16]
 157:Generated_Source\PSoC5/ADC_SAR_B.c ****         ADC_SAR_B_STBY_PWRMGR_CLK_REG |= ADC_SAR_B_STBY_PWR_CLK_EN;
  60              		.loc 1 157 0
  61 001e 12F80A3C 		ldrb	r3, [r2, #-10]	@ zero_extendqisi2
  62 0022 43F00103 		orr	r3, r3, #1
  63 0026 02F80A3C 		strb	r3, [r2, #-10]
 158:Generated_Source\PSoC5/ADC_SAR_B.c ****     #endif /* End ADC_SAR_B_DEFAULT_INTERNAL_CLK */
  64              		.loc 1 158 0
  65 002a 9379     		ldrb	r3, [r2, #6]	@ zero_extendqisi2
  66 002c 43F00103 		orr	r3, r3, #1
  67 0030 9371     		strb	r3, [r2, #6]
 162:Generated_Source\PSoC5/ADC_SAR_B.c ****     tmpReg |= ADC_SAR_B_SAR_EN_BUF_VCM_EN;
  68              		.loc 1 162 0
  69 0032 02F5AA52 		add	r2, r2, #5440
  70 0036 1832     		adds	r2, r2, #24
  71 0038 1378     		ldrb	r3, [r2]	@ zero_extendqisi2
  72              	.LVL2:
 169:Generated_Source\PSoC5/ADC_SAR_B.c ****     #endif /* ADC_SAR_B_DEFAULT_REFERENCE == ADC_SAR_B__EXT_REF */
  73              		.loc 1 169 0
  74 003a 43F00303 		orr	r3, r3, #3
  75              	.LVL3:
 171:Generated_Source\PSoC5/ADC_SAR_B.c **** 
  76              		.loc 1 171 0
  77 003e 1370     		strb	r3, [r2]
 184:Generated_Source\PSoC5/ADC_SAR_B.c ****         #endif /* ADC_SAR_B_DEFAULT_REFERENCE == ADC_SAR_B__INT_REF_NOT_BYPASSED */
  78              		.loc 1 184 0
  79 0040 124B     		ldr	r3, .L2+4
  80              	.LVL4:
  81 0042 0422     		movs	r2, #4
  82              	.LVL5:
  83 0044 1A70     		strb	r2, [r3]
  84              	.LVL6:
 190:Generated_Source\PSoC5/ADC_SAR_B.c ****     #else /* Set High non-overlap delay for sampling clock signals (for <500KSPS)*/
  85              		.loc 1 190 0
  86 0046 13F8012C 		ldrb	r2, [r3, #-1]	@ zero_extendqisi2
  87 004a 02F0BF02 		and	r2, r2, #191
  88 004e 03F8012C 		strb	r2, [r3, #-1]
 200:Generated_Source\PSoC5/ADC_SAR_B.c ****     #else /* for <500ksps */
  89              		.loc 1 200 0
  90 0052 13F8012C 		ldrb	r2, [r3, #-1]	@ zero_extendqisi2
  91 0056 42F00302 		orr	r2, r2, #3
  92 005a 03F8012C 		strb	r2, [r3, #-1]
 206:Generated_Source\PSoC5/ADC_SAR_B.c ****     /* SAR_HIZ_CLEAR:   Should not be used for LP */
  93              		.loc 1 206 0
  94 005e 03F8065C 		strb	r5, [r3, #-6]
 218:Generated_Source\PSoC5/ADC_SAR_B.c **** 
  95              		.loc 1 218 0
  96 0062 A3F59753 		sub	r3, r3, #4832
  97 0066 0222     		movs	r2, #2
  98 0068 123B     		subs	r3, r3, #18
  99 006a 1A70     		strb	r2, [r3]
 221:Generated_Source\PSoC5/ADC_SAR_B.c **** 
 100              		.loc 1 221 0
 101 006c 084A     		ldr	r2, .L2+8
 102 006e 1378     		ldrb	r3, [r2]	@ zero_extendqisi2
 103 0070 2B43     		orrs	r3, r3, r5
 104 0072 1370     		strb	r3, [r2]
ARM GAS  C:\Users\ALEXAN~1\AppData\Local\Temp\ccyDS4Mg.s 			page 7


 105              		.loc 1 223 0
 106 0074 FFF7FEFF 		bl	CyDelayUs
 107              	.LVL7:
 224:Generated_Source\PSoC5/ADC_SAR_B.c **** 
 225:Generated_Source\PSoC5/ADC_SAR_B.c ****     #if(ADC_SAR_B_IRQ_REMOVE == 0u)
 226:Generated_Source\PSoC5/ADC_SAR_B.c ****         /* Clear a pending interrupt */
 227:Generated_Source\PSoC5/ADC_SAR_B.c ****         CyIntClearPending(ADC_SAR_B_INTC_NUMBER);
 108              		.loc 1 227 0
 109 0078 064B     		ldr	r3, .L2+12
 228:Generated_Source\PSoC5/ADC_SAR_B.c ****     #endif   /* End ADC_SAR_B_IRQ_REMOVE */
 229:Generated_Source\PSoC5/ADC_SAR_B.c **** 
 230:Generated_Source\PSoC5/ADC_SAR_B.c ****     CyExitCriticalSection(enableInterrupts);
 110              		.loc 1 230 0
 111 007a 2046     		mov	r0, r4
 227:Generated_Source\PSoC5/ADC_SAR_B.c ****     #endif   /* End ADC_SAR_B_IRQ_REMOVE */
 112              		.loc 1 227 0
 113 007c 1D60     		str	r5, [r3]
 231:Generated_Source\PSoC5/ADC_SAR_B.c **** }
 114              		.loc 1 231 0
 115 007e BDE83840 		pop	{r3, r4, r5, lr}
 116              		.cfi_restore 14
 117              		.cfi_restore 5
 118              		.cfi_restore 4
 119              		.cfi_restore 3
 120              		.cfi_def_cfa_offset 0
 121              	.LVL8:
 230:Generated_Source\PSoC5/ADC_SAR_B.c **** }
 122              		.loc 1 230 0
 123 0082 FFF7FEBF 		b	CyExitCriticalSection
 124              	.LVL9:
 125              	.L3:
 126 0086 00BF     		.align	2
 127              	.L2:
 128 0088 AB430040 		.word	1073759147
 129 008c 06590040 		.word	1073764614
 130 0090 275B0040 		.word	1073765159
 131 0094 80E200E0 		.word	-536812928
 132              		.cfi_endproc
 133              	.LFE2:
 134              		.size	ADC_SAR_B_Enable, .-ADC_SAR_B_Enable
 135              		.section	.text.ADC_SAR_B_Stop,"ax",%progbits
 136              		.align	1
 137              		.global	ADC_SAR_B_Stop
 138              		.thumb
 139              		.thumb_func
 140              		.type	ADC_SAR_B_Stop, %function
 141              	ADC_SAR_B_Stop:
 142              	.LFB3:
 232:Generated_Source\PSoC5/ADC_SAR_B.c **** 
 233:Generated_Source\PSoC5/ADC_SAR_B.c **** 
 234:Generated_Source\PSoC5/ADC_SAR_B.c **** /*******************************************************************************
 235:Generated_Source\PSoC5/ADC_SAR_B.c **** * Function Name: ADC_SAR_B_Stop
 236:Generated_Source\PSoC5/ADC_SAR_B.c **** ********************************************************************************
 237:Generated_Source\PSoC5/ADC_SAR_B.c **** *
 238:Generated_Source\PSoC5/ADC_SAR_B.c **** * Summary:
 239:Generated_Source\PSoC5/ADC_SAR_B.c **** *  Stops ADC conversions and puts the ADC into its lowest power mode.
 240:Generated_Source\PSoC5/ADC_SAR_B.c **** *
ARM GAS  C:\Users\ALEXAN~1\AppData\Local\Temp\ccyDS4Mg.s 			page 8


 241:Generated_Source\PSoC5/ADC_SAR_B.c **** * Parameters:
 242:Generated_Source\PSoC5/ADC_SAR_B.c **** *  None.
 243:Generated_Source\PSoC5/ADC_SAR_B.c **** *
 244:Generated_Source\PSoC5/ADC_SAR_B.c **** * Return:
 245:Generated_Source\PSoC5/ADC_SAR_B.c **** *  None.
 246:Generated_Source\PSoC5/ADC_SAR_B.c **** *
 247:Generated_Source\PSoC5/ADC_SAR_B.c **** *******************************************************************************/
 248:Generated_Source\PSoC5/ADC_SAR_B.c **** void ADC_SAR_B_Stop(void)
 249:Generated_Source\PSoC5/ADC_SAR_B.c **** {
 143              		.loc 1 249 0
 144              		.cfi_startproc
 145              		@ args = 0, pretend = 0, frame = 0
 146              		@ frame_needed = 0, uses_anonymous_args = 0
 147 0000 08B5     		push	{r3, lr}
 148              		.cfi_def_cfa_offset 8
 149              		.cfi_offset 3, -8
 150              		.cfi_offset 14, -4
 250:Generated_Source\PSoC5/ADC_SAR_B.c ****     uint8 enableInterrupts;
 251:Generated_Source\PSoC5/ADC_SAR_B.c ****     enableInterrupts = CyEnterCriticalSection();
 151              		.loc 1 251 0
 152 0002 FFF7FEFF 		bl	CyEnterCriticalSection
 153              	.LVL10:
 252:Generated_Source\PSoC5/ADC_SAR_B.c **** 
 253:Generated_Source\PSoC5/ADC_SAR_B.c ****     /* Stop all conversions */
 254:Generated_Source\PSoC5/ADC_SAR_B.c ****     ADC_SAR_B_SAR_CSR0_REG &= (uint8)~ADC_SAR_B_SAR_SOF_START_CONV;
 154              		.loc 1 254 0
 155 0006 0F4A     		ldr	r2, .L5
 156 0008 1378     		ldrb	r3, [r2]	@ zero_extendqisi2
 157 000a 03F0FE03 		and	r3, r3, #254
 158 000e 1370     		strb	r3, [r2]
 255:Generated_Source\PSoC5/ADC_SAR_B.c ****     /* Disable the SAR ADC block in Active Power Mode */
 256:Generated_Source\PSoC5/ADC_SAR_B.c ****     ADC_SAR_B_PWRMGR_SAR_REG &= (uint8)~ADC_SAR_B_ACT_PWR_SAR_EN;
 159              		.loc 1 256 0
 160 0010 A2F5AA52 		sub	r2, r2, #5440
 161 0014 153A     		subs	r2, r2, #21
 162 0016 1378     		ldrb	r3, [r2]	@ zero_extendqisi2
 163 0018 03F0FE03 		and	r3, r3, #254
 164 001c 1370     		strb	r3, [r2]
 257:Generated_Source\PSoC5/ADC_SAR_B.c ****     /* Disable the SAR ADC in Standby Power Mode */
 258:Generated_Source\PSoC5/ADC_SAR_B.c ****     ADC_SAR_B_STBY_PWRMGR_SAR_REG &= (uint8)~ADC_SAR_B_STBY_PWR_SAR_EN;
 165              		.loc 1 258 0
 166 001e 137C     		ldrb	r3, [r2, #16]	@ zero_extendqisi2
 167 0020 03F0FE03 		and	r3, r3, #254
 168 0024 1374     		strb	r3, [r2, #16]
 259:Generated_Source\PSoC5/ADC_SAR_B.c **** 
 260:Generated_Source\PSoC5/ADC_SAR_B.c ****     /* This is only valid if there is an internal clock */
 261:Generated_Source\PSoC5/ADC_SAR_B.c ****     #if(ADC_SAR_B_DEFAULT_INTERNAL_CLK)
 262:Generated_Source\PSoC5/ADC_SAR_B.c ****         ADC_SAR_B_PWRMGR_CLK_REG &= (uint8)~ADC_SAR_B_ACT_PWR_CLK_EN;
 169              		.loc 1 262 0
 170 0026 12F80A3C 		ldrb	r3, [r2, #-10]	@ zero_extendqisi2
 171 002a 03F0FE03 		and	r3, r3, #254
 172 002e 02F80A3C 		strb	r3, [r2, #-10]
 263:Generated_Source\PSoC5/ADC_SAR_B.c ****         ADC_SAR_B_STBY_PWRMGR_CLK_REG &= (uint8)~ADC_SAR_B_STBY_PWR_CLK_EN;
 173              		.loc 1 263 0
 174 0032 9379     		ldrb	r3, [r2, #6]	@ zero_extendqisi2
 175 0034 03F0FE03 		and	r3, r3, #254
 176 0038 9371     		strb	r3, [r2, #6]
ARM GAS  C:\Users\ALEXAN~1\AppData\Local\Temp\ccyDS4Mg.s 			page 9


 264:Generated_Source\PSoC5/ADC_SAR_B.c ****     #endif /* End ADC_SAR_B_DEFAULT_INTERNAL_CLK */
 265:Generated_Source\PSoC5/ADC_SAR_B.c **** 
 266:Generated_Source\PSoC5/ADC_SAR_B.c ****     CyExitCriticalSection(enableInterrupts);
 267:Generated_Source\PSoC5/ADC_SAR_B.c **** 
 268:Generated_Source\PSoC5/ADC_SAR_B.c **** }
 177              		.loc 1 268 0
 178 003a BDE80840 		pop	{r3, lr}
 179              		.cfi_restore 14
 180              		.cfi_restore 3
 181              		.cfi_def_cfa_offset 0
 266:Generated_Source\PSoC5/ADC_SAR_B.c **** 
 182              		.loc 1 266 0
 183 003e FFF7FEBF 		b	CyExitCriticalSection
 184              	.LVL11:
 185              	.L6:
 186 0042 00BF     		.align	2
 187              	.L5:
 188 0044 00590040 		.word	1073764608
 189              		.cfi_endproc
 190              	.LFE3:
 191              		.size	ADC_SAR_B_Stop, .-ADC_SAR_B_Stop
 192              		.section	.text.ADC_SAR_B_SetPower,"ax",%progbits
 193              		.align	1
 194              		.global	ADC_SAR_B_SetPower
 195              		.thumb
 196              		.thumb_func
 197              		.type	ADC_SAR_B_SetPower, %function
 198              	ADC_SAR_B_SetPower:
 199              	.LFB4:
 269:Generated_Source\PSoC5/ADC_SAR_B.c **** 
 270:Generated_Source\PSoC5/ADC_SAR_B.c **** 
 271:Generated_Source\PSoC5/ADC_SAR_B.c **** /*******************************************************************************
 272:Generated_Source\PSoC5/ADC_SAR_B.c **** * Function Name: ADC_SAR_B_SetPower
 273:Generated_Source\PSoC5/ADC_SAR_B.c **** ********************************************************************************
 274:Generated_Source\PSoC5/ADC_SAR_B.c **** *
 275:Generated_Source\PSoC5/ADC_SAR_B.c **** * Summary:
 276:Generated_Source\PSoC5/ADC_SAR_B.c **** *  Sets the operational power of the ADC. You should use the higher power
 277:Generated_Source\PSoC5/ADC_SAR_B.c **** *  settings with faster clock speeds.
 278:Generated_Source\PSoC5/ADC_SAR_B.c **** *
 279:Generated_Source\PSoC5/ADC_SAR_B.c **** * Parameters:
 280:Generated_Source\PSoC5/ADC_SAR_B.c **** *  power:  Power setting for ADC
 281:Generated_Source\PSoC5/ADC_SAR_B.c **** *  0 ->    Normal
 282:Generated_Source\PSoC5/ADC_SAR_B.c **** *  1 ->    Medium power
 283:Generated_Source\PSoC5/ADC_SAR_B.c **** *  2 ->    1.25 power
 284:Generated_Source\PSoC5/ADC_SAR_B.c **** *  3 ->    Minimum power.
 285:Generated_Source\PSoC5/ADC_SAR_B.c **** *
 286:Generated_Source\PSoC5/ADC_SAR_B.c **** * Return:
 287:Generated_Source\PSoC5/ADC_SAR_B.c **** *  None.
 288:Generated_Source\PSoC5/ADC_SAR_B.c **** *
 289:Generated_Source\PSoC5/ADC_SAR_B.c **** *******************************************************************************/
 290:Generated_Source\PSoC5/ADC_SAR_B.c **** void ADC_SAR_B_SetPower(uint8 power)
 291:Generated_Source\PSoC5/ADC_SAR_B.c **** {
 200              		.loc 1 291 0
 201              		.cfi_startproc
 202              		@ args = 0, pretend = 0, frame = 0
 203              		@ frame_needed = 0, uses_anonymous_args = 0
 204              		@ link register save eliminated.
ARM GAS  C:\Users\ALEXAN~1\AppData\Local\Temp\ccyDS4Mg.s 			page 10


 205              	.LVL12:
 292:Generated_Source\PSoC5/ADC_SAR_B.c ****     uint8 tmpReg;
 293:Generated_Source\PSoC5/ADC_SAR_B.c **** 
 294:Generated_Source\PSoC5/ADC_SAR_B.c ****     /* mask off invalid power settings */
 295:Generated_Source\PSoC5/ADC_SAR_B.c ****     power &= ADC_SAR_B_SAR_API_POWER_MASK;
 296:Generated_Source\PSoC5/ADC_SAR_B.c **** 
 297:Generated_Source\PSoC5/ADC_SAR_B.c ****     /* Set Power parameter  */
 298:Generated_Source\PSoC5/ADC_SAR_B.c ****     tmpReg = ADC_SAR_B_SAR_CSR0_REG & (uint8)~ADC_SAR_B_SAR_POWER_MASK;
 206              		.loc 1 298 0
 207 0000 044A     		ldr	r2, .L8
 208 0002 1378     		ldrb	r3, [r2]	@ zero_extendqisi2
 209 0004 03F03F03 		and	r3, r3, #63
 210              	.LVL13:
 299:Generated_Source\PSoC5/ADC_SAR_B.c ****     tmpReg |= (uint8)(power << ADC_SAR_B_SAR_POWER_SHIFT);
 211              		.loc 1 299 0
 212 0008 43EA8010 		orr	r0, r3, r0, lsl #6
 213              	.LVL14:
 214 000c C0B2     		uxtb	r0, r0
 215              	.LVL15:
 300:Generated_Source\PSoC5/ADC_SAR_B.c ****     ADC_SAR_B_SAR_CSR0_REG = tmpReg;
 216              		.loc 1 300 0
 217 000e 1070     		strb	r0, [r2]
 218 0010 7047     		bx	lr
 219              	.L9:
 220 0012 00BF     		.align	2
 221              	.L8:
 222 0014 00590040 		.word	1073764608
 223              		.cfi_endproc
 224              	.LFE4:
 225              		.size	ADC_SAR_B_SetPower, .-ADC_SAR_B_SetPower
 226              		.section	.text.ADC_SAR_B_SetResolution,"ax",%progbits
 227              		.align	1
 228              		.global	ADC_SAR_B_SetResolution
 229              		.thumb
 230              		.thumb_func
 231              		.type	ADC_SAR_B_SetResolution, %function
 232              	ADC_SAR_B_SetResolution:
 233              	.LFB5:
 301:Generated_Source\PSoC5/ADC_SAR_B.c **** }
 302:Generated_Source\PSoC5/ADC_SAR_B.c **** 
 303:Generated_Source\PSoC5/ADC_SAR_B.c **** 
 304:Generated_Source\PSoC5/ADC_SAR_B.c **** /*******************************************************************************
 305:Generated_Source\PSoC5/ADC_SAR_B.c **** * Function Name: ADC_SAR_B_SetResolution
 306:Generated_Source\PSoC5/ADC_SAR_B.c **** ********************************************************************************
 307:Generated_Source\PSoC5/ADC_SAR_B.c **** *
 308:Generated_Source\PSoC5/ADC_SAR_B.c **** * Summary:
 309:Generated_Source\PSoC5/ADC_SAR_B.c **** *  Sets the Relution of the SAR.
 310:Generated_Source\PSoC5/ADC_SAR_B.c **** *
 311:Generated_Source\PSoC5/ADC_SAR_B.c **** * Parameters:
 312:Generated_Source\PSoC5/ADC_SAR_B.c **** *  resolution:
 313:Generated_Source\PSoC5/ADC_SAR_B.c **** *  12 ->    RES12
 314:Generated_Source\PSoC5/ADC_SAR_B.c **** *  10 ->    RES10
 315:Generated_Source\PSoC5/ADC_SAR_B.c **** *  8  ->    RES8
 316:Generated_Source\PSoC5/ADC_SAR_B.c **** *
 317:Generated_Source\PSoC5/ADC_SAR_B.c **** * Return:
 318:Generated_Source\PSoC5/ADC_SAR_B.c **** *  None.
 319:Generated_Source\PSoC5/ADC_SAR_B.c **** *
ARM GAS  C:\Users\ALEXAN~1\AppData\Local\Temp\ccyDS4Mg.s 			page 11


 320:Generated_Source\PSoC5/ADC_SAR_B.c **** * Side Effects:
 321:Generated_Source\PSoC5/ADC_SAR_B.c **** *  The ADC resolution cannot be changed during a conversion cycle. The
 322:Generated_Source\PSoC5/ADC_SAR_B.c **** *  recommended best practice is to stop conversions with
 323:Generated_Source\PSoC5/ADC_SAR_B.c **** *  ADC_StopConvert(), change the resolution, then restart the
 324:Generated_Source\PSoC5/ADC_SAR_B.c **** *  conversions with ADC_StartConvert().
 325:Generated_Source\PSoC5/ADC_SAR_B.c **** *  If you decide not to stop conversions before calling this API, you
 326:Generated_Source\PSoC5/ADC_SAR_B.c **** *  should use ADC_IsEndConversion() to wait until conversion is complete
 327:Generated_Source\PSoC5/ADC_SAR_B.c **** *  before changing the resolution.
 328:Generated_Source\PSoC5/ADC_SAR_B.c **** *  If you call ADC_SetResolution() during a conversion, the resolution will
 329:Generated_Source\PSoC5/ADC_SAR_B.c **** *  not be changed until the current conversion is complete. Data will not be
 330:Generated_Source\PSoC5/ADC_SAR_B.c **** *  available in the new resolution for another 6 + "New Resolution(in bits)"
 331:Generated_Source\PSoC5/ADC_SAR_B.c **** *  clock cycles.
 332:Generated_Source\PSoC5/ADC_SAR_B.c **** *  You may need add a delay of this number of clock cycles after
 333:Generated_Source\PSoC5/ADC_SAR_B.c **** *  ADC_SetResolution() is called before data is valid again.
 334:Generated_Source\PSoC5/ADC_SAR_B.c **** *  Affects ADC_CountsTo_Volts(), ADC_CountsTo_mVolts(), and
 335:Generated_Source\PSoC5/ADC_SAR_B.c **** *  ADC_CountsTo_uVolts() by calculating the correct conversion between ADC
 336:Generated_Source\PSoC5/ADC_SAR_B.c **** *  counts and the applied input voltage. Calculation depends on resolution,
 337:Generated_Source\PSoC5/ADC_SAR_B.c **** *  input range, and voltage reference.
 338:Generated_Source\PSoC5/ADC_SAR_B.c **** *
 339:Generated_Source\PSoC5/ADC_SAR_B.c **** *******************************************************************************/
 340:Generated_Source\PSoC5/ADC_SAR_B.c **** void ADC_SAR_B_SetResolution(uint8 resolution)
 341:Generated_Source\PSoC5/ADC_SAR_B.c **** {
 234              		.loc 1 341 0
 235              		.cfi_startproc
 236              		@ args = 0, pretend = 0, frame = 0
 237              		@ frame_needed = 0, uses_anonymous_args = 0
 238              		@ link register save eliminated.
 239              	.LVL16:
 342:Generated_Source\PSoC5/ADC_SAR_B.c ****     uint8 tmpReg;
 343:Generated_Source\PSoC5/ADC_SAR_B.c **** 
 344:Generated_Source\PSoC5/ADC_SAR_B.c ****     /* Set SAR ADC resolution and sample width: 18 conversion cycles at 12bits + 1 gap */
 345:Generated_Source\PSoC5/ADC_SAR_B.c ****     switch (resolution)
 240              		.loc 1 345 0
 241 0000 0828     		cmp	r0, #8
 242 0002 04D0     		beq	.L12
 243 0004 0A28     		cmp	r0, #10
 346:Generated_Source\PSoC5/ADC_SAR_B.c ****     {
 347:Generated_Source\PSoC5/ADC_SAR_B.c ****         case (uint8)ADC_SAR_B__BITS_12:
 348:Generated_Source\PSoC5/ADC_SAR_B.c ****             tmpReg = ADC_SAR_B_SAR_RESOLUTION_12BIT | ADC_SAR_B_SAR_SAMPLE_WIDTH;
 244              		.loc 1 348 0
 245 0006 0CBF     		ite	eq
 246 0008 8423     		moveq	r3, #132
 247 000a C423     		movne	r3, #196
 248 000c 00E0     		b	.L13
 249              	.L12:
 250              	.LVL17:
 349:Generated_Source\PSoC5/ADC_SAR_B.c ****             break;
 350:Generated_Source\PSoC5/ADC_SAR_B.c ****         case (uint8)ADC_SAR_B__BITS_10:
 351:Generated_Source\PSoC5/ADC_SAR_B.c ****             tmpReg = ADC_SAR_B_SAR_RESOLUTION_10BIT | ADC_SAR_B_SAR_SAMPLE_WIDTH;
 352:Generated_Source\PSoC5/ADC_SAR_B.c ****             break;
 353:Generated_Source\PSoC5/ADC_SAR_B.c ****         case (uint8)ADC_SAR_B__BITS_8:
 354:Generated_Source\PSoC5/ADC_SAR_B.c ****             tmpReg = ADC_SAR_B_SAR_RESOLUTION_8BIT | ADC_SAR_B_SAR_SAMPLE_WIDTH;
 251              		.loc 1 354 0
 252 000e 4423     		movs	r3, #68
 253              	.LVL18:
 254              	.L13:
 255 0010 0838     		subs	r0, r0, #8
ARM GAS  C:\Users\ALEXAN~1\AppData\Local\Temp\ccyDS4Mg.s 			page 12


 256              	.LVL19:
 355:Generated_Source\PSoC5/ADC_SAR_B.c ****             break;
 356:Generated_Source\PSoC5/ADC_SAR_B.c ****         default:
 357:Generated_Source\PSoC5/ADC_SAR_B.c ****             tmpReg = ADC_SAR_B_SAR_RESOLUTION_12BIT | ADC_SAR_B_SAR_SAMPLE_WIDTH;
 358:Generated_Source\PSoC5/ADC_SAR_B.c ****             /* Halt CPU in debug mode if resolution is out of valid range */
 359:Generated_Source\PSoC5/ADC_SAR_B.c ****             CYASSERT(0u != 0u);
 360:Generated_Source\PSoC5/ADC_SAR_B.c ****             break;
 361:Generated_Source\PSoC5/ADC_SAR_B.c ****     }
 362:Generated_Source\PSoC5/ADC_SAR_B.c ****     ADC_SAR_B_SAR_CSR2_REG = tmpReg;
 257              		.loc 1 362 0
 258 0012 0E4A     		ldr	r2, .L18
 259 0014 C0B2     		uxtb	r0, r0
 260 0016 0428     		cmp	r0, #4
 261 0018 1370     		strb	r3, [r2]
 262              	.LVL20:
 263 001a 98BF     		it	ls
 264 001c 0C4B     		ldrls	r3, .L18+4
 265 001e 4FF00002 		mov	r2, #0
 266 0022 98BF     		it	ls
 267 0024 33F91010 		ldrshls	r1, [r3, r0, lsl #1]
 268              	.LBB4:
 269              	.LBB5:
 363:Generated_Source\PSoC5/ADC_SAR_B.c **** 
 364:Generated_Source\PSoC5/ADC_SAR_B.c ****      /* Calculate gain for convert counts to volts */
 365:Generated_Source\PSoC5/ADC_SAR_B.c ****     ADC_SAR_B_CalcGain(resolution);
 366:Generated_Source\PSoC5/ADC_SAR_B.c **** }
 367:Generated_Source\PSoC5/ADC_SAR_B.c **** 
 368:Generated_Source\PSoC5/ADC_SAR_B.c **** 
 369:Generated_Source\PSoC5/ADC_SAR_B.c **** #if(ADC_SAR_B_DEFAULT_CONV_MODE != ADC_SAR_B__HARDWARE_TRIGGER)
 370:Generated_Source\PSoC5/ADC_SAR_B.c **** 
 371:Generated_Source\PSoC5/ADC_SAR_B.c **** 
 372:Generated_Source\PSoC5/ADC_SAR_B.c ****     /*******************************************************************************
 373:Generated_Source\PSoC5/ADC_SAR_B.c ****     * Function Name: ADC_SAR_B_StartConvert
 374:Generated_Source\PSoC5/ADC_SAR_B.c ****     ********************************************************************************
 375:Generated_Source\PSoC5/ADC_SAR_B.c ****     *
 376:Generated_Source\PSoC5/ADC_SAR_B.c ****     * Summary:
 377:Generated_Source\PSoC5/ADC_SAR_B.c ****     *  Forces the ADC to initiate a conversion. In free-running mode, the ADC runs
 378:Generated_Source\PSoC5/ADC_SAR_B.c ****     *  continuously. In software trigger mode, the function also acts as a software
 379:Generated_Source\PSoC5/ADC_SAR_B.c ****     *  version of the SOC and every conversion must be triggered by
 380:Generated_Source\PSoC5/ADC_SAR_B.c ****     *  ADC_SAR_B_StartConvert(). This function is not available when the
 381:Generated_Source\PSoC5/ADC_SAR_B.c ****     *  Hardware Trigger sample mode is selected.
 382:Generated_Source\PSoC5/ADC_SAR_B.c ****     *
 383:Generated_Source\PSoC5/ADC_SAR_B.c ****     * Parameters:
 384:Generated_Source\PSoC5/ADC_SAR_B.c ****     *  None.
 385:Generated_Source\PSoC5/ADC_SAR_B.c ****     *
 386:Generated_Source\PSoC5/ADC_SAR_B.c ****     * Return:
 387:Generated_Source\PSoC5/ADC_SAR_B.c ****     *  None.
 388:Generated_Source\PSoC5/ADC_SAR_B.c ****     *
 389:Generated_Source\PSoC5/ADC_SAR_B.c ****     * Theory:
 390:Generated_Source\PSoC5/ADC_SAR_B.c ****     *  Forces the ADC to initiate a conversion. In Free Running mode, the ADC will
 391:Generated_Source\PSoC5/ADC_SAR_B.c ****     *  run continuously. In a software trigger mode the function also acts as a
 392:Generated_Source\PSoC5/ADC_SAR_B.c ****     *  software version of the SOC. Here every conversion has to be triggered by
 393:Generated_Source\PSoC5/ADC_SAR_B.c ****     *  the routine. This writes into the SOC bit in SAR_CTRL reg.
 394:Generated_Source\PSoC5/ADC_SAR_B.c ****     *
 395:Generated_Source\PSoC5/ADC_SAR_B.c ****     * Side Effects:
 396:Generated_Source\PSoC5/ADC_SAR_B.c ****     *  In a software trigger mode the function switches source for SOF from the
 397:Generated_Source\PSoC5/ADC_SAR_B.c ****     *  external pin to the internal SOF generation. Application should not call
ARM GAS  C:\Users\ALEXAN~1\AppData\Local\Temp\ccyDS4Mg.s 			page 13


 398:Generated_Source\PSoC5/ADC_SAR_B.c ****     *  StartConvert if external source used for SOF.
 399:Generated_Source\PSoC5/ADC_SAR_B.c ****     *
 400:Generated_Source\PSoC5/ADC_SAR_B.c ****     *******************************************************************************/
 401:Generated_Source\PSoC5/ADC_SAR_B.c ****     void ADC_SAR_B_StartConvert(void)
 402:Generated_Source\PSoC5/ADC_SAR_B.c ****     {
 403:Generated_Source\PSoC5/ADC_SAR_B.c ****         #if(ADC_SAR_B_DEFAULT_CONV_MODE != ADC_SAR_B__FREE_RUNNING)  /* If software triggered mode 
 404:Generated_Source\PSoC5/ADC_SAR_B.c ****             ADC_SAR_B_SAR_CSR0_REG &= (uint8)~ADC_SAR_B_SAR_MX_SOF_UDB;   /* source: SOF bit */
 405:Generated_Source\PSoC5/ADC_SAR_B.c ****         #endif /* End ADC_SAR_B_DEFAULT_CONV_MODE */
 406:Generated_Source\PSoC5/ADC_SAR_B.c **** 
 407:Generated_Source\PSoC5/ADC_SAR_B.c ****         /* Start the conversion */
 408:Generated_Source\PSoC5/ADC_SAR_B.c ****         ADC_SAR_B_SAR_CSR0_REG |= ADC_SAR_B_SAR_SOF_START_CONV;
 409:Generated_Source\PSoC5/ADC_SAR_B.c ****     }
 410:Generated_Source\PSoC5/ADC_SAR_B.c **** 
 411:Generated_Source\PSoC5/ADC_SAR_B.c **** 
 412:Generated_Source\PSoC5/ADC_SAR_B.c ****     /*******************************************************************************
 413:Generated_Source\PSoC5/ADC_SAR_B.c ****     * Function Name: ADC_SAR_B_StopConvert
 414:Generated_Source\PSoC5/ADC_SAR_B.c ****     ********************************************************************************
 415:Generated_Source\PSoC5/ADC_SAR_B.c ****     *
 416:Generated_Source\PSoC5/ADC_SAR_B.c ****     * Summary:
 417:Generated_Source\PSoC5/ADC_SAR_B.c ****     *  Forces the ADC to stop conversions. If a conversion is currently executing,
 418:Generated_Source\PSoC5/ADC_SAR_B.c ****     *  that conversion will complete, but no further conversions will occur. This
 419:Generated_Source\PSoC5/ADC_SAR_B.c ****     *  function is not available when the Hardware Trigger sample mode is selected.
 420:Generated_Source\PSoC5/ADC_SAR_B.c ****     *
 421:Generated_Source\PSoC5/ADC_SAR_B.c ****     * Parameters:
 422:Generated_Source\PSoC5/ADC_SAR_B.c ****     *  None.
 423:Generated_Source\PSoC5/ADC_SAR_B.c ****     *
 424:Generated_Source\PSoC5/ADC_SAR_B.c ****     * Return:
 425:Generated_Source\PSoC5/ADC_SAR_B.c ****     *  None.
 426:Generated_Source\PSoC5/ADC_SAR_B.c ****     *
 427:Generated_Source\PSoC5/ADC_SAR_B.c ****     * Theory:
 428:Generated_Source\PSoC5/ADC_SAR_B.c ****     *  Stops ADC conversion in Free Running mode.
 429:Generated_Source\PSoC5/ADC_SAR_B.c ****     *
 430:Generated_Source\PSoC5/ADC_SAR_B.c ****     * Side Effects:
 431:Generated_Source\PSoC5/ADC_SAR_B.c ****     *  In Software Trigger sample mode, this function sets a software version of the
 432:Generated_Source\PSoC5/ADC_SAR_B.c ****     *  SOC to low level and switches the SOC source to hardware SOC input.
 433:Generated_Source\PSoC5/ADC_SAR_B.c ****     *
 434:Generated_Source\PSoC5/ADC_SAR_B.c ****     *******************************************************************************/
 435:Generated_Source\PSoC5/ADC_SAR_B.c ****     void ADC_SAR_B_StopConvert(void)
 436:Generated_Source\PSoC5/ADC_SAR_B.c ****     {
 437:Generated_Source\PSoC5/ADC_SAR_B.c ****         /* Stop all conversions */
 438:Generated_Source\PSoC5/ADC_SAR_B.c ****         ADC_SAR_B_SAR_CSR0_REG &= (uint8)~ADC_SAR_B_SAR_SOF_START_CONV;
 439:Generated_Source\PSoC5/ADC_SAR_B.c **** 
 440:Generated_Source\PSoC5/ADC_SAR_B.c ****         #if(ADC_SAR_B_DEFAULT_CONV_MODE != ADC_SAR_B__FREE_RUNNING)  /* If software triggered mode 
 441:Generated_Source\PSoC5/ADC_SAR_B.c ****             /* Return source to UDB for hardware SOF signal */
 442:Generated_Source\PSoC5/ADC_SAR_B.c ****             ADC_SAR_B_SAR_CSR0_REG |= ADC_SAR_B_SAR_MX_SOF_UDB;    /* source: UDB */
 443:Generated_Source\PSoC5/ADC_SAR_B.c ****         #endif /* End ADC_SAR_B_DEFAULT_CONV_MODE */
 444:Generated_Source\PSoC5/ADC_SAR_B.c **** 
 445:Generated_Source\PSoC5/ADC_SAR_B.c ****     }
 446:Generated_Source\PSoC5/ADC_SAR_B.c **** 
 447:Generated_Source\PSoC5/ADC_SAR_B.c **** #endif /* End ADC_SAR_B_DEFAULT_CONV_MODE != ADC_SAR_B__HARDWARE_TRIGGER */
 448:Generated_Source\PSoC5/ADC_SAR_B.c **** 
 449:Generated_Source\PSoC5/ADC_SAR_B.c **** 
 450:Generated_Source\PSoC5/ADC_SAR_B.c **** /*******************************************************************************
 451:Generated_Source\PSoC5/ADC_SAR_B.c **** * Function Name: ADC_SAR_B_IsEndConversion
 452:Generated_Source\PSoC5/ADC_SAR_B.c **** ********************************************************************************
 453:Generated_Source\PSoC5/ADC_SAR_B.c **** *
 454:Generated_Source\PSoC5/ADC_SAR_B.c **** * Summary:
ARM GAS  C:\Users\ALEXAN~1\AppData\Local\Temp\ccyDS4Mg.s 			page 14


 455:Generated_Source\PSoC5/ADC_SAR_B.c **** *  Immediately returns the status of the conversion or does not return
 456:Generated_Source\PSoC5/ADC_SAR_B.c **** *  (blocking) until the conversion completes, depending on the retMode
 457:Generated_Source\PSoC5/ADC_SAR_B.c **** *  parameter.
 458:Generated_Source\PSoC5/ADC_SAR_B.c **** *
 459:Generated_Source\PSoC5/ADC_SAR_B.c **** * Parameters:
 460:Generated_Source\PSoC5/ADC_SAR_B.c **** *  retMode:  Check conversion return mode.
 461:Generated_Source\PSoC5/ADC_SAR_B.c **** *   ADC_SAR_B_RETURN_STATUS: Immediately returns the status. If the
 462:Generated_Source\PSoC5/ADC_SAR_B.c **** *     value returned is zero, the conversion is not complete, and this function
 463:Generated_Source\PSoC5/ADC_SAR_B.c **** *     should be retried until a nonzero result is returned.
 464:Generated_Source\PSoC5/ADC_SAR_B.c **** *   ADC_SAR_B_WAIT_FOR_RESULT: Does not return a result until the ADC
 465:Generated_Source\PSoC5/ADC_SAR_B.c **** *     conversion is complete.
 466:Generated_Source\PSoC5/ADC_SAR_B.c **** *
 467:Generated_Source\PSoC5/ADC_SAR_B.c **** * Return:
 468:Generated_Source\PSoC5/ADC_SAR_B.c **** *  (uint8)  0 =>  The ADC is still calculating the last result.
 469:Generated_Source\PSoC5/ADC_SAR_B.c **** *           1 =>  The last conversion is complete.
 470:Generated_Source\PSoC5/ADC_SAR_B.c **** *
 471:Generated_Source\PSoC5/ADC_SAR_B.c **** * Side Effects:
 472:Generated_Source\PSoC5/ADC_SAR_B.c **** *  This function reads the end of conversion status, which is cleared on read.
 473:Generated_Source\PSoC5/ADC_SAR_B.c **** *
 474:Generated_Source\PSoC5/ADC_SAR_B.c **** *******************************************************************************/
 475:Generated_Source\PSoC5/ADC_SAR_B.c **** uint8 ADC_SAR_B_IsEndConversion(uint8 retMode)
 476:Generated_Source\PSoC5/ADC_SAR_B.c **** {
 477:Generated_Source\PSoC5/ADC_SAR_B.c ****     uint8 status;
 478:Generated_Source\PSoC5/ADC_SAR_B.c **** 
 479:Generated_Source\PSoC5/ADC_SAR_B.c ****     do
 480:Generated_Source\PSoC5/ADC_SAR_B.c ****     {
 481:Generated_Source\PSoC5/ADC_SAR_B.c ****         status = ADC_SAR_B_SAR_CSR1_REG & ADC_SAR_B_SAR_EOF_1;
 482:Generated_Source\PSoC5/ADC_SAR_B.c ****     } while ((status != ADC_SAR_B_SAR_EOF_1) && (retMode == ADC_SAR_B_WAIT_FOR_RESULT));
 483:Generated_Source\PSoC5/ADC_SAR_B.c ****     /* If convertion complete, wait until EOF bit released */
 484:Generated_Source\PSoC5/ADC_SAR_B.c ****     if(status == ADC_SAR_B_SAR_EOF_1)
 485:Generated_Source\PSoC5/ADC_SAR_B.c ****     {
 486:Generated_Source\PSoC5/ADC_SAR_B.c ****         /* wait one ADC clock to let the EOC status bit release */
 487:Generated_Source\PSoC5/ADC_SAR_B.c ****         CyDelayUs(1u);
 488:Generated_Source\PSoC5/ADC_SAR_B.c ****         /* Do the unconditional read operation of the CSR1 register to make sure the EOC bit has be
 489:Generated_Source\PSoC5/ADC_SAR_B.c ****         CY_GET_REG8(ADC_SAR_B_SAR_CSR1_PTR);
 490:Generated_Source\PSoC5/ADC_SAR_B.c ****     }
 491:Generated_Source\PSoC5/ADC_SAR_B.c **** 
 492:Generated_Source\PSoC5/ADC_SAR_B.c ****     return(status);
 493:Generated_Source\PSoC5/ADC_SAR_B.c **** }
 494:Generated_Source\PSoC5/ADC_SAR_B.c **** 
 495:Generated_Source\PSoC5/ADC_SAR_B.c **** 
 496:Generated_Source\PSoC5/ADC_SAR_B.c **** /*******************************************************************************
 497:Generated_Source\PSoC5/ADC_SAR_B.c **** * Function Name: ADC_SAR_B_GetResult8
 498:Generated_Source\PSoC5/ADC_SAR_B.c **** ********************************************************************************
 499:Generated_Source\PSoC5/ADC_SAR_B.c **** *
 500:Generated_Source\PSoC5/ADC_SAR_B.c **** * Summary:
 501:Generated_Source\PSoC5/ADC_SAR_B.c **** *  Returns the result of an 8-bit conversion. If the resolution is set greater
 502:Generated_Source\PSoC5/ADC_SAR_B.c **** *  than 8 bits, the function returns the LSB of the result.
 503:Generated_Source\PSoC5/ADC_SAR_B.c **** *  ADC_SAR_B_IsEndConversion() should be called to verify that the data
 504:Generated_Source\PSoC5/ADC_SAR_B.c **** *   sample is ready.
 505:Generated_Source\PSoC5/ADC_SAR_B.c **** *
 506:Generated_Source\PSoC5/ADC_SAR_B.c **** * Parameters:
 507:Generated_Source\PSoC5/ADC_SAR_B.c **** *  None.
 508:Generated_Source\PSoC5/ADC_SAR_B.c **** *
 509:Generated_Source\PSoC5/ADC_SAR_B.c **** * Return:
 510:Generated_Source\PSoC5/ADC_SAR_B.c **** *  The LSB of the last ADC conversion.
 511:Generated_Source\PSoC5/ADC_SAR_B.c **** *
ARM GAS  C:\Users\ALEXAN~1\AppData\Local\Temp\ccyDS4Mg.s 			page 15


 512:Generated_Source\PSoC5/ADC_SAR_B.c **** * Global Variables:
 513:Generated_Source\PSoC5/ADC_SAR_B.c **** *  ADC_SAR_B_shift - used to convert the ADC counts to the 2s
 514:Generated_Source\PSoC5/ADC_SAR_B.c **** *  compliment form.
 515:Generated_Source\PSoC5/ADC_SAR_B.c **** *
 516:Generated_Source\PSoC5/ADC_SAR_B.c **** * Side Effects:
 517:Generated_Source\PSoC5/ADC_SAR_B.c **** *  Converts the ADC counts to the 2s complement form.
 518:Generated_Source\PSoC5/ADC_SAR_B.c **** *
 519:Generated_Source\PSoC5/ADC_SAR_B.c **** *******************************************************************************/
 520:Generated_Source\PSoC5/ADC_SAR_B.c **** int8 ADC_SAR_B_GetResult8( void )
 521:Generated_Source\PSoC5/ADC_SAR_B.c **** {
 522:Generated_Source\PSoC5/ADC_SAR_B.c ****     return( (int8)ADC_SAR_B_SAR_WRK0_REG - (int8)ADC_SAR_B_shift);
 523:Generated_Source\PSoC5/ADC_SAR_B.c **** }
 524:Generated_Source\PSoC5/ADC_SAR_B.c **** 
 525:Generated_Source\PSoC5/ADC_SAR_B.c **** 
 526:Generated_Source\PSoC5/ADC_SAR_B.c **** /*******************************************************************************
 527:Generated_Source\PSoC5/ADC_SAR_B.c **** * Function Name: ADC_SAR_B_GetResult16
 528:Generated_Source\PSoC5/ADC_SAR_B.c **** ********************************************************************************
 529:Generated_Source\PSoC5/ADC_SAR_B.c **** *
 530:Generated_Source\PSoC5/ADC_SAR_B.c **** * Summary:
 531:Generated_Source\PSoC5/ADC_SAR_B.c **** *  Returns a 16-bit result for a conversion with a result that has a resolution
 532:Generated_Source\PSoC5/ADC_SAR_B.c **** *  of 8 to 12 bits.
 533:Generated_Source\PSoC5/ADC_SAR_B.c **** *  ADC_SAR_B_IsEndConversion() should be called to verify that the data
 534:Generated_Source\PSoC5/ADC_SAR_B.c **** *   sample is ready
 535:Generated_Source\PSoC5/ADC_SAR_B.c **** *
 536:Generated_Source\PSoC5/ADC_SAR_B.c **** * Parameters:
 537:Generated_Source\PSoC5/ADC_SAR_B.c **** *  None.
 538:Generated_Source\PSoC5/ADC_SAR_B.c **** *
 539:Generated_Source\PSoC5/ADC_SAR_B.c **** * Return:
 540:Generated_Source\PSoC5/ADC_SAR_B.c **** *  The 16-bit result of the last ADC conversion
 541:Generated_Source\PSoC5/ADC_SAR_B.c **** *
 542:Generated_Source\PSoC5/ADC_SAR_B.c **** * Global Variables:
 543:Generated_Source\PSoC5/ADC_SAR_B.c **** *  ADC_SAR_B_shift - used to convert the ADC counts to the 2s
 544:Generated_Source\PSoC5/ADC_SAR_B.c **** *  compliment form.
 545:Generated_Source\PSoC5/ADC_SAR_B.c **** *
 546:Generated_Source\PSoC5/ADC_SAR_B.c **** * Side Effects:
 547:Generated_Source\PSoC5/ADC_SAR_B.c **** *  Converts the ADC counts to the 2s complement form.
 548:Generated_Source\PSoC5/ADC_SAR_B.c **** *
 549:Generated_Source\PSoC5/ADC_SAR_B.c **** *******************************************************************************/
 550:Generated_Source\PSoC5/ADC_SAR_B.c **** int16 ADC_SAR_B_GetResult16( void )
 551:Generated_Source\PSoC5/ADC_SAR_B.c **** {
 552:Generated_Source\PSoC5/ADC_SAR_B.c ****     uint16 res;
 553:Generated_Source\PSoC5/ADC_SAR_B.c **** 
 554:Generated_Source\PSoC5/ADC_SAR_B.c ****     res = CY_GET_REG16(ADC_SAR_B_SAR_WRK_PTR);
 555:Generated_Source\PSoC5/ADC_SAR_B.c **** 
 556:Generated_Source\PSoC5/ADC_SAR_B.c ****     return( (int16)res - ADC_SAR_B_shift );
 557:Generated_Source\PSoC5/ADC_SAR_B.c **** }
 558:Generated_Source\PSoC5/ADC_SAR_B.c **** 
 559:Generated_Source\PSoC5/ADC_SAR_B.c **** 
 560:Generated_Source\PSoC5/ADC_SAR_B.c **** /*******************************************************************************
 561:Generated_Source\PSoC5/ADC_SAR_B.c **** * Function Name: ADC_SAR_B_SetOffset
 562:Generated_Source\PSoC5/ADC_SAR_B.c **** ********************************************************************************
 563:Generated_Source\PSoC5/ADC_SAR_B.c **** *
 564:Generated_Source\PSoC5/ADC_SAR_B.c **** * Summary:
 565:Generated_Source\PSoC5/ADC_SAR_B.c **** *  Sets the ADC offset, which is used by ADC_SAR_B_CountsTo_Volts(),
 566:Generated_Source\PSoC5/ADC_SAR_B.c **** *  ADC_SAR_B_CountsTo_mVolts(), and ADC_SAR_B_CountsTo_uVolts()
 567:Generated_Source\PSoC5/ADC_SAR_B.c **** *  to subtract the offset from the given reading before calculating the voltage
 568:Generated_Source\PSoC5/ADC_SAR_B.c **** *  conversion.
ARM GAS  C:\Users\ALEXAN~1\AppData\Local\Temp\ccyDS4Mg.s 			page 16


 569:Generated_Source\PSoC5/ADC_SAR_B.c **** *
 570:Generated_Source\PSoC5/ADC_SAR_B.c **** * Parameters:
 571:Generated_Source\PSoC5/ADC_SAR_B.c **** *  int16: This value is measured when the inputs are shorted or connected to
 572:Generated_Source\PSoC5/ADC_SAR_B.c ****    the same input voltage.
 573:Generated_Source\PSoC5/ADC_SAR_B.c **** *
 574:Generated_Source\PSoC5/ADC_SAR_B.c **** * Return:
 575:Generated_Source\PSoC5/ADC_SAR_B.c **** *  None.
 576:Generated_Source\PSoC5/ADC_SAR_B.c **** *
 577:Generated_Source\PSoC5/ADC_SAR_B.c **** * Global Variables:
 578:Generated_Source\PSoC5/ADC_SAR_B.c **** *  The ADC_SAR_B_offset variable modified. This variable is used for
 579:Generated_Source\PSoC5/ADC_SAR_B.c **** *  offset calibration purpose.
 580:Generated_Source\PSoC5/ADC_SAR_B.c **** *  Affects the ADC_SAR_B_CountsTo_Volts,
 581:Generated_Source\PSoC5/ADC_SAR_B.c **** *  ADC_SAR_B_CountsTo_mVolts, ADC_SAR_B_CountsTo_uVolts functions
 582:Generated_Source\PSoC5/ADC_SAR_B.c **** *  by subtracting the given offset.
 583:Generated_Source\PSoC5/ADC_SAR_B.c **** *
 584:Generated_Source\PSoC5/ADC_SAR_B.c **** *******************************************************************************/
 585:Generated_Source\PSoC5/ADC_SAR_B.c **** void ADC_SAR_B_SetOffset(int16 offset)
 586:Generated_Source\PSoC5/ADC_SAR_B.c **** {
 587:Generated_Source\PSoC5/ADC_SAR_B.c ****     ADC_SAR_B_offset = offset;
 588:Generated_Source\PSoC5/ADC_SAR_B.c **** }
 589:Generated_Source\PSoC5/ADC_SAR_B.c **** 
 590:Generated_Source\PSoC5/ADC_SAR_B.c **** 
 591:Generated_Source\PSoC5/ADC_SAR_B.c **** /*******************************************************************************
 592:Generated_Source\PSoC5/ADC_SAR_B.c **** * Function Name: ADC_SAR_B_CalcGain
 593:Generated_Source\PSoC5/ADC_SAR_B.c **** ********************************************************************************
 594:Generated_Source\PSoC5/ADC_SAR_B.c **** *
 595:Generated_Source\PSoC5/ADC_SAR_B.c **** * Summary:
 596:Generated_Source\PSoC5/ADC_SAR_B.c **** *  This function calculates the ADC gain in counts per 10 volt.
 597:Generated_Source\PSoC5/ADC_SAR_B.c **** *
 598:Generated_Source\PSoC5/ADC_SAR_B.c **** * Parameters:
 599:Generated_Source\PSoC5/ADC_SAR_B.c **** *  uint8: resolution
 600:Generated_Source\PSoC5/ADC_SAR_B.c **** *
 601:Generated_Source\PSoC5/ADC_SAR_B.c **** * Return:
 602:Generated_Source\PSoC5/ADC_SAR_B.c **** *  None.
 603:Generated_Source\PSoC5/ADC_SAR_B.c **** *
 604:Generated_Source\PSoC5/ADC_SAR_B.c **** * Global Variables:
 605:Generated_Source\PSoC5/ADC_SAR_B.c **** *  ADC_SAR_B_shift variable initialized. This variable is used to
 606:Generated_Source\PSoC5/ADC_SAR_B.c **** *  convert the ADC counts to the 2s compliment form.
 607:Generated_Source\PSoC5/ADC_SAR_B.c **** *  ADC_SAR_B_countsPer10Volt variable initialized. This variable is used
 608:Generated_Source\PSoC5/ADC_SAR_B.c **** *  for gain calibration purpose.
 609:Generated_Source\PSoC5/ADC_SAR_B.c **** *
 610:Generated_Source\PSoC5/ADC_SAR_B.c **** *******************************************************************************/
 611:Generated_Source\PSoC5/ADC_SAR_B.c **** static void ADC_SAR_B_CalcGain( uint8 resolution )
 612:Generated_Source\PSoC5/ADC_SAR_B.c **** {
 613:Generated_Source\PSoC5/ADC_SAR_B.c ****     int32 counts;
 614:Generated_Source\PSoC5/ADC_SAR_B.c ****     #if(!((ADC_SAR_B_DEFAULT_RANGE == ADC_SAR_B__VSS_TO_VREF) || \
 615:Generated_Source\PSoC5/ADC_SAR_B.c ****          (ADC_SAR_B_DEFAULT_RANGE == ADC_SAR_B__VSSA_TO_VDDA) || \
 616:Generated_Source\PSoC5/ADC_SAR_B.c ****          (ADC_SAR_B_DEFAULT_RANGE == ADC_SAR_B__VSSA_TO_VDAC)) )
 617:Generated_Source\PSoC5/ADC_SAR_B.c ****         uint16 diff_zero;
 618:Generated_Source\PSoC5/ADC_SAR_B.c ****     #endif /* End ADC_SAR_B_DEFAULT_RANGE */
 619:Generated_Source\PSoC5/ADC_SAR_B.c **** 
 620:Generated_Source\PSoC5/ADC_SAR_B.c ****     switch (resolution)
 621:Generated_Source\PSoC5/ADC_SAR_B.c ****     {
 622:Generated_Source\PSoC5/ADC_SAR_B.c ****         case (uint8)ADC_SAR_B__BITS_12:
 623:Generated_Source\PSoC5/ADC_SAR_B.c ****             counts = (int32)ADC_SAR_B_SAR_WRK_MAX_12BIT;
 624:Generated_Source\PSoC5/ADC_SAR_B.c ****             #if(!((ADC_SAR_B_DEFAULT_RANGE == ADC_SAR_B__VSS_TO_VREF) || \
 625:Generated_Source\PSoC5/ADC_SAR_B.c ****                  (ADC_SAR_B_DEFAULT_RANGE == ADC_SAR_B__VSSA_TO_VDDA) || \
ARM GAS  C:\Users\ALEXAN~1\AppData\Local\Temp\ccyDS4Mg.s 			page 17


 626:Generated_Source\PSoC5/ADC_SAR_B.c ****                  (ADC_SAR_B_DEFAULT_RANGE == ADC_SAR_B__VSSA_TO_VDAC)) )
 627:Generated_Source\PSoC5/ADC_SAR_B.c ****                 diff_zero = ADC_SAR_B_SAR_DIFF_SHIFT;
 628:Generated_Source\PSoC5/ADC_SAR_B.c ****             #endif /* End ADC_SAR_B_DEFAULT_RANGE */
 629:Generated_Source\PSoC5/ADC_SAR_B.c ****             break;
 630:Generated_Source\PSoC5/ADC_SAR_B.c ****         case (uint8)ADC_SAR_B__BITS_10:
 631:Generated_Source\PSoC5/ADC_SAR_B.c ****             counts = (int32)ADC_SAR_B_SAR_WRK_MAX_10BIT;
 632:Generated_Source\PSoC5/ADC_SAR_B.c ****             #if(!((ADC_SAR_B_DEFAULT_RANGE == ADC_SAR_B__VSS_TO_VREF) || \
 633:Generated_Source\PSoC5/ADC_SAR_B.c ****                  (ADC_SAR_B_DEFAULT_RANGE == ADC_SAR_B__VSSA_TO_VDDA) || \
 634:Generated_Source\PSoC5/ADC_SAR_B.c ****                  (ADC_SAR_B_DEFAULT_RANGE == ADC_SAR_B__VSSA_TO_VDAC)) )
 635:Generated_Source\PSoC5/ADC_SAR_B.c ****                 diff_zero = ADC_SAR_B_SAR_DIFF_SHIFT >> 2u;
 636:Generated_Source\PSoC5/ADC_SAR_B.c ****             #endif /* End ADC_SAR_B_DEFAULT_RANGE */
 637:Generated_Source\PSoC5/ADC_SAR_B.c ****             break;
 638:Generated_Source\PSoC5/ADC_SAR_B.c ****         case (uint8)ADC_SAR_B__BITS_8:
 639:Generated_Source\PSoC5/ADC_SAR_B.c ****             counts = (int32)ADC_SAR_B_SAR_WRK_MAX_8BIT;
 640:Generated_Source\PSoC5/ADC_SAR_B.c ****             #if(!((ADC_SAR_B_DEFAULT_RANGE == ADC_SAR_B__VSS_TO_VREF) || \
 641:Generated_Source\PSoC5/ADC_SAR_B.c ****                  (ADC_SAR_B_DEFAULT_RANGE == ADC_SAR_B__VSSA_TO_VDDA) || \
 642:Generated_Source\PSoC5/ADC_SAR_B.c ****                  (ADC_SAR_B_DEFAULT_RANGE == ADC_SAR_B__VSSA_TO_VDAC)) )
 643:Generated_Source\PSoC5/ADC_SAR_B.c ****                 diff_zero = ADC_SAR_B_SAR_DIFF_SHIFT >> 4u;
 644:Generated_Source\PSoC5/ADC_SAR_B.c ****             #endif /* End ADC_SAR_B_DEFAULT_RANGE */
 645:Generated_Source\PSoC5/ADC_SAR_B.c ****             break;
 646:Generated_Source\PSoC5/ADC_SAR_B.c ****         default: /* Halt CPU in debug mode if resolution is out of valid range */
 647:Generated_Source\PSoC5/ADC_SAR_B.c ****             counts = 0;
 648:Generated_Source\PSoC5/ADC_SAR_B.c ****             #if(!((ADC_SAR_B_DEFAULT_RANGE == ADC_SAR_B__VSS_TO_VREF) || \
 649:Generated_Source\PSoC5/ADC_SAR_B.c ****                  (ADC_SAR_B_DEFAULT_RANGE == ADC_SAR_B__VSSA_TO_VDDA) || \
 650:Generated_Source\PSoC5/ADC_SAR_B.c ****                  (ADC_SAR_B_DEFAULT_RANGE == ADC_SAR_B__VSSA_TO_VDAC)) )
 651:Generated_Source\PSoC5/ADC_SAR_B.c ****                 diff_zero = 0u;
 652:Generated_Source\PSoC5/ADC_SAR_B.c ****             #endif /* End ADC_SAR_B_DEFAULT_RANGE */
 653:Generated_Source\PSoC5/ADC_SAR_B.c ****             CYASSERT(0u != 0u);
 654:Generated_Source\PSoC5/ADC_SAR_B.c ****             break;
 655:Generated_Source\PSoC5/ADC_SAR_B.c ****     }
 656:Generated_Source\PSoC5/ADC_SAR_B.c ****     ADC_SAR_B_countsPerVolt = 0; /* Clear obsolete variable */
 270              		.loc 1 656 0
 271 0028 0A4B     		ldr	r3, .L18+8
 272              	.LBE5:
 273              	.LBE4:
 362:Generated_Source\PSoC5/ADC_SAR_B.c **** 
 274              		.loc 1 362 0
 275 002a 88BF     		it	hi
 276 002c 1146     		movhi	r1, r2
 277              	.LVL21:
 278              	.LBB7:
 279              	.LBB6:
 280              		.loc 1 656 0
 281 002e 1A80     		strh	r2, [r3]	@ movhi
 657:Generated_Source\PSoC5/ADC_SAR_B.c ****     /* Calculate gain in counts per 10 volts with rounding */
 658:Generated_Source\PSoC5/ADC_SAR_B.c ****     ADC_SAR_B_countsPer10Volt = (((counts * ADC_SAR_B_10MV_COUNTS) +
 659:Generated_Source\PSoC5/ADC_SAR_B.c ****                         ADC_SAR_B_DEFAULT_REF_VOLTAGE_MV) / (ADC_SAR_B_DEFAULT_REF_VOLTAGE_MV * 2))
 282              		.loc 1 659 0
 283 0030 42F21073 		movw	r3, #10000
 284 0034 4B43     		muls	r3, r1, r3
 285 0036 4FF40061 		mov	r1, #2048
 286              	.LVL22:
 287 003a 03F58063 		add	r3, r3, #1024
 288 003e 93FBF1F3 		sdiv	r3, r3, r1
 658:Generated_Source\PSoC5/ADC_SAR_B.c ****                         ADC_SAR_B_DEFAULT_REF_VOLTAGE_MV) / (ADC_SAR_B_DEFAULT_REF_VOLTAGE_MV * 2))
 289              		.loc 1 658 0
 290 0042 0549     		ldr	r1, .L18+12
ARM GAS  C:\Users\ALEXAN~1\AppData\Local\Temp\ccyDS4Mg.s 			page 18


 291 0044 0B60     		str	r3, [r1]
 660:Generated_Source\PSoC5/ADC_SAR_B.c **** 
 661:Generated_Source\PSoC5/ADC_SAR_B.c ****     #if( (ADC_SAR_B_DEFAULT_RANGE == ADC_SAR_B__VSS_TO_VREF) || \
 662:Generated_Source\PSoC5/ADC_SAR_B.c ****          (ADC_SAR_B_DEFAULT_RANGE == ADC_SAR_B__VSSA_TO_VDDA) || \
 663:Generated_Source\PSoC5/ADC_SAR_B.c ****          (ADC_SAR_B_DEFAULT_RANGE == ADC_SAR_B__VSSA_TO_VDAC) )
 664:Generated_Source\PSoC5/ADC_SAR_B.c ****         ADC_SAR_B_shift = 0;
 292              		.loc 1 664 0
 293 0046 054B     		ldr	r3, .L18+16
 294 0048 1A80     		strh	r2, [r3]	@ movhi
 295 004a 7047     		bx	lr
 296              	.L19:
 297              		.align	2
 298              	.L18:
 299 004c 02590040 		.word	1073764610
 300 0050 00000000 		.word	.LANCHOR0
 301 0054 00000000 		.word	ADC_SAR_B_countsPerVolt
 302 0058 00000000 		.word	ADC_SAR_B_countsPer10Volt
 303 005c 00000000 		.word	ADC_SAR_B_shift
 304              	.LBE6:
 305              	.LBE7:
 306              		.cfi_endproc
 307              	.LFE5:
 308              		.size	ADC_SAR_B_SetResolution, .-ADC_SAR_B_SetResolution
 309              		.section	.text.ADC_SAR_B_Init,"ax",%progbits
 310              		.align	1
 311              		.global	ADC_SAR_B_Init
 312              		.thumb
 313              		.thumb_func
 314              		.type	ADC_SAR_B_Init, %function
 315              	ADC_SAR_B_Init:
 316              	.LFB1:
 107:Generated_Source\PSoC5/ADC_SAR_B.c **** 
 317              		.loc 1 107 0
 318              		.cfi_startproc
 319              		@ args = 0, pretend = 0, frame = 0
 320              		@ frame_needed = 0, uses_anonymous_args = 0
 321 0000 08B5     		push	{r3, lr}
 322              		.cfi_def_cfa_offset 8
 323              		.cfi_offset 3, -8
 324              		.cfi_offset 14, -4
 111:Generated_Source\PSoC5/ADC_SAR_B.c ****     #endif /* End ADC_SAR_B_DEFAULT_INTERNAL_CLK */
 325              		.loc 1 111 0
 326 0002 1020     		movs	r0, #16
 327 0004 FFF7FEFF 		bl	ADC_SAR_B_theACLK_SetModeRegister
 328              	.LVL23:
 116:Generated_Source\PSoC5/ADC_SAR_B.c ****         (void)CyIntSetVector(ADC_SAR_B_INTC_NUMBER, &ADC_SAR_B_ISR);
 329              		.loc 1 116 0
 330 0008 0721     		movs	r1, #7
 331 000a 0320     		movs	r0, #3
 332 000c FFF7FEFF 		bl	CyIntSetPriority
 333              	.LVL24:
 117:Generated_Source\PSoC5/ADC_SAR_B.c ****     #endif   /* End ADC_SAR_B_IRQ_REMOVE */
 334              		.loc 1 117 0
 335 0010 0749     		ldr	r1, .L21
 336 0012 0320     		movs	r0, #3
 337 0014 FFF7FEFF 		bl	CyIntSetVector
 338              	.LVL25:
ARM GAS  C:\Users\ALEXAN~1\AppData\Local\Temp\ccyDS4Mg.s 			page 19


 121:Generated_Source\PSoC5/ADC_SAR_B.c **** 
 339              		.loc 1 121 0
 340 0018 064A     		ldr	r2, .L21+4
 124:Generated_Source\PSoC5/ADC_SAR_B.c ****     ADC_SAR_B_offset = 0;
 341              		.loc 1 124 0
 342 001a 0C20     		movs	r0, #12
 121:Generated_Source\PSoC5/ADC_SAR_B.c **** 
 343              		.loc 1 121 0
 344 001c 1378     		ldrb	r3, [r2]	@ zero_extendqisi2
 345 001e 43F00603 		orr	r3, r3, #6
 346 0022 1370     		strb	r3, [r2]
 124:Generated_Source\PSoC5/ADC_SAR_B.c ****     ADC_SAR_B_offset = 0;
 347              		.loc 1 124 0
 348 0024 FFF7FEFF 		bl	ADC_SAR_B_SetResolution
 349              	.LVL26:
 125:Generated_Source\PSoC5/ADC_SAR_B.c **** }
 350              		.loc 1 125 0
 351 0028 034B     		ldr	r3, .L21+8
 352 002a 0022     		movs	r2, #0
 353 002c 1A80     		strh	r2, [r3]	@ movhi
 354 002e 08BD     		pop	{r3, pc}
 355              	.L22:
 356              		.align	2
 357              	.L21:
 358 0030 00000000 		.word	ADC_SAR_B_ISR
 359 0034 01590040 		.word	1073764609
 360 0038 00000000 		.word	ADC_SAR_B_offset
 361              		.cfi_endproc
 362              	.LFE1:
 363              		.size	ADC_SAR_B_Init, .-ADC_SAR_B_Init
 364              		.section	.text.ADC_SAR_B_Start,"ax",%progbits
 365              		.align	1
 366              		.global	ADC_SAR_B_Start
 367              		.thumb
 368              		.thumb_func
 369              		.type	ADC_SAR_B_Start, %function
 370              	ADC_SAR_B_Start:
 371              	.LFB0:
  75:Generated_Source\PSoC5/ADC_SAR_B.c **** 
 372              		.loc 1 75 0
 373              		.cfi_startproc
 374              		@ args = 0, pretend = 0, frame = 0
 375              		@ frame_needed = 0, uses_anonymous_args = 0
 376 0000 10B5     		push	{r4, lr}
 377              		.cfi_def_cfa_offset 8
 378              		.cfi_offset 4, -8
 379              		.cfi_offset 14, -4
  78:Generated_Source\PSoC5/ADC_SAR_B.c ****     {
 380              		.loc 1 78 0
 381 0002 054C     		ldr	r4, .L25
 382 0004 2378     		ldrb	r3, [r4]	@ zero_extendqisi2
 383 0006 1BB9     		cbnz	r3, .L24
  80:Generated_Source\PSoC5/ADC_SAR_B.c ****         ADC_SAR_B_initVar = 1u;
 384              		.loc 1 80 0
 385 0008 FFF7FEFF 		bl	ADC_SAR_B_Init
 386              	.LVL27:
  81:Generated_Source\PSoC5/ADC_SAR_B.c ****     }
ARM GAS  C:\Users\ALEXAN~1\AppData\Local\Temp\ccyDS4Mg.s 			page 20


 387              		.loc 1 81 0
 388 000c 0123     		movs	r3, #1
 389 000e 2370     		strb	r3, [r4]
 390              	.L24:
  84:Generated_Source\PSoC5/ADC_SAR_B.c **** 
 391              		.loc 1 84 0
 392 0010 BDE81040 		pop	{r4, lr}
 393              		.cfi_restore 14
 394              		.cfi_restore 4
 395              		.cfi_def_cfa_offset 0
  83:Generated_Source\PSoC5/ADC_SAR_B.c **** }
 396              		.loc 1 83 0
 397 0014 FFF7FEBF 		b	ADC_SAR_B_Enable
 398              	.LVL28:
 399              	.L26:
 400              		.align	2
 401              	.L25:
 402 0018 00000000 		.word	.LANCHOR1
 403              		.cfi_endproc
 404              	.LFE0:
 405              		.size	ADC_SAR_B_Start, .-ADC_SAR_B_Start
 406              		.section	.text.ADC_SAR_B_StartConvert,"ax",%progbits
 407              		.align	1
 408              		.global	ADC_SAR_B_StartConvert
 409              		.thumb
 410              		.thumb_func
 411              		.type	ADC_SAR_B_StartConvert, %function
 412              	ADC_SAR_B_StartConvert:
 413              	.LFB6:
 402:Generated_Source\PSoC5/ADC_SAR_B.c ****         #if(ADC_SAR_B_DEFAULT_CONV_MODE != ADC_SAR_B__FREE_RUNNING)  /* If software triggered mode 
 414              		.loc 1 402 0
 415              		.cfi_startproc
 416              		@ args = 0, pretend = 0, frame = 0
 417              		@ frame_needed = 0, uses_anonymous_args = 0
 418              		@ link register save eliminated.
 408:Generated_Source\PSoC5/ADC_SAR_B.c ****     }
 419              		.loc 1 408 0
 420 0000 024A     		ldr	r2, .L28
 421 0002 1378     		ldrb	r3, [r2]	@ zero_extendqisi2
 422 0004 43F00103 		orr	r3, r3, #1
 423 0008 1370     		strb	r3, [r2]
 424 000a 7047     		bx	lr
 425              	.L29:
 426              		.align	2
 427              	.L28:
 428 000c 00590040 		.word	1073764608
 429              		.cfi_endproc
 430              	.LFE6:
 431              		.size	ADC_SAR_B_StartConvert, .-ADC_SAR_B_StartConvert
 432              		.section	.text.ADC_SAR_B_StopConvert,"ax",%progbits
 433              		.align	1
 434              		.global	ADC_SAR_B_StopConvert
 435              		.thumb
 436              		.thumb_func
 437              		.type	ADC_SAR_B_StopConvert, %function
 438              	ADC_SAR_B_StopConvert:
 439              	.LFB7:
ARM GAS  C:\Users\ALEXAN~1\AppData\Local\Temp\ccyDS4Mg.s 			page 21


 436:Generated_Source\PSoC5/ADC_SAR_B.c ****         /* Stop all conversions */
 440              		.loc 1 436 0
 441              		.cfi_startproc
 442              		@ args = 0, pretend = 0, frame = 0
 443              		@ frame_needed = 0, uses_anonymous_args = 0
 444              		@ link register save eliminated.
 438:Generated_Source\PSoC5/ADC_SAR_B.c **** 
 445              		.loc 1 438 0
 446 0000 024A     		ldr	r2, .L31
 447 0002 1378     		ldrb	r3, [r2]	@ zero_extendqisi2
 448 0004 03F0FE03 		and	r3, r3, #254
 449 0008 1370     		strb	r3, [r2]
 450 000a 7047     		bx	lr
 451              	.L32:
 452              		.align	2
 453              	.L31:
 454 000c 00590040 		.word	1073764608
 455              		.cfi_endproc
 456              	.LFE7:
 457              		.size	ADC_SAR_B_StopConvert, .-ADC_SAR_B_StopConvert
 458              		.section	.text.ADC_SAR_B_IsEndConversion,"ax",%progbits
 459              		.align	1
 460              		.global	ADC_SAR_B_IsEndConversion
 461              		.thumb
 462              		.thumb_func
 463              		.type	ADC_SAR_B_IsEndConversion, %function
 464              	ADC_SAR_B_IsEndConversion:
 465              	.LFB8:
 476:Generated_Source\PSoC5/ADC_SAR_B.c ****     uint8 status;
 466              		.loc 1 476 0
 467              		.cfi_startproc
 468              		@ args = 0, pretend = 0, frame = 0
 469              		@ frame_needed = 0, uses_anonymous_args = 0
 470              	.LVL29:
 471 0000 10B5     		push	{r4, lr}
 472              		.cfi_def_cfa_offset 8
 473              		.cfi_offset 4, -8
 474              		.cfi_offset 14, -4
 481:Generated_Source\PSoC5/ADC_SAR_B.c ****     } while ((status != ADC_SAR_B_SAR_EOF_1) && (retMode == ADC_SAR_B_WAIT_FOR_RESULT));
 475              		.loc 1 481 0
 476 0002 084B     		ldr	r3, .L40
 477              	.L35:
 481:Generated_Source\PSoC5/ADC_SAR_B.c ****     } while ((status != ADC_SAR_B_SAR_EOF_1) && (retMode == ADC_SAR_B_WAIT_FOR_RESULT));
 478              		.loc 1 481 0 is_stmt 0 discriminator 2
 479 0004 1C78     		ldrb	r4, [r3]	@ zero_extendqisi2
 480              	.LVL30:
 482:Generated_Source\PSoC5/ADC_SAR_B.c ****     /* If convertion complete, wait until EOF bit released */
 481              		.loc 1 482 0 is_stmt 1 discriminator 2
 482 0006 14F00104 		ands	r4, r4, #1
 483              	.LVL31:
 484 000a 03D1     		bne	.L34
 482:Generated_Source\PSoC5/ADC_SAR_B.c ****     /* If convertion complete, wait until EOF bit released */
 485              		.loc 1 482 0 is_stmt 0 discriminator 1
 486 000c 0028     		cmp	r0, #0
 487 000e F9D0     		beq	.L35
 488 0010 0024     		movs	r4, #0
 489 0012 04E0     		b	.L39
ARM GAS  C:\Users\ALEXAN~1\AppData\Local\Temp\ccyDS4Mg.s 			page 22


 490              	.L34:
 487:Generated_Source\PSoC5/ADC_SAR_B.c ****         /* Do the unconditional read operation of the CSR1 register to make sure the EOC bit has be
 491              		.loc 1 487 0 is_stmt 1
 492 0014 2046     		mov	r0, r4
 493              	.LVL32:
 494 0016 FFF7FEFF 		bl	CyDelayUs
 495              	.LVL33:
 489:Generated_Source\PSoC5/ADC_SAR_B.c ****     }
 496              		.loc 1 489 0
 497 001a 024B     		ldr	r3, .L40
 498 001c 1B78     		ldrb	r3, [r3]	@ zero_extendqisi2
 499              	.L39:
 493:Generated_Source\PSoC5/ADC_SAR_B.c **** 
 500              		.loc 1 493 0
 501 001e 2046     		mov	r0, r4
 502 0020 10BD     		pop	{r4, pc}
 503              	.L41:
 504 0022 00BF     		.align	2
 505              	.L40:
 506 0024 01590040 		.word	1073764609
 507              		.cfi_endproc
 508              	.LFE8:
 509              		.size	ADC_SAR_B_IsEndConversion, .-ADC_SAR_B_IsEndConversion
 510              		.section	.text.ADC_SAR_B_GetResult8,"ax",%progbits
 511              		.align	1
 512              		.global	ADC_SAR_B_GetResult8
 513              		.thumb
 514              		.thumb_func
 515              		.type	ADC_SAR_B_GetResult8, %function
 516              	ADC_SAR_B_GetResult8:
 517              	.LFB9:
 521:Generated_Source\PSoC5/ADC_SAR_B.c ****     return( (int8)ADC_SAR_B_SAR_WRK0_REG - (int8)ADC_SAR_B_shift);
 518              		.loc 1 521 0
 519              		.cfi_startproc
 520              		@ args = 0, pretend = 0, frame = 0
 521              		@ frame_needed = 0, uses_anonymous_args = 0
 522              		@ link register save eliminated.
 522:Generated_Source\PSoC5/ADC_SAR_B.c **** }
 523              		.loc 1 522 0
 524 0000 034A     		ldr	r2, .L43
 525 0002 044B     		ldr	r3, .L43+4
 526 0004 1B78     		ldrb	r3, [r3]	@ zero_extendqisi2
 527 0006 1088     		ldrh	r0, [r2]
 528 0008 181A     		subs	r0, r3, r0
 523:Generated_Source\PSoC5/ADC_SAR_B.c **** 
 529              		.loc 1 523 0
 530 000a 40B2     		sxtb	r0, r0
 531 000c 7047     		bx	lr
 532              	.L44:
 533 000e 00BF     		.align	2
 534              	.L43:
 535 0010 00000000 		.word	ADC_SAR_B_shift
 536 0014 A05B0040 		.word	1073765280
 537              		.cfi_endproc
 538              	.LFE9:
 539              		.size	ADC_SAR_B_GetResult8, .-ADC_SAR_B_GetResult8
 540              		.section	.text.ADC_SAR_B_GetResult16,"ax",%progbits
ARM GAS  C:\Users\ALEXAN~1\AppData\Local\Temp\ccyDS4Mg.s 			page 23


 541              		.align	1
 542              		.global	ADC_SAR_B_GetResult16
 543              		.thumb
 544              		.thumb_func
 545              		.type	ADC_SAR_B_GetResult16, %function
 546              	ADC_SAR_B_GetResult16:
 547              	.LFB10:
 551:Generated_Source\PSoC5/ADC_SAR_B.c ****     uint16 res;
 548              		.loc 1 551 0
 549              		.cfi_startproc
 550              		@ args = 0, pretend = 0, frame = 0
 551              		@ frame_needed = 0, uses_anonymous_args = 0
 552              		@ link register save eliminated.
 556:Generated_Source\PSoC5/ADC_SAR_B.c **** }
 553              		.loc 1 556 0
 554 0000 034A     		ldr	r2, .L46
 554:Generated_Source\PSoC5/ADC_SAR_B.c **** 
 555              		.loc 1 554 0
 556 0002 044B     		ldr	r3, .L46+4
 557 0004 1B88     		ldrh	r3, [r3]
 558              	.LVL34:
 556:Generated_Source\PSoC5/ADC_SAR_B.c **** }
 559              		.loc 1 556 0
 560 0006 1088     		ldrh	r0, [r2]
 561 0008 181A     		subs	r0, r3, r0
 557:Generated_Source\PSoC5/ADC_SAR_B.c **** 
 562              		.loc 1 557 0
 563 000a 00B2     		sxth	r0, r0
 564 000c 7047     		bx	lr
 565              	.L47:
 566 000e 00BF     		.align	2
 567              	.L46:
 568 0010 00000000 		.word	ADC_SAR_B_shift
 569 0014 A05B0040 		.word	1073765280
 570              		.cfi_endproc
 571              	.LFE10:
 572              		.size	ADC_SAR_B_GetResult16, .-ADC_SAR_B_GetResult16
 573              		.section	.text.ADC_SAR_B_SetOffset,"ax",%progbits
 574              		.align	1
 575              		.global	ADC_SAR_B_SetOffset
 576              		.thumb
 577              		.thumb_func
 578              		.type	ADC_SAR_B_SetOffset, %function
 579              	ADC_SAR_B_SetOffset:
 580              	.LFB11:
 586:Generated_Source\PSoC5/ADC_SAR_B.c ****     ADC_SAR_B_offset = offset;
 581              		.loc 1 586 0
 582              		.cfi_startproc
 583              		@ args = 0, pretend = 0, frame = 0
 584              		@ frame_needed = 0, uses_anonymous_args = 0
 585              		@ link register save eliminated.
 586              	.LVL35:
 587:Generated_Source\PSoC5/ADC_SAR_B.c **** }
 587              		.loc 1 587 0
 588 0000 014B     		ldr	r3, .L49
 589 0002 1880     		strh	r0, [r3]	@ movhi
 590 0004 7047     		bx	lr
ARM GAS  C:\Users\ALEXAN~1\AppData\Local\Temp\ccyDS4Mg.s 			page 24


 591              	.L50:
 592 0006 00BF     		.align	2
 593              	.L49:
 594 0008 00000000 		.word	ADC_SAR_B_offset
 595              		.cfi_endproc
 596              	.LFE11:
 597              		.size	ADC_SAR_B_SetOffset, .-ADC_SAR_B_SetOffset
 598              		.section	.text.ADC_SAR_B_SetGain,"ax",%progbits
 599              		.align	1
 600              		.global	ADC_SAR_B_SetGain
 601              		.thumb
 602              		.thumb_func
 603              		.type	ADC_SAR_B_SetGain, %function
 604              	ADC_SAR_B_SetGain:
 605              	.LFB13:
 665:Generated_Source\PSoC5/ADC_SAR_B.c ****     #else
 666:Generated_Source\PSoC5/ADC_SAR_B.c ****         ADC_SAR_B_shift = diff_zero;
 667:Generated_Source\PSoC5/ADC_SAR_B.c ****     #endif /* End ADC_SAR_B_DEFAULT_RANGE */
 668:Generated_Source\PSoC5/ADC_SAR_B.c **** }
 669:Generated_Source\PSoC5/ADC_SAR_B.c **** 
 670:Generated_Source\PSoC5/ADC_SAR_B.c **** 
 671:Generated_Source\PSoC5/ADC_SAR_B.c **** /*******************************************************************************
 672:Generated_Source\PSoC5/ADC_SAR_B.c **** * Function Name: ADC_SAR_B_SetGain
 673:Generated_Source\PSoC5/ADC_SAR_B.c **** ********************************************************************************
 674:Generated_Source\PSoC5/ADC_SAR_B.c **** *
 675:Generated_Source\PSoC5/ADC_SAR_B.c **** * Summary:
 676:Generated_Source\PSoC5/ADC_SAR_B.c **** *  Sets the ADC gain in counts per volt for the voltage conversion functions
 677:Generated_Source\PSoC5/ADC_SAR_B.c **** *  that follow. This value is set by default by the reference and input range
 678:Generated_Source\PSoC5/ADC_SAR_B.c **** *  settings. It should only be used to further calibrate the ADC with a known
 679:Generated_Source\PSoC5/ADC_SAR_B.c **** *  input or if the ADC is using an external reference.
 680:Generated_Source\PSoC5/ADC_SAR_B.c **** *
 681:Generated_Source\PSoC5/ADC_SAR_B.c **** * Parameters:
 682:Generated_Source\PSoC5/ADC_SAR_B.c **** *  int16 adcGain counts per volt
 683:Generated_Source\PSoC5/ADC_SAR_B.c **** *
 684:Generated_Source\PSoC5/ADC_SAR_B.c **** * Return:
 685:Generated_Source\PSoC5/ADC_SAR_B.c **** *  None.
 686:Generated_Source\PSoC5/ADC_SAR_B.c **** *
 687:Generated_Source\PSoC5/ADC_SAR_B.c **** * Global Variables:
 688:Generated_Source\PSoC5/ADC_SAR_B.c **** *  ADC_SAR_B_countsPer10Volt variable modified. This variable is used
 689:Generated_Source\PSoC5/ADC_SAR_B.c **** *  for gain calibration purpose.
 690:Generated_Source\PSoC5/ADC_SAR_B.c **** *
 691:Generated_Source\PSoC5/ADC_SAR_B.c **** *******************************************************************************/
 692:Generated_Source\PSoC5/ADC_SAR_B.c **** void ADC_SAR_B_SetGain(int16 adcGain)
 693:Generated_Source\PSoC5/ADC_SAR_B.c **** {
 606              		.loc 1 693 0
 607              		.cfi_startproc
 608              		@ args = 0, pretend = 0, frame = 0
 609              		@ frame_needed = 0, uses_anonymous_args = 0
 610              		@ link register save eliminated.
 611              	.LVL36:
 694:Generated_Source\PSoC5/ADC_SAR_B.c ****     ADC_SAR_B_countsPer10Volt = (int32)adcGain * 10;
 612              		.loc 1 694 0
 613 0000 0A23     		movs	r3, #10
 614 0002 5843     		muls	r0, r3, r0
 615              	.LVL37:
 616 0004 014B     		ldr	r3, .L52
 617 0006 1860     		str	r0, [r3]
ARM GAS  C:\Users\ALEXAN~1\AppData\Local\Temp\ccyDS4Mg.s 			page 25


 618 0008 7047     		bx	lr
 619              	.L53:
 620 000a 00BF     		.align	2
 621              	.L52:
 622 000c 00000000 		.word	ADC_SAR_B_countsPer10Volt
 623              		.cfi_endproc
 624              	.LFE13:
 625              		.size	ADC_SAR_B_SetGain, .-ADC_SAR_B_SetGain
 626              		.section	.text.ADC_SAR_B_SetScaledGain,"ax",%progbits
 627              		.align	1
 628              		.global	ADC_SAR_B_SetScaledGain
 629              		.thumb
 630              		.thumb_func
 631              		.type	ADC_SAR_B_SetScaledGain, %function
 632              	ADC_SAR_B_SetScaledGain:
 633              	.LFB14:
 695:Generated_Source\PSoC5/ADC_SAR_B.c **** }
 696:Generated_Source\PSoC5/ADC_SAR_B.c **** 
 697:Generated_Source\PSoC5/ADC_SAR_B.c **** 
 698:Generated_Source\PSoC5/ADC_SAR_B.c **** /*******************************************************************************
 699:Generated_Source\PSoC5/ADC_SAR_B.c **** * Function Name: ADC_SAR_B_SetScaledGain
 700:Generated_Source\PSoC5/ADC_SAR_B.c **** ********************************************************************************
 701:Generated_Source\PSoC5/ADC_SAR_B.c **** *
 702:Generated_Source\PSoC5/ADC_SAR_B.c **** * Summary:
 703:Generated_Source\PSoC5/ADC_SAR_B.c **** *  Sets the ADC gain in counts per 10 volt for the voltage conversion functions
 704:Generated_Source\PSoC5/ADC_SAR_B.c **** *  that follow. This value is set by default by the reference and input range
 705:Generated_Source\PSoC5/ADC_SAR_B.c **** *  settings. It should only be used to further calibrate the ADC with a known
 706:Generated_Source\PSoC5/ADC_SAR_B.c **** *  input or if the ADC is using an external reference.
 707:Generated_Source\PSoC5/ADC_SAR_B.c **** *
 708:Generated_Source\PSoC5/ADC_SAR_B.c **** * Parameters:
 709:Generated_Source\PSoC5/ADC_SAR_B.c **** *  int32 adcGain  counts per 10 volt
 710:Generated_Source\PSoC5/ADC_SAR_B.c **** *
 711:Generated_Source\PSoC5/ADC_SAR_B.c **** * Return:
 712:Generated_Source\PSoC5/ADC_SAR_B.c **** *  None.
 713:Generated_Source\PSoC5/ADC_SAR_B.c **** *
 714:Generated_Source\PSoC5/ADC_SAR_B.c **** * Global Variables:
 715:Generated_Source\PSoC5/ADC_SAR_B.c **** *  ADC_SAR_B_countsPer10Volt variable modified. This variable is used
 716:Generated_Source\PSoC5/ADC_SAR_B.c **** *  for gain calibration purpose.
 717:Generated_Source\PSoC5/ADC_SAR_B.c **** *
 718:Generated_Source\PSoC5/ADC_SAR_B.c **** *******************************************************************************/
 719:Generated_Source\PSoC5/ADC_SAR_B.c **** void ADC_SAR_B_SetScaledGain(int32 adcGain)
 720:Generated_Source\PSoC5/ADC_SAR_B.c **** {
 634              		.loc 1 720 0
 635              		.cfi_startproc
 636              		@ args = 0, pretend = 0, frame = 0
 637              		@ frame_needed = 0, uses_anonymous_args = 0
 638              		@ link register save eliminated.
 639              	.LVL38:
 721:Generated_Source\PSoC5/ADC_SAR_B.c ****     ADC_SAR_B_countsPer10Volt = adcGain;
 640              		.loc 1 721 0
 641 0000 014B     		ldr	r3, .L55
 642 0002 1860     		str	r0, [r3]
 643 0004 7047     		bx	lr
 644              	.L56:
 645 0006 00BF     		.align	2
 646              	.L55:
 647 0008 00000000 		.word	ADC_SAR_B_countsPer10Volt
ARM GAS  C:\Users\ALEXAN~1\AppData\Local\Temp\ccyDS4Mg.s 			page 26


 648              		.cfi_endproc
 649              	.LFE14:
 650              		.size	ADC_SAR_B_SetScaledGain, .-ADC_SAR_B_SetScaledGain
 651              		.section	.text.ADC_SAR_B_CountsTo_mVolts,"ax",%progbits
 652              		.align	1
 653              		.global	ADC_SAR_B_CountsTo_mVolts
 654              		.thumb
 655              		.thumb_func
 656              		.type	ADC_SAR_B_CountsTo_mVolts, %function
 657              	ADC_SAR_B_CountsTo_mVolts:
 658              	.LFB15:
 722:Generated_Source\PSoC5/ADC_SAR_B.c **** }
 723:Generated_Source\PSoC5/ADC_SAR_B.c **** 
 724:Generated_Source\PSoC5/ADC_SAR_B.c **** 
 725:Generated_Source\PSoC5/ADC_SAR_B.c **** /*******************************************************************************
 726:Generated_Source\PSoC5/ADC_SAR_B.c **** * Function Name: ADC_SAR_B_CountsTo_mVolts
 727:Generated_Source\PSoC5/ADC_SAR_B.c **** ********************************************************************************
 728:Generated_Source\PSoC5/ADC_SAR_B.c **** *
 729:Generated_Source\PSoC5/ADC_SAR_B.c **** * Summary:
 730:Generated_Source\PSoC5/ADC_SAR_B.c **** *  Converts the ADC output to millivolts as a 16-bit integer.
 731:Generated_Source\PSoC5/ADC_SAR_B.c **** *
 732:Generated_Source\PSoC5/ADC_SAR_B.c **** * Parameters:
 733:Generated_Source\PSoC5/ADC_SAR_B.c **** *  int16 adcCounts:  Result from the ADC conversion
 734:Generated_Source\PSoC5/ADC_SAR_B.c **** *
 735:Generated_Source\PSoC5/ADC_SAR_B.c **** * Return:
 736:Generated_Source\PSoC5/ADC_SAR_B.c **** *  int16 Result in mVolts
 737:Generated_Source\PSoC5/ADC_SAR_B.c **** *
 738:Generated_Source\PSoC5/ADC_SAR_B.c **** * Global Variables:
 739:Generated_Source\PSoC5/ADC_SAR_B.c **** *  ADC_SAR_B_offset variable used.
 740:Generated_Source\PSoC5/ADC_SAR_B.c **** *  ADC_SAR_B_countsPer10Volt variable used.
 741:Generated_Source\PSoC5/ADC_SAR_B.c **** *
 742:Generated_Source\PSoC5/ADC_SAR_B.c **** *******************************************************************************/
 743:Generated_Source\PSoC5/ADC_SAR_B.c **** int16 ADC_SAR_B_CountsTo_mVolts(int16 adcCounts)
 744:Generated_Source\PSoC5/ADC_SAR_B.c **** {
 659              		.loc 1 744 0
 660              		.cfi_startproc
 661              		@ args = 0, pretend = 0, frame = 0
 662              		@ frame_needed = 0, uses_anonymous_args = 0
 663              		@ link register save eliminated.
 664              	.LVL39:
 745:Generated_Source\PSoC5/ADC_SAR_B.c ****     int16 mVolts;
 746:Generated_Source\PSoC5/ADC_SAR_B.c ****     int32 countsPer10Volt;
 747:Generated_Source\PSoC5/ADC_SAR_B.c **** 
 748:Generated_Source\PSoC5/ADC_SAR_B.c ****     if(ADC_SAR_B_countsPerVolt != 0)
 665              		.loc 1 748 0
 666 0000 0E4A     		ldr	r2, .L62
 667 0002 1388     		ldrh	r3, [r2]
 668 0004 1BB2     		sxth	r3, r3
 669 0006 23B1     		cbz	r3, .L58
 749:Generated_Source\PSoC5/ADC_SAR_B.c ****     {   /* Support obsolete method */
 750:Generated_Source\PSoC5/ADC_SAR_B.c ****         countsPer10Volt = (int32)ADC_SAR_B_countsPerVolt * 10;
 670              		.loc 1 750 0
 671 0008 1188     		ldrh	r1, [r2]
 672 000a 0A23     		movs	r3, #10
 673 000c 09B2     		sxth	r1, r1
 674 000e 5943     		muls	r1, r3, r1
 675              	.LVL40:
ARM GAS  C:\Users\ALEXAN~1\AppData\Local\Temp\ccyDS4Mg.s 			page 27


 676 0010 01E0     		b	.L59
 677              	.LVL41:
 678              	.L58:
 751:Generated_Source\PSoC5/ADC_SAR_B.c ****     }
 752:Generated_Source\PSoC5/ADC_SAR_B.c ****     else
 753:Generated_Source\PSoC5/ADC_SAR_B.c ****     {
 754:Generated_Source\PSoC5/ADC_SAR_B.c ****         countsPer10Volt = ADC_SAR_B_countsPer10Volt;
 679              		.loc 1 754 0
 680 0012 0B4B     		ldr	r3, .L62+4
 681 0014 1968     		ldr	r1, [r3]
 682              	.LVL42:
 683              	.L59:
 755:Generated_Source\PSoC5/ADC_SAR_B.c ****     }
 756:Generated_Source\PSoC5/ADC_SAR_B.c **** 
 757:Generated_Source\PSoC5/ADC_SAR_B.c ****     /* Subtract ADC offset */
 758:Generated_Source\PSoC5/ADC_SAR_B.c ****     adcCounts -= ADC_SAR_B_offset;
 684              		.loc 1 758 0
 685 0016 0B4B     		ldr	r3, .L62+8
 686 0018 1B88     		ldrh	r3, [r3]
 687 001a C01A     		subs	r0, r0, r3
 688              	.LVL43:
 759:Generated_Source\PSoC5/ADC_SAR_B.c ****     /* Convert to millivolts with rounding */
 760:Generated_Source\PSoC5/ADC_SAR_B.c ****     mVolts = (int16)( (( (int32)adcCounts * ADC_SAR_B_10MV_COUNTS ) + ( (adcCounts > 0) ?
 689              		.loc 1 760 0
 690 001c 42F21073 		movw	r3, #10000
 758:Generated_Source\PSoC5/ADC_SAR_B.c ****     /* Convert to millivolts with rounding */
 691              		.loc 1 758 0
 692 0020 00B2     		sxth	r0, r0
 693              	.LVL44:
 694              		.loc 1 760 0
 695 0022 03FB00F2 		mul	r2, r3, r0
 696 0026 0223     		movs	r3, #2
 761:Generated_Source\PSoC5/ADC_SAR_B.c ****                        (countsPer10Volt / 2) : (-(countsPer10Volt / 2)) )) / countsPer10Volt);
 697              		.loc 1 761 0
 698 0028 91FBF3F3 		sdiv	r3, r1, r3
 699 002c 0028     		cmp	r0, #0
 700 002e D8BF     		it	le
 701 0030 5B42     		rsble	r3, r3, #0
 702              	.LVL45:
 762:Generated_Source\PSoC5/ADC_SAR_B.c **** 
 763:Generated_Source\PSoC5/ADC_SAR_B.c ****     return( mVolts );
 703              		.loc 1 763 0
 704 0032 1344     		add	r3, r3, r2
 705              	.LVL46:
 706 0034 93FBF1F0 		sdiv	r0, r3, r1
 707              	.LVL47:
 764:Generated_Source\PSoC5/ADC_SAR_B.c **** }
 708              		.loc 1 764 0
 709 0038 00B2     		sxth	r0, r0
 710 003a 7047     		bx	lr
 711              	.L63:
 712              		.align	2
 713              	.L62:
 714 003c 00000000 		.word	ADC_SAR_B_countsPerVolt
 715 0040 00000000 		.word	ADC_SAR_B_countsPer10Volt
 716 0044 00000000 		.word	ADC_SAR_B_offset
 717              		.cfi_endproc
ARM GAS  C:\Users\ALEXAN~1\AppData\Local\Temp\ccyDS4Mg.s 			page 28


 718              	.LFE15:
 719              		.size	ADC_SAR_B_CountsTo_mVolts, .-ADC_SAR_B_CountsTo_mVolts
 720              		.global	__aeabi_ldivmod
 721              		.section	.text.ADC_SAR_B_CountsTo_uVolts,"ax",%progbits
 722              		.align	1
 723              		.global	ADC_SAR_B_CountsTo_uVolts
 724              		.thumb
 725              		.thumb_func
 726              		.type	ADC_SAR_B_CountsTo_uVolts, %function
 727              	ADC_SAR_B_CountsTo_uVolts:
 728              	.LFB16:
 765:Generated_Source\PSoC5/ADC_SAR_B.c **** 
 766:Generated_Source\PSoC5/ADC_SAR_B.c **** 
 767:Generated_Source\PSoC5/ADC_SAR_B.c **** /*******************************************************************************
 768:Generated_Source\PSoC5/ADC_SAR_B.c **** * Function Name: ADC_SAR_B_CountsTo_uVolts
 769:Generated_Source\PSoC5/ADC_SAR_B.c **** ********************************************************************************
 770:Generated_Source\PSoC5/ADC_SAR_B.c **** *
 771:Generated_Source\PSoC5/ADC_SAR_B.c **** * Summary:
 772:Generated_Source\PSoC5/ADC_SAR_B.c **** *  Converts the ADC output to microvolts as a 32-bit integer.
 773:Generated_Source\PSoC5/ADC_SAR_B.c **** *
 774:Generated_Source\PSoC5/ADC_SAR_B.c **** * Parameters:
 775:Generated_Source\PSoC5/ADC_SAR_B.c **** *  int16 adcCounts: Result from the ADC conversion
 776:Generated_Source\PSoC5/ADC_SAR_B.c **** *
 777:Generated_Source\PSoC5/ADC_SAR_B.c **** * Return:
 778:Generated_Source\PSoC5/ADC_SAR_B.c **** *  int32 Result in micro Volts
 779:Generated_Source\PSoC5/ADC_SAR_B.c **** *
 780:Generated_Source\PSoC5/ADC_SAR_B.c **** * Global Variables:
 781:Generated_Source\PSoC5/ADC_SAR_B.c **** *  ADC_SAR_B_offset variable used.
 782:Generated_Source\PSoC5/ADC_SAR_B.c **** *  ADC_SAR_B_countsPer10Volt used to convert ADC counts to uVolts.
 783:Generated_Source\PSoC5/ADC_SAR_B.c **** *
 784:Generated_Source\PSoC5/ADC_SAR_B.c **** *******************************************************************************/
 785:Generated_Source\PSoC5/ADC_SAR_B.c **** int32 ADC_SAR_B_CountsTo_uVolts(int16 adcCounts)
 786:Generated_Source\PSoC5/ADC_SAR_B.c **** {
 729              		.loc 1 786 0
 730              		.cfi_startproc
 731              		@ args = 0, pretend = 0, frame = 0
 732              		@ frame_needed = 0, uses_anonymous_args = 0
 733              	.LVL48:
 787:Generated_Source\PSoC5/ADC_SAR_B.c **** 
 788:Generated_Source\PSoC5/ADC_SAR_B.c ****     int64 uVolts;
 789:Generated_Source\PSoC5/ADC_SAR_B.c ****     int32 countsPer10Volt;
 790:Generated_Source\PSoC5/ADC_SAR_B.c **** 
 791:Generated_Source\PSoC5/ADC_SAR_B.c ****     if(ADC_SAR_B_countsPerVolt != 0)
 734              		.loc 1 791 0
 735 0000 0C4A     		ldr	r2, .L67
 786:Generated_Source\PSoC5/ADC_SAR_B.c **** 
 736              		.loc 1 786 0
 737 0002 38B5     		push	{r3, r4, r5, lr}
 738              		.cfi_def_cfa_offset 16
 739              		.cfi_offset 3, -16
 740              		.cfi_offset 4, -12
 741              		.cfi_offset 5, -8
 742              		.cfi_offset 14, -4
 743              		.loc 1 791 0
 744 0004 1388     		ldrh	r3, [r2]
 745 0006 1BB2     		sxth	r3, r3
 746 0008 23B1     		cbz	r3, .L65
ARM GAS  C:\Users\ALEXAN~1\AppData\Local\Temp\ccyDS4Mg.s 			page 29


 792:Generated_Source\PSoC5/ADC_SAR_B.c ****     {   /* Support obsolete method */
 793:Generated_Source\PSoC5/ADC_SAR_B.c ****         countsPer10Volt = (int32)ADC_SAR_B_countsPerVolt * 10;
 747              		.loc 1 793 0
 748 000a 1288     		ldrh	r2, [r2]
 749 000c 0A23     		movs	r3, #10
 750 000e 12B2     		sxth	r2, r2
 751 0010 5A43     		muls	r2, r3, r2
 752              	.LVL49:
 753 0012 01E0     		b	.L66
 754              	.LVL50:
 755              	.L65:
 794:Generated_Source\PSoC5/ADC_SAR_B.c ****     }
 795:Generated_Source\PSoC5/ADC_SAR_B.c ****     else
 796:Generated_Source\PSoC5/ADC_SAR_B.c ****     {
 797:Generated_Source\PSoC5/ADC_SAR_B.c ****         countsPer10Volt = ADC_SAR_B_countsPer10Volt;
 756              		.loc 1 797 0
 757 0014 084B     		ldr	r3, .L67+4
 758 0016 1A68     		ldr	r2, [r3]
 759              	.LVL51:
 760              	.L66:
 798:Generated_Source\PSoC5/ADC_SAR_B.c ****     }
 799:Generated_Source\PSoC5/ADC_SAR_B.c **** 
 800:Generated_Source\PSoC5/ADC_SAR_B.c ****     /* Subtract ADC offset */
 801:Generated_Source\PSoC5/ADC_SAR_B.c ****     adcCounts -= ADC_SAR_B_offset;
 761              		.loc 1 801 0
 762 0018 084B     		ldr	r3, .L67+8
 763 001a 1C88     		ldrh	r4, [r3]
 802:Generated_Source\PSoC5/ADC_SAR_B.c ****     /* To convert adcCounts to microVolts it is required to be multiplied
 803:Generated_Source\PSoC5/ADC_SAR_B.c ****     *  on 10 million and later divide on gain in counts per 10V.
 804:Generated_Source\PSoC5/ADC_SAR_B.c ****     */
 805:Generated_Source\PSoC5/ADC_SAR_B.c ****     uVolts = (( (int64)adcCounts * ADC_SAR_B_10UV_COUNTS ) / countsPer10Volt);
 806:Generated_Source\PSoC5/ADC_SAR_B.c **** 
 807:Generated_Source\PSoC5/ADC_SAR_B.c ****     return((int32) uVolts );
 764              		.loc 1 807 0
 765 001c 084B     		ldr	r3, .L67+12
 801:Generated_Source\PSoC5/ADC_SAR_B.c ****     /* To convert adcCounts to microVolts it is required to be multiplied
 766              		.loc 1 801 0
 767 001e 041B     		subs	r4, r0, r4
 768              	.LVL52:
 769              		.loc 1 807 0
 770 0020 24B2     		sxth	r4, r4
 771 0022 A4FB0301 		umull	r0, r1, r4, r3
 772 0026 E517     		asrs	r5, r4, #31
 773 0028 03FB0511 		mla	r1, r3, r5, r1
 774 002c D317     		asrs	r3, r2, #31
 775 002e FFF7FEFF 		bl	__aeabi_ldivmod
 776              	.LVL53:
 808:Generated_Source\PSoC5/ADC_SAR_B.c **** }
 777              		.loc 1 808 0
 778 0032 38BD     		pop	{r3, r4, r5, pc}
 779              	.LVL54:
 780              	.L68:
 781              		.align	2
 782              	.L67:
 783 0034 00000000 		.word	ADC_SAR_B_countsPerVolt
 784 0038 00000000 		.word	ADC_SAR_B_countsPer10Volt
 785 003c 00000000 		.word	ADC_SAR_B_offset
ARM GAS  C:\Users\ALEXAN~1\AppData\Local\Temp\ccyDS4Mg.s 			page 30


 786 0040 80969800 		.word	10000000
 787              		.cfi_endproc
 788              	.LFE16:
 789              		.size	ADC_SAR_B_CountsTo_uVolts, .-ADC_SAR_B_CountsTo_uVolts
 790              		.global	__aeabi_i2f
 791              		.global	__aeabi_fmul
 792              		.global	__aeabi_fdiv
 793              		.section	.text.ADC_SAR_B_CountsTo_Volts,"ax",%progbits
 794              		.align	1
 795              		.global	ADC_SAR_B_CountsTo_Volts
 796              		.thumb
 797              		.thumb_func
 798              		.type	ADC_SAR_B_CountsTo_Volts, %function
 799              	ADC_SAR_B_CountsTo_Volts:
 800              	.LFB17:
 809:Generated_Source\PSoC5/ADC_SAR_B.c **** 
 810:Generated_Source\PSoC5/ADC_SAR_B.c **** 
 811:Generated_Source\PSoC5/ADC_SAR_B.c **** /*******************************************************************************
 812:Generated_Source\PSoC5/ADC_SAR_B.c **** * Function Name: ADC_SAR_B_CountsTo_Volts
 813:Generated_Source\PSoC5/ADC_SAR_B.c **** ********************************************************************************
 814:Generated_Source\PSoC5/ADC_SAR_B.c **** *
 815:Generated_Source\PSoC5/ADC_SAR_B.c **** * Summary:
 816:Generated_Source\PSoC5/ADC_SAR_B.c **** *  Converts the ADC output to volts as a floating-point number.
 817:Generated_Source\PSoC5/ADC_SAR_B.c **** *
 818:Generated_Source\PSoC5/ADC_SAR_B.c **** * Parameters:
 819:Generated_Source\PSoC5/ADC_SAR_B.c **** *  int16 adcCounts: Result from the ADC conversion
 820:Generated_Source\PSoC5/ADC_SAR_B.c **** *
 821:Generated_Source\PSoC5/ADC_SAR_B.c **** * Return:
 822:Generated_Source\PSoC5/ADC_SAR_B.c **** *  float Result in Volts
 823:Generated_Source\PSoC5/ADC_SAR_B.c **** *
 824:Generated_Source\PSoC5/ADC_SAR_B.c **** * Global Variables:
 825:Generated_Source\PSoC5/ADC_SAR_B.c **** *  ADC_SAR_B_offset variable used.
 826:Generated_Source\PSoC5/ADC_SAR_B.c **** *  ADC_SAR_B_countsPer10Volt used to convert ADC counts to Volts.
 827:Generated_Source\PSoC5/ADC_SAR_B.c **** *
 828:Generated_Source\PSoC5/ADC_SAR_B.c **** *******************************************************************************/
 829:Generated_Source\PSoC5/ADC_SAR_B.c **** float32 ADC_SAR_B_CountsTo_Volts(int16 adcCounts)
 830:Generated_Source\PSoC5/ADC_SAR_B.c **** {
 801              		.loc 1 830 0
 802              		.cfi_startproc
 803              		@ args = 0, pretend = 0, frame = 0
 804              		@ frame_needed = 0, uses_anonymous_args = 0
 805              	.LVL55:
 831:Generated_Source\PSoC5/ADC_SAR_B.c ****     float32 volts;
 832:Generated_Source\PSoC5/ADC_SAR_B.c ****     int32 countsPer10Volt;
 833:Generated_Source\PSoC5/ADC_SAR_B.c **** 
 834:Generated_Source\PSoC5/ADC_SAR_B.c ****     if(ADC_SAR_B_countsPerVolt != 0)
 806              		.loc 1 834 0
 807 0000 0E4A     		ldr	r2, .L72
 830:Generated_Source\PSoC5/ADC_SAR_B.c ****     float32 volts;
 808              		.loc 1 830 0
 809 0002 38B5     		push	{r3, r4, r5, lr}
 810              		.cfi_def_cfa_offset 16
 811              		.cfi_offset 3, -16
 812              		.cfi_offset 4, -12
 813              		.cfi_offset 5, -8
 814              		.cfi_offset 14, -4
 815              		.loc 1 834 0
ARM GAS  C:\Users\ALEXAN~1\AppData\Local\Temp\ccyDS4Mg.s 			page 31


 816 0004 1388     		ldrh	r3, [r2]
 817 0006 1BB2     		sxth	r3, r3
 818 0008 23B1     		cbz	r3, .L70
 835:Generated_Source\PSoC5/ADC_SAR_B.c ****     {   /* Support obsolete method */
 836:Generated_Source\PSoC5/ADC_SAR_B.c ****         countsPer10Volt = (int32)ADC_SAR_B_countsPerVolt * 10;
 819              		.loc 1 836 0
 820 000a 1488     		ldrh	r4, [r2]
 821 000c 0A23     		movs	r3, #10
 822 000e 24B2     		sxth	r4, r4
 823 0010 5C43     		muls	r4, r3, r4
 824              	.LVL56:
 825 0012 01E0     		b	.L71
 826              	.LVL57:
 827              	.L70:
 837:Generated_Source\PSoC5/ADC_SAR_B.c ****     }
 838:Generated_Source\PSoC5/ADC_SAR_B.c ****     else
 839:Generated_Source\PSoC5/ADC_SAR_B.c ****     {
 840:Generated_Source\PSoC5/ADC_SAR_B.c ****         countsPer10Volt = ADC_SAR_B_countsPer10Volt;
 828              		.loc 1 840 0
 829 0014 0A4B     		ldr	r3, .L72+4
 830 0016 1C68     		ldr	r4, [r3]
 831              	.LVL58:
 832              	.L71:
 841:Generated_Source\PSoC5/ADC_SAR_B.c ****     }
 842:Generated_Source\PSoC5/ADC_SAR_B.c **** 
 843:Generated_Source\PSoC5/ADC_SAR_B.c ****     /* Subtract ADC offset */
 844:Generated_Source\PSoC5/ADC_SAR_B.c ****     adcCounts -= ADC_SAR_B_offset;
 833              		.loc 1 844 0
 834 0018 0A4B     		ldr	r3, .L72+8
 835 001a 1B88     		ldrh	r3, [r3]
 836 001c C01A     		subs	r0, r0, r3
 837              	.LVL59:
 845:Generated_Source\PSoC5/ADC_SAR_B.c **** 
 846:Generated_Source\PSoC5/ADC_SAR_B.c ****     volts = ((float32)adcCounts * ADC_SAR_B_10V_COUNTS) / (float32)countsPer10Volt;
 847:Generated_Source\PSoC5/ADC_SAR_B.c **** 
 848:Generated_Source\PSoC5/ADC_SAR_B.c ****     return( volts );
 838              		.loc 1 848 0
 839 001e 00B2     		sxth	r0, r0
 840 0020 FFF7FEFF 		bl	__aeabi_i2f
 841              	.LVL60:
 842 0024 0849     		ldr	r1, .L72+12
 843 0026 FFF7FEFF 		bl	__aeabi_fmul
 844              	.LVL61:
 845 002a 0546     		mov	r5, r0
 846 002c 2046     		mov	r0, r4
 847 002e FFF7FEFF 		bl	__aeabi_i2f
 848              	.LVL62:
 849 0032 0146     		mov	r1, r0
 850 0034 2846     		mov	r0, r5
 851 0036 FFF7FEFF 		bl	__aeabi_fdiv
 852              	.LVL63:
 849:Generated_Source\PSoC5/ADC_SAR_B.c **** }
 853              		.loc 1 849 0
 854 003a 38BD     		pop	{r3, r4, r5, pc}
 855              	.LVL64:
 856              	.L73:
 857              		.align	2
ARM GAS  C:\Users\ALEXAN~1\AppData\Local\Temp\ccyDS4Mg.s 			page 32


 858              	.L72:
 859 003c 00000000 		.word	ADC_SAR_B_countsPerVolt
 860 0040 00000000 		.word	ADC_SAR_B_countsPer10Volt
 861 0044 00000000 		.word	ADC_SAR_B_offset
 862 0048 00002041 		.word	1092616192
 863              		.cfi_endproc
 864              	.LFE17:
 865              		.size	ADC_SAR_B_CountsTo_Volts, .-ADC_SAR_B_CountsTo_Volts
 866              		.comm	ADC_SAR_B_shift,2,2
 867              		.comm	ADC_SAR_B_countsPer10Volt,4,4
 868              		.comm	ADC_SAR_B_countsPerVolt,2,2
 869              		.comm	ADC_SAR_B_offset,2,2
 870              		.global	ADC_SAR_B_initVar
 871              		.section	.rodata
 872              		.align	1
 873              		.set	.LANCHOR0,. + 0
 874              		.type	CSWTCH.24, %object
 875              		.size	CSWTCH.24, 10
 876              	CSWTCH.24:
 877 0000 0001     		.short	256
 878 0002 0000     		.short	0
 879 0004 0004     		.short	1024
 880 0006 0000     		.short	0
 881 0008 0010     		.short	4096
 882              		.bss
 883              		.set	.LANCHOR1,. + 0
 884              		.type	ADC_SAR_B_initVar, %object
 885              		.size	ADC_SAR_B_initVar, 1
 886              	ADC_SAR_B_initVar:
 887 0000 00       		.space	1
 888              		.text
 889              	.Letext0:
 890              		.file 2 "Generated_Source\\PSoC5\\cytypes.h"
 891              		.file 3 "Generated_Source\\PSoC5\\CyLib.h"
 892              		.file 4 "Generated_Source\\PSoC5\\ADC_SAR_B_theACLK.h"