ARM GAS  C:\Users\rens_\AppData\Local\Temp\ccNPLTeO.s 			page 1


   1              		.syntax unified
   2              		.cpu cortex-m3
   3              		.fpu softvfp
   4              		.eabi_attribute 20, 1
   5              		.eabi_attribute 21, 1
   6              		.eabi_attribute 23, 3
   7              		.eabi_attribute 24, 1
   8              		.eabi_attribute 25, 1
   9              		.eabi_attribute 26, 1
  10              		.eabi_attribute 30, 4
  11              		.eabi_attribute 34, 1
  12              		.eabi_attribute 18, 4
  13              		.thumb
  14              		.syntax unified
  15              		.file	"DMA_A_dma.c"
  16              		.text
  17              	.Ltext0:
  18              		.cfi_sections	.debug_frame
  19              		.section	.text.DMA_A_DmaInitialize,"ax",%progbits
  20              		.align	1
  21              		.global	DMA_A_DmaInitialize
  22              		.thumb
  23              		.thumb_func
  24              		.type	DMA_A_DmaInitialize, %function
  25              	DMA_A_DmaInitialize:
  26              	.LFB0:
  27              		.file 1 "Generated_Source\\PSoC5\\DMA_A_dma.c"
   1:Generated_Source\PSoC5/DMA_A_dma.c **** /***************************************************************************
   2:Generated_Source\PSoC5/DMA_A_dma.c **** * File Name: DMA_A_dma.c  
   3:Generated_Source\PSoC5/DMA_A_dma.c **** * Version 1.70
   4:Generated_Source\PSoC5/DMA_A_dma.c **** *
   5:Generated_Source\PSoC5/DMA_A_dma.c **** *  Description:
   6:Generated_Source\PSoC5/DMA_A_dma.c **** *   Provides an API for the DMAC component. The API includes functions
   7:Generated_Source\PSoC5/DMA_A_dma.c **** *   for the DMA controller, DMA channels and Transfer Descriptors.
   8:Generated_Source\PSoC5/DMA_A_dma.c **** *
   9:Generated_Source\PSoC5/DMA_A_dma.c **** *
  10:Generated_Source\PSoC5/DMA_A_dma.c **** *   Note:
  11:Generated_Source\PSoC5/DMA_A_dma.c **** *     This module requires the developer to finish or fill in the auto
  12:Generated_Source\PSoC5/DMA_A_dma.c **** *     generated funcions and setup the dma channel and TD's.
  13:Generated_Source\PSoC5/DMA_A_dma.c **** *
  14:Generated_Source\PSoC5/DMA_A_dma.c **** ********************************************************************************
  15:Generated_Source\PSoC5/DMA_A_dma.c **** * Copyright 2008-2010, Cypress Semiconductor Corporation.  All rights reserved.
  16:Generated_Source\PSoC5/DMA_A_dma.c **** * You may use this file only in accordance with the license, terms, conditions, 
  17:Generated_Source\PSoC5/DMA_A_dma.c **** * disclaimers, and limitations in the end user license agreement accompanying 
  18:Generated_Source\PSoC5/DMA_A_dma.c **** * the software package with which this file was provided.
  19:Generated_Source\PSoC5/DMA_A_dma.c **** ********************************************************************************/
  20:Generated_Source\PSoC5/DMA_A_dma.c **** #include <CYLIB.H>
  21:Generated_Source\PSoC5/DMA_A_dma.c **** #include <CYDMAC.H>
  22:Generated_Source\PSoC5/DMA_A_dma.c **** #include <DMA_A_dma.H>
  23:Generated_Source\PSoC5/DMA_A_dma.c **** 
  24:Generated_Source\PSoC5/DMA_A_dma.c **** 
  25:Generated_Source\PSoC5/DMA_A_dma.c **** 
  26:Generated_Source\PSoC5/DMA_A_dma.c **** /****************************************************************************
  27:Generated_Source\PSoC5/DMA_A_dma.c **** * 
  28:Generated_Source\PSoC5/DMA_A_dma.c **** * The following defines are available in Cyfitter.h
  29:Generated_Source\PSoC5/DMA_A_dma.c **** * 
  30:Generated_Source\PSoC5/DMA_A_dma.c **** * 
ARM GAS  C:\Users\rens_\AppData\Local\Temp\ccNPLTeO.s 			page 2


  31:Generated_Source\PSoC5/DMA_A_dma.c **** * 
  32:Generated_Source\PSoC5/DMA_A_dma.c **** * DMA_A__DRQ_CTL_REG
  33:Generated_Source\PSoC5/DMA_A_dma.c **** * 
  34:Generated_Source\PSoC5/DMA_A_dma.c **** * 
  35:Generated_Source\PSoC5/DMA_A_dma.c **** * DMA_A__DRQ_NUMBER
  36:Generated_Source\PSoC5/DMA_A_dma.c **** * 
  37:Generated_Source\PSoC5/DMA_A_dma.c **** * Number of TD's used by this channel.
  38:Generated_Source\PSoC5/DMA_A_dma.c **** * DMA_A__NUMBEROF_TDS
  39:Generated_Source\PSoC5/DMA_A_dma.c **** * 
  40:Generated_Source\PSoC5/DMA_A_dma.c **** * Priority of this channel.
  41:Generated_Source\PSoC5/DMA_A_dma.c **** * DMA_A__PRIORITY
  42:Generated_Source\PSoC5/DMA_A_dma.c **** * 
  43:Generated_Source\PSoC5/DMA_A_dma.c **** * True if DMA_A_TERMIN_SEL is used.
  44:Generated_Source\PSoC5/DMA_A_dma.c **** * DMA_A__TERMIN_EN
  45:Generated_Source\PSoC5/DMA_A_dma.c **** * 
  46:Generated_Source\PSoC5/DMA_A_dma.c **** * TERMIN interrupt line to signal terminate.
  47:Generated_Source\PSoC5/DMA_A_dma.c **** * DMA_A__TERMIN_SEL
  48:Generated_Source\PSoC5/DMA_A_dma.c **** * 
  49:Generated_Source\PSoC5/DMA_A_dma.c **** * 
  50:Generated_Source\PSoC5/DMA_A_dma.c **** * True if DMA_A_TERMOUT0_SEL is used.
  51:Generated_Source\PSoC5/DMA_A_dma.c **** * DMA_A__TERMOUT0_EN
  52:Generated_Source\PSoC5/DMA_A_dma.c **** * 
  53:Generated_Source\PSoC5/DMA_A_dma.c **** * 
  54:Generated_Source\PSoC5/DMA_A_dma.c **** * TERMOUT0 interrupt line to signal completion.
  55:Generated_Source\PSoC5/DMA_A_dma.c **** * DMA_A__TERMOUT0_SEL
  56:Generated_Source\PSoC5/DMA_A_dma.c **** * 
  57:Generated_Source\PSoC5/DMA_A_dma.c **** * 
  58:Generated_Source\PSoC5/DMA_A_dma.c **** * True if DMA_A_TERMOUT1_SEL is used.
  59:Generated_Source\PSoC5/DMA_A_dma.c **** * DMA_A__TERMOUT1_EN
  60:Generated_Source\PSoC5/DMA_A_dma.c **** * 
  61:Generated_Source\PSoC5/DMA_A_dma.c **** * 
  62:Generated_Source\PSoC5/DMA_A_dma.c **** * TERMOUT1 interrupt line to signal completion.
  63:Generated_Source\PSoC5/DMA_A_dma.c **** * DMA_A__TERMOUT1_SEL
  64:Generated_Source\PSoC5/DMA_A_dma.c **** * 
  65:Generated_Source\PSoC5/DMA_A_dma.c **** ****************************************************************************/
  66:Generated_Source\PSoC5/DMA_A_dma.c **** 
  67:Generated_Source\PSoC5/DMA_A_dma.c **** 
  68:Generated_Source\PSoC5/DMA_A_dma.c **** /* Zero based index of DMA_A dma channel */
  69:Generated_Source\PSoC5/DMA_A_dma.c **** uint8 DMA_A_DmaHandle = DMA_INVALID_CHANNEL;
  70:Generated_Source\PSoC5/DMA_A_dma.c **** 
  71:Generated_Source\PSoC5/DMA_A_dma.c **** /*********************************************************************
  72:Generated_Source\PSoC5/DMA_A_dma.c **** * Function Name: uint8 DMA_A_DmaInitalize
  73:Generated_Source\PSoC5/DMA_A_dma.c **** **********************************************************************
  74:Generated_Source\PSoC5/DMA_A_dma.c **** * Summary:
  75:Generated_Source\PSoC5/DMA_A_dma.c **** *   Allocates and initialises a channel of the DMAC to be used by the
  76:Generated_Source\PSoC5/DMA_A_dma.c **** *   caller.
  77:Generated_Source\PSoC5/DMA_A_dma.c **** *
  78:Generated_Source\PSoC5/DMA_A_dma.c **** * Parameters:
  79:Generated_Source\PSoC5/DMA_A_dma.c **** *   BurstCount.
  80:Generated_Source\PSoC5/DMA_A_dma.c **** *       
  81:Generated_Source\PSoC5/DMA_A_dma.c **** *       
  82:Generated_Source\PSoC5/DMA_A_dma.c **** *   ReqestPerBurst.
  83:Generated_Source\PSoC5/DMA_A_dma.c **** *       
  84:Generated_Source\PSoC5/DMA_A_dma.c **** *       
  85:Generated_Source\PSoC5/DMA_A_dma.c **** *   UpperSrcAddress.
  86:Generated_Source\PSoC5/DMA_A_dma.c **** *       
  87:Generated_Source\PSoC5/DMA_A_dma.c **** *       
ARM GAS  C:\Users\rens_\AppData\Local\Temp\ccNPLTeO.s 			page 3


  88:Generated_Source\PSoC5/DMA_A_dma.c **** *   UpperDestAddress.
  89:Generated_Source\PSoC5/DMA_A_dma.c **** *       
  90:Generated_Source\PSoC5/DMA_A_dma.c **** *
  91:Generated_Source\PSoC5/DMA_A_dma.c **** * Return:
  92:Generated_Source\PSoC5/DMA_A_dma.c **** *   The channel that can be used by the caller for DMA activity.
  93:Generated_Source\PSoC5/DMA_A_dma.c **** *   DMA_INVALID_CHANNEL (0xFF) if there are no channels left. 
  94:Generated_Source\PSoC5/DMA_A_dma.c **** *
  95:Generated_Source\PSoC5/DMA_A_dma.c **** *
  96:Generated_Source\PSoC5/DMA_A_dma.c **** *******************************************************************/
  97:Generated_Source\PSoC5/DMA_A_dma.c **** uint8 DMA_A_DmaInitialize(uint8 BurstCount, uint8 ReqestPerBurst, uint16 UpperSrcAddress, uint16 Up
  98:Generated_Source\PSoC5/DMA_A_dma.c **** {
  28              		.loc 1 98 0
  29              		.cfi_startproc
  30              		@ args = 0, pretend = 0, frame = 0
  31              		@ frame_needed = 0, uses_anonymous_args = 0
  32              	.LVL0:
  33 0000 73B5     		push	{r0, r1, r4, r5, r6, lr}
  34              		.cfi_def_cfa_offset 24
  35              		.cfi_offset 4, -16
  36              		.cfi_offset 5, -12
  37              		.cfi_offset 6, -8
  38              		.cfi_offset 14, -4
  39              		.loc 1 98 0
  40 0002 1546     		mov	r5, r2
  41 0004 1E46     		mov	r6, r3
  99:Generated_Source\PSoC5/DMA_A_dma.c **** 
 100:Generated_Source\PSoC5/DMA_A_dma.c ****     /* Allocate a DMA channel. */
 101:Generated_Source\PSoC5/DMA_A_dma.c ****     DMA_A_DmaHandle = (uint8)DMA_A__DRQ_NUMBER;
  42              		.loc 1 101 0
  43 0006 0B4C     		ldr	r4, .L2
  44 0008 0023     		movs	r3, #0
  45              	.LVL1:
 102:Generated_Source\PSoC5/DMA_A_dma.c **** 
 103:Generated_Source\PSoC5/DMA_A_dma.c ****     /* Configure the channel. */
 104:Generated_Source\PSoC5/DMA_A_dma.c ****     (void)CyDmaChSetConfiguration(DMA_A_DmaHandle,
  46              		.loc 1 104 0
  47 000a 0193     		str	r3, [sp, #4]
  48 000c 0093     		str	r3, [sp]
  49 000e 0A46     		mov	r2, r1
  50              	.LVL2:
  51 0010 0146     		mov	r1, r0
  52              	.LVL3:
  53 0012 1846     		mov	r0, r3
  54              	.LVL4:
 101:Generated_Source\PSoC5/DMA_A_dma.c **** 
  55              		.loc 1 101 0
  56 0014 2370     		strb	r3, [r4]
  57              		.loc 1 104 0
  58 0016 FFF7FEFF 		bl	CyDmaChSetConfiguration
  59              	.LVL5:
 105:Generated_Source\PSoC5/DMA_A_dma.c ****                                   BurstCount,
 106:Generated_Source\PSoC5/DMA_A_dma.c ****                                   ReqestPerBurst,
 107:Generated_Source\PSoC5/DMA_A_dma.c ****                                   (uint8)DMA_A__TERMOUT0_SEL,
 108:Generated_Source\PSoC5/DMA_A_dma.c ****                                   (uint8)DMA_A__TERMOUT1_SEL,
 109:Generated_Source\PSoC5/DMA_A_dma.c ****                                   (uint8)DMA_A__TERMIN_SEL);
 110:Generated_Source\PSoC5/DMA_A_dma.c **** 
 111:Generated_Source\PSoC5/DMA_A_dma.c ****     /* Set the extended address for the transfers */
ARM GAS  C:\Users\rens_\AppData\Local\Temp\ccNPLTeO.s 			page 4


 112:Generated_Source\PSoC5/DMA_A_dma.c ****     (void)CyDmaChSetExtendedAddress(DMA_A_DmaHandle, UpperSrcAddress, UpperDestAddress);
  60              		.loc 1 112 0
  61 001a 3246     		mov	r2, r6
  62 001c 2946     		mov	r1, r5
  63 001e 2078     		ldrb	r0, [r4]	@ zero_extendqisi2
  64 0020 FFF7FEFF 		bl	CyDmaChSetExtendedAddress
  65              	.LVL6:
 113:Generated_Source\PSoC5/DMA_A_dma.c **** 
 114:Generated_Source\PSoC5/DMA_A_dma.c ****     /* Set the priority for this channel */
 115:Generated_Source\PSoC5/DMA_A_dma.c ****     (void)CyDmaChPriority(DMA_A_DmaHandle, (uint8)DMA_A__PRIORITY);
  66              		.loc 1 115 0
  67 0024 0221     		movs	r1, #2
  68 0026 2078     		ldrb	r0, [r4]	@ zero_extendqisi2
  69 0028 FFF7FEFF 		bl	CyDmaChPriority
  70              	.LVL7:
 116:Generated_Source\PSoC5/DMA_A_dma.c ****     
 117:Generated_Source\PSoC5/DMA_A_dma.c ****     return DMA_A_DmaHandle;
 118:Generated_Source\PSoC5/DMA_A_dma.c **** }
  71              		.loc 1 118 0
  72 002c 2078     		ldrb	r0, [r4]	@ zero_extendqisi2
  73 002e 02B0     		add	sp, sp, #8
  74              		.cfi_def_cfa_offset 16
  75              		@ sp needed
  76 0030 70BD     		pop	{r4, r5, r6, pc}
  77              	.L3:
  78 0032 00BF     		.align	2
  79              	.L2:
  80 0034 00000000 		.word	.LANCHOR0
  81              		.cfi_endproc
  82              	.LFE0:
  83              		.size	DMA_A_DmaInitialize, .-DMA_A_DmaInitialize
  84              		.section	.text.DMA_A_DmaRelease,"ax",%progbits
  85              		.align	1
  86              		.global	DMA_A_DmaRelease
  87              		.thumb
  88              		.thumb_func
  89              		.type	DMA_A_DmaRelease, %function
  90              	DMA_A_DmaRelease:
  91              	.LFB1:
 119:Generated_Source\PSoC5/DMA_A_dma.c **** 
 120:Generated_Source\PSoC5/DMA_A_dma.c **** /*********************************************************************
 121:Generated_Source\PSoC5/DMA_A_dma.c **** * Function Name: void DMA_A_DmaRelease
 122:Generated_Source\PSoC5/DMA_A_dma.c **** **********************************************************************
 123:Generated_Source\PSoC5/DMA_A_dma.c **** * Summary:
 124:Generated_Source\PSoC5/DMA_A_dma.c **** *   Frees the channel associated with DMA_A.
 125:Generated_Source\PSoC5/DMA_A_dma.c **** *
 126:Generated_Source\PSoC5/DMA_A_dma.c **** *
 127:Generated_Source\PSoC5/DMA_A_dma.c **** * Parameters:
 128:Generated_Source\PSoC5/DMA_A_dma.c **** *   void.
 129:Generated_Source\PSoC5/DMA_A_dma.c **** *
 130:Generated_Source\PSoC5/DMA_A_dma.c **** *
 131:Generated_Source\PSoC5/DMA_A_dma.c **** *
 132:Generated_Source\PSoC5/DMA_A_dma.c **** * Return:
 133:Generated_Source\PSoC5/DMA_A_dma.c **** *   void.
 134:Generated_Source\PSoC5/DMA_A_dma.c **** *
 135:Generated_Source\PSoC5/DMA_A_dma.c **** *******************************************************************/
 136:Generated_Source\PSoC5/DMA_A_dma.c **** void DMA_A_DmaRelease(void) 
ARM GAS  C:\Users\rens_\AppData\Local\Temp\ccNPLTeO.s 			page 5


 137:Generated_Source\PSoC5/DMA_A_dma.c **** {
  92              		.loc 1 137 0
  93              		.cfi_startproc
  94              		@ args = 0, pretend = 0, frame = 0
  95              		@ frame_needed = 0, uses_anonymous_args = 0
  96              		@ link register save eliminated.
 138:Generated_Source\PSoC5/DMA_A_dma.c ****     /* Disable the channel */
 139:Generated_Source\PSoC5/DMA_A_dma.c ****     (void)CyDmaChDisable(DMA_A_DmaHandle);
  97              		.loc 1 139 0
  98 0000 014B     		ldr	r3, .L5
  99 0002 1878     		ldrb	r0, [r3]	@ zero_extendqisi2
 100 0004 FFF7FEBF 		b	CyDmaChDisable
 101              	.LVL8:
 102              	.L6:
 103              		.align	2
 104              	.L5:
 105 0008 00000000 		.word	.LANCHOR0
 106              		.cfi_endproc
 107              	.LFE1:
 108              		.size	DMA_A_DmaRelease, .-DMA_A_DmaRelease
 109              		.global	DMA_A_DmaHandle
 110              		.data
 111              		.set	.LANCHOR0,. + 0
 112              		.type	DMA_A_DmaHandle, %object
 113              		.size	DMA_A_DmaHandle, 1
 114              	DMA_A_DmaHandle:
 115 0000 FF       		.byte	-1
 116              		.text
 117              	.Letext0:
 118              		.file 2 "Generated_Source\\PSoC5/cytypes.h"
 119              		.file 3 "Generated_Source\\PSoC5/CYDMAC.H"