ARM GAS  C:\Users\ALEXAN~1\AppData\Local\Temp\ccIqJkhn.s 			page 1


   1              		.syntax unified
   2              		.cpu cortex-m3
   3              		.fpu softvfp
   4              		.eabi_attribute 20, 1
   5              		.eabi_attribute 21, 1
   6              		.eabi_attribute 23, 3
   7              		.eabi_attribute 24, 1
   8              		.eabi_attribute 25, 1
   9              		.eabi_attribute 26, 1
  10              		.eabi_attribute 30, 4
  11              		.eabi_attribute 34, 1
  12              		.eabi_attribute 18, 4
  13              		.thumb
  14              		.syntax unified
  15              		.file	"main.c"
  16              		.text
  17              	.Ltext0:
  18              		.cfi_sections	.debug_frame
  19              		.section	.text.ISR_OUT_A_Handler,"ax",%progbits
  20              		.align	1
  21              		.global	ISR_OUT_A_Handler
  22              		.thumb
  23              		.thumb_func
  24              		.type	ISR_OUT_A_Handler, %function
  25              	ISR_OUT_A_Handler:
  26              	.LFB71:
  27              		.file 1 "main.c"
   1:main.c        **** #include "project.h"
   2:main.c        **** 
   3:main.c        **** #include "dma_initialization.h"
   4:main.c        **** #include "motor.h"
   5:main.c        **** #include "servo.h"
   6:main.c        **** #include "sensor.h"
   7:main.c        **** 
   8:main.c        **** #include <stdio.h>
   9:main.c        **** #include <stdbool.h>
  10:main.c        **** 
  11:main.c        **** // Executed when the IRQ pin triggers an interrupt
  12:main.c        **** CY_ISR_PROTO(IRQ_Handler);
  13:main.c        **** 
  14:main.c        **** /* NRF address */
  15:main.c        **** const uint8_t RX_ADDR[5]= {0xBA, 0xAD, 0xC0, 0xFF, 0xEE};
  16:main.c        **** 
  17:main.c        **** #define DATA_SIZE 1500
  18:main.c        **** 
  19:main.c        **** // signal data for signal A and B
  20:main.c        **** uint16_t DataA[DATA_SIZE];
  21:main.c        **** uint16_t DataB[DATA_SIZE];
  22:main.c        **** 
  23:main.c        **** volatile uint8_t ISR_A_done = 0;
  24:main.c        **** volatile uint8_t ISR_B_done = 0;
  25:main.c        **** 
  26:main.c        **** char output[200];
  27:main.c        **** 
  28:main.c        **** volatile sensor_t sensor_data;
  29:main.c        **** 
  30:main.c        **** CY_ISR(ISR_OUT_A_Handler)
ARM GAS  C:\Users\ALEXAN~1\AppData\Local\Temp\ccIqJkhn.s 			page 2


  31:main.c        **** {
  28              		.loc 1 31 0
  29              		.cfi_startproc
  30              		@ args = 0, pretend = 0, frame = 0
  31              		@ frame_needed = 0, uses_anonymous_args = 0
  32 0000 08B5     		push	{r3, lr}
  33              		.cfi_def_cfa_offset 8
  34              		.cfi_offset 3, -8
  35              		.cfi_offset 14, -4
  32:main.c        ****     ADC_SAR_A_StopConvert();
  36              		.loc 1 32 0
  37 0002 FFF7FEFF 		bl	ADC_SAR_A_StopConvert
  38              	.LVL0:
  33:main.c        ****     ISR_A_done = 1;
  39              		.loc 1 33 0
  40 0006 024B     		ldr	r3, .L2
  41 0008 0122     		movs	r2, #1
  42 000a 1A70     		strb	r2, [r3]
  43 000c 08BD     		pop	{r3, pc}
  44              	.L3:
  45 000e 00BF     		.align	2
  46              	.L2:
  47 0010 00000000 		.word	.LANCHOR0
  48              		.cfi_endproc
  49              	.LFE71:
  50              		.size	ISR_OUT_A_Handler, .-ISR_OUT_A_Handler
  51              		.section	.text.ISR_OUT_B_Handler,"ax",%progbits
  52              		.align	1
  53              		.global	ISR_OUT_B_Handler
  54              		.thumb
  55              		.thumb_func
  56              		.type	ISR_OUT_B_Handler, %function
  57              	ISR_OUT_B_Handler:
  58              	.LFB72:
  34:main.c        **** }
  35:main.c        **** 
  36:main.c        **** CY_ISR(ISR_OUT_B_Handler)
  37:main.c        **** {
  59              		.loc 1 37 0
  60              		.cfi_startproc
  61              		@ args = 0, pretend = 0, frame = 0
  62              		@ frame_needed = 0, uses_anonymous_args = 0
  63 0000 08B5     		push	{r3, lr}
  64              		.cfi_def_cfa_offset 8
  65              		.cfi_offset 3, -8
  66              		.cfi_offset 14, -4
  38:main.c        ****     ADC_SAR_B_StopConvert();
  67              		.loc 1 38 0
  68 0002 FFF7FEFF 		bl	ADC_SAR_B_StopConvert
  69              	.LVL1:
  39:main.c        ****     ISR_B_done = 1;
  70              		.loc 1 39 0
  71 0006 024B     		ldr	r3, .L5
  72 0008 0122     		movs	r2, #1
  73 000a 5A70     		strb	r2, [r3, #1]
  74 000c 08BD     		pop	{r3, pc}
  75              	.L6:
ARM GAS  C:\Users\ALEXAN~1\AppData\Local\Temp\ccIqJkhn.s 			page 3


  76 000e 00BF     		.align	2
  77              	.L5:
  78 0010 00000000 		.word	.LANCHOR0
  79              		.cfi_endproc
  80              	.LFE72:
  81              		.size	ISR_OUT_B_Handler, .-ISR_OUT_B_Handler
  82              		.section	.text.IRQ_Handler,"ax",%progbits
  83              		.align	1
  84              		.global	IRQ_Handler
  85              		.thumb
  86              		.thumb_func
  87              		.type	IRQ_Handler, %function
  88              	IRQ_Handler:
  89              	.LFB73:
  40:main.c        **** }
  41:main.c        **** 
  42:main.c        **** // network ping interrupt
  43:main.c        **** CY_ISR(IRQ_Handler)
  44:main.c        **** {
  90              		.loc 1 44 0
  91              		.cfi_startproc
  92              		@ args = 0, pretend = 0, frame = 8
  93              		@ frame_needed = 0, uses_anonymous_args = 0
  94 0000 07B5     		push	{r0, r1, r2, lr}
  95              		.cfi_def_cfa_offset 16
  96              		.cfi_offset 14, -4
  45:main.c        ****     CyWdtClear();
  97              		.loc 1 45 0
  98 0002 FFF7FEFF 		bl	CyWdtClear
  99              	.LVL2:
  46:main.c        ****     // start ADC A and B when network ping has been received
  47:main.c        ****     ADC_SAR_A_StartConvert();
 100              		.loc 1 47 0
 101 0006 FFF7FEFF 		bl	ADC_SAR_A_StartConvert
 102              	.LVL3:
  48:main.c        ****     ADC_SAR_B_StartConvert();
 103              		.loc 1 48 0
 104 000a FFF7FEFF 		bl	ADC_SAR_B_StartConvert
 105              	.LVL4:
  49:main.c        ****     
  50:main.c        ****     IRQ_ClearInterrupt();
 106              		.loc 1 50 0
 107 000e FFF7FEFF 		bl	IRQ_ClearInterrupt
 108              	.LVL5:
  51:main.c        ****     nrf_irq flag = nRF24_get_irq_flag();
 109              		.loc 1 51 0
 110 0012 FFF7FEFF 		bl	nRF24_get_irq_flag
 111              	.LVL6:
  52:main.c        ****     nRF24_clear_irq_flag(flag);
 112              		.loc 1 52 0
 113 0016 FFF7FEFF 		bl	nRF24_clear_irq_flag
 114              	.LVL7:
  53:main.c        **** 
  54:main.c        ****     // temp value to hold velocity data
  55:main.c        ****     uint8_t data[2];
  56:main.c        ****     
  57:main.c        ****     // get the data from the transmitter
ARM GAS  C:\Users\ALEXAN~1\AppData\Local\Temp\ccIqJkhn.s 			page 4


  58:main.c        ****     nRF24_get_rx_payload(data, 2);
 115              		.loc 1 58 0
 116 001a 0221     		movs	r1, #2
 117 001c 01A8     		add	r0, sp, #4
 118 001e FFF7FEFF 		bl	nRF24_get_rx_payload
 119              	.LVL8:
 120              	.LBB8:
 121              	.LBB9:
 122              		.file 2 "sensor.h"
   1:sensor.h      **** #pragma once
   2:sensor.h      **** 
   3:sensor.h      **** #include "project.h"
   4:sensor.h      **** #include <stdint.h>
   5:sensor.h      **** 
   6:sensor.h      **** typedef struct {
   7:sensor.h      ****     uint16_t distance; // distance between cars
   8:sensor.h      ****     float angle;       // angle between platoon follower and platoon leader
   9:sensor.h      ****     
  10:sensor.h      ****     /* feedforward parameters */
  11:sensor.h      ****     int16_t velocity;   // platoon leader velocity
  12:sensor.h      ****     int8_t leader_angle; // angle of platoon leader's wheels
  13:sensor.h      **** } sensor_t;
  14:sensor.h      **** 
  15:sensor.h      **** sensor_t sensor_init() {
  16:sensor.h      ****     return (sensor_t){0, 0, 0, 0};
  17:sensor.h      **** }
  18:sensor.h      **** 
  19:sensor.h      **** void sensor_update_feedforward_params(sensor_t *s, int16_t velocity, int8_t leader_angle) {
  20:sensor.h      ****     s->velocity = velocity;
 123              		.loc 2 20 0
 124 0022 054B     		ldr	r3, .L8
 125              	.LBE9:
 126              	.LBE8:
  59:main.c        ****     
  60:main.c        ****     // data[0] = velocity, data[1] = leader_angle
  61:main.c        ****     sensor_update_feedforward_params(&sensor_data, (int8_t)data[0], data[1]);
 127              		.loc 1 61 0
 128 0024 9DF90520 		ldrsb	r2, [sp, #5]
 129              	.LVL9:
 130              	.LBB11:
 131              	.LBB10:
 132              		.loc 2 20 0
 133 0028 9DF90410 		ldrsb	r1, [sp, #4]
 134 002c 1981     		strh	r1, [r3, #8]	@ movhi
  21:sensor.h      ****     s->leader_angle = leader_angle;
 135              		.loc 2 21 0
 136 002e 9A72     		strb	r2, [r3, #10]
 137              	.LVL10:
 138              	.LBE10:
 139              	.LBE11:
  62:main.c        **** }
 140              		.loc 1 62 0
 141 0030 03B0     		add	sp, sp, #12
 142              		.cfi_def_cfa_offset 4
 143              		@ sp needed
 144 0032 5DF804FB 		ldr	pc, [sp], #4
 145              	.L9:
ARM GAS  C:\Users\ALEXAN~1\AppData\Local\Temp\ccIqJkhn.s 			page 5


 146 0036 00BF     		.align	2
 147              	.L8:
 148 0038 00000000 		.word	sensor_data
 149              		.cfi_endproc
 150              	.LFE73:
 151              		.size	IRQ_Handler, .-IRQ_Handler
 152              		.section	.text.motor_init,"ax",%progbits
 153              		.align	1
 154              		.global	motor_init
 155              		.thumb
 156              		.thumb_func
 157              		.type	motor_init, %function
 158              	motor_init:
 159              	.LFB64:
 160              		.file 3 "motor.h"
   1:motor.h       **** #pragma once
   2:motor.h       **** 
   3:motor.h       **** #include "project.h"
   4:motor.h       **** #include <stdint.h>
   5:motor.h       **** #include <stdio.h>
   6:motor.h       **** 
   7:motor.h       **** typedef struct {
   8:motor.h       ****     uint16_t reference_dist; // platoon follower reference distance
   9:motor.h       ****     float Kp; // P-controller constant
  10:motor.h       **** } motor_t;
  11:motor.h       **** 
  12:motor.h       **** motor_t motor_init(uint16_t reference_dist, float Kp) {
 161              		.loc 3 12 0
 162              		.cfi_startproc
 163              		@ args = 0, pretend = 0, frame = 0
 164              		@ frame_needed = 0, uses_anonymous_args = 0
 165              		@ link register save eliminated.
 166              	.LVL11:
  13:motor.h       ****  return (motor_t) {reference_dist, Kp};   
 167              		.loc 3 13 0
 168 0000 0180     		strh	r1, [r0]	@ movhi
 169 0002 4260     		str	r2, [r0, #4]	@ float
  14:motor.h       **** }
 170              		.loc 3 14 0
 171 0004 7047     		bx	lr
 172              		.cfi_endproc
 173              	.LFE64:
 174              		.size	motor_init, .-motor_init
 175              		.global	__aeabi_i2f
 176              		.global	__aeabi_fmul
 177              		.global	__aeabi_fadd
 178              		.global	__aeabi_f2iz
 179              		.section	.text.motor_update,"ax",%progbits
 180              		.align	1
 181              		.global	motor_update
 182              		.thumb
 183              		.thumb_func
 184              		.type	motor_update, %function
 185              	motor_update:
 186              	.LFB65:
  15:motor.h       **** 
  16:motor.h       **** void motor_update(motor_t *m, uint16_t real_dist, int16_t velocity) {
ARM GAS  C:\Users\ALEXAN~1\AppData\Local\Temp\ccIqJkhn.s 			page 6


 187              		.loc 3 16 0
 188              		.cfi_startproc
 189              		@ args = 0, pretend = 0, frame = 0
 190              		@ frame_needed = 0, uses_anonymous_args = 0
 191              	.LVL12:
 192 0000 38B5     		push	{r3, r4, r5, lr}
 193              		.cfi_def_cfa_offset 16
 194              		.cfi_offset 3, -16
 195              		.cfi_offset 4, -12
 196              		.cfi_offset 5, -8
 197              		.cfi_offset 14, -4
 198              		.loc 3 16 0
 199 0002 0446     		mov	r4, r0
  17:motor.h       ****     int16_t err_dist = m->reference_dist - real_dist;
  18:motor.h       ****     int32_t duty_cycle = m->Kp * err_dist + velocity;
 200              		.loc 3 18 0
 201 0004 0088     		ldrh	r0, [r0]
 202              	.LVL13:
  16:motor.h       ****     int16_t err_dist = m->reference_dist - real_dist;
 203              		.loc 3 16 0
 204 0006 1546     		mov	r5, r2
 205              		.loc 3 18 0
 206 0008 401A     		subs	r0, r0, r1
 207 000a 00B2     		sxth	r0, r0
 208 000c FFF7FEFF 		bl	__aeabi_i2f
 209              	.LVL14:
 210 0010 6168     		ldr	r1, [r4, #4]	@ float
 211 0012 FFF7FEFF 		bl	__aeabi_fmul
 212              	.LVL15:
 213 0016 0446     		mov	r4, r0
 214              	.LVL16:
 215 0018 2846     		mov	r0, r5
 216 001a FFF7FEFF 		bl	__aeabi_i2f
 217              	.LVL17:
 218 001e 0146     		mov	r1, r0
 219 0020 2046     		mov	r0, r4
 220 0022 FFF7FEFF 		bl	__aeabi_fadd
 221              	.LVL18:
 222 0026 FFF7FEFF 		bl	__aeabi_f2iz
 223              	.LVL19:
  19:motor.h       ****             
  20:motor.h       ****     // if duty_cycle ends up being negative, it needs to be capped at 0
  21:motor.h       ****     if (duty_cycle < -150)
 224              		.loc 3 21 0
 225 002a 10F1960F 		cmn	r0, #150
  18:motor.h       ****             
 226              		.loc 3 18 0
 227 002e 0446     		mov	r4, r0
 228              	.LVL20:
 229              		.loc 3 21 0
 230 0030 12DB     		blt	.L16
  22:motor.h       ****     {
  23:motor.h       ****         duty_cycle = -150;
  24:motor.h       ****     }else if(duty_cycle > 150){
 231              		.loc 3 24 0
 232 0032 9628     		cmp	r0, #150
 233 0034 02DC     		bgt	.L17
ARM GAS  C:\Users\ALEXAN~1\AppData\Local\Temp\ccIqJkhn.s 			page 7


  25:motor.h       ****         duty_cycle = 150;
  26:motor.h       ****     }
  27:motor.h       ****         //drive forward    
  28:motor.h       ****     if(duty_cycle >0)
 234              		.loc 3 28 0
 235 0036 0028     		cmp	r0, #0
 236 0038 01DC     		bgt	.L13
 237 003a 0BE0     		b	.L20
 238              	.L17:
  25:motor.h       ****         duty_cycle = 150;
 239              		.loc 3 25 0
 240 003c 9624     		movs	r4, #150
 241              	.L13:
 242              	.LVL21:
  29:motor.h       ****     {
  30:motor.h       ****         P1_Write(1);
 243              		.loc 3 30 0
 244 003e 0120     		movs	r0, #1
 245 0040 FFF7FEFF 		bl	P1_Write
 246              	.LVL22:
  31:motor.h       ****         P2_Write(0);
 247              		.loc 3 31 0
 248 0044 0020     		movs	r0, #0
 249 0046 FFF7FEFF 		bl	P2_Write
 250              	.LVL23:
  32:motor.h       ****         PWM_H_BRIDGE_WriteCompare1(duty_cycle);
 251              		.loc 3 32 0
 252 004a E0B2     		uxtb	r0, r4
 253 004c FFF7FEFF 		bl	PWM_H_BRIDGE_WriteCompare1
 254              	.LVL24:
  33:motor.h       ****         PWM_H_BRIDGE_WriteCompare2(0);
 255              		.loc 3 33 0
 256 0050 0020     		movs	r0, #0
 257 0052 0EE0     		b	.L18
 258              	.LVL25:
 259              	.L20:
  34:motor.h       ****     }
  35:motor.h       ****     else if(duty_cycle<0)
 260              		.loc 3 35 0
 261 0054 11D0     		beq	.L11
 262 0056 01E0     		b	.L12
 263              	.L16:
  23:motor.h       ****     }else if(duty_cycle > 150){
 264              		.loc 3 23 0
 265 0058 6FF09504 		mvn	r4, #149
 266              	.L12:
 267              	.LVL26:
  36:motor.h       ****     {
  37:motor.h       ****         P1_Write(0);
 268              		.loc 3 37 0
 269 005c 0020     		movs	r0, #0
 270 005e FFF7FEFF 		bl	P1_Write
 271              	.LVL27:
  38:motor.h       ****         P2_Write(0);
 272              		.loc 3 38 0
 273 0062 0020     		movs	r0, #0
 274 0064 FFF7FEFF 		bl	P2_Write
ARM GAS  C:\Users\ALEXAN~1\AppData\Local\Temp\ccIqJkhn.s 			page 8


 275              	.LVL28:
  39:motor.h       ****         PWM_H_BRIDGE_WriteCompare1(duty_cycle*-1);
 276              		.loc 3 39 0
 277 0068 6042     		negs	r0, r4
 278 006a C0B2     		uxtb	r0, r0
 279 006c FFF7FEFF 		bl	PWM_H_BRIDGE_WriteCompare1
 280              	.LVL29:
  40:motor.h       ****         PWM_H_BRIDGE_WriteCompare2(255);
 281              		.loc 3 40 0
 282 0070 FF20     		movs	r0, #255
 283              	.L18:
  41:motor.h       ****     }    
  42:motor.h       ****     
  43:motor.h       ****   char out[200];
  44:motor.h       **** //sprintf(out,"duty: %d",duty_cycle);
  45:motor.h       **** //UART_PutString(out);
  46:motor.h       **** }...
 284              		.loc 3 46 0
 285 0072 BDE83840 		pop	{r3, r4, r5, lr}
 286              		.cfi_remember_state
 287              		.cfi_restore 14
 288              		.cfi_restore 5
 289              		.cfi_restore 4
 290              		.cfi_restore 3
 291              		.cfi_def_cfa_offset 0
 292              	.LVL30:
  40:motor.h       ****         PWM_H_BRIDGE_WriteCompare2(255);
 293              		.loc 3 40 0
 294 0076 FFF7FEBF 		b	PWM_H_BRIDGE_WriteCompare2
 295              	.LVL31:
 296              	.L11:
 297              		.cfi_restore_state
 298 007a 38BD     		pop	{r3, r4, r5, pc}
 299              		.cfi_endproc
 300              	.LFE65:
 301              		.size	motor_update, .-motor_update
 302              		.section	.text.servo_init,"ax",%progbits
 303              		.align	1
 304              		.global	servo_init
 305              		.thumb
 306              		.thumb_func
 307              		.type	servo_init, %function
 308              	servo_init:
 309              	.LFB66:
 310              		.file 4 "servo.h"
   1:servo.h       **** #pragma once
   2:servo.h       **** 
   3:servo.h       **** #include "project.h"
   4:servo.h       **** #include <stdint.h>
   5:servo.h       **** 
   6:servo.h       **** static const uint16_t t_right = 1035;
   7:servo.h       **** static const uint16_t t_left = 1694;
   8:servo.h       **** static const uint16_t t_center =  1364;
   9:servo.h       **** static const uint16_t theta_total = 60; // (uint16_t)(t_right + t_left)/2
  10:servo.h       **** static const float turn_factor = -11; // approx (t_right - t_left)/theta_total;
  11:servo.h       **** static const int8_t offset = -40;
  12:servo.h       **** 
ARM GAS  C:\Users\ALEXAN~1\AppData\Local\Temp\ccIqJkhn.s 			page 9


  13:servo.h       **** typedef struct {
  14:servo.h       ****     float reference_angle; // reference angle between platoon leader and follower
  15:servo.h       ****     float Kp; // P-controller constant
  16:servo.h       ****     float previous_angles[3]; // [a1, a2, a3], where a1 is the newest angle and a3 is the oldest an
  17:servo.h       ****     int8_t leader_angles[3]; // the longer the array, the longer the delay before using the value
  18:servo.h       **** } servo_t;
  19:servo.h       **** 
  20:servo.h       **** servo_t servo_init(float reference_angle, float Kp) {
 311              		.loc 4 20 0
 312              		.cfi_startproc
 313              		@ args = 0, pretend = 0, frame = 0
 314              		@ frame_needed = 0, uses_anonymous_args = 0
 315              	.LVL32:
 316 0000 70B5     		push	{r4, r5, r6, lr}
 317              		.cfi_def_cfa_offset 16
 318              		.cfi_offset 4, -16
 319              		.cfi_offset 5, -12
 320              		.cfi_offset 6, -8
 321              		.cfi_offset 14, -4
 322              		.loc 4 20 0
 323 0002 0446     		mov	r4, r0
 324 0004 0E46     		mov	r6, r1
 325 0006 1546     		mov	r5, r2
  21:servo.h       ****     return (servo_t){reference_angle, Kp, {0}, {0}};
 326              		.loc 4 21 0
 327 0008 0021     		movs	r1, #0
 328              	.LVL33:
 329 000a 1822     		movs	r2, #24
 330              	.LVL34:
 331 000c FFF7FEFF 		bl	memset
 332              	.LVL35:
 333 0010 2660     		str	r6, [r4]	@ float
 334 0012 6560     		str	r5, [r4, #4]	@ float
  22:servo.h       **** }
 335              		.loc 4 22 0
 336 0014 2046     		mov	r0, r4
 337 0016 70BD     		pop	{r4, r5, r6, pc}
 338              		.cfi_endproc
 339              	.LFE66:
 340              		.size	servo_init, .-servo_init
 341              		.global	__aeabi_fcmplt
 342              		.global	__aeabi_fcmpgt
 343              		.global	__aeabi_f2d
 344              		.global	__aeabi_i2d
 345              		.global	__aeabi_dmul
 346              		.global	__aeabi_ddiv
 347              		.global	__aeabi_dcmpgt
 348              		.global	__aeabi_d2f
 349              		.global	__aeabi_dsub
 350              		.global	__aeabi_fsub
 351              		.section	.text.servo_update,"ax",%progbits
 352              		.align	1
 353              		.global	servo_update
 354              		.thumb
 355              		.thumb_func
 356              		.type	servo_update, %function
 357              	servo_update:
ARM GAS  C:\Users\ALEXAN~1\AppData\Local\Temp\ccIqJkhn.s 			page 10


 358              	.LFB67:
  23:servo.h       **** 
  24:servo.h       **** /*
  25:servo.h       ****  * servo_t *s: pointer to the object itself
  26:servo.h       ****  * angle: current angle
  27:servo.h       ****  * leader_angle: platoon leader's angle
  28:servo.h       ****  * velocity: current pwm for the velocity
  29:servo.h       ****  */
  30:servo.h       **** void servo_update(servo_t *s, float angle, int leader_angle, int16_t velocity) {    
 359              		.loc 4 30 0
 360              		.cfi_startproc
 361              		@ args = 0, pretend = 0, frame = 0
 362              		@ frame_needed = 0, uses_anonymous_args = 0
 363              	.LVL36:
 364 0000 2DE9F843 		push	{r3, r4, r5, r6, r7, r8, r9, lr}
 365              		.cfi_def_cfa_offset 32
 366              		.cfi_offset 3, -32
 367              		.cfi_offset 4, -28
 368              		.cfi_offset 5, -24
 369              		.cfi_offset 6, -20
 370              		.cfi_offset 7, -16
 371              		.cfi_offset 8, -12
 372              		.cfi_offset 9, -8
 373              		.cfi_offset 14, -4
 374              		.loc 4 30 0
 375 0004 0E46     		mov	r6, r1
 376 0006 1F46     		mov	r7, r3
  31:servo.h       ****     float weighted_Kp = s->Kp;
  32:servo.h       ****     
  33:servo.h       ****     s->leader_angles[2] = s->leader_angles[1];
 377              		.loc 4 33 0
 378 0008 437D     		ldrb	r3, [r0, #21]	@ zero_extendqisi2
 379              	.LVL37:
  30:servo.h       ****     float weighted_Kp = s->Kp;
 380              		.loc 4 30 0
 381 000a 0446     		mov	r4, r0
 382              		.loc 4 33 0
 383 000c 8375     		strb	r3, [r0, #22]
  34:servo.h       ****     s->leader_angles[1] = s->leader_angles[0];
 384              		.loc 4 34 0
 385 000e 037D     		ldrb	r3, [r0, #20]	@ zero_extendqisi2
  31:servo.h       ****     float weighted_Kp = s->Kp;
 386              		.loc 4 31 0
 387 0010 4568     		ldr	r5, [r0, #4]	@ float
 388              	.LVL38:
 389              		.loc 4 34 0
 390 0012 4375     		strb	r3, [r0, #21]
  35:servo.h       ****     s->leader_angles[0] = leader_angle;
 391              		.loc 4 35 0
 392 0014 0275     		strb	r2, [r0, #20]
  36:servo.h       ****     
  37:servo.h       ****     if (angle < 60 || angle > -60) {
 393              		.loc 4 37 0
 394 0016 3E49     		ldr	r1, .L31+16
 395              	.LVL39:
 396 0018 3046     		mov	r0, r6
 397              	.LVL40:
ARM GAS  C:\Users\ALEXAN~1\AppData\Local\Temp\ccIqJkhn.s 			page 11


 398 001a FFF7FEFF 		bl	__aeabi_fcmplt
 399              	.LVL41:
 400 001e 20B9     		cbnz	r0, .L23
 401              		.loc 4 37 0 is_stmt 0 discriminator 1
 402 0020 3C49     		ldr	r1, .L31+20
 403 0022 3046     		mov	r0, r6
 404 0024 FFF7FEFF 		bl	__aeabi_fcmpgt
 405              	.LVL42:
 406 0028 20B1     		cbz	r0, .L24
 407              	.L23:
  38:servo.h       ****        s->previous_angles[2] = s->previous_angles[1];
 408              		.loc 4 38 0 is_stmt 1
 409 002a E368     		ldr	r3, [r4, #12]	@ float
 410 002c 2361     		str	r3, [r4, #16]	@ float
  39:servo.h       ****        s->previous_angles[1] = s->previous_angles[0];
 411              		.loc 4 39 0
 412 002e A368     		ldr	r3, [r4, #8]	@ float
  40:servo.h       ****        s->previous_angles[0] = angle;
 413              		.loc 4 40 0
 414 0030 A660     		str	r6, [r4, #8]	@ float
  39:servo.h       ****        s->previous_angles[1] = s->previous_angles[0];
 415              		.loc 4 39 0
 416 0032 E360     		str	r3, [r4, #12]	@ float
 417              	.L24:
  41:servo.h       ****     }
  42:servo.h       ****     
  43:servo.h       ****     if (velocity > 0) {
 418              		.loc 4 43 0
 419 0034 002F     		cmp	r7, #0
 420 0036 25DD     		ble	.L26
  44:servo.h       ****         if (!(s->Kp/(velocity*0.031*0.58) < s->Kp)) {
 421              		.loc 4 44 0
 422 0038 2846     		mov	r0, r5
 423 003a FFF7FEFF 		bl	__aeabi_f2d
 424              	.LVL43:
 425 003e 8046     		mov	r8, r0
 426 0040 3846     		mov	r0, r7
 427 0042 8946     		mov	r9, r1
 428 0044 FFF7FEFF 		bl	__aeabi_i2d
 429              	.LVL44:
 430 0048 2DA3     		adr	r3, .L31
 431 004a D3E90023 		ldrd	r2, [r3]
 432 004e FFF7FEFF 		bl	__aeabi_dmul
 433              	.LVL45:
 434 0052 2DA3     		adr	r3, .L31+8
 435 0054 D3E90023 		ldrd	r2, [r3]
 436 0058 FFF7FEFF 		bl	__aeabi_dmul
 437              	.LVL46:
 438 005c 0246     		mov	r2, r0
 439 005e 0B46     		mov	r3, r1
 440 0060 4046     		mov	r0, r8
 441 0062 4946     		mov	r1, r9
 442 0064 FFF7FEFF 		bl	__aeabi_ddiv
 443              	.LVL47:
 444 0068 0646     		mov	r6, r0
 445              	.LVL48:
 446 006a 0F46     		mov	r7, r1
ARM GAS  C:\Users\ALEXAN~1\AppData\Local\Temp\ccIqJkhn.s 			page 12


 447 006c 0246     		mov	r2, r0
 448 006e 0B46     		mov	r3, r1
 449 0070 4046     		mov	r0, r8
 450 0072 4946     		mov	r1, r9
 451 0074 FFF7FEFF 		bl	__aeabi_dcmpgt
 452              	.LVL49:
 453 0078 20B9     		cbnz	r0, .L26
  45:servo.h       ****             weighted_Kp = s->Kp/(velocity*0.031*0.58);
 454              		.loc 4 45 0
 455 007a 3046     		mov	r0, r6
 456 007c 3946     		mov	r1, r7
 457 007e FFF7FEFF 		bl	__aeabi_d2f
 458              	.LVL50:
 459 0082 0546     		mov	r5, r0
 460              	.LVL51:
 461              	.L26:
  46:servo.h       ****         }
  47:servo.h       ****     }
  48:servo.h       ****     
  49:servo.h       ****     float err_angle = s->reference_angle - (s->previous_angles[0] + s->previous_angles[1] + s->prev
  50:servo.h       ****     
  51:servo.h       ****     // angle that should be turned
  52:servo.h       ****     float angle_servo = weighted_Kp * err_angle;
 462              		.loc 4 52 0
 463 0084 2068     		ldr	r0, [r4]	@ float
 464 0086 FFF7FEFF 		bl	__aeabi_f2d
 465              	.LVL52:
 466 008a 0646     		mov	r6, r0
 467 008c 0F46     		mov	r7, r1
 468 008e A068     		ldr	r0, [r4, #8]	@ float
 469 0090 E168     		ldr	r1, [r4, #12]	@ float
 470 0092 FFF7FEFF 		bl	__aeabi_fadd
 471              	.LVL53:
 472 0096 2169     		ldr	r1, [r4, #16]	@ float
 473 0098 FFF7FEFF 		bl	__aeabi_fadd
 474              	.LVL54:
 475 009c FFF7FEFF 		bl	__aeabi_f2d
 476              	.LVL55:
 477 00a0 0022     		movs	r2, #0
 478 00a2 1D4B     		ldr	r3, .L31+24
 479 00a4 FFF7FEFF 		bl	__aeabi_ddiv
 480              	.LVL56:
 481 00a8 0246     		mov	r2, r0
 482 00aa 0B46     		mov	r3, r1
 483 00ac 3046     		mov	r0, r6
 484 00ae 3946     		mov	r1, r7
 485 00b0 FFF7FEFF 		bl	__aeabi_dsub
 486              	.LVL57:
 487 00b4 FFF7FEFF 		bl	__aeabi_d2f
 488              	.LVL58:
 489 00b8 2946     		mov	r1, r5
 490 00ba FFF7FEFF 		bl	__aeabi_fmul
 491              	.LVL59:
  53:servo.h       ****     
  54:servo.h       ****     if(angle_servo > 30){
 492              		.loc 4 54 0
 493 00be 1749     		ldr	r1, .L31+28
ARM GAS  C:\Users\ALEXAN~1\AppData\Local\Temp\ccIqJkhn.s 			page 13


  52:servo.h       ****     
 494              		.loc 4 52 0
 495 00c0 0446     		mov	r4, r0
 496              	.LVL60:
 497              		.loc 4 54 0
 498 00c2 FFF7FEFF 		bl	__aeabi_fcmpgt
 499              	.LVL61:
 500 00c6 30B9     		cbnz	r0, .L29
  55:servo.h       ****         angle_servo = 30;
  56:servo.h       ****     } else if(angle_servo < -30){
 501              		.loc 4 56 0
 502 00c8 1549     		ldr	r1, .L31+32
 503 00ca 2046     		mov	r0, r4
 504 00cc FFF7FEFF 		bl	__aeabi_fcmplt
 505              	.LVL62:
 506 00d0 10B1     		cbz	r0, .L27
  57:servo.h       ****         angle_servo = -30;
 507              		.loc 4 57 0
 508 00d2 134C     		ldr	r4, .L31+32
 509              	.LVL63:
 510 00d4 00E0     		b	.L27
 511              	.LVL64:
 512              	.L29:
  55:servo.h       ****         angle_servo = 30;
 513              		.loc 4 55 0
 514 00d6 114C     		ldr	r4, .L31+28
 515              	.LVL65:
 516              	.L27:
  58:servo.h       ****     }
  59:servo.h       ****     
  60:servo.h       ****     // convert angle_servo into the correct signal that can be applied to the servo
  61:servo.h       ****     int16_t servo_signal = angle_servo * turn_factor + t_center + offset;
  62:servo.h       ****     
  63:servo.h       ****     /*        
  64:servo.h       ****     if(servo_signal_counter == 3){
  65:servo.h       ****         servo_signal_RB[servo_signal_counter] = servo_signal;
  66:servo.h       ****         servo_signal_counter = 0;
  67:servo.h       ****     } else {
  68:servo.h       ****         servo_signal_RB[servo_signal_counter] = servo_signal;
  69:servo.h       ****         servo_signal_counter++;
  70:servo.h       ****     }
  71:servo.h       ****     */
  72:servo.h       ****     
  73:servo.h       ****     //int16_t servo_signal_avg; //= (servo_signal_RB[0] + servo_signal_RB[1] + servo_signal_RB[2])/
  74:servo.h       ****     
  75:servo.h       ****     PWM_SERVO_WriteCompare(servo_signal);
 517              		.loc 4 75 0
 518 00d8 1249     		ldr	r1, .L31+36
 519 00da 2046     		mov	r0, r4
 520 00dc FFF7FEFF 		bl	__aeabi_fmul
 521              	.LVL66:
 522 00e0 1149     		ldr	r1, .L31+40
 523 00e2 FFF7FEFF 		bl	__aeabi_fadd
 524              	.LVL67:
 525 00e6 1149     		ldr	r1, .L31+44
 526 00e8 FFF7FEFF 		bl	__aeabi_fsub
 527              	.LVL68:
ARM GAS  C:\Users\ALEXAN~1\AppData\Local\Temp\ccIqJkhn.s 			page 14


 528 00ec FFF7FEFF 		bl	__aeabi_f2iz
 529              	.LVL69:
  76:servo.h       **** }...
 530              		.loc 4 76 0
 531 00f0 BDE8F843 		pop	{r3, r4, r5, r6, r7, r8, r9, lr}
 532              		.cfi_restore 14
 533              		.cfi_restore 9
 534              		.cfi_restore 8
 535              		.cfi_restore 7
 536              		.cfi_restore 6
 537              		.cfi_restore 5
 538              		.cfi_restore 4
 539              		.cfi_restore 3
 540              		.cfi_def_cfa_offset 0
 541              	.LVL70:
  75:servo.h       ****     PWM_SERVO_WriteCompare(servo_signal);
 542              		.loc 4 75 0
 543 00f4 80B2     		uxth	r0, r0
 544 00f6 FFF7FEBF 		b	PWM_SERVO_WriteCompare
 545              	.LVL71:
 546              	.L32:
 547 00fa 00BFAFF3 		.align	3
 547      0080
 548              	.L31:
 549 0100 5839B4C8 		.word	-927712936
 550 0104 76BE9F3F 		.word	1067433590
 551 0108 8FC2F528 		.word	687194767
 552 010c 5C8FE23F 		.word	1071812444
 553 0110 00007042 		.word	1114636288
 554 0114 000070C2 		.word	-1032847360
 555 0118 00000840 		.word	1074266112
 556 011c 0000F041 		.word	1106247680
 557 0120 0000F0C1 		.word	-1041235968
 558 0124 000030C1 		.word	-1053818880
 559 0128 0080AA44 		.word	1152024576
 560 012c 00002042 		.word	1109393408
 561              		.cfi_endproc
 562              	.LFE67:
 563              		.size	servo_update, .-servo_update
 564              		.section	.text.sensor_init,"ax",%progbits
 565              		.align	1
 566              		.global	sensor_init
 567              		.thumb
 568              		.thumb_func
 569              		.type	sensor_init, %function
 570              	sensor_init:
 571              	.LFB68:
  15:sensor.h      ****     return (sensor_t){0, 0, 0, 0};
 572              		.loc 2 15 0
 573              		.cfi_startproc
 574              		@ args = 0, pretend = 0, frame = 0
 575              		@ frame_needed = 0, uses_anonymous_args = 0
 576              		@ link register save eliminated.
 577              	.LVL72:
  16:sensor.h      **** }
 578              		.loc 2 16 0
 579 0000 0022     		movs	r2, #0
ARM GAS  C:\Users\ALEXAN~1\AppData\Local\Temp\ccIqJkhn.s 			page 15


 580 0002 0260     		str	r2, [r0]
 581 0004 4260     		str	r2, [r0, #4]
 582 0006 8260     		str	r2, [r0, #8]
  17:sensor.h      **** 
 583              		.loc 2 17 0
 584 0008 7047     		bx	lr
 585              		.cfi_endproc
 586              	.LFE68:
 587              		.size	sensor_init, .-sensor_init
 588              		.section	.text.sensor_update_feedforward_params,"ax",%progbits
 589              		.align	1
 590              		.global	sensor_update_feedforward_params
 591              		.thumb
 592              		.thumb_func
 593              		.type	sensor_update_feedforward_params, %function
 594              	sensor_update_feedforward_params:
 595              	.LFB69:
  19:sensor.h      ****     s->velocity = velocity;
 596              		.loc 2 19 0
 597              		.cfi_startproc
 598              		@ args = 0, pretend = 0, frame = 0
 599              		@ frame_needed = 0, uses_anonymous_args = 0
 600              		@ link register save eliminated.
 601              	.LVL73:
  20:sensor.h      ****     s->leader_angle = leader_angle;
 602              		.loc 2 20 0
 603 0000 0181     		strh	r1, [r0, #8]	@ movhi
 604              		.loc 2 21 0
 605 0002 8272     		strb	r2, [r0, #10]
 606 0004 7047     		bx	lr
 607              		.cfi_endproc
 608              	.LFE69:
 609              		.size	sensor_update_feedforward_params, .-sensor_update_feedforward_params
 610              		.global	__aeabi_d2uiz
 611              		.section	.text.sensor_update_data,"ax",%progbits
 612              		.align	1
 613              		.global	sensor_update_data
 614              		.thumb
 615              		.thumb_func
 616              		.type	sensor_update_data, %function
 617              	sensor_update_data:
 618              	.LFB70:
  22:sensor.h      **** }
  23:sensor.h      **** 
  24:sensor.h      **** void sensor_update_data(sensor_t *s, uint16_t *chan_a, uint16_t *chan_b, uint16_t chan_len) {
 619              		.loc 2 24 0
 620              		.cfi_startproc
 621              		@ args = 0, pretend = 0, frame = 0
 622              		@ frame_needed = 0, uses_anonymous_args = 0
 623              	.LVL74:
 624 0000 2DE9F041 		push	{r4, r5, r6, r7, r8, lr}
 625              		.cfi_def_cfa_offset 24
 626              		.cfi_offset 4, -24
 627              		.cfi_offset 5, -20
 628              		.cfi_offset 6, -16
 629              		.cfi_offset 7, -12
 630              		.cfi_offset 8, -8
ARM GAS  C:\Users\ALEXAN~1\AppData\Local\Temp\ccIqJkhn.s 			page 16


 631              		.cfi_offset 14, -4
 632              		.loc 2 24 0
 633 0004 0646     		mov	r6, r0
 634              	.LBB12:
  25:sensor.h      ****     // defining a and b for the highest amplitude of the signals
  26:sensor.h      ****     uint16_t a = 0, b = 0;
  27:sensor.h      ****     uint16_t ai = 0, bi = 0;
  28:sensor.h      ****             
  29:sensor.h      ****     // find the 3 biggest time indices of DataA and DataB
  30:sensor.h      ****     for (uint16_t i = 0; i < chan_len; i++) {
 635              		.loc 2 30 0
 636 0006 0020     		movs	r0, #0
 637              	.LVL75:
 638              	.LBE12:
  27:sensor.h      ****             
 639              		.loc 2 27 0
 640 0008 0446     		mov	r4, r0
 641 000a 0546     		mov	r5, r0
  26:sensor.h      ****     uint16_t ai = 0, bi = 0;
 642              		.loc 2 26 0
 643 000c 8446     		mov	ip, r0
 644 000e 8646     		mov	lr, r0
 645              	.LVL76:
 646              	.L36:
 647 0010 87B2     		uxth	r7, r0
 648              	.LVL77:
 649              	.LBB13:
 650              		.loc 2 30 0 discriminator 1
 651 0012 9F42     		cmp	r7, r3
 652 0014 0ED2     		bcs	.L43
  31:sensor.h      ****         if (chan_a[i] > a) {
 653              		.loc 2 31 0
 654 0016 31F81080 		ldrh	r8, [r1, r0, lsl #1]
 655 001a C645     		cmp	lr, r8
 656 001c 38BF     		it	cc
 657 001e C646     		movcc	lr, r8
 658              	.LVL78:
  32:sensor.h      ****             a = chan_a[i];
  33:sensor.h      ****             ai = i;
  34:sensor.h      ****         }
  35:sensor.h      ****                 
  36:sensor.h      ****         if (chan_b[i] > b) {
 659              		.loc 2 36 0
 660 0020 32F81080 		ldrh	r8, [r2, r0, lsl #1]
  31:sensor.h      ****         if (chan_a[i] > a) {
 661              		.loc 2 31 0
 662 0024 38BF     		it	cc
 663 0026 3D46     		movcc	r5, r7
 664              		.loc 2 36 0
 665 0028 C445     		cmp	ip, r8
 666 002a 3CBF     		itt	cc
 667 002c 3C46     		movcc	r4, r7
 668 002e C446     		movcc	ip, r8
 669              	.LVL79:
 670 0030 0130     		adds	r0, r0, #1
 671              	.LVL80:
 672 0032 EDE7     		b	.L36
ARM GAS  C:\Users\ALEXAN~1\AppData\Local\Temp\ccIqJkhn.s 			page 17


 673              	.LVL81:
 674              	.L43:
 675              	.LBE13:
  37:sensor.h      ****             b = chan_b[i];
  38:sensor.h      ****             bi = i;
  39:sensor.h      ****         }
  40:sensor.h      ****     }
  41:sensor.h      ****             
  42:sensor.h      ****         // angle from -60 to 60
  43:sensor.h      ****         // 2.25 us per sample
  44:sensor.h      ****         // 1 us = 0.2 degrees
  45:sensor.h      ****         // 0.45 = 2.25 * 0.2
  46:sensor.h      ****         s->angle = (ai - bi) * 0.45;            
 676              		.loc 2 46 0
 677 0034 281B     		subs	r0, r5, r4
 678 0036 FFF7FEFF 		bl	__aeabi_i2d
 679              	.LVL82:
 680 003a 0FA3     		adr	r3, .L44
 681 003c D3E90023 		ldrd	r2, [r3]
 682 0040 FFF7FEFF 		bl	__aeabi_dmul
 683              	.LVL83:
 684 0044 FFF7FEFF 		bl	__aeabi_d2f
 685              	.LVL84:
  47:sensor.h      ****         
  48:sensor.h      ****         // distance in mm, where speed of sound is 343 mm/ms
  49:sensor.h      ****         // first convert the time difference from us to ms, and then multiply by the speed of sound
  50:sensor.h      ****         // use ai and bi depending on which has the closest peak to the network ping
  51:sensor.h      ****         // The 100 value subtracted has been experimentally found
  52:sensor.h      ****         // 0.77 = 2.25/1000.0 * 343
  53:sensor.h      ****         if (ai < bi) {
 686              		.loc 2 53 0
 687 0048 A542     		cmp	r5, r4
  46:sensor.h      ****         
 688              		.loc 2 46 0
 689 004a 7060     		str	r0, [r6, #4]	@ float
  54:sensor.h      ****             s->distance = ai*0.77 - 100;
 690              		.loc 2 54 0
 691 004c 34BF     		ite	cc
 692 004e 2846     		movcc	r0, r5
  55:sensor.h      ****         } else {
  56:sensor.h      ****             s->distance = bi * 0.77 -100;
 693              		.loc 2 56 0
 694 0050 2046     		movcs	r0, r4
 695 0052 FFF7FEFF 		bl	__aeabi_i2d
 696              	.LVL85:
 697 0056 0AA3     		adr	r3, .L44+8
 698 0058 D3E90023 		ldrd	r2, [r3]
 699 005c FFF7FEFF 		bl	__aeabi_dmul
 700              	.LVL86:
 701 0060 0022     		movs	r2, #0
 702 0062 094B     		ldr	r3, .L44+16
 703 0064 FFF7FEFF 		bl	__aeabi_dsub
 704              	.LVL87:
 705 0068 FFF7FEFF 		bl	__aeabi_d2uiz
 706              	.LVL88:
 707 006c 3080     		strh	r0, [r6]	@ movhi
 708 006e BDE8F081 		pop	{r4, r5, r6, r7, r8, pc}
ARM GAS  C:\Users\ALEXAN~1\AppData\Local\Temp\ccIqJkhn.s 			page 18


 709              	.LVL89:
 710              	.L45:
 711 0072 00BFAFF3 		.align	3
 711      0080
 712              	.L44:
 713 0078 CDCCCCCC 		.word	-858993459
 714 007c CCCCDC3F 		.word	1071434956
 715 0080 A4703D0A 		.word	171798692
 716 0084 D7A3E83F 		.word	1072210903
 717 0088 00005940 		.word	1079574528
 718              		.cfi_endproc
 719              	.LFE70:
 720              		.size	sensor_update_data, .-sensor_update_data
 721              		.section	.text.startup.main,"ax",%progbits
 722              		.align	1
 723              		.global	main
 724              		.thumb
 725              		.thumb_func
 726              		.type	main, %function
 727              	main:
 728              	.LFB74:
  63:main.c        **** 
  64:main.c        **** int main(void)
  65:main.c        **** {   
 729              		.loc 1 65 0
 730              		.cfi_startproc
 731              		@ args = 0, pretend = 0, frame = 32
 732              		@ frame_needed = 0, uses_anonymous_args = 0
 733 0000 F0B5     		push	{r4, r5, r6, r7, lr}
 734              		.cfi_def_cfa_offset 20
 735              		.cfi_offset 4, -20
 736              		.cfi_offset 5, -16
 737              		.cfi_offset 6, -12
 738              		.cfi_offset 7, -8
 739              		.cfi_offset 14, -4
 740 0002 89B0     		sub	sp, sp, #36
 741              		.cfi_def_cfa_offset 56
  66:main.c        ****     /* initialize components */
  67:main.c        ****     UART_Start();
 742              		.loc 1 67 0
 743 0004 FFF7FEFF 		bl	UART_Start
 744              	.LVL90:
  68:main.c        ****     Clock_In_Start();
 745              		.loc 1 68 0
 746 0008 FFF7FEFF 		bl	Clock_In_Start
 747              	.LVL91:
  69:main.c        ****     Clock_In_1_Start();
 748              		.loc 1 69 0
 749 000c FFF7FEFF 		bl	Clock_In_1_Start
 750              	.LVL92:
  70:main.c        ****     ADC_SAR_A_Start();
 751              		.loc 1 70 0
 752 0010 FFF7FEFF 		bl	ADC_SAR_A_Start
 753              	.LVL93:
  71:main.c        ****     ADC_SAR_B_Start();
 754              		.loc 1 71 0
 755 0014 FFF7FEFF 		bl	ADC_SAR_B_Start
ARM GAS  C:\Users\ALEXAN~1\AppData\Local\Temp\ccIqJkhn.s 			page 19


 756              	.LVL94:
  72:main.c        ****     Maximum_Peak_Detector_A_Start();
 757              		.loc 1 72 0
 758 0018 FFF7FEFF 		bl	Maximum_Peak_Detector_A_Start
 759              	.LVL95:
  73:main.c        ****     Maximum_Peak_Detector_B_Start();
 760              		.loc 1 73 0
 761 001c FFF7FEFF 		bl	Maximum_Peak_Detector_B_Start
 762              	.LVL96:
  74:main.c        ****     ADC_SAR_A_IRQ_Enable();
 763              		.loc 1 74 0
 764 0020 FFF7FEFF 		bl	ADC_SAR_A_IRQ_Enable
 765              	.LVL97:
  75:main.c        ****     ADC_SAR_B_IRQ_Enable();
 766              		.loc 1 75 0
 767 0024 FFF7FEFF 		bl	ADC_SAR_B_IRQ_Enable
 768              	.LVL98:
  76:main.c        ****     PWM_H_BRIDGE_Start();
 769              		.loc 1 76 0
 770 0028 FFF7FEFF 		bl	PWM_H_BRIDGE_Start
 771              	.LVL99:
  77:main.c        ****     Clock_1_Start();
 772              		.loc 1 77 0
 773 002c FFF7FEFF 		bl	Clock_1_Start
 774              	.LVL100:
  78:main.c        ****     PWM_SERVO_Start();
 775              		.loc 1 78 0
 776 0030 FFF7FEFF 		bl	PWM_SERVO_Start
 777              	.LVL101:
  79:main.c        ****     Clock_2_Start();
 778              		.loc 1 79 0
 779 0034 FFF7FEFF 		bl	Clock_2_Start
 780              	.LVL102:
  80:main.c        ****     ISR_A_StartEx(ISR_OUT_A_Handler);
 781              		.loc 1 80 0
 782 0038 7048     		ldr	r0, .L54
 783 003a FFF7FEFF 		bl	ISR_A_StartEx
 784              	.LVL103:
  81:main.c        ****     ISR_B_StartEx(ISR_OUT_B_Handler);
 785              		.loc 1 81 0
 786 003e 7048     		ldr	r0, .L54+4
 787 0040 FFF7FEFF 		bl	ISR_B_StartEx
 788              	.LVL104:
  82:main.c        ****     killswitchP_Write(1);
 789              		.loc 1 82 0
 790 0044 0120     		movs	r0, #1
 791 0046 FFF7FEFF 		bl	killswitchP_Write
 792              	.LVL105:
  83:main.c        ****     //N2_Write(0);
  84:main.c        ****   //  P1_Write(1);
  85:main.c        ****   //  P2_Write(0);
  86:main.c        ****     
  87:main.c        ****     DMA_A_CHAN_INIT(DATA_SIZE);
 793              		.loc 1 87 0
 794 004a 4FF48043 		mov	r3, #16384
 795 004e 1A46     		mov	r2, r3
 796 0050 0121     		movs	r1, #1
ARM GAS  C:\Users\ALEXAN~1\AppData\Local\Temp\ccIqJkhn.s 			page 20


 797 0052 0220     		movs	r0, #2
 798 0054 FFF7FEFF 		bl	DMA_A_DmaInitialize
 799              	.LVL106:
 800 0058 6A4C     		ldr	r4, .L54+8
 801 005a 6B4D     		ldr	r5, .L54+12
 802 005c 2070     		strb	r0, [r4]
 803 005e FFF7FEFF 		bl	CyDmaTdAllocate
 804              	.LVL107:
 805 0062 0023     		movs	r3, #0
 806 0064 0246     		mov	r2, r0
 807 0066 40F6B831 		movw	r1, #3000
 808 006a 2870     		strb	r0, [r5]
 809 006c FFF7FEFF 		bl	CyDmaTdSetConfiguration
 810              	.LVL108:
 811 0070 4CF2A072 		movw	r2, #51104
 812 0074 45F6A231 		movw	r1, #23458
 813 0078 2878     		ldrb	r0, [r5]	@ zero_extendqisi2
 814 007a FFF7FEFF 		bl	CyDmaTdSetAddress
 815              	.LVL109:
 816 007e 2978     		ldrb	r1, [r5]	@ zero_extendqisi2
 817 0080 2078     		ldrb	r0, [r4]	@ zero_extendqisi2
 818 0082 FFF7FEFF 		bl	CyDmaChSetInitialTd
 819              	.LVL110:
 820 0086 0121     		movs	r1, #1
 821 0088 2078     		ldrb	r0, [r4]	@ zero_extendqisi2
 822 008a FFF7FEFF 		bl	CyDmaChEnable
 823              	.LVL111:
  88:main.c        ****     DMA_B_CHAN_INIT(DATA_SIZE);
 824              		.loc 1 88 0
 825 008e 4FF48043 		mov	r3, #16384
 826 0092 1A46     		mov	r2, r3
 827 0094 0121     		movs	r1, #1
 828 0096 0220     		movs	r0, #2
 829 0098 FFF7FEFF 		bl	DMA_B_DmaInitialize
 830              	.LVL112:
 831 009c 5B4C     		ldr	r4, .L54+16
 832 009e 5C4D     		ldr	r5, .L54+20
 833 00a0 2070     		strb	r0, [r4]
 834 00a2 FFF7FEFF 		bl	CyDmaTdAllocate
 835              	.LVL113:
 836 00a6 0023     		movs	r3, #0
 837 00a8 0246     		mov	r2, r0
 838 00aa 40F6B831 		movw	r1, #3000
 839 00ae 2870     		strb	r0, [r5]
 840 00b0 FFF7FEFF 		bl	CyDmaTdSetConfiguration
 841              	.LVL114:
 842 00b4 4CF2A472 		movw	r2, #51108
 843 00b8 45F6A031 		movw	r1, #23456
 844 00bc 2878     		ldrb	r0, [r5]	@ zero_extendqisi2
 845 00be FFF7FEFF 		bl	CyDmaTdSetAddress
 846              	.LVL115:
 847 00c2 2978     		ldrb	r1, [r5]	@ zero_extendqisi2
 848 00c4 2078     		ldrb	r0, [r4]	@ zero_extendqisi2
 849 00c6 FFF7FEFF 		bl	CyDmaChSetInitialTd
 850              	.LVL116:
 851 00ca 0121     		movs	r1, #1
 852 00cc 2078     		ldrb	r0, [r4]	@ zero_extendqisi2
ARM GAS  C:\Users\ALEXAN~1\AppData\Local\Temp\ccIqJkhn.s 			page 21


 853 00ce FFF7FEFF 		bl	CyDmaChEnable
 854              	.LVL117:
  89:main.c        ****     DMA_A_FILTER_INIT(DATA_SIZE, DataA);
 855              		.loc 1 89 0
 856 00d2 41F6FF73 		movw	r3, #8191
 857 00d6 4FF48042 		mov	r2, #16384
 858 00da 0121     		movs	r1, #1
 859 00dc 0220     		movs	r0, #2
 860 00de FFF7FEFF 		bl	DMA_A_Filter_DmaInitialize
 861              	.LVL118:
 862 00e2 4C4C     		ldr	r4, .L54+24
 863 00e4 4C4D     		ldr	r5, .L54+28
 864 00e6 2070     		strb	r0, [r4]
 865 00e8 FFF7FEFF 		bl	CyDmaTdAllocate
 866              	.LVL119:
 867 00ec 0623     		movs	r3, #6
 868 00ee 0246     		mov	r2, r0
 869 00f0 40F6B831 		movw	r1, #3000
 870 00f4 2870     		strb	r0, [r5]
 871 00f6 FFF7FEFF 		bl	CyDmaTdSetConfiguration
 872              	.LVL120:
 873 00fa 484A     		ldr	r2, .L54+32
 874 00fc 4CF2A871 		movw	r1, #51112
 875 0100 92B2     		uxth	r2, r2
 876 0102 2878     		ldrb	r0, [r5]	@ zero_extendqisi2
 877 0104 FFF7FEFF 		bl	CyDmaTdSetAddress
 878              	.LVL121:
 879 0108 2978     		ldrb	r1, [r5]	@ zero_extendqisi2
 880 010a 2078     		ldrb	r0, [r4]	@ zero_extendqisi2
 881 010c FFF7FEFF 		bl	CyDmaChSetInitialTd
 882              	.LVL122:
 883 0110 0121     		movs	r1, #1
 884 0112 2078     		ldrb	r0, [r4]	@ zero_extendqisi2
 885 0114 FFF7FEFF 		bl	CyDmaChEnable
 886              	.LVL123:
  90:main.c        ****     DMA_B_FILTER_INIT(DATA_SIZE, DataB);
 887              		.loc 1 90 0
 888 0118 41F6FF73 		movw	r3, #8191
 889 011c 4FF48042 		mov	r2, #16384
 890 0120 0121     		movs	r1, #1
 891 0122 0220     		movs	r0, #2
 892 0124 FFF7FEFF 		bl	DMA_B_Filter_DmaInitialize
 893              	.LVL124:
 894 0128 3D4C     		ldr	r4, .L54+36
 895 012a 3E4D     		ldr	r5, .L54+40
 896 012c 2070     		strb	r0, [r4]
 897 012e FFF7FEFF 		bl	CyDmaTdAllocate
 898              	.LVL125:
 899 0132 0623     		movs	r3, #6
 900 0134 0246     		mov	r2, r0
 901 0136 40F6B831 		movw	r1, #3000
 902 013a 2870     		strb	r0, [r5]
 903 013c FFF7FEFF 		bl	CyDmaTdSetConfiguration
 904              	.LVL126:
 905 0140 394A     		ldr	r2, .L54+44
 906 0142 4CF2AC71 		movw	r1, #51116
 907 0146 92B2     		uxth	r2, r2
ARM GAS  C:\Users\ALEXAN~1\AppData\Local\Temp\ccIqJkhn.s 			page 22


 908 0148 2878     		ldrb	r0, [r5]	@ zero_extendqisi2
 909 014a FFF7FEFF 		bl	CyDmaTdSetAddress
 910              	.LVL127:
 911 014e 2978     		ldrb	r1, [r5]	@ zero_extendqisi2
 912 0150 2078     		ldrb	r0, [r4]	@ zero_extendqisi2
 913 0152 FFF7FEFF 		bl	CyDmaChSetInitialTd
 914              	.LVL128:
 915 0156 0121     		movs	r1, #1
 916 0158 2078     		ldrb	r0, [r4]	@ zero_extendqisi2
 917 015a FFF7FEFF 		bl	CyDmaChEnable
 918              	.LVL129:
  91:main.c        ****     
  92:main.c        ****     /* start filter */
  93:main.c        ****     Filter_Start();
 919              		.loc 1 93 0
 920 015e FFF7FEFF 		bl	Filter_Start
 921              	.LVL130:
  94:main.c        ****     
  95:main.c        ****     /*
  96:main.c        ****      * the filter can filter 32-values
  97:main.c        ****      * Filter_KEY_MID makes the filters trigger on byte 2 or 3 being updated
  98:main.c        ****     */
  99:main.c        ****     Filter_SetCoherency(Filter_CHANNEL_A, Filter_KEY_MID);
 922              		.loc 1 99 0
 923 0162 0121     		movs	r1, #1
 924 0164 0020     		movs	r0, #0
 925 0166 FFF7FEFF 		bl	Filter_SetCoherency
 926              	.LVL131:
 100:main.c        ****     Filter_SetCoherency(Filter_CHANNEL_B, Filter_KEY_MID);
 927              		.loc 1 100 0
 928 016a 0121     		movs	r1, #1
 929 016c 0846     		mov	r0, r1
 930 016e FFF7FEFF 		bl	Filter_SetCoherency
 931              	.LVL132:
 101:main.c        ****     
 102:main.c        ****     // enable real network ping interrupt
 103:main.c        ****     isr_IRQ_StartEx(IRQ_Handler);
 932              		.loc 1 103 0
 933 0172 2E48     		ldr	r0, .L54+48
 934 0174 FFF7FEFF 		bl	isr_IRQ_StartEx
 935              	.LVL133:
 104:main.c        ****     
 105:main.c        ****     // start the nRF24 with settings
 106:main.c        ****     nRF24_start();
 936              		.loc 1 106 0
 937 0178 FFF7FEFF 		bl	nRF24_start
 938              	.LVL134:
 107:main.c        ****     nRF24_set_rx_pipe_address(NRF_ADDR_PIPE0, RX_ADDR, 5);
 939              		.loc 1 107 0
 940 017c 0522     		movs	r2, #5
 941 017e 2C49     		ldr	r1, .L54+52
 942 0180 0A20     		movs	r0, #10
 943 0182 FFF7FEFF 		bl	nRF24_set_rx_pipe_address
 944              	.LVL135:
 108:main.c        ****     nRF24_start_listening();
 945              		.loc 1 108 0
 946 0186 FFF7FEFF 		bl	nRF24_start_listening
ARM GAS  C:\Users\ALEXAN~1\AppData\Local\Temp\ccIqJkhn.s 			page 23


 947              	.LVL136:
 948              	.LBB14:
 949              	.LBB15:
  13:motor.h       ****  return (motor_t) {reference_dist, Kp};   
 950              		.loc 3 13 0
 951 018a 4FF49673 		mov	r3, #300
 952 018e ADF80030 		strh	r3, [sp]	@ movhi
 953              	.LBE15:
 954              	.LBE14:
 955              	.LBB18:
 956              	.LBB19:
  21:servo.h       ****     return (servo_t){reference_angle, Kp, {0}, {0}};
 957              		.loc 4 21 0
 958 0192 1822     		movs	r2, #24
 959              	.LBE19:
 960              	.LBE18:
 961              	.LBB23:
 962              	.LBB16:
  13:motor.h       ****  return (motor_t) {reference_dist, Kp};   
 963              		.loc 3 13 0
 964 0194 4FF03F43 		mov	r3, #-1090519040
 965              	.LBE16:
 966              	.LBE23:
 967              	.LBB24:
 968              	.LBB20:
  21:servo.h       ****     return (servo_t){reference_angle, Kp, {0}, {0}};
 969              		.loc 4 21 0
 970 0198 0021     		movs	r1, #0
 971 019a 02A8     		add	r0, sp, #8
 972              	.LBE20:
 973              	.LBE24:
 974              	.LBB25:
 975              	.LBB17:
  13:motor.h       ****  return (motor_t) {reference_dist, Kp};   
 976              		.loc 3 13 0
 977 019c 0193     		str	r3, [sp, #4]	@ float
 978              	.LVL137:
 979              	.LBE17:
 980              	.LBE25:
 981              	.LBB26:
 982              	.LBB21:
  21:servo.h       ****     return (servo_t){reference_angle, Kp, {0}, {0}};
 983              		.loc 4 21 0
 984 019e FFF7FEFF 		bl	memset
 985              	.LVL138:
 986 01a2 244B     		ldr	r3, .L54+56
 987              	.LBE21:
 988              	.LBE26:
 109:main.c        ****     
 110:main.c        ****     // reference_dist = 300, Kp = -0.5
 111:main.c        ****     motor_t motor = motor_init(300, -0.5);
 112:main.c        ****     
 113:main.c        ****     // reference_angle = 0, Kp = -0.5
 114:main.c        ****     servo_t servo = servo_init(0, -0.7);
 115:main.c        ****     
 116:main.c        ****     // start watchdog timer
 117:main.c        ****     CyWdtStart(CYWDT_16_TICKS, CYWDT_LPMODE_NOCHANGE);
ARM GAS  C:\Users\ALEXAN~1\AppData\Local\Temp\ccIqJkhn.s 			page 24


 989              		.loc 1 117 0
 990 01a4 0021     		movs	r1, #0
 991 01a6 0120     		movs	r0, #1
 992              	.LBB27:
 993              	.LBB22:
  21:servo.h       ****     return (servo_t){reference_angle, Kp, {0}, {0}};
 994              		.loc 4 21 0
 995 01a8 0393     		str	r3, [sp, #12]	@ float
 996              	.LVL139:
 997              	.LBE22:
 998              	.LBE27:
 999              		.loc 1 117 0
 1000 01aa FFF7FEFF 		bl	CyWdtStart
 1001              	.LVL140:
 118:main.c        ****     CyGlobalIntEnable;
 1002              		.loc 1 118 0
 1003              		.syntax unified
 1004              	@ 118 "main.c" 1
 1005 01ae 62B6     		CPSIE   i
 1006              	@ 0 "" 2
 119:main.c        ****     
 120:main.c        ****     for(;;)
 121:main.c        ****     {
 122:main.c        ****         if (ISR_A_done && ISR_B_done) {
 1007              		.loc 1 122 0
 1008              		.thumb
 1009              		.syntax unified
 1010 01b0 214D     		ldr	r5, .L54+60
 1011 01b2 2F46     		mov	r7, r5
 1012 01b4 2E46     		mov	r6, r5
 1013              	.L47:
 1014 01b6 2B78     		ldrb	r3, [r5]	@ zero_extendqisi2
 1015 01b8 002B     		cmp	r3, #0
 1016 01ba FCD0     		beq	.L47
 1017              		.loc 1 122 0 is_stmt 0 discriminator 1
 1018 01bc 7B78     		ldrb	r3, [r7, #1]	@ zero_extendqisi2
 1019 01be 002B     		cmp	r3, #0
 1020 01c0 F9D0     		beq	.L47
 123:main.c        ****             CyGlobalIntDisable;
 1021              		.loc 1 123 0 is_stmt 1
 1022              		.syntax unified
 1023              	@ 123 "main.c" 1
 1024 01c2 72B6     		CPSID   i
 1025              	@ 0 "" 2
 124:main.c        ****            
 125:main.c        ****             sensor_update_data(&sensor_data, DataA, DataB, DATA_SIZE);
 1026              		.loc 1 125 0
 1027              		.thumb
 1028              		.syntax unified
 1029 01c4 1D4C     		ldr	r4, .L54+64
 1030 01c6 40F2DC53 		movw	r3, #1500
 1031 01ca 2046     		mov	r0, r4
 1032 01cc 164A     		ldr	r2, .L54+44
 1033 01ce 1349     		ldr	r1, .L54+32
 1034 01d0 FFF7FEFF 		bl	sensor_update_data
 1035              	.LVL141:
 126:main.c        ****                 
ARM GAS  C:\Users\ALEXAN~1\AppData\Local\Temp\ccIqJkhn.s 			page 25


 127:main.c        ****             // CONTROL SYSTEM - DISTANCE:
 128:main.c        ****             
 129:main.c        ****             motor_update(&motor, sensor_data.distance, sensor_data.velocity);
 1036              		.loc 1 129 0
 1037 01d4 2188     		ldrh	r1, [r4]
 1038 01d6 2289     		ldrh	r2, [r4, #8]
 1039 01d8 6846     		mov	r0, sp
 1040 01da 12B2     		sxth	r2, r2
 1041 01dc 89B2     		uxth	r1, r1
 1042 01de FFF7FEFF 		bl	motor_update
 1043              	.LVL142:
 130:main.c        ****             
 131:main.c        ****             //CONTROL SYSTEM - ANGLE:
 132:main.c        ****             
 133:main.c        ****             servo_update(&servo, sensor_data.angle, sensor_data.leader_angle, sensor_data.velocity)
 1044              		.loc 1 133 0
 1045 01e2 6168     		ldr	r1, [r4, #4]	@ float
 1046 01e4 A27A     		ldrb	r2, [r4, #10]	@ zero_extendqisi2
 1047 01e6 2389     		ldrh	r3, [r4, #8]
 1048 01e8 52B2     		sxtb	r2, r2
 1049 01ea 1BB2     		sxth	r3, r3
 1050 01ec 02A8     		add	r0, sp, #8
 1051 01ee FFF7FEFF 		bl	servo_update
 1052              	.LVL143:
 134:main.c        ****             
 135:main.c        ****             ISR_A_done = ISR_B_done = 0;
 1053              		.loc 1 135 0
 1054 01f2 0023     		movs	r3, #0
 1055 01f4 7370     		strb	r3, [r6, #1]
 1056 01f6 3370     		strb	r3, [r6]
 136:main.c        ****             
 137:main.c        ****             CyGlobalIntEnable;
 1057              		.loc 1 137 0
 1058              		.syntax unified
 1059              	@ 137 "main.c" 1
 1060 01f8 62B6     		CPSIE   i
 1061              	@ 0 "" 2
 1062              		.thumb
 1063              		.syntax unified
 1064 01fa DCE7     		b	.L47
 1065              	.L55:
 1066              		.align	2
 1067              	.L54:
 1068 01fc 00000000 		.word	ISR_OUT_A_Handler
 1069 0200 00000000 		.word	ISR_OUT_B_Handler
 1070 0204 00000000 		.word	DMA_A_Chan
 1071 0208 00000000 		.word	DMA_A_TD
 1072 020c 00000000 		.word	DMA_B_Chan
 1073 0210 00000000 		.word	DMA_B_TD
 1074 0214 00000000 		.word	DMA_A_Filter_Chan
 1075 0218 00000000 		.word	DMA_A_Filter_TD
 1076 021c 00000000 		.word	DataA
 1077 0220 00000000 		.word	DMA_B_Filter_Chan
 1078 0224 00000000 		.word	DMA_B_Filter_TD
 1079 0228 00000000 		.word	DataB
 1080 022c 00000000 		.word	IRQ_Handler
 1081 0230 00000000 		.word	.LANCHOR1
ARM GAS  C:\Users\ALEXAN~1\AppData\Local\Temp\ccIqJkhn.s 			page 26


 1082 0234 333333BF 		.word	-1087163597
 1083 0238 00000000 		.word	.LANCHOR0
 1084 023c 00000000 		.word	sensor_data
 1085              		.cfi_endproc
 1086              	.LFE74:
 1087              		.size	main, .-main
 1088              		.comm	sensor_data,12,4
 1089              		.comm	output,200,1
 1090              		.global	ISR_B_done
 1091              		.global	ISR_A_done
 1092              		.comm	DataB,3000,2
 1093              		.comm	DataA,3000,2
 1094              		.global	RX_ADDR
 1095              		.comm	DMA_B_Filter_TD,1,1
 1096              		.comm	DMA_B_Filter_Chan,1,1
 1097              		.comm	DMA_A_Filter_TD,1,1
 1098              		.comm	DMA_A_Filter_Chan,1,1
 1099              		.comm	DMA_B_TD,1,1
 1100              		.comm	DMA_B_Chan,1,1
 1101              		.comm	DMA_A_TD,1,1
 1102              		.comm	DMA_A_Chan,1,1
 1103              		.section	.rodata
 1104              		.set	.LANCHOR1,. + 0
 1105              		.type	RX_ADDR, %object
 1106              		.size	RX_ADDR, 5
 1107              	RX_ADDR:
 1108 0000 BA       		.byte	-70
 1109 0001 AD       		.byte	-83
 1110 0002 C0       		.byte	-64
 1111 0003 FF       		.byte	-1
 1112 0004 EE       		.byte	-18
 1113              		.bss
 1114              		.set	.LANCHOR0,. + 0
 1115              		.type	ISR_A_done, %object
 1116              		.size	ISR_A_done, 1
 1117              	ISR_A_done:
 1118 0000 00       		.space	1
 1119              		.type	ISR_B_done, %object
 1120              		.size	ISR_B_done, 1
 1121              	ISR_B_done:
 1122 0001 00       		.space	1
 1123              		.text
 1124              	.Letext0:
 1125              		.file 5 "c:\\program files (x86)\\cypress\\psoc creator\\4.2\\psoc creator\\import\\gnu\\arm\\5.4.
 1126              		.file 6 "c:\\program files (x86)\\cypress\\psoc creator\\4.2\\psoc creator\\import\\gnu\\arm\\5.4.
 1127              		.file 7 "Generated_Source\\PSoC5/cytypes.h"
 1128              		.file 8 "Generated_Source\\PSoC5/nRF24_DEFS.h"
 1129              		.file 9 "Generated_Source\\PSoC5/core_cm3.h"
 1130              		.file 10 "dma_initialization.h"
 1131              		.file 11 "Generated_Source\\PSoC5/ADC_SAR_A.h"
 1132              		.file 12 "Generated_Source\\PSoC5/ADC_SAR_B.h"
 1133              		.file 13 "Generated_Source\\PSoC5/CyLib.h"
 1134              		.file 14 "Generated_Source\\PSoC5/IRQ.h"
 1135              		.file 15 "Generated_Source\\PSoC5/nRF24_FUNCS.h"
 1136              		.file 16 "Generated_Source\\PSoC5/P1.h"
 1137              		.file 17 "Generated_Source\\PSoC5/P2.h"
 1138              		.file 18 "Generated_Source\\PSoC5/PWM_H_BRIDGE.h"
ARM GAS  C:\Users\ALEXAN~1\AppData\Local\Temp\ccIqJkhn.s 			page 27


 1139              		.file 19 "Generated_Source\\PSoC5/PWM_SERVO.h"
 1140              		.file 20 "Generated_Source\\PSoC5/UART.h"
 1141              		.file 21 "Generated_Source\\PSoC5/Clock_In.h"
 1142              		.file 22 "Generated_Source\\PSoC5/Clock_In_1.h"
 1143              		.file 23 "Generated_Source\\PSoC5/Maximum_Peak_Detector_A.h"
 1144              		.file 24 "Generated_Source\\PSoC5/Maximum_Peak_Detector_B.h"
 1145              		.file 25 "Generated_Source\\PSoC5/ADC_SAR_A_IRQ.h"
 1146              		.file 26 "Generated_Source\\PSoC5/ADC_SAR_B_IRQ.h"
 1147              		.file 27 "Generated_Source\\PSoC5/Clock_1.h"
 1148              		.file 28 "Generated_Source\\PSoC5/Clock_2.h"
 1149              		.file 29 "Generated_Source\\PSoC5/ISR_A.h"
 1150              		.file 30 "Generated_Source\\PSoC5/ISR_B.h"
 1151              		.file 31 "Generated_Source\\PSoC5/killswitchP.h"
 1152              		.file 32 "Generated_Source\\PSoC5/DMA_A_dma.h"
 1153              		.file 33 "Generated_Source\\PSoC5/CYDMAC.H"
 1154              		.file 34 "Generated_Source\\PSoC5/DMA_B_dma.h"
 1155              		.file 35 "Generated_Source\\PSoC5/DMA_A_Filter_dma.h"
 1156              		.file 36 "Generated_Source\\PSoC5/DMA_B_Filter_dma.h"
 1157              		.file 37 "Generated_Source\\PSoC5/Filter.h"
 1158              		.file 38 "Generated_Source\\PSoC5/isr_IRQ.h"