ARM GAS  C:\Users\ALEXAN~1\AppData\Local\Temp\cc5C5V1h.s 			page 1


   1              		.syntax unified
   2              		.cpu cortex-m3
   3              		.fpu softvfp
   4              		.eabi_attribute 20, 1
   5              		.eabi_attribute 21, 1
   6              		.eabi_attribute 23, 3
   7              		.eabi_attribute 24, 1
   8              		.eabi_attribute 25, 1
   9              		.eabi_attribute 26, 1
  10              		.eabi_attribute 30, 4
  11              		.eabi_attribute 34, 1
  12              		.eabi_attribute 18, 4
  13              		.thumb
  14              		.syntax unified
  15              		.file	"Maximum_Peak_Detector_A_Comp_1_PM.c"
  16              		.text
  17              	.Ltext0:
  18              		.cfi_sections	.debug_frame
  19              		.section	.text.Maximum_Peak_Detector_A_Comp_1_SaveConfig,"ax",%progbits
  20              		.align	1
  21              		.global	Maximum_Peak_Detector_A_Comp_1_SaveConfig
  22              		.thumb
  23              		.thumb_func
  24              		.type	Maximum_Peak_Detector_A_Comp_1_SaveConfig, %function
  25              	Maximum_Peak_Detector_A_Comp_1_SaveConfig:
  26              	.LFB5:
  27              		.cfi_startproc
  28              		@ args = 0, pretend = 0, frame = 0
  29              		@ frame_needed = 0, uses_anonymous_args = 0
  30              		@ link register save eliminated.
  31 0000 7047     		bx	lr
  32              		.cfi_endproc
  33              	.LFE5:
  34              		.size	Maximum_Peak_Detector_A_Comp_1_SaveConfig, .-Maximum_Peak_Detector_A_Comp_1_SaveConfig
  35              		.section	.text.Maximum_Peak_Detector_A_Comp_1_RestoreConfig,"ax",%progbits
  36              		.align	1
  37              		.global	Maximum_Peak_Detector_A_Comp_1_RestoreConfig
  38              		.thumb
  39              		.thumb_func
  40              		.type	Maximum_Peak_Detector_A_Comp_1_RestoreConfig, %function
  41              	Maximum_Peak_Detector_A_Comp_1_RestoreConfig:
  42              	.LFB1:
  43              		.file 1 "Generated_Source\\PSoC5\\Maximum_Peak_Detector_A_Comp_1_PM.c"
   1:Generated_Source\PSoC5/Maximum_Peak_Detector_A_Comp_1_PM.c **** /*******************************************************************************
   2:Generated_Source\PSoC5/Maximum_Peak_Detector_A_Comp_1_PM.c **** * File Name: Maximum_Peak_Detector_A_Comp_1.c
   3:Generated_Source\PSoC5/Maximum_Peak_Detector_A_Comp_1_PM.c **** * Version 2.0
   4:Generated_Source\PSoC5/Maximum_Peak_Detector_A_Comp_1_PM.c **** *
   5:Generated_Source\PSoC5/Maximum_Peak_Detector_A_Comp_1_PM.c **** * Description:
   6:Generated_Source\PSoC5/Maximum_Peak_Detector_A_Comp_1_PM.c **** *  This file provides the power management source code APIs for the
   7:Generated_Source\PSoC5/Maximum_Peak_Detector_A_Comp_1_PM.c **** *  Comparator.
   8:Generated_Source\PSoC5/Maximum_Peak_Detector_A_Comp_1_PM.c **** *
   9:Generated_Source\PSoC5/Maximum_Peak_Detector_A_Comp_1_PM.c **** * Note:
  10:Generated_Source\PSoC5/Maximum_Peak_Detector_A_Comp_1_PM.c **** *  None
  11:Generated_Source\PSoC5/Maximum_Peak_Detector_A_Comp_1_PM.c **** *
  12:Generated_Source\PSoC5/Maximum_Peak_Detector_A_Comp_1_PM.c **** ********************************************************************************
  13:Generated_Source\PSoC5/Maximum_Peak_Detector_A_Comp_1_PM.c **** * Copyright 2008-2012, Cypress Semiconductor Corporation.  All rights reserved.
  14:Generated_Source\PSoC5/Maximum_Peak_Detector_A_Comp_1_PM.c **** * You may use this file only in accordance with the license, terms, conditions, 
ARM GAS  C:\Users\ALEXAN~1\AppData\Local\Temp\cc5C5V1h.s 			page 2


  15:Generated_Source\PSoC5/Maximum_Peak_Detector_A_Comp_1_PM.c **** * disclaimers, and limitations in the end user license agreement accompanying 
  16:Generated_Source\PSoC5/Maximum_Peak_Detector_A_Comp_1_PM.c **** * the software package with which this file was provided.
  17:Generated_Source\PSoC5/Maximum_Peak_Detector_A_Comp_1_PM.c **** *******************************************************************************/
  18:Generated_Source\PSoC5/Maximum_Peak_Detector_A_Comp_1_PM.c **** 
  19:Generated_Source\PSoC5/Maximum_Peak_Detector_A_Comp_1_PM.c **** #include "Maximum_Peak_Detector_A_Comp_1.h"
  20:Generated_Source\PSoC5/Maximum_Peak_Detector_A_Comp_1_PM.c **** 
  21:Generated_Source\PSoC5/Maximum_Peak_Detector_A_Comp_1_PM.c **** static Maximum_Peak_Detector_A_Comp_1_backupStruct Maximum_Peak_Detector_A_Comp_1_backup;
  22:Generated_Source\PSoC5/Maximum_Peak_Detector_A_Comp_1_PM.c **** 
  23:Generated_Source\PSoC5/Maximum_Peak_Detector_A_Comp_1_PM.c **** 
  24:Generated_Source\PSoC5/Maximum_Peak_Detector_A_Comp_1_PM.c **** /*******************************************************************************
  25:Generated_Source\PSoC5/Maximum_Peak_Detector_A_Comp_1_PM.c **** * Function Name: Maximum_Peak_Detector_A_Comp_1_SaveConfig
  26:Generated_Source\PSoC5/Maximum_Peak_Detector_A_Comp_1_PM.c **** ********************************************************************************
  27:Generated_Source\PSoC5/Maximum_Peak_Detector_A_Comp_1_PM.c **** *
  28:Generated_Source\PSoC5/Maximum_Peak_Detector_A_Comp_1_PM.c **** * Summary:
  29:Generated_Source\PSoC5/Maximum_Peak_Detector_A_Comp_1_PM.c **** *  Save the current user configuration
  30:Generated_Source\PSoC5/Maximum_Peak_Detector_A_Comp_1_PM.c **** *
  31:Generated_Source\PSoC5/Maximum_Peak_Detector_A_Comp_1_PM.c **** * Parameters:
  32:Generated_Source\PSoC5/Maximum_Peak_Detector_A_Comp_1_PM.c **** *  void:
  33:Generated_Source\PSoC5/Maximum_Peak_Detector_A_Comp_1_PM.c **** *
  34:Generated_Source\PSoC5/Maximum_Peak_Detector_A_Comp_1_PM.c **** * Return:
  35:Generated_Source\PSoC5/Maximum_Peak_Detector_A_Comp_1_PM.c **** *  void
  36:Generated_Source\PSoC5/Maximum_Peak_Detector_A_Comp_1_PM.c **** *
  37:Generated_Source\PSoC5/Maximum_Peak_Detector_A_Comp_1_PM.c **** *******************************************************************************/
  38:Generated_Source\PSoC5/Maximum_Peak_Detector_A_Comp_1_PM.c **** void Maximum_Peak_Detector_A_Comp_1_SaveConfig(void) 
  39:Generated_Source\PSoC5/Maximum_Peak_Detector_A_Comp_1_PM.c **** {
  40:Generated_Source\PSoC5/Maximum_Peak_Detector_A_Comp_1_PM.c ****     /* Empty since all are system reset for retention flops */
  41:Generated_Source\PSoC5/Maximum_Peak_Detector_A_Comp_1_PM.c **** }
  42:Generated_Source\PSoC5/Maximum_Peak_Detector_A_Comp_1_PM.c **** 
  43:Generated_Source\PSoC5/Maximum_Peak_Detector_A_Comp_1_PM.c **** 
  44:Generated_Source\PSoC5/Maximum_Peak_Detector_A_Comp_1_PM.c **** /*******************************************************************************
  45:Generated_Source\PSoC5/Maximum_Peak_Detector_A_Comp_1_PM.c **** * Function Name: Maximum_Peak_Detector_A_Comp_1_RestoreConfig
  46:Generated_Source\PSoC5/Maximum_Peak_Detector_A_Comp_1_PM.c **** ********************************************************************************
  47:Generated_Source\PSoC5/Maximum_Peak_Detector_A_Comp_1_PM.c **** *
  48:Generated_Source\PSoC5/Maximum_Peak_Detector_A_Comp_1_PM.c **** * Summary:
  49:Generated_Source\PSoC5/Maximum_Peak_Detector_A_Comp_1_PM.c **** *  Restores the current user configuration.
  50:Generated_Source\PSoC5/Maximum_Peak_Detector_A_Comp_1_PM.c **** *
  51:Generated_Source\PSoC5/Maximum_Peak_Detector_A_Comp_1_PM.c **** * Parameters:
  52:Generated_Source\PSoC5/Maximum_Peak_Detector_A_Comp_1_PM.c **** *  void
  53:Generated_Source\PSoC5/Maximum_Peak_Detector_A_Comp_1_PM.c **** *
  54:Generated_Source\PSoC5/Maximum_Peak_Detector_A_Comp_1_PM.c **** * Return:
  55:Generated_Source\PSoC5/Maximum_Peak_Detector_A_Comp_1_PM.c **** *  void
  56:Generated_Source\PSoC5/Maximum_Peak_Detector_A_Comp_1_PM.c **** *
  57:Generated_Source\PSoC5/Maximum_Peak_Detector_A_Comp_1_PM.c **** ********************************************************************************/
  58:Generated_Source\PSoC5/Maximum_Peak_Detector_A_Comp_1_PM.c **** void Maximum_Peak_Detector_A_Comp_1_RestoreConfig(void) 
  59:Generated_Source\PSoC5/Maximum_Peak_Detector_A_Comp_1_PM.c **** {
  44              		.loc 1 59 0
  45              		.cfi_startproc
  46              		@ args = 0, pretend = 0, frame = 0
  47              		@ frame_needed = 0, uses_anonymous_args = 0
  48              		@ link register save eliminated.
  49 0000 7047     		bx	lr
  50              		.cfi_endproc
  51              	.LFE1:
  52              		.size	Maximum_Peak_Detector_A_Comp_1_RestoreConfig, .-Maximum_Peak_Detector_A_Comp_1_RestoreConfig
  53              		.section	.text.Maximum_Peak_Detector_A_Comp_1_Sleep,"ax",%progbits
  54              		.align	1
  55              		.global	Maximum_Peak_Detector_A_Comp_1_Sleep
ARM GAS  C:\Users\ALEXAN~1\AppData\Local\Temp\cc5C5V1h.s 			page 3


  56              		.thumb
  57              		.thumb_func
  58              		.type	Maximum_Peak_Detector_A_Comp_1_Sleep, %function
  59              	Maximum_Peak_Detector_A_Comp_1_Sleep:
  60              	.LFB2:
  60:Generated_Source\PSoC5/Maximum_Peak_Detector_A_Comp_1_PM.c ****     /* Empty since all are system reset for retention flops */    
  61:Generated_Source\PSoC5/Maximum_Peak_Detector_A_Comp_1_PM.c **** }
  62:Generated_Source\PSoC5/Maximum_Peak_Detector_A_Comp_1_PM.c **** 
  63:Generated_Source\PSoC5/Maximum_Peak_Detector_A_Comp_1_PM.c **** 
  64:Generated_Source\PSoC5/Maximum_Peak_Detector_A_Comp_1_PM.c **** /*******************************************************************************
  65:Generated_Source\PSoC5/Maximum_Peak_Detector_A_Comp_1_PM.c **** * Function Name: Maximum_Peak_Detector_A_Comp_1_Sleep
  66:Generated_Source\PSoC5/Maximum_Peak_Detector_A_Comp_1_PM.c **** ********************************************************************************
  67:Generated_Source\PSoC5/Maximum_Peak_Detector_A_Comp_1_PM.c **** *
  68:Generated_Source\PSoC5/Maximum_Peak_Detector_A_Comp_1_PM.c **** * Summary:
  69:Generated_Source\PSoC5/Maximum_Peak_Detector_A_Comp_1_PM.c **** *  Stop and Save the user configuration
  70:Generated_Source\PSoC5/Maximum_Peak_Detector_A_Comp_1_PM.c **** *
  71:Generated_Source\PSoC5/Maximum_Peak_Detector_A_Comp_1_PM.c **** * Parameters:
  72:Generated_Source\PSoC5/Maximum_Peak_Detector_A_Comp_1_PM.c **** *  void:
  73:Generated_Source\PSoC5/Maximum_Peak_Detector_A_Comp_1_PM.c **** *
  74:Generated_Source\PSoC5/Maximum_Peak_Detector_A_Comp_1_PM.c **** * Return:
  75:Generated_Source\PSoC5/Maximum_Peak_Detector_A_Comp_1_PM.c **** *  void
  76:Generated_Source\PSoC5/Maximum_Peak_Detector_A_Comp_1_PM.c **** *
  77:Generated_Source\PSoC5/Maximum_Peak_Detector_A_Comp_1_PM.c **** * Global variables:
  78:Generated_Source\PSoC5/Maximum_Peak_Detector_A_Comp_1_PM.c **** *  Maximum_Peak_Detector_A_Comp_1_backup.enableState:  Is modified depending on the enable 
  79:Generated_Source\PSoC5/Maximum_Peak_Detector_A_Comp_1_PM.c **** *   state of the block before entering sleep mode.
  80:Generated_Source\PSoC5/Maximum_Peak_Detector_A_Comp_1_PM.c **** *
  81:Generated_Source\PSoC5/Maximum_Peak_Detector_A_Comp_1_PM.c **** *******************************************************************************/
  82:Generated_Source\PSoC5/Maximum_Peak_Detector_A_Comp_1_PM.c **** void Maximum_Peak_Detector_A_Comp_1_Sleep(void) 
  83:Generated_Source\PSoC5/Maximum_Peak_Detector_A_Comp_1_PM.c **** {
  61              		.loc 1 83 0
  62              		.cfi_startproc
  63              		@ args = 0, pretend = 0, frame = 0
  64              		@ frame_needed = 0, uses_anonymous_args = 0
  65              		@ link register save eliminated.
  84:Generated_Source\PSoC5/Maximum_Peak_Detector_A_Comp_1_PM.c ****     /* Save Comp's enable state */    
  85:Generated_Source\PSoC5/Maximum_Peak_Detector_A_Comp_1_PM.c ****     if(Maximum_Peak_Detector_A_Comp_1_ACT_PWR_EN == (Maximum_Peak_Detector_A_Comp_1_PWRMGR & Maximu
  66              		.loc 1 85 0
  67 0000 064B     		ldr	r3, .L7
  68 0002 074A     		ldr	r2, .L7+4
  69 0004 1B78     		ldrb	r3, [r3]	@ zero_extendqisi2
  70 0006 03F00403 		and	r3, r3, #4
  71 000a 03F0FF01 		and	r1, r3, #255
  72 000e 13B1     		cbz	r3, .L4
  86:Generated_Source\PSoC5/Maximum_Peak_Detector_A_Comp_1_PM.c ****     {
  87:Generated_Source\PSoC5/Maximum_Peak_Detector_A_Comp_1_PM.c ****         /* Comp is enabled */
  88:Generated_Source\PSoC5/Maximum_Peak_Detector_A_Comp_1_PM.c ****         Maximum_Peak_Detector_A_Comp_1_backup.enableState = 1u;
  73              		.loc 1 88 0
  74 0010 0123     		movs	r3, #1
  75 0012 1370     		strb	r3, [r2]
  76 0014 00E0     		b	.L5
  77              	.L4:
  89:Generated_Source\PSoC5/Maximum_Peak_Detector_A_Comp_1_PM.c ****     }
  90:Generated_Source\PSoC5/Maximum_Peak_Detector_A_Comp_1_PM.c ****     else
  91:Generated_Source\PSoC5/Maximum_Peak_Detector_A_Comp_1_PM.c ****     {
  92:Generated_Source\PSoC5/Maximum_Peak_Detector_A_Comp_1_PM.c ****         /* Comp is disabled */
  93:Generated_Source\PSoC5/Maximum_Peak_Detector_A_Comp_1_PM.c ****         Maximum_Peak_Detector_A_Comp_1_backup.enableState = 0u;
  78              		.loc 1 93 0
ARM GAS  C:\Users\ALEXAN~1\AppData\Local\Temp\cc5C5V1h.s 			page 4


  79 0016 1170     		strb	r1, [r2]
  80              	.L5:
  94:Generated_Source\PSoC5/Maximum_Peak_Detector_A_Comp_1_PM.c ****     }    
  95:Generated_Source\PSoC5/Maximum_Peak_Detector_A_Comp_1_PM.c ****     
  96:Generated_Source\PSoC5/Maximum_Peak_Detector_A_Comp_1_PM.c ****     Maximum_Peak_Detector_A_Comp_1_Stop();
  81              		.loc 1 96 0
  82 0018 FFF7FEBF 		b	Maximum_Peak_Detector_A_Comp_1_Stop
  83              	.LVL0:
  84              	.L8:
  85              		.align	2
  86              	.L7:
  87 001c A7430040 		.word	1073759143
  88 0020 00000000 		.word	.LANCHOR0
  89              		.cfi_endproc
  90              	.LFE2:
  91              		.size	Maximum_Peak_Detector_A_Comp_1_Sleep, .-Maximum_Peak_Detector_A_Comp_1_Sleep
  92              		.section	.text.Maximum_Peak_Detector_A_Comp_1_Wakeup,"ax",%progbits
  93              		.align	1
  94              		.global	Maximum_Peak_Detector_A_Comp_1_Wakeup
  95              		.thumb
  96              		.thumb_func
  97              		.type	Maximum_Peak_Detector_A_Comp_1_Wakeup, %function
  98              	Maximum_Peak_Detector_A_Comp_1_Wakeup:
  99              	.LFB3:
  97:Generated_Source\PSoC5/Maximum_Peak_Detector_A_Comp_1_PM.c ****     Maximum_Peak_Detector_A_Comp_1_SaveConfig();
  98:Generated_Source\PSoC5/Maximum_Peak_Detector_A_Comp_1_PM.c **** }
  99:Generated_Source\PSoC5/Maximum_Peak_Detector_A_Comp_1_PM.c **** 
 100:Generated_Source\PSoC5/Maximum_Peak_Detector_A_Comp_1_PM.c **** 
 101:Generated_Source\PSoC5/Maximum_Peak_Detector_A_Comp_1_PM.c **** /*******************************************************************************
 102:Generated_Source\PSoC5/Maximum_Peak_Detector_A_Comp_1_PM.c **** * Function Name: Maximum_Peak_Detector_A_Comp_1_Wakeup
 103:Generated_Source\PSoC5/Maximum_Peak_Detector_A_Comp_1_PM.c **** ********************************************************************************
 104:Generated_Source\PSoC5/Maximum_Peak_Detector_A_Comp_1_PM.c **** *
 105:Generated_Source\PSoC5/Maximum_Peak_Detector_A_Comp_1_PM.c **** * Summary:
 106:Generated_Source\PSoC5/Maximum_Peak_Detector_A_Comp_1_PM.c **** *  Restores and enables the user configuration
 107:Generated_Source\PSoC5/Maximum_Peak_Detector_A_Comp_1_PM.c **** *  
 108:Generated_Source\PSoC5/Maximum_Peak_Detector_A_Comp_1_PM.c **** * Parameters:
 109:Generated_Source\PSoC5/Maximum_Peak_Detector_A_Comp_1_PM.c **** *  void
 110:Generated_Source\PSoC5/Maximum_Peak_Detector_A_Comp_1_PM.c **** *
 111:Generated_Source\PSoC5/Maximum_Peak_Detector_A_Comp_1_PM.c **** * Return:
 112:Generated_Source\PSoC5/Maximum_Peak_Detector_A_Comp_1_PM.c **** *  void
 113:Generated_Source\PSoC5/Maximum_Peak_Detector_A_Comp_1_PM.c **** *
 114:Generated_Source\PSoC5/Maximum_Peak_Detector_A_Comp_1_PM.c **** * Global variables:
 115:Generated_Source\PSoC5/Maximum_Peak_Detector_A_Comp_1_PM.c **** *  Maximum_Peak_Detector_A_Comp_1_backup.enableState:  Is used to restore the enable state of 
 116:Generated_Source\PSoC5/Maximum_Peak_Detector_A_Comp_1_PM.c **** *  block on wakeup from sleep mode.
 117:Generated_Source\PSoC5/Maximum_Peak_Detector_A_Comp_1_PM.c **** *
 118:Generated_Source\PSoC5/Maximum_Peak_Detector_A_Comp_1_PM.c **** *******************************************************************************/
 119:Generated_Source\PSoC5/Maximum_Peak_Detector_A_Comp_1_PM.c **** void Maximum_Peak_Detector_A_Comp_1_Wakeup(void) 
 120:Generated_Source\PSoC5/Maximum_Peak_Detector_A_Comp_1_PM.c **** {
 100              		.loc 1 120 0
 101              		.cfi_startproc
 102              		@ args = 0, pretend = 0, frame = 0
 103              		@ frame_needed = 0, uses_anonymous_args = 0
 104              		@ link register save eliminated.
 121:Generated_Source\PSoC5/Maximum_Peak_Detector_A_Comp_1_PM.c ****     Maximum_Peak_Detector_A_Comp_1_RestoreConfig();
 122:Generated_Source\PSoC5/Maximum_Peak_Detector_A_Comp_1_PM.c ****     
 123:Generated_Source\PSoC5/Maximum_Peak_Detector_A_Comp_1_PM.c ****     if(Maximum_Peak_Detector_A_Comp_1_backup.enableState == 1u)
 105              		.loc 1 123 0
ARM GAS  C:\Users\ALEXAN~1\AppData\Local\Temp\cc5C5V1h.s 			page 5


 106 0000 034B     		ldr	r3, .L11
 107 0002 1B78     		ldrb	r3, [r3]	@ zero_extendqisi2
 108 0004 012B     		cmp	r3, #1
 109 0006 01D1     		bne	.L9
 124:Generated_Source\PSoC5/Maximum_Peak_Detector_A_Comp_1_PM.c ****     {
 125:Generated_Source\PSoC5/Maximum_Peak_Detector_A_Comp_1_PM.c ****         /* Enable Comp's operation */
 126:Generated_Source\PSoC5/Maximum_Peak_Detector_A_Comp_1_PM.c ****         Maximum_Peak_Detector_A_Comp_1_Enable();
 110              		.loc 1 126 0
 111 0008 FFF7FEBF 		b	Maximum_Peak_Detector_A_Comp_1_Enable
 112              	.LVL1:
 113              	.L9:
 114 000c 7047     		bx	lr
 115              	.L12:
 116 000e 00BF     		.align	2
 117              	.L11:
 118 0010 00000000 		.word	.LANCHOR0
 119              		.cfi_endproc
 120              	.LFE3:
 121              		.size	Maximum_Peak_Detector_A_Comp_1_Wakeup, .-Maximum_Peak_Detector_A_Comp_1_Wakeup
 122              		.bss
 123              		.set	.LANCHOR0,. + 0
 124              		.type	Maximum_Peak_Detector_A_Comp_1_backup, %object
 125              		.size	Maximum_Peak_Detector_A_Comp_1_backup, 1
 126              	Maximum_Peak_Detector_A_Comp_1_backup:
 127 0000 00       		.space	1
 128              		.text
 129              	.Letext0:
 130              		.file 2 "Generated_Source\\PSoC5\\cytypes.h"
 131              		.file 3 "Generated_Source\\PSoC5\\Maximum_Peak_Detector_A_Comp_1.h"