ARM GAS  C:\Users\ALEXAN~1\AppData\Local\Temp\ccyIvZIY.s 			page 1


   1              		.syntax unified
   2              		.cpu cortex-m3
   3              		.fpu softvfp
   4              		.eabi_attribute 20, 1
   5              		.eabi_attribute 21, 1
   6              		.eabi_attribute 23, 3
   7              		.eabi_attribute 24, 1
   8              		.eabi_attribute 25, 1
   9              		.eabi_attribute 26, 1
  10              		.eabi_attribute 30, 4
  11              		.eabi_attribute 34, 1
  12              		.eabi_attribute 18, 4
  13              		.thumb
  14              		.syntax unified
  15              		.file	"Maximum_Peak_Detector_A_Comp_1.c"
  16              		.text
  17              	.Ltext0:
  18              		.cfi_sections	.debug_frame
  19              		.section	.text.Maximum_Peak_Detector_A_Comp_1_trimAdjust,"ax",%progbits
  20              		.align	1
  21              		.thumb
  22              		.thumb_func
  23              		.type	Maximum_Peak_Detector_A_Comp_1_trimAdjust, %function
  24              	Maximum_Peak_Detector_A_Comp_1_trimAdjust:
  25              	.LFB6:
  26              		.file 1 "Generated_Source\\PSoC5\\Maximum_Peak_Detector_A_Comp_1.c"
   1:Generated_Source\PSoC5/Maximum_Peak_Detector_A_Comp_1.c **** /*******************************************************************************
   2:Generated_Source\PSoC5/Maximum_Peak_Detector_A_Comp_1.c **** * File Name: Maximum_Peak_Detector_A_Comp_1.c
   3:Generated_Source\PSoC5/Maximum_Peak_Detector_A_Comp_1.c **** * Version 2.0
   4:Generated_Source\PSoC5/Maximum_Peak_Detector_A_Comp_1.c **** *
   5:Generated_Source\PSoC5/Maximum_Peak_Detector_A_Comp_1.c **** * Description:
   6:Generated_Source\PSoC5/Maximum_Peak_Detector_A_Comp_1.c **** *  This file provides the source code to the API for the Comparator component
   7:Generated_Source\PSoC5/Maximum_Peak_Detector_A_Comp_1.c **** *
   8:Generated_Source\PSoC5/Maximum_Peak_Detector_A_Comp_1.c **** * Note:
   9:Generated_Source\PSoC5/Maximum_Peak_Detector_A_Comp_1.c **** *  None
  10:Generated_Source\PSoC5/Maximum_Peak_Detector_A_Comp_1.c **** *
  11:Generated_Source\PSoC5/Maximum_Peak_Detector_A_Comp_1.c **** ********************************************************************************
  12:Generated_Source\PSoC5/Maximum_Peak_Detector_A_Comp_1.c **** * Copyright 2008-2012, Cypress Semiconductor Corporation.  All rights reserved.
  13:Generated_Source\PSoC5/Maximum_Peak_Detector_A_Comp_1.c **** * You may use this file only in accordance with the license, terms, conditions, 
  14:Generated_Source\PSoC5/Maximum_Peak_Detector_A_Comp_1.c **** * disclaimers, and limitations in the end user license agreement accompanying 
  15:Generated_Source\PSoC5/Maximum_Peak_Detector_A_Comp_1.c **** * the software package with which this file was provided.
  16:Generated_Source\PSoC5/Maximum_Peak_Detector_A_Comp_1.c **** *******************************************************************************/
  17:Generated_Source\PSoC5/Maximum_Peak_Detector_A_Comp_1.c **** 
  18:Generated_Source\PSoC5/Maximum_Peak_Detector_A_Comp_1.c **** #include "Maximum_Peak_Detector_A_Comp_1.h"
  19:Generated_Source\PSoC5/Maximum_Peak_Detector_A_Comp_1.c **** 
  20:Generated_Source\PSoC5/Maximum_Peak_Detector_A_Comp_1.c **** uint8 Maximum_Peak_Detector_A_Comp_1_initVar = 0u;
  21:Generated_Source\PSoC5/Maximum_Peak_Detector_A_Comp_1.c **** 
  22:Generated_Source\PSoC5/Maximum_Peak_Detector_A_Comp_1.c **** /* Internal functions definitoin */
  23:Generated_Source\PSoC5/Maximum_Peak_Detector_A_Comp_1.c **** static void Maximum_Peak_Detector_A_Comp_1_trimAdjust(uint8 nibble) ;
  24:Generated_Source\PSoC5/Maximum_Peak_Detector_A_Comp_1.c **** 
  25:Generated_Source\PSoC5/Maximum_Peak_Detector_A_Comp_1.c **** /* static Maximum_Peak_Detector_A_Comp_1_backupStruct  Maximum_Peak_Detector_A_Comp_1_backup; */
  26:Generated_Source\PSoC5/Maximum_Peak_Detector_A_Comp_1.c **** #if (CY_PSOC5A)
  27:Generated_Source\PSoC5/Maximum_Peak_Detector_A_Comp_1.c ****     static Maximum_Peak_Detector_A_Comp_1_LOWPOWER_BACKUP_STRUCT  Maximum_Peak_Detector_A_Comp_1_lo
  28:Generated_Source\PSoC5/Maximum_Peak_Detector_A_Comp_1.c **** #endif /* CY_PSOC5A */
  29:Generated_Source\PSoC5/Maximum_Peak_Detector_A_Comp_1.c **** 
  30:Generated_Source\PSoC5/Maximum_Peak_Detector_A_Comp_1.c **** /* variable to decide whether or not to restore the control register in 
  31:Generated_Source\PSoC5/Maximum_Peak_Detector_A_Comp_1.c ****    Enable() API for PSoC5A only */
ARM GAS  C:\Users\ALEXAN~1\AppData\Local\Temp\ccyIvZIY.s 			page 2


  32:Generated_Source\PSoC5/Maximum_Peak_Detector_A_Comp_1.c **** #if (CY_PSOC5A)
  33:Generated_Source\PSoC5/Maximum_Peak_Detector_A_Comp_1.c ****     static uint8 Maximum_Peak_Detector_A_Comp_1_restoreReg = 0u;
  34:Generated_Source\PSoC5/Maximum_Peak_Detector_A_Comp_1.c **** #endif /* CY_PSOC5A */
  35:Generated_Source\PSoC5/Maximum_Peak_Detector_A_Comp_1.c **** 
  36:Generated_Source\PSoC5/Maximum_Peak_Detector_A_Comp_1.c **** 
  37:Generated_Source\PSoC5/Maximum_Peak_Detector_A_Comp_1.c **** /*******************************************************************************
  38:Generated_Source\PSoC5/Maximum_Peak_Detector_A_Comp_1.c **** * Function Name: Maximum_Peak_Detector_A_Comp_1_Init
  39:Generated_Source\PSoC5/Maximum_Peak_Detector_A_Comp_1.c **** ********************************************************************************
  40:Generated_Source\PSoC5/Maximum_Peak_Detector_A_Comp_1.c **** *
  41:Generated_Source\PSoC5/Maximum_Peak_Detector_A_Comp_1.c **** * Summary:
  42:Generated_Source\PSoC5/Maximum_Peak_Detector_A_Comp_1.c **** *  Initialize to the schematic state
  43:Generated_Source\PSoC5/Maximum_Peak_Detector_A_Comp_1.c **** * 
  44:Generated_Source\PSoC5/Maximum_Peak_Detector_A_Comp_1.c **** * Parameters:
  45:Generated_Source\PSoC5/Maximum_Peak_Detector_A_Comp_1.c **** *  void
  46:Generated_Source\PSoC5/Maximum_Peak_Detector_A_Comp_1.c **** *
  47:Generated_Source\PSoC5/Maximum_Peak_Detector_A_Comp_1.c **** * Return:
  48:Generated_Source\PSoC5/Maximum_Peak_Detector_A_Comp_1.c **** *  void
  49:Generated_Source\PSoC5/Maximum_Peak_Detector_A_Comp_1.c **** *
  50:Generated_Source\PSoC5/Maximum_Peak_Detector_A_Comp_1.c **** *******************************************************************************/
  51:Generated_Source\PSoC5/Maximum_Peak_Detector_A_Comp_1.c **** void Maximum_Peak_Detector_A_Comp_1_Init(void) 
  52:Generated_Source\PSoC5/Maximum_Peak_Detector_A_Comp_1.c **** {
  53:Generated_Source\PSoC5/Maximum_Peak_Detector_A_Comp_1.c ****     /* Set default speed/power */
  54:Generated_Source\PSoC5/Maximum_Peak_Detector_A_Comp_1.c ****     Maximum_Peak_Detector_A_Comp_1_SetSpeed(Maximum_Peak_Detector_A_Comp_1_DEFAULT_SPEED);
  55:Generated_Source\PSoC5/Maximum_Peak_Detector_A_Comp_1.c **** 
  56:Generated_Source\PSoC5/Maximum_Peak_Detector_A_Comp_1.c ****     /* Set default Hysteresis */
  57:Generated_Source\PSoC5/Maximum_Peak_Detector_A_Comp_1.c ****     #if ( Maximum_Peak_Detector_A_Comp_1_DEFAULT_HYSTERESIS == 0u )
  58:Generated_Source\PSoC5/Maximum_Peak_Detector_A_Comp_1.c ****         Maximum_Peak_Detector_A_Comp_1_CR |= Maximum_Peak_Detector_A_Comp_1_HYST_OFF;
  59:Generated_Source\PSoC5/Maximum_Peak_Detector_A_Comp_1.c ****     #else
  60:Generated_Source\PSoC5/Maximum_Peak_Detector_A_Comp_1.c ****         Maximum_Peak_Detector_A_Comp_1_CR &= (uint8)(~Maximum_Peak_Detector_A_Comp_1_HYST_OFF);
  61:Generated_Source\PSoC5/Maximum_Peak_Detector_A_Comp_1.c ****     #endif /* Maximum_Peak_Detector_A_Comp_1_DEFAULT_HYSTERESIS == 0u */
  62:Generated_Source\PSoC5/Maximum_Peak_Detector_A_Comp_1.c ****     /* Power down override feature is not supported for PSoC5A. */
  63:Generated_Source\PSoC5/Maximum_Peak_Detector_A_Comp_1.c ****     #if (CY_PSOC3 || CY_PSOC5LP)
  64:Generated_Source\PSoC5/Maximum_Peak_Detector_A_Comp_1.c ****         /* Set default Power Down Override */
  65:Generated_Source\PSoC5/Maximum_Peak_Detector_A_Comp_1.c ****         #if ( Maximum_Peak_Detector_A_Comp_1_DEFAULT_PWRDWN_OVRD == 0u )
  66:Generated_Source\PSoC5/Maximum_Peak_Detector_A_Comp_1.c ****             Maximum_Peak_Detector_A_Comp_1_CR &= (uint8)(~Maximum_Peak_Detector_A_Comp_1_PWRDWN_OVR
  67:Generated_Source\PSoC5/Maximum_Peak_Detector_A_Comp_1.c ****         #else 
  68:Generated_Source\PSoC5/Maximum_Peak_Detector_A_Comp_1.c ****             Maximum_Peak_Detector_A_Comp_1_CR |= Maximum_Peak_Detector_A_Comp_1_PWRDWN_OVRD;
  69:Generated_Source\PSoC5/Maximum_Peak_Detector_A_Comp_1.c ****         #endif /* Maximum_Peak_Detector_A_Comp_1_DEFAULT_PWRDWN_OVRD == 0u */
  70:Generated_Source\PSoC5/Maximum_Peak_Detector_A_Comp_1.c ****     #endif /* CY_PSOC3 || CY_PSOC5LP */
  71:Generated_Source\PSoC5/Maximum_Peak_Detector_A_Comp_1.c ****     
  72:Generated_Source\PSoC5/Maximum_Peak_Detector_A_Comp_1.c ****     /* Set mux always on logic */
  73:Generated_Source\PSoC5/Maximum_Peak_Detector_A_Comp_1.c ****     Maximum_Peak_Detector_A_Comp_1_CR |= Maximum_Peak_Detector_A_Comp_1_MX_AO;
  74:Generated_Source\PSoC5/Maximum_Peak_Detector_A_Comp_1.c **** 
  75:Generated_Source\PSoC5/Maximum_Peak_Detector_A_Comp_1.c ****     /* Set default sync */
  76:Generated_Source\PSoC5/Maximum_Peak_Detector_A_Comp_1.c ****     Maximum_Peak_Detector_A_Comp_1_CLK &= (uint8)(~Maximum_Peak_Detector_A_Comp_1_SYNCCLK_MASK);
  77:Generated_Source\PSoC5/Maximum_Peak_Detector_A_Comp_1.c ****     #if ( Maximum_Peak_Detector_A_Comp_1_DEFAULT_BYPASS_SYNC == 0u )
  78:Generated_Source\PSoC5/Maximum_Peak_Detector_A_Comp_1.c ****         Maximum_Peak_Detector_A_Comp_1_CLK |= Maximum_Peak_Detector_A_Comp_1_SYNC_CLK_EN;
  79:Generated_Source\PSoC5/Maximum_Peak_Detector_A_Comp_1.c ****     #else
  80:Generated_Source\PSoC5/Maximum_Peak_Detector_A_Comp_1.c ****         Maximum_Peak_Detector_A_Comp_1_CLK |= Maximum_Peak_Detector_A_Comp_1_BYPASS_SYNC;
  81:Generated_Source\PSoC5/Maximum_Peak_Detector_A_Comp_1.c ****     #endif /* Maximum_Peak_Detector_A_Comp_1_DEFAULT_BYPASS_SYNC == 0u */
  82:Generated_Source\PSoC5/Maximum_Peak_Detector_A_Comp_1.c **** }
  83:Generated_Source\PSoC5/Maximum_Peak_Detector_A_Comp_1.c **** 
  84:Generated_Source\PSoC5/Maximum_Peak_Detector_A_Comp_1.c **** 
  85:Generated_Source\PSoC5/Maximum_Peak_Detector_A_Comp_1.c **** /*******************************************************************************
  86:Generated_Source\PSoC5/Maximum_Peak_Detector_A_Comp_1.c **** * Function Name: Maximum_Peak_Detector_A_Comp_1_Enable
  87:Generated_Source\PSoC5/Maximum_Peak_Detector_A_Comp_1.c **** ********************************************************************************
  88:Generated_Source\PSoC5/Maximum_Peak_Detector_A_Comp_1.c **** *
ARM GAS  C:\Users\ALEXAN~1\AppData\Local\Temp\ccyIvZIY.s 			page 3


  89:Generated_Source\PSoC5/Maximum_Peak_Detector_A_Comp_1.c **** * Summary:
  90:Generated_Source\PSoC5/Maximum_Peak_Detector_A_Comp_1.c **** *  Enable the Comparator
  91:Generated_Source\PSoC5/Maximum_Peak_Detector_A_Comp_1.c **** * 
  92:Generated_Source\PSoC5/Maximum_Peak_Detector_A_Comp_1.c **** * Parameters:
  93:Generated_Source\PSoC5/Maximum_Peak_Detector_A_Comp_1.c **** *  void
  94:Generated_Source\PSoC5/Maximum_Peak_Detector_A_Comp_1.c **** *
  95:Generated_Source\PSoC5/Maximum_Peak_Detector_A_Comp_1.c **** * Return:
  96:Generated_Source\PSoC5/Maximum_Peak_Detector_A_Comp_1.c **** *  void
  97:Generated_Source\PSoC5/Maximum_Peak_Detector_A_Comp_1.c **** *
  98:Generated_Source\PSoC5/Maximum_Peak_Detector_A_Comp_1.c **** *******************************************************************************/
  99:Generated_Source\PSoC5/Maximum_Peak_Detector_A_Comp_1.c **** void Maximum_Peak_Detector_A_Comp_1_Enable(void) 
 100:Generated_Source\PSoC5/Maximum_Peak_Detector_A_Comp_1.c **** {
 101:Generated_Source\PSoC5/Maximum_Peak_Detector_A_Comp_1.c ****     Maximum_Peak_Detector_A_Comp_1_PWRMGR |= Maximum_Peak_Detector_A_Comp_1_ACT_PWR_EN;
 102:Generated_Source\PSoC5/Maximum_Peak_Detector_A_Comp_1.c ****     Maximum_Peak_Detector_A_Comp_1_STBY_PWRMGR |= Maximum_Peak_Detector_A_Comp_1_STBY_PWR_EN;
 103:Generated_Source\PSoC5/Maximum_Peak_Detector_A_Comp_1.c ****      
 104:Generated_Source\PSoC5/Maximum_Peak_Detector_A_Comp_1.c ****      /* This is to restore the value of register CR which is saved 
 105:Generated_Source\PSoC5/Maximum_Peak_Detector_A_Comp_1.c ****     in prior to the modification in stop() API */
 106:Generated_Source\PSoC5/Maximum_Peak_Detector_A_Comp_1.c ****     #if (CY_PSOC5A)
 107:Generated_Source\PSoC5/Maximum_Peak_Detector_A_Comp_1.c ****         if(Maximum_Peak_Detector_A_Comp_1_restoreReg == 1u)
 108:Generated_Source\PSoC5/Maximum_Peak_Detector_A_Comp_1.c ****         {
 109:Generated_Source\PSoC5/Maximum_Peak_Detector_A_Comp_1.c ****             Maximum_Peak_Detector_A_Comp_1_CR = Maximum_Peak_Detector_A_Comp_1_lowPowerBackup.compC
 110:Generated_Source\PSoC5/Maximum_Peak_Detector_A_Comp_1.c **** 
 111:Generated_Source\PSoC5/Maximum_Peak_Detector_A_Comp_1.c ****             /* Clear the flag */
 112:Generated_Source\PSoC5/Maximum_Peak_Detector_A_Comp_1.c ****             Maximum_Peak_Detector_A_Comp_1_restoreReg = 0u;
 113:Generated_Source\PSoC5/Maximum_Peak_Detector_A_Comp_1.c ****         }
 114:Generated_Source\PSoC5/Maximum_Peak_Detector_A_Comp_1.c ****     #endif /* CY_PSOC5A */
 115:Generated_Source\PSoC5/Maximum_Peak_Detector_A_Comp_1.c **** }
 116:Generated_Source\PSoC5/Maximum_Peak_Detector_A_Comp_1.c **** 
 117:Generated_Source\PSoC5/Maximum_Peak_Detector_A_Comp_1.c **** 
 118:Generated_Source\PSoC5/Maximum_Peak_Detector_A_Comp_1.c **** /*******************************************************************************
 119:Generated_Source\PSoC5/Maximum_Peak_Detector_A_Comp_1.c **** * Function Name: Maximum_Peak_Detector_A_Comp_1_Start
 120:Generated_Source\PSoC5/Maximum_Peak_Detector_A_Comp_1.c **** ********************************************************************************
 121:Generated_Source\PSoC5/Maximum_Peak_Detector_A_Comp_1.c **** *
 122:Generated_Source\PSoC5/Maximum_Peak_Detector_A_Comp_1.c **** * Summary:
 123:Generated_Source\PSoC5/Maximum_Peak_Detector_A_Comp_1.c **** *  The start function initializes the Analog Comparator with the default values.
 124:Generated_Source\PSoC5/Maximum_Peak_Detector_A_Comp_1.c **** *
 125:Generated_Source\PSoC5/Maximum_Peak_Detector_A_Comp_1.c **** * Parameters:
 126:Generated_Source\PSoC5/Maximum_Peak_Detector_A_Comp_1.c **** *  void
 127:Generated_Source\PSoC5/Maximum_Peak_Detector_A_Comp_1.c **** *
 128:Generated_Source\PSoC5/Maximum_Peak_Detector_A_Comp_1.c **** * Return:
 129:Generated_Source\PSoC5/Maximum_Peak_Detector_A_Comp_1.c **** *  void 
 130:Generated_Source\PSoC5/Maximum_Peak_Detector_A_Comp_1.c **** *
 131:Generated_Source\PSoC5/Maximum_Peak_Detector_A_Comp_1.c **** * Global variables:
 132:Generated_Source\PSoC5/Maximum_Peak_Detector_A_Comp_1.c **** *  Maximum_Peak_Detector_A_Comp_1_initVar: Is modified when this function is called for the 
 133:Generated_Source\PSoC5/Maximum_Peak_Detector_A_Comp_1.c **** *   first time. Is used to ensure that initialization happens only once.
 134:Generated_Source\PSoC5/Maximum_Peak_Detector_A_Comp_1.c **** *  
 135:Generated_Source\PSoC5/Maximum_Peak_Detector_A_Comp_1.c **** *******************************************************************************/
 136:Generated_Source\PSoC5/Maximum_Peak_Detector_A_Comp_1.c **** void Maximum_Peak_Detector_A_Comp_1_Start(void) 
 137:Generated_Source\PSoC5/Maximum_Peak_Detector_A_Comp_1.c **** {
 138:Generated_Source\PSoC5/Maximum_Peak_Detector_A_Comp_1.c **** 
 139:Generated_Source\PSoC5/Maximum_Peak_Detector_A_Comp_1.c ****     if ( Maximum_Peak_Detector_A_Comp_1_initVar == 0u )
 140:Generated_Source\PSoC5/Maximum_Peak_Detector_A_Comp_1.c ****     {
 141:Generated_Source\PSoC5/Maximum_Peak_Detector_A_Comp_1.c ****         Maximum_Peak_Detector_A_Comp_1_Init();
 142:Generated_Source\PSoC5/Maximum_Peak_Detector_A_Comp_1.c ****         
 143:Generated_Source\PSoC5/Maximum_Peak_Detector_A_Comp_1.c ****         Maximum_Peak_Detector_A_Comp_1_initVar = 1u;
 144:Generated_Source\PSoC5/Maximum_Peak_Detector_A_Comp_1.c ****     }   
 145:Generated_Source\PSoC5/Maximum_Peak_Detector_A_Comp_1.c **** 
ARM GAS  C:\Users\ALEXAN~1\AppData\Local\Temp\ccyIvZIY.s 			page 4


 146:Generated_Source\PSoC5/Maximum_Peak_Detector_A_Comp_1.c ****     /* Enable power to comparator */
 147:Generated_Source\PSoC5/Maximum_Peak_Detector_A_Comp_1.c ****     Maximum_Peak_Detector_A_Comp_1_Enable();    
 148:Generated_Source\PSoC5/Maximum_Peak_Detector_A_Comp_1.c **** }
 149:Generated_Source\PSoC5/Maximum_Peak_Detector_A_Comp_1.c **** 
 150:Generated_Source\PSoC5/Maximum_Peak_Detector_A_Comp_1.c **** 
 151:Generated_Source\PSoC5/Maximum_Peak_Detector_A_Comp_1.c **** /*******************************************************************************
 152:Generated_Source\PSoC5/Maximum_Peak_Detector_A_Comp_1.c **** * Function Name: Maximum_Peak_Detector_A_Comp_1_Stop
 153:Generated_Source\PSoC5/Maximum_Peak_Detector_A_Comp_1.c **** ********************************************************************************
 154:Generated_Source\PSoC5/Maximum_Peak_Detector_A_Comp_1.c **** *
 155:Generated_Source\PSoC5/Maximum_Peak_Detector_A_Comp_1.c **** * Summary:
 156:Generated_Source\PSoC5/Maximum_Peak_Detector_A_Comp_1.c **** *  Powers down amplifier to lowest power state.
 157:Generated_Source\PSoC5/Maximum_Peak_Detector_A_Comp_1.c **** *
 158:Generated_Source\PSoC5/Maximum_Peak_Detector_A_Comp_1.c **** * Parameters:
 159:Generated_Source\PSoC5/Maximum_Peak_Detector_A_Comp_1.c **** *  void
 160:Generated_Source\PSoC5/Maximum_Peak_Detector_A_Comp_1.c **** *
 161:Generated_Source\PSoC5/Maximum_Peak_Detector_A_Comp_1.c **** * Return:
 162:Generated_Source\PSoC5/Maximum_Peak_Detector_A_Comp_1.c **** *  void
 163:Generated_Source\PSoC5/Maximum_Peak_Detector_A_Comp_1.c **** *
 164:Generated_Source\PSoC5/Maximum_Peak_Detector_A_Comp_1.c **** *******************************************************************************/
 165:Generated_Source\PSoC5/Maximum_Peak_Detector_A_Comp_1.c **** void Maximum_Peak_Detector_A_Comp_1_Stop(void) 
 166:Generated_Source\PSoC5/Maximum_Peak_Detector_A_Comp_1.c **** {
 167:Generated_Source\PSoC5/Maximum_Peak_Detector_A_Comp_1.c ****     /* Disable power to comparator */
 168:Generated_Source\PSoC5/Maximum_Peak_Detector_A_Comp_1.c ****     Maximum_Peak_Detector_A_Comp_1_PWRMGR &= (uint8)(~Maximum_Peak_Detector_A_Comp_1_ACT_PWR_EN);
 169:Generated_Source\PSoC5/Maximum_Peak_Detector_A_Comp_1.c ****     Maximum_Peak_Detector_A_Comp_1_STBY_PWRMGR &= (uint8)(~Maximum_Peak_Detector_A_Comp_1_STBY_PWR_
 170:Generated_Source\PSoC5/Maximum_Peak_Detector_A_Comp_1.c ****     
 171:Generated_Source\PSoC5/Maximum_Peak_Detector_A_Comp_1.c ****     #if (CY_PSOC5A)
 172:Generated_Source\PSoC5/Maximum_Peak_Detector_A_Comp_1.c ****         /* Enable the variable */
 173:Generated_Source\PSoC5/Maximum_Peak_Detector_A_Comp_1.c ****         Maximum_Peak_Detector_A_Comp_1_restoreReg = 1u;
 174:Generated_Source\PSoC5/Maximum_Peak_Detector_A_Comp_1.c **** 
 175:Generated_Source\PSoC5/Maximum_Peak_Detector_A_Comp_1.c ****         /* Save the control register before clearing it */
 176:Generated_Source\PSoC5/Maximum_Peak_Detector_A_Comp_1.c ****         Maximum_Peak_Detector_A_Comp_1_lowPowerBackup.compCRReg = Maximum_Peak_Detector_A_Comp_1_CR
 177:Generated_Source\PSoC5/Maximum_Peak_Detector_A_Comp_1.c ****         Maximum_Peak_Detector_A_Comp_1_CR = Maximum_Peak_Detector_A_Comp_1_COMP_REG_CLR;
 178:Generated_Source\PSoC5/Maximum_Peak_Detector_A_Comp_1.c ****     #endif /* CY_PSOC5A */
 179:Generated_Source\PSoC5/Maximum_Peak_Detector_A_Comp_1.c **** }
 180:Generated_Source\PSoC5/Maximum_Peak_Detector_A_Comp_1.c **** 
 181:Generated_Source\PSoC5/Maximum_Peak_Detector_A_Comp_1.c **** 
 182:Generated_Source\PSoC5/Maximum_Peak_Detector_A_Comp_1.c **** /*******************************************************************************
 183:Generated_Source\PSoC5/Maximum_Peak_Detector_A_Comp_1.c **** * Function Name: Maximum_Peak_Detector_A_Comp_1_SetSpeed
 184:Generated_Source\PSoC5/Maximum_Peak_Detector_A_Comp_1.c **** ********************************************************************************
 185:Generated_Source\PSoC5/Maximum_Peak_Detector_A_Comp_1.c **** *
 186:Generated_Source\PSoC5/Maximum_Peak_Detector_A_Comp_1.c **** * Summary:
 187:Generated_Source\PSoC5/Maximum_Peak_Detector_A_Comp_1.c **** *  This function sets the speed of the Analog Comparator. The faster the speed
 188:Generated_Source\PSoC5/Maximum_Peak_Detector_A_Comp_1.c **** *  the more power that is used.
 189:Generated_Source\PSoC5/Maximum_Peak_Detector_A_Comp_1.c **** *
 190:Generated_Source\PSoC5/Maximum_Peak_Detector_A_Comp_1.c **** * Parameters:
 191:Generated_Source\PSoC5/Maximum_Peak_Detector_A_Comp_1.c **** *  speed: (uint8) Sets operation mode of Comparator
 192:Generated_Source\PSoC5/Maximum_Peak_Detector_A_Comp_1.c **** *
 193:Generated_Source\PSoC5/Maximum_Peak_Detector_A_Comp_1.c **** * Return:
 194:Generated_Source\PSoC5/Maximum_Peak_Detector_A_Comp_1.c **** *  void
 195:Generated_Source\PSoC5/Maximum_Peak_Detector_A_Comp_1.c **** *
 196:Generated_Source\PSoC5/Maximum_Peak_Detector_A_Comp_1.c **** *******************************************************************************/
 197:Generated_Source\PSoC5/Maximum_Peak_Detector_A_Comp_1.c **** void Maximum_Peak_Detector_A_Comp_1_SetSpeed(uint8 speed) 
 198:Generated_Source\PSoC5/Maximum_Peak_Detector_A_Comp_1.c **** {
 199:Generated_Source\PSoC5/Maximum_Peak_Detector_A_Comp_1.c ****     /* Clear and Set power level */    
 200:Generated_Source\PSoC5/Maximum_Peak_Detector_A_Comp_1.c ****     Maximum_Peak_Detector_A_Comp_1_CR = (Maximum_Peak_Detector_A_Comp_1_CR & (uint8)(~Maximum_Peak_
 201:Generated_Source\PSoC5/Maximum_Peak_Detector_A_Comp_1.c ****                            (speed & Maximum_Peak_Detector_A_Comp_1_PWR_MODE_MASK);
 202:Generated_Source\PSoC5/Maximum_Peak_Detector_A_Comp_1.c **** 
ARM GAS  C:\Users\ALEXAN~1\AppData\Local\Temp\ccyIvZIY.s 			page 5


 203:Generated_Source\PSoC5/Maximum_Peak_Detector_A_Comp_1.c ****     /* Set trim value for high speed comparator */
 204:Generated_Source\PSoC5/Maximum_Peak_Detector_A_Comp_1.c ****     if(speed == Maximum_Peak_Detector_A_Comp_1_HIGHSPEED)
 205:Generated_Source\PSoC5/Maximum_Peak_Detector_A_Comp_1.c ****     {
 206:Generated_Source\PSoC5/Maximum_Peak_Detector_A_Comp_1.c ****         /* PSoC5A */
 207:Generated_Source\PSoC5/Maximum_Peak_Detector_A_Comp_1.c ****         #if (CY_PSOC5A)
 208:Generated_Source\PSoC5/Maximum_Peak_Detector_A_Comp_1.c ****             Maximum_Peak_Detector_A_Comp_1_TR = Maximum_Peak_Detector_A_Comp_1_HS_TRIM_TR0;
 209:Generated_Source\PSoC5/Maximum_Peak_Detector_A_Comp_1.c ****         #endif /* CY_PSOC5A */
 210:Generated_Source\PSoC5/Maximum_Peak_Detector_A_Comp_1.c ****         
 211:Generated_Source\PSoC5/Maximum_Peak_Detector_A_Comp_1.c ****         /* PSoC3, PSoC5LP or later */
 212:Generated_Source\PSoC5/Maximum_Peak_Detector_A_Comp_1.c ****         #if (CY_PSOC3 || CY_PSOC5LP) 
 213:Generated_Source\PSoC5/Maximum_Peak_Detector_A_Comp_1.c ****             Maximum_Peak_Detector_A_Comp_1_TR0 = Maximum_Peak_Detector_A_Comp_1_HS_TRIM_TR0;
 214:Generated_Source\PSoC5/Maximum_Peak_Detector_A_Comp_1.c ****             Maximum_Peak_Detector_A_Comp_1_TR1 = Maximum_Peak_Detector_A_Comp_1_HS_TRIM_TR1;
 215:Generated_Source\PSoC5/Maximum_Peak_Detector_A_Comp_1.c ****         #endif /* CY_PSOC3 || CY_PSOC5LP */
 216:Generated_Source\PSoC5/Maximum_Peak_Detector_A_Comp_1.c ****     }
 217:Generated_Source\PSoC5/Maximum_Peak_Detector_A_Comp_1.c ****     else
 218:Generated_Source\PSoC5/Maximum_Peak_Detector_A_Comp_1.c ****     {
 219:Generated_Source\PSoC5/Maximum_Peak_Detector_A_Comp_1.c ****     /* PSoC5A */
 220:Generated_Source\PSoC5/Maximum_Peak_Detector_A_Comp_1.c ****         #if (CY_PSOC5A)
 221:Generated_Source\PSoC5/Maximum_Peak_Detector_A_Comp_1.c ****             Maximum_Peak_Detector_A_Comp_1_TR = Maximum_Peak_Detector_A_Comp_1_LS_TRIM_TR0;
 222:Generated_Source\PSoC5/Maximum_Peak_Detector_A_Comp_1.c ****         #endif /* CY_PSOC5A */
 223:Generated_Source\PSoC5/Maximum_Peak_Detector_A_Comp_1.c ****         
 224:Generated_Source\PSoC5/Maximum_Peak_Detector_A_Comp_1.c ****         /* PSoC3, PSoC5LP or later */
 225:Generated_Source\PSoC5/Maximum_Peak_Detector_A_Comp_1.c ****         #if (CY_PSOC3 || CY_PSOC5LP) 
 226:Generated_Source\PSoC5/Maximum_Peak_Detector_A_Comp_1.c ****             Maximum_Peak_Detector_A_Comp_1_TR0 = Maximum_Peak_Detector_A_Comp_1_LS_TRIM_TR0;
 227:Generated_Source\PSoC5/Maximum_Peak_Detector_A_Comp_1.c ****             Maximum_Peak_Detector_A_Comp_1_TR1 = Maximum_Peak_Detector_A_Comp_1_LS_TRIM_TR1;
 228:Generated_Source\PSoC5/Maximum_Peak_Detector_A_Comp_1.c ****         #endif /* CY_PSOC3 || CY_PSOC5LP */
 229:Generated_Source\PSoC5/Maximum_Peak_Detector_A_Comp_1.c ****     }
 230:Generated_Source\PSoC5/Maximum_Peak_Detector_A_Comp_1.c **** 
 231:Generated_Source\PSoC5/Maximum_Peak_Detector_A_Comp_1.c **** }
 232:Generated_Source\PSoC5/Maximum_Peak_Detector_A_Comp_1.c **** 
 233:Generated_Source\PSoC5/Maximum_Peak_Detector_A_Comp_1.c **** 
 234:Generated_Source\PSoC5/Maximum_Peak_Detector_A_Comp_1.c **** /*******************************************************************************
 235:Generated_Source\PSoC5/Maximum_Peak_Detector_A_Comp_1.c **** * Function Name: Maximum_Peak_Detector_A_Comp_1_GetCompare
 236:Generated_Source\PSoC5/Maximum_Peak_Detector_A_Comp_1.c **** ********************************************************************************
 237:Generated_Source\PSoC5/Maximum_Peak_Detector_A_Comp_1.c **** *
 238:Generated_Source\PSoC5/Maximum_Peak_Detector_A_Comp_1.c **** * Summary:
 239:Generated_Source\PSoC5/Maximum_Peak_Detector_A_Comp_1.c **** *  This function returns the comparator output value.
 240:Generated_Source\PSoC5/Maximum_Peak_Detector_A_Comp_1.c **** *  This value is not affected by the Polarity parameter.
 241:Generated_Source\PSoC5/Maximum_Peak_Detector_A_Comp_1.c **** *  This valuea lways reflects a noninverted state.
 242:Generated_Source\PSoC5/Maximum_Peak_Detector_A_Comp_1.c **** *
 243:Generated_Source\PSoC5/Maximum_Peak_Detector_A_Comp_1.c **** * Parameters:
 244:Generated_Source\PSoC5/Maximum_Peak_Detector_A_Comp_1.c **** *   None
 245:Generated_Source\PSoC5/Maximum_Peak_Detector_A_Comp_1.c **** *
 246:Generated_Source\PSoC5/Maximum_Peak_Detector_A_Comp_1.c **** * Return:
 247:Generated_Source\PSoC5/Maximum_Peak_Detector_A_Comp_1.c **** *  (uint8)  0     - if Pos_Input less than Neg_input
 248:Generated_Source\PSoC5/Maximum_Peak_Detector_A_Comp_1.c **** *           non 0 - if Pos_Input greater than Neg_input.
 249:Generated_Source\PSoC5/Maximum_Peak_Detector_A_Comp_1.c **** *
 250:Generated_Source\PSoC5/Maximum_Peak_Detector_A_Comp_1.c **** *******************************************************************************/
 251:Generated_Source\PSoC5/Maximum_Peak_Detector_A_Comp_1.c **** uint8 Maximum_Peak_Detector_A_Comp_1_GetCompare(void) 
 252:Generated_Source\PSoC5/Maximum_Peak_Detector_A_Comp_1.c **** {
 253:Generated_Source\PSoC5/Maximum_Peak_Detector_A_Comp_1.c ****     return( Maximum_Peak_Detector_A_Comp_1_WRK & Maximum_Peak_Detector_A_Comp_1_CMP_OUT_MASK);
 254:Generated_Source\PSoC5/Maximum_Peak_Detector_A_Comp_1.c **** }
 255:Generated_Source\PSoC5/Maximum_Peak_Detector_A_Comp_1.c **** 
 256:Generated_Source\PSoC5/Maximum_Peak_Detector_A_Comp_1.c **** 
 257:Generated_Source\PSoC5/Maximum_Peak_Detector_A_Comp_1.c **** /*******************************************************************************
 258:Generated_Source\PSoC5/Maximum_Peak_Detector_A_Comp_1.c **** * Function Name: Maximum_Peak_Detector_A_Comp_1_trimAdjust
 259:Generated_Source\PSoC5/Maximum_Peak_Detector_A_Comp_1.c **** ********************************************************************************
ARM GAS  C:\Users\ALEXAN~1\AppData\Local\Temp\ccyIvZIY.s 			page 6


 260:Generated_Source\PSoC5/Maximum_Peak_Detector_A_Comp_1.c **** *
 261:Generated_Source\PSoC5/Maximum_Peak_Detector_A_Comp_1.c **** * Summary:
 262:Generated_Source\PSoC5/Maximum_Peak_Detector_A_Comp_1.c **** *  This function adjusts the value in the low nibble/high nibble of the Analog 
 263:Generated_Source\PSoC5/Maximum_Peak_Detector_A_Comp_1.c **** *  Comparator trim register
 264:Generated_Source\PSoC5/Maximum_Peak_Detector_A_Comp_1.c **** *
 265:Generated_Source\PSoC5/Maximum_Peak_Detector_A_Comp_1.c **** * Parameters:  
 266:Generated_Source\PSoC5/Maximum_Peak_Detector_A_Comp_1.c **** *  nibble:
 267:Generated_Source\PSoC5/Maximum_Peak_Detector_A_Comp_1.c **** *      0 -- adjusts the value in the low nibble
 268:Generated_Source\PSoC5/Maximum_Peak_Detector_A_Comp_1.c **** *      1 -- adjusts the value in the high nibble
 269:Generated_Source\PSoC5/Maximum_Peak_Detector_A_Comp_1.c **** *
 270:Generated_Source\PSoC5/Maximum_Peak_Detector_A_Comp_1.c **** * Return:
 271:Generated_Source\PSoC5/Maximum_Peak_Detector_A_Comp_1.c **** *  None
 272:Generated_Source\PSoC5/Maximum_Peak_Detector_A_Comp_1.c **** *
 273:Generated_Source\PSoC5/Maximum_Peak_Detector_A_Comp_1.c **** * Theory: 
 274:Generated_Source\PSoC5/Maximum_Peak_Detector_A_Comp_1.c **** *  Function assumes comparator block is setup for trim adjust.
 275:Generated_Source\PSoC5/Maximum_Peak_Detector_A_Comp_1.c **** *  Intended to be called from Comp_ZeroCal()
 276:Generated_Source\PSoC5/Maximum_Peak_Detector_A_Comp_1.c **** * 
 277:Generated_Source\PSoC5/Maximum_Peak_Detector_A_Comp_1.c **** * Side Effects:
 278:Generated_Source\PSoC5/Maximum_Peak_Detector_A_Comp_1.c **** *  Routine uses a course 1ms delay following each trim adjustment to allow 
 279:Generated_Source\PSoC5/Maximum_Peak_Detector_A_Comp_1.c **** *  the comparator output to respond.
 280:Generated_Source\PSoC5/Maximum_Peak_Detector_A_Comp_1.c **** *
 281:Generated_Source\PSoC5/Maximum_Peak_Detector_A_Comp_1.c **** *******************************************************************************/
 282:Generated_Source\PSoC5/Maximum_Peak_Detector_A_Comp_1.c **** static void Maximum_Peak_Detector_A_Comp_1_trimAdjust(uint8 nibble) 
 283:Generated_Source\PSoC5/Maximum_Peak_Detector_A_Comp_1.c **** {
  27              		.loc 1 283 0
  28              		.cfi_startproc
  29              		@ args = 0, pretend = 0, frame = 0
  30              		@ frame_needed = 0, uses_anonymous_args = 0
  31              	.LVL0:
  32 0000 2DE9F047 		push	{r4, r5, r6, r7, r8, r9, r10, lr}
  33              		.cfi_def_cfa_offset 32
  34              		.cfi_offset 4, -32
  35              		.cfi_offset 5, -28
  36              		.cfi_offset 6, -24
  37              		.cfi_offset 7, -20
  38              		.cfi_offset 8, -16
  39              		.cfi_offset 9, -12
  40              		.cfi_offset 10, -8
  41              		.cfi_offset 14, -4
 284:Generated_Source\PSoC5/Maximum_Peak_Detector_A_Comp_1.c ****     uint8 trimCnt, trimCntMax;
 285:Generated_Source\PSoC5/Maximum_Peak_Detector_A_Comp_1.c ****     uint8 cmpState;   
 286:Generated_Source\PSoC5/Maximum_Peak_Detector_A_Comp_1.c **** 
 287:Generated_Source\PSoC5/Maximum_Peak_Detector_A_Comp_1.c ****     /* get current state of comparator output */
 288:Generated_Source\PSoC5/Maximum_Peak_Detector_A_Comp_1.c ****     cmpState = Maximum_Peak_Detector_A_Comp_1_WRK & Maximum_Peak_Detector_A_Comp_1_CMP_OUT_MASK;
  42              		.loc 1 288 0
  43 0004 1D4D     		ldr	r5, .L15
 289:Generated_Source\PSoC5/Maximum_Peak_Detector_A_Comp_1.c ****     
 290:Generated_Source\PSoC5/Maximum_Peak_Detector_A_Comp_1.c ****     if (nibble == 0u)
  44              		.loc 1 290 0
  45 0006 8046     		mov	r8, r0
 288:Generated_Source\PSoC5/Maximum_Peak_Detector_A_Comp_1.c ****     
  46              		.loc 1 288 0
  47 0008 2C78     		ldrb	r4, [r5]	@ zero_extendqisi2
  48 000a 04F00404 		and	r4, r4, #4
  49 000e E4B2     		uxtb	r4, r4
  50              	.LVL1:
  51              		.loc 1 290 0
ARM GAS  C:\Users\ALEXAN~1\AppData\Local\Temp\ccyIvZIY.s 			page 7


  52 0010 30B9     		cbnz	r0, .L2
 291:Generated_Source\PSoC5/Maximum_Peak_Detector_A_Comp_1.c ****     {    
 292:Generated_Source\PSoC5/Maximum_Peak_Detector_A_Comp_1.c ****         /* if comparator output is high, negative offset adjust is required */
 293:Generated_Source\PSoC5/Maximum_Peak_Detector_A_Comp_1.c ****         if ( cmpState != 0u )
  53              		.loc 1 293 0
  54 0012 7CB3     		cbz	r4, .L3
 294:Generated_Source\PSoC5/Maximum_Peak_Detector_A_Comp_1.c ****         {
 295:Generated_Source\PSoC5/Maximum_Peak_Detector_A_Comp_1.c ****             /* PSoC5A */
 296:Generated_Source\PSoC5/Maximum_Peak_Detector_A_Comp_1.c ****             #if (CY_PSOC5A)
 297:Generated_Source\PSoC5/Maximum_Peak_Detector_A_Comp_1.c ****                 Maximum_Peak_Detector_A_Comp_1_TR |= Maximum_Peak_Detector_A_Comp_1_CMP_TRIM1_DIR;
 298:Generated_Source\PSoC5/Maximum_Peak_Detector_A_Comp_1.c ****             #endif /* CY_PSOC5A */
 299:Generated_Source\PSoC5/Maximum_Peak_Detector_A_Comp_1.c ****             
 300:Generated_Source\PSoC5/Maximum_Peak_Detector_A_Comp_1.c ****             /* PSoC3, PSoC5LP or later */
 301:Generated_Source\PSoC5/Maximum_Peak_Detector_A_Comp_1.c ****             #if (CY_PSOC3 || CY_PSOC5LP)
 302:Generated_Source\PSoC5/Maximum_Peak_Detector_A_Comp_1.c ****                 Maximum_Peak_Detector_A_Comp_1_TR0 |= Maximum_Peak_Detector_A_Comp_1_CMP_TR0_DIR;
  55              		.loc 1 302 0
  56 0014 1A4A     		ldr	r2, .L15+4
  57 0016 1378     		ldrb	r3, [r2]	@ zero_extendqisi2
  58 0018 43F01003 		orr	r3, r3, #16
  59 001c 1370     		strb	r3, [r2]
  60 001e 29E0     		b	.L3
  61              	.L2:
 303:Generated_Source\PSoC5/Maximum_Peak_Detector_A_Comp_1.c ****             #endif /* CY_PSOC3 || CY_PSOC5LP */
 304:Generated_Source\PSoC5/Maximum_Peak_Detector_A_Comp_1.c ****         }
 305:Generated_Source\PSoC5/Maximum_Peak_Detector_A_Comp_1.c ****     }
 306:Generated_Source\PSoC5/Maximum_Peak_Detector_A_Comp_1.c ****     else
 307:Generated_Source\PSoC5/Maximum_Peak_Detector_A_Comp_1.c ****     {
 308:Generated_Source\PSoC5/Maximum_Peak_Detector_A_Comp_1.c ****         /* if comparator output is low, positive offset adjust is required */
 309:Generated_Source\PSoC5/Maximum_Peak_Detector_A_Comp_1.c ****         if ( cmpState == 0u )
  62              		.loc 1 309 0
  63 0020 24B9     		cbnz	r4, .L4
 310:Generated_Source\PSoC5/Maximum_Peak_Detector_A_Comp_1.c ****         {
 311:Generated_Source\PSoC5/Maximum_Peak_Detector_A_Comp_1.c ****             /* PSoC5A */
 312:Generated_Source\PSoC5/Maximum_Peak_Detector_A_Comp_1.c ****             #if (CY_PSOC5A)
 313:Generated_Source\PSoC5/Maximum_Peak_Detector_A_Comp_1.c ****                 Maximum_Peak_Detector_A_Comp_1_TR |= Maximum_Peak_Detector_A_Comp_1_CMP_TRIM2_DIR; 
 314:Generated_Source\PSoC5/Maximum_Peak_Detector_A_Comp_1.c ****             #endif /* CY_PSOC5A */
 315:Generated_Source\PSoC5/Maximum_Peak_Detector_A_Comp_1.c ****             
 316:Generated_Source\PSoC5/Maximum_Peak_Detector_A_Comp_1.c ****             /* PSoC3, PSoC5LP or later */
 317:Generated_Source\PSoC5/Maximum_Peak_Detector_A_Comp_1.c ****             #if (CY_PSOC3 || CY_PSOC5LP)
 318:Generated_Source\PSoC5/Maximum_Peak_Detector_A_Comp_1.c ****                 Maximum_Peak_Detector_A_Comp_1_TR1 |= Maximum_Peak_Detector_A_Comp_1_CMP_TR1_DIR;
  64              		.loc 1 318 0
  65 0022 184A     		ldr	r2, .L15+8
  66 0024 1378     		ldrb	r3, [r2]	@ zero_extendqisi2
  67 0026 43F01003 		orr	r3, r3, #16
  68 002a 1370     		strb	r3, [r2]
  69              	.L4:
 319:Generated_Source\PSoC5/Maximum_Peak_Detector_A_Comp_1.c ****             #endif /* CY_PSOC3 || CY_PSOC5LP */
 320:Generated_Source\PSoC5/Maximum_Peak_Detector_A_Comp_1.c ****         }
 321:Generated_Source\PSoC5/Maximum_Peak_Detector_A_Comp_1.c ****     }
 322:Generated_Source\PSoC5/Maximum_Peak_Detector_A_Comp_1.c **** 
 323:Generated_Source\PSoC5/Maximum_Peak_Detector_A_Comp_1.c ****     /* Increment trim value until compare output changes state */
 324:Generated_Source\PSoC5/Maximum_Peak_Detector_A_Comp_1.c **** 	
 325:Generated_Source\PSoC5/Maximum_Peak_Detector_A_Comp_1.c ****     /* PSoC5A */
 326:Generated_Source\PSoC5/Maximum_Peak_Detector_A_Comp_1.c **** 	#if (CY_PSOC5A)
 327:Generated_Source\PSoC5/Maximum_Peak_Detector_A_Comp_1.c **** 	    trimCntMax = 7u;
 328:Generated_Source\PSoC5/Maximum_Peak_Detector_A_Comp_1.c ****     #endif
 329:Generated_Source\PSoC5/Maximum_Peak_Detector_A_Comp_1.c **** 	
ARM GAS  C:\Users\ALEXAN~1\AppData\Local\Temp\ccyIvZIY.s 			page 8


 330:Generated_Source\PSoC5/Maximum_Peak_Detector_A_Comp_1.c **** 	/* PSoC3, PSoC5LP or later */
 331:Generated_Source\PSoC5/Maximum_Peak_Detector_A_Comp_1.c **** 	#if (CY_PSOC3 || CY_PSOC5LP)
 332:Generated_Source\PSoC5/Maximum_Peak_Detector_A_Comp_1.c ****     	if(nibble == 0u)
 333:Generated_Source\PSoC5/Maximum_Peak_Detector_A_Comp_1.c ****     	{
 334:Generated_Source\PSoC5/Maximum_Peak_Detector_A_Comp_1.c ****     		trimCntMax = 15u;
 335:Generated_Source\PSoC5/Maximum_Peak_Detector_A_Comp_1.c ****     	}
 336:Generated_Source\PSoC5/Maximum_Peak_Detector_A_Comp_1.c ****     	else
 337:Generated_Source\PSoC5/Maximum_Peak_Detector_A_Comp_1.c ****     	{
 338:Generated_Source\PSoC5/Maximum_Peak_Detector_A_Comp_1.c ****     		trimCntMax = 7u;
  70              		.loc 1 338 0
  71 002c 0727     		movs	r7, #7
  72              	.L9:
  73              	.LVL2:
 339:Generated_Source\PSoC5/Maximum_Peak_Detector_A_Comp_1.c ****     	}
 340:Generated_Source\PSoC5/Maximum_Peak_Detector_A_Comp_1.c **** 	#endif
 341:Generated_Source\PSoC5/Maximum_Peak_Detector_A_Comp_1.c **** 	
 342:Generated_Source\PSoC5/Maximum_Peak_Detector_A_Comp_1.c ****     for ( trimCnt = 0u; trimCnt < trimCntMax; trimCnt++ )
 343:Generated_Source\PSoC5/Maximum_Peak_Detector_A_Comp_1.c **** 	{
 344:Generated_Source\PSoC5/Maximum_Peak_Detector_A_Comp_1.c ****         if (nibble == 0u)
 345:Generated_Source\PSoC5/Maximum_Peak_Detector_A_Comp_1.c ****         {
 346:Generated_Source\PSoC5/Maximum_Peak_Detector_A_Comp_1.c ****             /* PSoC5A */
 347:Generated_Source\PSoC5/Maximum_Peak_Detector_A_Comp_1.c ****             #if (CY_PSOC5A)
 348:Generated_Source\PSoC5/Maximum_Peak_Detector_A_Comp_1.c ****                 Maximum_Peak_Detector_A_Comp_1_TR += 1u;
 349:Generated_Source\PSoC5/Maximum_Peak_Detector_A_Comp_1.c ****             #endif /* CY_PSOC5A */
 350:Generated_Source\PSoC5/Maximum_Peak_Detector_A_Comp_1.c ****             
 351:Generated_Source\PSoC5/Maximum_Peak_Detector_A_Comp_1.c ****             /* PSoC3, PSoC5LP or later */
 352:Generated_Source\PSoC5/Maximum_Peak_Detector_A_Comp_1.c ****             #if (CY_PSOC3 || CY_PSOC5LP)
 353:Generated_Source\PSoC5/Maximum_Peak_Detector_A_Comp_1.c ****                 Maximum_Peak_Detector_A_Comp_1_TR0 += 1u;
 354:Generated_Source\PSoC5/Maximum_Peak_Detector_A_Comp_1.c ****             #endif /* CY_PSOC3 || CY_PSOC5LP */
 355:Generated_Source\PSoC5/Maximum_Peak_Detector_A_Comp_1.c ****         }
 356:Generated_Source\PSoC5/Maximum_Peak_Detector_A_Comp_1.c ****         else
 357:Generated_Source\PSoC5/Maximum_Peak_Detector_A_Comp_1.c ****         {
 358:Generated_Source\PSoC5/Maximum_Peak_Detector_A_Comp_1.c ****             /* PSoC5A */
 359:Generated_Source\PSoC5/Maximum_Peak_Detector_A_Comp_1.c ****             #if (CY_PSOC5A)
 360:Generated_Source\PSoC5/Maximum_Peak_Detector_A_Comp_1.c ****                 Maximum_Peak_Detector_A_Comp_1_TR += 0x10u;
 361:Generated_Source\PSoC5/Maximum_Peak_Detector_A_Comp_1.c ****             #endif /* CY_PSOC5A */
 362:Generated_Source\PSoC5/Maximum_Peak_Detector_A_Comp_1.c ****             
 363:Generated_Source\PSoC5/Maximum_Peak_Detector_A_Comp_1.c ****             /* PSoC3, PSoC5LP or later */
 364:Generated_Source\PSoC5/Maximum_Peak_Detector_A_Comp_1.c ****             #if (CY_PSOC3 || CY_PSOC5LP)
 365:Generated_Source\PSoC5/Maximum_Peak_Detector_A_Comp_1.c ****                 Maximum_Peak_Detector_A_Comp_1_TR1 += 1u;
  74              		.loc 1 365 0
  75 002e DFF85490 		ldr	r9, .L15+8
 353:Generated_Source\PSoC5/Maximum_Peak_Detector_A_Comp_1.c ****             #endif /* CY_PSOC3 || CY_PSOC5LP */
  76              		.loc 1 353 0
  77 0032 DFF84CA0 		ldr	r10, .L15+4
 338:Generated_Source\PSoC5/Maximum_Peak_Detector_A_Comp_1.c ****     	}
  78              		.loc 1 338 0
  79 0036 0026     		movs	r6, #0
  80              	.LVL3:
  81              	.L8:
 344:Generated_Source\PSoC5/Maximum_Peak_Detector_A_Comp_1.c ****         {
  82              		.loc 1 344 0
  83 0038 B8F1000F 		cmp	r8, #0
  84 003c 06D1     		bne	.L5
 353:Generated_Source\PSoC5/Maximum_Peak_Detector_A_Comp_1.c ****             #endif /* CY_PSOC3 || CY_PSOC5LP */
  85              		.loc 1 353 0
  86 003e 9AF80030 		ldrb	r3, [r10]	@ zero_extendqisi2
ARM GAS  C:\Users\ALEXAN~1\AppData\Local\Temp\ccyIvZIY.s 			page 9


  87 0042 0133     		adds	r3, r3, #1
  88 0044 DBB2     		uxtb	r3, r3
  89 0046 8AF80030 		strb	r3, [r10]
  90 004a 05E0     		b	.L6
  91              	.L5:
  92              		.loc 1 365 0
  93 004c 99F80030 		ldrb	r3, [r9]	@ zero_extendqisi2
  94 0050 0133     		adds	r3, r3, #1
  95 0052 DBB2     		uxtb	r3, r3
  96 0054 89F80030 		strb	r3, [r9]
  97              	.L6:
 366:Generated_Source\PSoC5/Maximum_Peak_Detector_A_Comp_1.c ****             #endif /* CY_PSOC3 || CY_PSOC5LP */
 367:Generated_Source\PSoC5/Maximum_Peak_Detector_A_Comp_1.c ****         }
 368:Generated_Source\PSoC5/Maximum_Peak_Detector_A_Comp_1.c ****         
 369:Generated_Source\PSoC5/Maximum_Peak_Detector_A_Comp_1.c ****         CyDelayUs(10u);
  98              		.loc 1 369 0
  99 0058 0A20     		movs	r0, #10
 100 005a FFF7FEFF 		bl	CyDelayUs
 101              	.LVL4:
 370:Generated_Source\PSoC5/Maximum_Peak_Detector_A_Comp_1.c ****         
 371:Generated_Source\PSoC5/Maximum_Peak_Detector_A_Comp_1.c ****         /* Check for change in comparator output */
 372:Generated_Source\PSoC5/Maximum_Peak_Detector_A_Comp_1.c ****         if ((Maximum_Peak_Detector_A_Comp_1_WRK & Maximum_Peak_Detector_A_Comp_1_CMP_OUT_MASK) != c
 102              		.loc 1 372 0
 103 005e 2B78     		ldrb	r3, [r5]	@ zero_extendqisi2
 104 0060 03F00403 		and	r3, r3, #4
 105 0064 A342     		cmp	r3, r4
 106 0066 07D1     		bne	.L1
 107              	.LVL5:
 108 0068 0136     		adds	r6, r6, #1
 109              	.LVL6:
 342:Generated_Source\PSoC5/Maximum_Peak_Detector_A_Comp_1.c **** 	{
 110              		.loc 1 342 0 discriminator 2
 111 006a F3B2     		uxtb	r3, r6
 112 006c 9F42     		cmp	r7, r3
 113 006e E3D8     		bhi	.L8
 114 0070 BDE8F087 		pop	{r4, r5, r6, r7, r8, r9, r10, pc}
 115              	.LVL7:
 116              	.L3:
 334:Generated_Source\PSoC5/Maximum_Peak_Detector_A_Comp_1.c ****     	}
 117              		.loc 1 334 0
 118 0074 0F27     		movs	r7, #15
 119 0076 DAE7     		b	.L9
 120              	.LVL8:
 121              	.L1:
 122 0078 BDE8F087 		pop	{r4, r5, r6, r7, r8, r9, r10, pc}
 123              	.LVL9:
 124              	.L16:
 125              		.align	2
 126              	.L15:
 127 007c 965B0040 		.word	1073765270
 128 0080 34460040 		.word	1073759796
 129 0084 35460040 		.word	1073759797
 130              		.cfi_endproc
 131              	.LFE6:
 132              		.size	Maximum_Peak_Detector_A_Comp_1_trimAdjust, .-Maximum_Peak_Detector_A_Comp_1_trimAdjust
 133              		.section	.text.Maximum_Peak_Detector_A_Comp_1_Enable,"ax",%progbits
 134              		.align	1
ARM GAS  C:\Users\ALEXAN~1\AppData\Local\Temp\ccyIvZIY.s 			page 10


 135              		.global	Maximum_Peak_Detector_A_Comp_1_Enable
 136              		.thumb
 137              		.thumb_func
 138              		.type	Maximum_Peak_Detector_A_Comp_1_Enable, %function
 139              	Maximum_Peak_Detector_A_Comp_1_Enable:
 140              	.LFB1:
 100:Generated_Source\PSoC5/Maximum_Peak_Detector_A_Comp_1.c ****     Maximum_Peak_Detector_A_Comp_1_PWRMGR |= Maximum_Peak_Detector_A_Comp_1_ACT_PWR_EN;
 141              		.loc 1 100 0
 142              		.cfi_startproc
 143              		@ args = 0, pretend = 0, frame = 0
 144              		@ frame_needed = 0, uses_anonymous_args = 0
 145              		@ link register save eliminated.
 101:Generated_Source\PSoC5/Maximum_Peak_Detector_A_Comp_1.c ****     Maximum_Peak_Detector_A_Comp_1_STBY_PWRMGR |= Maximum_Peak_Detector_A_Comp_1_STBY_PWR_EN;
 146              		.loc 1 101 0
 147 0000 044A     		ldr	r2, .L18
 148 0002 1378     		ldrb	r3, [r2]	@ zero_extendqisi2
 149 0004 43F00403 		orr	r3, r3, #4
 150 0008 1370     		strb	r3, [r2]
 102:Generated_Source\PSoC5/Maximum_Peak_Detector_A_Comp_1.c ****      
 151              		.loc 1 102 0
 152 000a 137C     		ldrb	r3, [r2, #16]	@ zero_extendqisi2
 153 000c 43F00403 		orr	r3, r3, #4
 154 0010 1374     		strb	r3, [r2, #16]
 155 0012 7047     		bx	lr
 156              	.L19:
 157              		.align	2
 158              	.L18:
 159 0014 A7430040 		.word	1073759143
 160              		.cfi_endproc
 161              	.LFE1:
 162              		.size	Maximum_Peak_Detector_A_Comp_1_Enable, .-Maximum_Peak_Detector_A_Comp_1_Enable
 163              		.section	.text.Maximum_Peak_Detector_A_Comp_1_Stop,"ax",%progbits
 164              		.align	1
 165              		.global	Maximum_Peak_Detector_A_Comp_1_Stop
 166              		.thumb
 167              		.thumb_func
 168              		.type	Maximum_Peak_Detector_A_Comp_1_Stop, %function
 169              	Maximum_Peak_Detector_A_Comp_1_Stop:
 170              	.LFB3:
 166:Generated_Source\PSoC5/Maximum_Peak_Detector_A_Comp_1.c ****     /* Disable power to comparator */
 171              		.loc 1 166 0
 172              		.cfi_startproc
 173              		@ args = 0, pretend = 0, frame = 0
 174              		@ frame_needed = 0, uses_anonymous_args = 0
 175              		@ link register save eliminated.
 168:Generated_Source\PSoC5/Maximum_Peak_Detector_A_Comp_1.c ****     Maximum_Peak_Detector_A_Comp_1_STBY_PWRMGR &= (uint8)(~Maximum_Peak_Detector_A_Comp_1_STBY_PWR_
 176              		.loc 1 168 0
 177 0000 044A     		ldr	r2, .L21
 178 0002 1378     		ldrb	r3, [r2]	@ zero_extendqisi2
 179 0004 03F0FB03 		and	r3, r3, #251
 180 0008 1370     		strb	r3, [r2]
 169:Generated_Source\PSoC5/Maximum_Peak_Detector_A_Comp_1.c ****     
 181              		.loc 1 169 0
 182 000a 137C     		ldrb	r3, [r2, #16]	@ zero_extendqisi2
 183 000c 03F0FB03 		and	r3, r3, #251
 184 0010 1374     		strb	r3, [r2, #16]
 185 0012 7047     		bx	lr
ARM GAS  C:\Users\ALEXAN~1\AppData\Local\Temp\ccyIvZIY.s 			page 11


 186              	.L22:
 187              		.align	2
 188              	.L21:
 189 0014 A7430040 		.word	1073759143
 190              		.cfi_endproc
 191              	.LFE3:
 192              		.size	Maximum_Peak_Detector_A_Comp_1_Stop, .-Maximum_Peak_Detector_A_Comp_1_Stop
 193              		.section	.text.Maximum_Peak_Detector_A_Comp_1_SetSpeed,"ax",%progbits
 194              		.align	1
 195              		.global	Maximum_Peak_Detector_A_Comp_1_SetSpeed
 196              		.thumb
 197              		.thumb_func
 198              		.type	Maximum_Peak_Detector_A_Comp_1_SetSpeed, %function
 199              	Maximum_Peak_Detector_A_Comp_1_SetSpeed:
 200              	.LFB4:
 198:Generated_Source\PSoC5/Maximum_Peak_Detector_A_Comp_1.c ****     /* Clear and Set power level */    
 201              		.loc 1 198 0
 202              		.cfi_startproc
 203              		@ args = 0, pretend = 0, frame = 0
 204              		@ frame_needed = 0, uses_anonymous_args = 0
 205              		@ link register save eliminated.
 206              	.LVL10:
 200:Generated_Source\PSoC5/Maximum_Peak_Detector_A_Comp_1.c ****                            (speed & Maximum_Peak_Detector_A_Comp_1_PWR_MODE_MASK);
 207              		.loc 1 200 0
 208 0000 0F49     		ldr	r1, .L27
 204:Generated_Source\PSoC5/Maximum_Peak_Detector_A_Comp_1.c ****     {
 209              		.loc 1 204 0
 210 0002 0128     		cmp	r0, #1
 200:Generated_Source\PSoC5/Maximum_Peak_Detector_A_Comp_1.c ****                            (speed & Maximum_Peak_Detector_A_Comp_1_PWR_MODE_MASK);
 211              		.loc 1 200 0
 212 0004 0B78     		ldrb	r3, [r1]	@ zero_extendqisi2
 213 0006 03F0FC02 		and	r2, r3, #252
 214 000a 00F00303 		and	r3, r0, #3
 215 000e 43EA0203 		orr	r3, r3, r2
 216 0012 0B70     		strb	r3, [r1]
 217 0014 A1F59051 		sub	r1, r1, #4608
 218 0018 A1F10E01 		sub	r1, r1, #14
 219 001c 094A     		ldr	r2, .L27+4
 204:Generated_Source\PSoC5/Maximum_Peak_Detector_A_Comp_1.c ****     {
 220              		.loc 1 204 0
 221 001e 05D1     		bne	.L24
 222              	.LVL11:
 223              	.LBB4:
 224              	.LBB5:
 213:Generated_Source\PSoC5/Maximum_Peak_Detector_A_Comp_1.c ****             Maximum_Peak_Detector_A_Comp_1_TR1 = Maximum_Peak_Detector_A_Comp_1_HS_TRIM_TR1;
 225              		.loc 1 213 0
 226 0020 094B     		ldr	r3, .L27+8
 227 0022 1B78     		ldrb	r3, [r3]	@ zero_extendqisi2
 228 0024 DBB2     		uxtb	r3, r3
 229 0026 0B70     		strb	r3, [r1]
 214:Generated_Source\PSoC5/Maximum_Peak_Detector_A_Comp_1.c ****         #endif /* CY_PSOC3 || CY_PSOC5LP */
 230              		.loc 1 214 0
 231 0028 084B     		ldr	r3, .L27+12
 232 002a 04E0     		b	.L26
 233              	.LVL12:
 234              	.L24:
 235              	.LBE5:
ARM GAS  C:\Users\ALEXAN~1\AppData\Local\Temp\ccyIvZIY.s 			page 12


 236              	.LBE4:
 226:Generated_Source\PSoC5/Maximum_Peak_Detector_A_Comp_1.c ****             Maximum_Peak_Detector_A_Comp_1_TR1 = Maximum_Peak_Detector_A_Comp_1_LS_TRIM_TR1;
 237              		.loc 1 226 0
 238 002c 084B     		ldr	r3, .L27+16
 239 002e 1B78     		ldrb	r3, [r3]	@ zero_extendqisi2
 240 0030 DBB2     		uxtb	r3, r3
 241 0032 0B70     		strb	r3, [r1]
 227:Generated_Source\PSoC5/Maximum_Peak_Detector_A_Comp_1.c ****         #endif /* CY_PSOC3 || CY_PSOC5LP */
 242              		.loc 1 227 0
 243 0034 074B     		ldr	r3, .L27+20
 244              	.L26:
 245 0036 1B78     		ldrb	r3, [r3]	@ zero_extendqisi2
 246 0038 DBB2     		uxtb	r3, r3
 247 003a 1370     		strb	r3, [r2]
 248 003c 7047     		bx	lr
 249              	.L28:
 250 003e 00BF     		.align	2
 251              	.L27:
 252 0040 42580040 		.word	1073764418
 253 0044 35460040 		.word	1073759797
 254 0048 12010049 		.word	1224737042
 255 004c 16010049 		.word	1224737046
 256 0050 B1010049 		.word	1224737201
 257 0054 B9010049 		.word	1224737209
 258              		.cfi_endproc
 259              	.LFE4:
 260              		.size	Maximum_Peak_Detector_A_Comp_1_SetSpeed, .-Maximum_Peak_Detector_A_Comp_1_SetSpeed
 261              		.section	.text.Maximum_Peak_Detector_A_Comp_1_Init,"ax",%progbits
 262              		.align	1
 263              		.global	Maximum_Peak_Detector_A_Comp_1_Init
 264              		.thumb
 265              		.thumb_func
 266              		.type	Maximum_Peak_Detector_A_Comp_1_Init, %function
 267              	Maximum_Peak_Detector_A_Comp_1_Init:
 268              	.LFB0:
  52:Generated_Source\PSoC5/Maximum_Peak_Detector_A_Comp_1.c ****     /* Set default speed/power */
 269              		.loc 1 52 0
 270              		.cfi_startproc
 271              		@ args = 0, pretend = 0, frame = 0
 272              		@ frame_needed = 0, uses_anonymous_args = 0
 273 0000 08B5     		push	{r3, lr}
 274              		.cfi_def_cfa_offset 8
 275              		.cfi_offset 3, -8
 276              		.cfi_offset 14, -4
  54:Generated_Source\PSoC5/Maximum_Peak_Detector_A_Comp_1.c **** 
 277              		.loc 1 54 0
 278 0002 0020     		movs	r0, #0
 279 0004 FFF7FEFF 		bl	Maximum_Peak_Detector_A_Comp_1_SetSpeed
 280              	.LVL13:
  58:Generated_Source\PSoC5/Maximum_Peak_Detector_A_Comp_1.c ****     #else
 281              		.loc 1 58 0
 282 0008 0C4B     		ldr	r3, .L30
 283 000a 1A78     		ldrb	r2, [r3]	@ zero_extendqisi2
 284 000c 42F02002 		orr	r2, r2, #32
 285 0010 1A70     		strb	r2, [r3]
  66:Generated_Source\PSoC5/Maximum_Peak_Detector_A_Comp_1.c ****         #else 
 286              		.loc 1 66 0
ARM GAS  C:\Users\ALEXAN~1\AppData\Local\Temp\ccyIvZIY.s 			page 13


 287 0012 1A78     		ldrb	r2, [r3]	@ zero_extendqisi2
 288 0014 02F0FB02 		and	r2, r2, #251
 289 0018 1A70     		strb	r2, [r3]
  73:Generated_Source\PSoC5/Maximum_Peak_Detector_A_Comp_1.c **** 
 290              		.loc 1 73 0
 291 001a 1A78     		ldrb	r2, [r3]	@ zero_extendqisi2
 292 001c 42F00802 		orr	r2, r2, #8
 293 0020 1A70     		strb	r2, [r3]
  76:Generated_Source\PSoC5/Maximum_Peak_Detector_A_Comp_1.c ****     #if ( Maximum_Peak_Detector_A_Comp_1_DEFAULT_BYPASS_SYNC == 0u )
 294              		.loc 1 76 0
 295 0022 93F89522 		ldrb	r2, [r3, #661]	@ zero_extendqisi2
 296 0026 02F0E702 		and	r2, r2, #231
 297 002a 83F89522 		strb	r2, [r3, #661]
  78:Generated_Source\PSoC5/Maximum_Peak_Detector_A_Comp_1.c ****     #else
 298              		.loc 1 78 0
 299 002e 93F89522 		ldrb	r2, [r3, #661]	@ zero_extendqisi2
 300 0032 42F00802 		orr	r2, r2, #8
 301 0036 83F89522 		strb	r2, [r3, #661]
  76:Generated_Source\PSoC5/Maximum_Peak_Detector_A_Comp_1.c ****     #if ( Maximum_Peak_Detector_A_Comp_1_DEFAULT_BYPASS_SYNC == 0u )
 302              		.loc 1 76 0
 303 003a 08BD     		pop	{r3, pc}
 304              	.L31:
 305              		.align	2
 306              	.L30:
 307 003c 42580040 		.word	1073764418
 308              		.cfi_endproc
 309              	.LFE0:
 310              		.size	Maximum_Peak_Detector_A_Comp_1_Init, .-Maximum_Peak_Detector_A_Comp_1_Init
 311              		.section	.text.Maximum_Peak_Detector_A_Comp_1_Start,"ax",%progbits
 312              		.align	1
 313              		.global	Maximum_Peak_Detector_A_Comp_1_Start
 314              		.thumb
 315              		.thumb_func
 316              		.type	Maximum_Peak_Detector_A_Comp_1_Start, %function
 317              	Maximum_Peak_Detector_A_Comp_1_Start:
 318              	.LFB2:
 137:Generated_Source\PSoC5/Maximum_Peak_Detector_A_Comp_1.c **** 
 319              		.loc 1 137 0
 320              		.cfi_startproc
 321              		@ args = 0, pretend = 0, frame = 0
 322              		@ frame_needed = 0, uses_anonymous_args = 0
 323 0000 10B5     		push	{r4, lr}
 324              		.cfi_def_cfa_offset 8
 325              		.cfi_offset 4, -8
 326              		.cfi_offset 14, -4
 139:Generated_Source\PSoC5/Maximum_Peak_Detector_A_Comp_1.c ****     {
 327              		.loc 1 139 0
 328 0002 054C     		ldr	r4, .L34
 329 0004 2378     		ldrb	r3, [r4]	@ zero_extendqisi2
 330 0006 1BB9     		cbnz	r3, .L33
 141:Generated_Source\PSoC5/Maximum_Peak_Detector_A_Comp_1.c ****         
 331              		.loc 1 141 0
 332 0008 FFF7FEFF 		bl	Maximum_Peak_Detector_A_Comp_1_Init
 333              	.LVL14:
 143:Generated_Source\PSoC5/Maximum_Peak_Detector_A_Comp_1.c ****     }   
 334              		.loc 1 143 0
 335 000c 0123     		movs	r3, #1
ARM GAS  C:\Users\ALEXAN~1\AppData\Local\Temp\ccyIvZIY.s 			page 14


 336 000e 2370     		strb	r3, [r4]
 337              	.L33:
 148:Generated_Source\PSoC5/Maximum_Peak_Detector_A_Comp_1.c **** 
 338              		.loc 1 148 0
 339 0010 BDE81040 		pop	{r4, lr}
 340              		.cfi_restore 14
 341              		.cfi_restore 4
 342              		.cfi_def_cfa_offset 0
 147:Generated_Source\PSoC5/Maximum_Peak_Detector_A_Comp_1.c **** }
 343              		.loc 1 147 0
 344 0014 FFF7FEBF 		b	Maximum_Peak_Detector_A_Comp_1_Enable
 345              	.LVL15:
 346              	.L35:
 347              		.align	2
 348              	.L34:
 349 0018 00000000 		.word	.LANCHOR0
 350              		.cfi_endproc
 351              	.LFE2:
 352              		.size	Maximum_Peak_Detector_A_Comp_1_Start, .-Maximum_Peak_Detector_A_Comp_1_Start
 353              		.section	.text.Maximum_Peak_Detector_A_Comp_1_GetCompare,"ax",%progbits
 354              		.align	1
 355              		.global	Maximum_Peak_Detector_A_Comp_1_GetCompare
 356              		.thumb
 357              		.thumb_func
 358              		.type	Maximum_Peak_Detector_A_Comp_1_GetCompare, %function
 359              	Maximum_Peak_Detector_A_Comp_1_GetCompare:
 360              	.LFB5:
 252:Generated_Source\PSoC5/Maximum_Peak_Detector_A_Comp_1.c ****     return( Maximum_Peak_Detector_A_Comp_1_WRK & Maximum_Peak_Detector_A_Comp_1_CMP_OUT_MASK);
 361              		.loc 1 252 0
 362              		.cfi_startproc
 363              		@ args = 0, pretend = 0, frame = 0
 364              		@ frame_needed = 0, uses_anonymous_args = 0
 365              		@ link register save eliminated.
 253:Generated_Source\PSoC5/Maximum_Peak_Detector_A_Comp_1.c **** }
 366              		.loc 1 253 0
 367 0000 024B     		ldr	r3, .L37
 368 0002 1878     		ldrb	r0, [r3]	@ zero_extendqisi2
 254:Generated_Source\PSoC5/Maximum_Peak_Detector_A_Comp_1.c **** 
 369              		.loc 1 254 0
 370 0004 00F00400 		and	r0, r0, #4
 371 0008 7047     		bx	lr
 372              	.L38:
 373 000a 00BF     		.align	2
 374              	.L37:
 375 000c 965B0040 		.word	1073765270
 376              		.cfi_endproc
 377              	.LFE5:
 378              		.size	Maximum_Peak_Detector_A_Comp_1_GetCompare, .-Maximum_Peak_Detector_A_Comp_1_GetCompare
 379              		.section	.text.Maximum_Peak_Detector_A_Comp_1_ZeroCal,"ax",%progbits
 380              		.align	1
 381              		.global	Maximum_Peak_Detector_A_Comp_1_ZeroCal
 382              		.thumb
 383              		.thumb_func
 384              		.type	Maximum_Peak_Detector_A_Comp_1_ZeroCal, %function
 385              	Maximum_Peak_Detector_A_Comp_1_ZeroCal:
 386              	.LFB7:
 373:Generated_Source\PSoC5/Maximum_Peak_Detector_A_Comp_1.c ****         {
ARM GAS  C:\Users\ALEXAN~1\AppData\Local\Temp\ccyIvZIY.s 			page 15


 374:Generated_Source\PSoC5/Maximum_Peak_Detector_A_Comp_1.c ****             break;      /* output changed state, trim phase is complete */
 375:Generated_Source\PSoC5/Maximum_Peak_Detector_A_Comp_1.c ****         }        
 376:Generated_Source\PSoC5/Maximum_Peak_Detector_A_Comp_1.c ****     }    
 377:Generated_Source\PSoC5/Maximum_Peak_Detector_A_Comp_1.c **** }
 378:Generated_Source\PSoC5/Maximum_Peak_Detector_A_Comp_1.c **** 
 379:Generated_Source\PSoC5/Maximum_Peak_Detector_A_Comp_1.c **** 
 380:Generated_Source\PSoC5/Maximum_Peak_Detector_A_Comp_1.c **** /*******************************************************************************
 381:Generated_Source\PSoC5/Maximum_Peak_Detector_A_Comp_1.c **** * Function Name: Maximum_Peak_Detector_A_Comp_1_ZeroCal
 382:Generated_Source\PSoC5/Maximum_Peak_Detector_A_Comp_1.c **** ********************************************************************************
 383:Generated_Source\PSoC5/Maximum_Peak_Detector_A_Comp_1.c **** *
 384:Generated_Source\PSoC5/Maximum_Peak_Detector_A_Comp_1.c **** * Summary:
 385:Generated_Source\PSoC5/Maximum_Peak_Detector_A_Comp_1.c **** *  This function calibrates the offset of the Analog Comparator.
 386:Generated_Source\PSoC5/Maximum_Peak_Detector_A_Comp_1.c **** *
 387:Generated_Source\PSoC5/Maximum_Peak_Detector_A_Comp_1.c **** * Parameters:
 388:Generated_Source\PSoC5/Maximum_Peak_Detector_A_Comp_1.c **** *  None
 389:Generated_Source\PSoC5/Maximum_Peak_Detector_A_Comp_1.c **** *
 390:Generated_Source\PSoC5/Maximum_Peak_Detector_A_Comp_1.c **** * Return:
 391:Generated_Source\PSoC5/Maximum_Peak_Detector_A_Comp_1.c **** *  (uint16)  value written in trim register when calibration complete.
 392:Generated_Source\PSoC5/Maximum_Peak_Detector_A_Comp_1.c **** *
 393:Generated_Source\PSoC5/Maximum_Peak_Detector_A_Comp_1.c **** * Theory: 
 394:Generated_Source\PSoC5/Maximum_Peak_Detector_A_Comp_1.c **** *  This function is used to optimize the calibration for user specific voltage
 395:Generated_Source\PSoC5/Maximum_Peak_Detector_A_Comp_1.c **** *  range.  The comparator trim is adjusted to counter transistor offsets
 396:Generated_Source\PSoC5/Maximum_Peak_Detector_A_Comp_1.c **** *   - offset is defined as positive if the output transitions to high before inP
 397:Generated_Source\PSoC5/Maximum_Peak_Detector_A_Comp_1.c **** *     is greater than inN
 398:Generated_Source\PSoC5/Maximum_Peak_Detector_A_Comp_1.c **** *   - offset is defined as negative if the output transitions to high after inP
 399:Generated_Source\PSoC5/Maximum_Peak_Detector_A_Comp_1.c **** *     is greater than inP
 400:Generated_Source\PSoC5/Maximum_Peak_Detector_A_Comp_1.c **** *
 401:Generated_Source\PSoC5/Maximum_Peak_Detector_A_Comp_1.c **** *  PSoC5A
 402:Generated_Source\PSoC5/Maximum_Peak_Detector_A_Comp_1.c **** *  The Analog Comparator provides 1 byte for offset trim.  The byte contains two
 403:Generated_Source\PSoC5/Maximum_Peak_Detector_A_Comp_1.c **** *  4 bit trim fields - one is a course trim and the other allows smaller
 404:Generated_Source\PSoC5/Maximum_Peak_Detector_A_Comp_1.c **** *  offset adjustments only for slow modes.
 405:Generated_Source\PSoC5/Maximum_Peak_Detector_A_Comp_1.c **** *  - low nibble - fine trim
 406:Generated_Source\PSoC5/Maximum_Peak_Detector_A_Comp_1.c **** *  - high nibble - course trim
 407:Generated_Source\PSoC5/Maximum_Peak_Detector_A_Comp_1.c **** *  PSoC3, PSoC5LP or later
 408:Generated_Source\PSoC5/Maximum_Peak_Detector_A_Comp_1.c **** *  The Analog Comparator provides 2 bytes for offset trim.  The bytes contain two
 409:Generated_Source\PSoC5/Maximum_Peak_Detector_A_Comp_1.c **** *  5 bit trim fields - one is a course trim and the other allows smaller
 410:Generated_Source\PSoC5/Maximum_Peak_Detector_A_Comp_1.c **** *  offset adjustments only for slow modes.
 411:Generated_Source\PSoC5/Maximum_Peak_Detector_A_Comp_1.c **** *  - TR0 - fine trim
 412:Generated_Source\PSoC5/Maximum_Peak_Detector_A_Comp_1.c **** *  - TR1 - course trim
 413:Generated_Source\PSoC5/Maximum_Peak_Detector_A_Comp_1.c **** *
 414:Generated_Source\PSoC5/Maximum_Peak_Detector_A_Comp_1.c **** *  Trim algorithm is a two phase process
 415:Generated_Source\PSoC5/Maximum_Peak_Detector_A_Comp_1.c **** *  The first phase performs course offset adjustment
 416:Generated_Source\PSoC5/Maximum_Peak_Detector_A_Comp_1.c **** *  The second phase serves one of two purposes depending on the outcome of the
 417:Generated_Source\PSoC5/Maximum_Peak_Detector_A_Comp_1.c **** *  first phase
 418:Generated_Source\PSoC5/Maximum_Peak_Detector_A_Comp_1.c **** *  - if the first trim value was maxed out without a comparator output 
 419:Generated_Source\PSoC5/Maximum_Peak_Detector_A_Comp_1.c **** *    transition, more offset will be added by adjusting the second trim value.
 420:Generated_Source\PSoC5/Maximum_Peak_Detector_A_Comp_1.c **** *  - if the first trim phase resulted in a comparator output transition, the
 421:Generated_Source\PSoC5/Maximum_Peak_Detector_A_Comp_1.c **** *    second trim value will serve as fine trim (in the opposite direction)to
 422:Generated_Source\PSoC5/Maximum_Peak_Detector_A_Comp_1.c **** *    ensure the offset is < 1 mV.
 423:Generated_Source\PSoC5/Maximum_Peak_Detector_A_Comp_1.c **** *
 424:Generated_Source\PSoC5/Maximum_Peak_Detector_A_Comp_1.c **** * Trim Process:   
 425:Generated_Source\PSoC5/Maximum_Peak_Detector_A_Comp_1.c **** *  1) User applies a voltage to the negative input.  Voltage should be in the
 426:Generated_Source\PSoC5/Maximum_Peak_Detector_A_Comp_1.c **** *     comparator operating range or an average of the operating voltage range.
 427:Generated_Source\PSoC5/Maximum_Peak_Detector_A_Comp_1.c **** *  2) Clear registers associated with analog routing to the positive input.
 428:Generated_Source\PSoC5/Maximum_Peak_Detector_A_Comp_1.c **** *  3) Disable Hysteresis
 429:Generated_Source\PSoC5/Maximum_Peak_Detector_A_Comp_1.c **** *  4) Set the calibration bit to short the negative and positive inputs to
 430:Generated_Source\PSoC5/Maximum_Peak_Detector_A_Comp_1.c **** *     the users calibration voltage.
ARM GAS  C:\Users\ALEXAN~1\AppData\Local\Temp\ccyIvZIY.s 			page 16


 431:Generated_Source\PSoC5/Maximum_Peak_Detector_A_Comp_1.c **** *  5) Clear the TR register  ( TR = 0x00 )
 432:Generated_Source\PSoC5/Maximum_Peak_Detector_A_Comp_1.c **** *  ** LOW MODES
 433:Generated_Source\PSoC5/Maximum_Peak_Detector_A_Comp_1.c **** *  6) Check if compare output is high, if so, set the MSb of course trim field 
 434:Generated_Source\PSoC5/Maximum_Peak_Detector_A_Comp_1.c **** *     to a 1.
 435:Generated_Source\PSoC5/Maximum_Peak_Detector_A_Comp_1.c **** *  7) Increment the course trim field until the compare output changes
 436:Generated_Source\PSoC5/Maximum_Peak_Detector_A_Comp_1.c **** *  8) Check if compare output is low, if so, set the MSb of fine trim field
 437:Generated_Source\PSoC5/Maximum_Peak_Detector_A_Comp_1.c **** *     to a 1.
 438:Generated_Source\PSoC5/Maximum_Peak_Detector_A_Comp_1.c **** *  9) Increment the fine trim field until the compare output changes
 439:Generated_Source\PSoC5/Maximum_Peak_Detector_A_Comp_1.c **** *  ** FAST MODE - skip the steps 8,9
 440:Generated_Source\PSoC5/Maximum_Peak_Detector_A_Comp_1.c **** *
 441:Generated_Source\PSoC5/Maximum_Peak_Detector_A_Comp_1.c **** * Side Effects:
 442:Generated_Source\PSoC5/Maximum_Peak_Detector_A_Comp_1.c **** *  Routine clears analog routing associated with the comparator positive input.  
 443:Generated_Source\PSoC5/Maximum_Peak_Detector_A_Comp_1.c **** *  This may affect routing of signals from other components that are connected
 444:Generated_Source\PSoC5/Maximum_Peak_Detector_A_Comp_1.c **** *  to the positive input of the comparator.
 445:Generated_Source\PSoC5/Maximum_Peak_Detector_A_Comp_1.c **** *
 446:Generated_Source\PSoC5/Maximum_Peak_Detector_A_Comp_1.c **** *******************************************************************************/
 447:Generated_Source\PSoC5/Maximum_Peak_Detector_A_Comp_1.c **** uint16 Maximum_Peak_Detector_A_Comp_1_ZeroCal(void) 
 448:Generated_Source\PSoC5/Maximum_Peak_Detector_A_Comp_1.c **** {
 387              		.loc 1 448 0
 388              		.cfi_startproc
 389              		@ args = 0, pretend = 0, frame = 16
 390              		@ frame_needed = 0, uses_anonymous_args = 0
 391 0000 2DE9F04F 		push	{r4, r5, r6, r7, r8, r9, r10, fp, lr}
 392              		.cfi_def_cfa_offset 36
 393              		.cfi_offset 4, -36
 394              		.cfi_offset 5, -32
 395              		.cfi_offset 6, -28
 396              		.cfi_offset 7, -24
 397              		.cfi_offset 8, -20
 398              		.cfi_offset 9, -16
 399              		.cfi_offset 10, -12
 400              		.cfi_offset 11, -8
 401              		.cfi_offset 14, -4
 449:Generated_Source\PSoC5/Maximum_Peak_Detector_A_Comp_1.c ****     uint8 tmpSW0;
 450:Generated_Source\PSoC5/Maximum_Peak_Detector_A_Comp_1.c ****     uint8 tmpSW2;
 451:Generated_Source\PSoC5/Maximum_Peak_Detector_A_Comp_1.c ****     uint8 tmpSW3;
 452:Generated_Source\PSoC5/Maximum_Peak_Detector_A_Comp_1.c ****     uint8 tmpCR;
 453:Generated_Source\PSoC5/Maximum_Peak_Detector_A_Comp_1.c **** 
 454:Generated_Source\PSoC5/Maximum_Peak_Detector_A_Comp_1.c ****     /* Save a copy of routing registers associated with inP */
 455:Generated_Source\PSoC5/Maximum_Peak_Detector_A_Comp_1.c ****     tmpSW0 = Maximum_Peak_Detector_A_Comp_1_SW0;
 456:Generated_Source\PSoC5/Maximum_Peak_Detector_A_Comp_1.c ****     tmpSW2 = Maximum_Peak_Detector_A_Comp_1_SW2;
 457:Generated_Source\PSoC5/Maximum_Peak_Detector_A_Comp_1.c ****     tmpSW3 = Maximum_Peak_Detector_A_Comp_1_SW3;
 402              		.loc 1 457 0
 403 0004 214A     		ldr	r2, .L43
 455:Generated_Source\PSoC5/Maximum_Peak_Detector_A_Comp_1.c ****     tmpSW2 = Maximum_Peak_Detector_A_Comp_1_SW2;
 404              		.loc 1 455 0
 405 0006 224E     		ldr	r6, .L43+4
 456:Generated_Source\PSoC5/Maximum_Peak_Detector_A_Comp_1.c ****     tmpSW3 = Maximum_Peak_Detector_A_Comp_1_SW3;
 406              		.loc 1 456 0
 407 0008 224D     		ldr	r5, .L43+8
 455:Generated_Source\PSoC5/Maximum_Peak_Detector_A_Comp_1.c ****     tmpSW2 = Maximum_Peak_Detector_A_Comp_1_SW2;
 408              		.loc 1 455 0
 409 000a 96F800A0 		ldrb	r10, [r6]	@ zero_extendqisi2
 456:Generated_Source\PSoC5/Maximum_Peak_Detector_A_Comp_1.c ****     tmpSW3 = Maximum_Peak_Detector_A_Comp_1_SW3;
 410              		.loc 1 456 0
 411 000e 95F80090 		ldrb	r9, [r5]	@ zero_extendqisi2
 412              		.loc 1 457 0
ARM GAS  C:\Users\ALEXAN~1\AppData\Local\Temp\ccyIvZIY.s 			page 17


 413 0012 92F80080 		ldrb	r8, [r2]	@ zero_extendqisi2
 458:Generated_Source\PSoC5/Maximum_Peak_Detector_A_Comp_1.c **** 
 459:Generated_Source\PSoC5/Maximum_Peak_Detector_A_Comp_1.c ****      /* Clear routing for inP, retain routing for inN */
 460:Generated_Source\PSoC5/Maximum_Peak_Detector_A_Comp_1.c ****     Maximum_Peak_Detector_A_Comp_1_SW0 = 0x00u;
 414              		.loc 1 460 0
 415 0016 0023     		movs	r3, #0
 457:Generated_Source\PSoC5/Maximum_Peak_Detector_A_Comp_1.c **** 
 416              		.loc 1 457 0
 417 0018 5FFA88F8 		uxtb	r8, r8
 461:Generated_Source\PSoC5/Maximum_Peak_Detector_A_Comp_1.c ****     Maximum_Peak_Detector_A_Comp_1_SW2 = 0x00u;
 462:Generated_Source\PSoC5/Maximum_Peak_Detector_A_Comp_1.c ****     Maximum_Peak_Detector_A_Comp_1_SW3 = tmpSW3 & (uint8)(~Maximum_Peak_Detector_A_Comp_1_CMP_SW3_I
 463:Generated_Source\PSoC5/Maximum_Peak_Detector_A_Comp_1.c **** 
 464:Generated_Source\PSoC5/Maximum_Peak_Detector_A_Comp_1.c ****     /* Preserve original configuration
 465:Generated_Source\PSoC5/Maximum_Peak_Detector_A_Comp_1.c ****      * - turn off Hysteresis
 466:Generated_Source\PSoC5/Maximum_Peak_Detector_A_Comp_1.c ****      * - set calibration bit - shorts inN to inP
 467:Generated_Source\PSoC5/Maximum_Peak_Detector_A_Comp_1.c ****     */
 468:Generated_Source\PSoC5/Maximum_Peak_Detector_A_Comp_1.c ****     tmpCR = Maximum_Peak_Detector_A_Comp_1_CR;
 418              		.loc 1 468 0
 419 001c 1E4C     		ldr	r4, .L43+12
 462:Generated_Source\PSoC5/Maximum_Peak_Detector_A_Comp_1.c **** 
 420              		.loc 1 462 0
 421 001e 08F0F601 		and	r1, r8, #246
 460:Generated_Source\PSoC5/Maximum_Peak_Detector_A_Comp_1.c ****     Maximum_Peak_Detector_A_Comp_1_SW2 = 0x00u;
 422              		.loc 1 460 0
 423 0022 3370     		strb	r3, [r6]
 461:Generated_Source\PSoC5/Maximum_Peak_Detector_A_Comp_1.c ****     Maximum_Peak_Detector_A_Comp_1_SW2 = 0x00u;
 424              		.loc 1 461 0
 425 0024 2B70     		strb	r3, [r5]
 462:Generated_Source\PSoC5/Maximum_Peak_Detector_A_Comp_1.c **** 
 426              		.loc 1 462 0
 427 0026 1170     		strb	r1, [r2]
 428              		.loc 1 468 0
 429 0028 94F800B0 		ldrb	fp, [r4]	@ zero_extendqisi2
 469:Generated_Source\PSoC5/Maximum_Peak_Detector_A_Comp_1.c ****     Maximum_Peak_Detector_A_Comp_1_CR |= (Maximum_Peak_Detector_A_Comp_1_CAL_ON | Maximum_Peak_Dete
 430              		.loc 1 469 0
 431 002c 2178     		ldrb	r1, [r4]	@ zero_extendqisi2
 470:Generated_Source\PSoC5/Maximum_Peak_Detector_A_Comp_1.c ****     
 471:Generated_Source\PSoC5/Maximum_Peak_Detector_A_Comp_1.c ****     /* Write default low values to trim register - no offset adjust */
 472:Generated_Source\PSoC5/Maximum_Peak_Detector_A_Comp_1.c ****     /* PSoC5A */
 473:Generated_Source\PSoC5/Maximum_Peak_Detector_A_Comp_1.c ****     #if (CY_PSOC5A)
 474:Generated_Source\PSoC5/Maximum_Peak_Detector_A_Comp_1.c ****         Maximum_Peak_Detector_A_Comp_1_TR = Maximum_Peak_Detector_A_Comp_1_DEFAULT_CMP_TRIM;
 475:Generated_Source\PSoC5/Maximum_Peak_Detector_A_Comp_1.c ****     #endif /* CY_PSOC5A */
 476:Generated_Source\PSoC5/Maximum_Peak_Detector_A_Comp_1.c ****     
 477:Generated_Source\PSoC5/Maximum_Peak_Detector_A_Comp_1.c ****     /* PSoC3, PSoC5LP or later */
 478:Generated_Source\PSoC5/Maximum_Peak_Detector_A_Comp_1.c ****     #if (CY_PSOC3 || CY_PSOC5LP)
 479:Generated_Source\PSoC5/Maximum_Peak_Detector_A_Comp_1.c ****         Maximum_Peak_Detector_A_Comp_1_TR0 = Maximum_Peak_Detector_A_Comp_1_DEFAULT_CMP_TRIM;
 480:Generated_Source\PSoC5/Maximum_Peak_Detector_A_Comp_1.c ****         Maximum_Peak_Detector_A_Comp_1_TR1 = Maximum_Peak_Detector_A_Comp_1_DEFAULT_CMP_TRIM;
 432              		.loc 1 480 0
 433 002e 1B4F     		ldr	r7, .L43+16
 469:Generated_Source\PSoC5/Maximum_Peak_Detector_A_Comp_1.c ****     Maximum_Peak_Detector_A_Comp_1_CR |= (Maximum_Peak_Detector_A_Comp_1_CAL_ON | Maximum_Peak_Dete
 434              		.loc 1 469 0
 435 0030 41F03001 		orr	r1, r1, #48
 436 0034 2170     		strb	r1, [r4]
 479:Generated_Source\PSoC5/Maximum_Peak_Detector_A_Comp_1.c ****         Maximum_Peak_Detector_A_Comp_1_TR1 = Maximum_Peak_Detector_A_Comp_1_DEFAULT_CMP_TRIM;
 437              		.loc 1 479 0
 438 0036 1A49     		ldr	r1, .L43+20
 448:Generated_Source\PSoC5/Maximum_Peak_Detector_A_Comp_1.c ****     uint8 tmpSW0;
ARM GAS  C:\Users\ALEXAN~1\AppData\Local\Temp\ccyIvZIY.s 			page 18


 439              		.loc 1 448 0
 440 0038 85B0     		sub	sp, sp, #20
 441              		.cfi_def_cfa_offset 56
 479:Generated_Source\PSoC5/Maximum_Peak_Detector_A_Comp_1.c ****         Maximum_Peak_Detector_A_Comp_1_TR1 = Maximum_Peak_Detector_A_Comp_1_DEFAULT_CMP_TRIM;
 442              		.loc 1 479 0
 443 003a 0B70     		strb	r3, [r1]
 444              		.loc 1 480 0
 445 003c 3B70     		strb	r3, [r7]
 481:Generated_Source\PSoC5/Maximum_Peak_Detector_A_Comp_1.c ****     #endif /* CY_PSOC3 || CY_PSOC5LP */
 482:Generated_Source\PSoC5/Maximum_Peak_Detector_A_Comp_1.c **** 	
 483:Generated_Source\PSoC5/Maximum_Peak_Detector_A_Comp_1.c **** 	/* Two phase trim - slow modes, one phase trim - for fast */ 
 484:Generated_Source\PSoC5/Maximum_Peak_Detector_A_Comp_1.c ****     if ( (Maximum_Peak_Detector_A_Comp_1_CR & Maximum_Peak_Detector_A_Comp_1_PWR_MODE_MASK) == Maxi
 446              		.loc 1 484 0
 447 003e 2078     		ldrb	r0, [r4]	@ zero_extendqisi2
 455:Generated_Source\PSoC5/Maximum_Peak_Detector_A_Comp_1.c ****     tmpSW2 = Maximum_Peak_Detector_A_Comp_1_SW2;
 448              		.loc 1 455 0
 449 0040 5FFA8AFA 		uxtb	r10, r10
 450              	.LVL16:
 451              		.loc 1 484 0
 452 0044 00F00300 		and	r0, r0, #3
 453 0048 0128     		cmp	r0, #1
 456:Generated_Source\PSoC5/Maximum_Peak_Detector_A_Comp_1.c ****     tmpSW3 = Maximum_Peak_Detector_A_Comp_1_SW3;
 454              		.loc 1 456 0
 455 004a 5FFA89F9 		uxtb	r9, r9
 456              	.LVL17:
 468:Generated_Source\PSoC5/Maximum_Peak_Detector_A_Comp_1.c ****     Maximum_Peak_Detector_A_Comp_1_CR |= (Maximum_Peak_Detector_A_Comp_1_CAL_ON | Maximum_Peak_Dete
 457              		.loc 1 468 0
 458 004e 5FFA8BFB 		uxtb	fp, fp
 459              	.LVL18:
 460 0052 0192     		str	r2, [sp, #4]
 461 0054 0291     		str	r1, [sp, #8]
 462              		.loc 1 484 0
 463 0056 04D0     		beq	.L42
 485:Generated_Source\PSoC5/Maximum_Peak_Detector_A_Comp_1.c ****     {
 486:Generated_Source\PSoC5/Maximum_Peak_Detector_A_Comp_1.c ****         Maximum_Peak_Detector_A_Comp_1_trimAdjust(0u);
 487:Generated_Source\PSoC5/Maximum_Peak_Detector_A_Comp_1.c ****     }
 488:Generated_Source\PSoC5/Maximum_Peak_Detector_A_Comp_1.c ****     else /* default to trim for fast modes */
 489:Generated_Source\PSoC5/Maximum_Peak_Detector_A_Comp_1.c ****     {
 490:Generated_Source\PSoC5/Maximum_Peak_Detector_A_Comp_1.c ****         Maximum_Peak_Detector_A_Comp_1_trimAdjust(1u);
 464              		.loc 1 490 0
 465 0058 0120     		movs	r0, #1
 466 005a 0393     		str	r3, [sp, #12]
 467 005c FFF7FEFF 		bl	Maximum_Peak_Detector_A_Comp_1_trimAdjust
 468              	.LVL19:
 491:Generated_Source\PSoC5/Maximum_Peak_Detector_A_Comp_1.c **** 		Maximum_Peak_Detector_A_Comp_1_trimAdjust(0u);
 469              		.loc 1 491 0
 470 0060 039B     		ldr	r3, [sp, #12]
 471              	.L42:
 472 0062 1846     		mov	r0, r3
 473 0064 FFF7FEFF 		bl	Maximum_Peak_Detector_A_Comp_1_trimAdjust
 474              	.LVL20:
 492:Generated_Source\PSoC5/Maximum_Peak_Detector_A_Comp_1.c ****     }
 493:Generated_Source\PSoC5/Maximum_Peak_Detector_A_Comp_1.c ****    
 494:Generated_Source\PSoC5/Maximum_Peak_Detector_A_Comp_1.c ****     /* Restore Config Register */
 495:Generated_Source\PSoC5/Maximum_Peak_Detector_A_Comp_1.c ****     Maximum_Peak_Detector_A_Comp_1_CR = tmpCR;
 475              		.loc 1 495 0
 476 0068 84F800B0 		strb	fp, [r4]
ARM GAS  C:\Users\ALEXAN~1\AppData\Local\Temp\ccyIvZIY.s 			page 19


 496:Generated_Source\PSoC5/Maximum_Peak_Detector_A_Comp_1.c ****     
 497:Generated_Source\PSoC5/Maximum_Peak_Detector_A_Comp_1.c ****     /* Restore routing registers for inP */
 498:Generated_Source\PSoC5/Maximum_Peak_Detector_A_Comp_1.c ****     Maximum_Peak_Detector_A_Comp_1_SW0 = tmpSW0;
 477              		.loc 1 498 0
 478 006c 86F800A0 		strb	r10, [r6]
 499:Generated_Source\PSoC5/Maximum_Peak_Detector_A_Comp_1.c ****     Maximum_Peak_Detector_A_Comp_1_SW2 = tmpSW2;
 479              		.loc 1 499 0
 480 0070 85F80090 		strb	r9, [r5]
 500:Generated_Source\PSoC5/Maximum_Peak_Detector_A_Comp_1.c ****     Maximum_Peak_Detector_A_Comp_1_SW3 = tmpSW3;
 481              		.loc 1 500 0
 482 0074 019B     		ldr	r3, [sp, #4]
 483 0076 83F80080 		strb	r8, [r3]
 501:Generated_Source\PSoC5/Maximum_Peak_Detector_A_Comp_1.c ****     
 502:Generated_Source\PSoC5/Maximum_Peak_Detector_A_Comp_1.c ****     /* PSoC5A */
 503:Generated_Source\PSoC5/Maximum_Peak_Detector_A_Comp_1.c ****     #if (CY_PSOC5A)
 504:Generated_Source\PSoC5/Maximum_Peak_Detector_A_Comp_1.c ****         return (uint16) Maximum_Peak_Detector_A_Comp_1_TR;
 505:Generated_Source\PSoC5/Maximum_Peak_Detector_A_Comp_1.c ****     #endif /* CY_PSOC5A */
 506:Generated_Source\PSoC5/Maximum_Peak_Detector_A_Comp_1.c ****     
 507:Generated_Source\PSoC5/Maximum_Peak_Detector_A_Comp_1.c ****     /* PSoC3, PSoC5LP or later */
 508:Generated_Source\PSoC5/Maximum_Peak_Detector_A_Comp_1.c ****     #if (CY_PSOC3 || CY_PSOC5LP)
 509:Generated_Source\PSoC5/Maximum_Peak_Detector_A_Comp_1.c ****         return ((uint16)((uint16)Maximum_Peak_Detector_A_Comp_1_TR1 << 8u) | (Maximum_Peak_Detector
 484              		.loc 1 509 0
 485 007a 029B     		ldr	r3, [sp, #8]
 486 007c 3878     		ldrb	r0, [r7]	@ zero_extendqisi2
 487 007e 1B78     		ldrb	r3, [r3]	@ zero_extendqisi2
 510:Generated_Source\PSoC5/Maximum_Peak_Detector_A_Comp_1.c ****     #endif /* CY_PSOC3 || CY_PSOC5LP */
 511:Generated_Source\PSoC5/Maximum_Peak_Detector_A_Comp_1.c **** }
 488              		.loc 1 511 0
 489 0080 43EA0020 		orr	r0, r3, r0, lsl #8
 490 0084 05B0     		add	sp, sp, #20
 491              		.cfi_def_cfa_offset 36
 492              		@ sp needed
 493 0086 BDE8F08F 		pop	{r4, r5, r6, r7, r8, r9, r10, fp, pc}
 494              	.LVL21:
 495              	.L44:
 496 008a 00BF     		.align	2
 497              	.L43:
 498 008c D35A0040 		.word	1073765075
 499 0090 D05A0040 		.word	1073765072
 500 0094 D25A0040 		.word	1073765074
 501 0098 42580040 		.word	1073764418
 502 009c 35460040 		.word	1073759797
 503 00a0 34460040 		.word	1073759796
 504              		.cfi_endproc
 505              	.LFE7:
 506              		.size	Maximum_Peak_Detector_A_Comp_1_ZeroCal, .-Maximum_Peak_Detector_A_Comp_1_ZeroCal
 507              		.section	.text.Maximum_Peak_Detector_A_Comp_1_LoadTrim,"ax",%progbits
 508              		.align	1
 509              		.global	Maximum_Peak_Detector_A_Comp_1_LoadTrim
 510              		.thumb
 511              		.thumb_func
 512              		.type	Maximum_Peak_Detector_A_Comp_1_LoadTrim, %function
 513              	Maximum_Peak_Detector_A_Comp_1_LoadTrim:
 514              	.LFB8:
 512:Generated_Source\PSoC5/Maximum_Peak_Detector_A_Comp_1.c **** 
 513:Generated_Source\PSoC5/Maximum_Peak_Detector_A_Comp_1.c **** 
 514:Generated_Source\PSoC5/Maximum_Peak_Detector_A_Comp_1.c **** /*******************************************************************************
ARM GAS  C:\Users\ALEXAN~1\AppData\Local\Temp\ccyIvZIY.s 			page 20


 515:Generated_Source\PSoC5/Maximum_Peak_Detector_A_Comp_1.c **** * Function Name: Maximum_Peak_Detector_A_Comp_1_LoadTrim
 516:Generated_Source\PSoC5/Maximum_Peak_Detector_A_Comp_1.c **** ********************************************************************************
 517:Generated_Source\PSoC5/Maximum_Peak_Detector_A_Comp_1.c **** *
 518:Generated_Source\PSoC5/Maximum_Peak_Detector_A_Comp_1.c **** * Summary:
 519:Generated_Source\PSoC5/Maximum_Peak_Detector_A_Comp_1.c **** *  This function stores a value in the Analog Comparator trim register.
 520:Generated_Source\PSoC5/Maximum_Peak_Detector_A_Comp_1.c **** *
 521:Generated_Source\PSoC5/Maximum_Peak_Detector_A_Comp_1.c **** * Parameters:  
 522:Generated_Source\PSoC5/Maximum_Peak_Detector_A_Comp_1.c **** *  uint8 trimVal - trim value.  This value is the same format as the value 
 523:Generated_Source\PSoC5/Maximum_Peak_Detector_A_Comp_1.c **** *  returned by the _ZeroCal routine.
 524:Generated_Source\PSoC5/Maximum_Peak_Detector_A_Comp_1.c **** *
 525:Generated_Source\PSoC5/Maximum_Peak_Detector_A_Comp_1.c **** * Return:
 526:Generated_Source\PSoC5/Maximum_Peak_Detector_A_Comp_1.c **** *  None
 527:Generated_Source\PSoC5/Maximum_Peak_Detector_A_Comp_1.c **** *
 528:Generated_Source\PSoC5/Maximum_Peak_Detector_A_Comp_1.c **** *******************************************************************************/
 529:Generated_Source\PSoC5/Maximum_Peak_Detector_A_Comp_1.c **** void Maximum_Peak_Detector_A_Comp_1_LoadTrim(uint16 trimVal) 
 530:Generated_Source\PSoC5/Maximum_Peak_Detector_A_Comp_1.c **** {
 515              		.loc 1 530 0
 516              		.cfi_startproc
 517              		@ args = 0, pretend = 0, frame = 0
 518              		@ frame_needed = 0, uses_anonymous_args = 0
 519              		@ link register save eliminated.
 520              	.LVL22:
 531:Generated_Source\PSoC5/Maximum_Peak_Detector_A_Comp_1.c ****     /* Stores value in the Analog Comparator trim register */
 532:Generated_Source\PSoC5/Maximum_Peak_Detector_A_Comp_1.c ****     /* PSoC5A */
 533:Generated_Source\PSoC5/Maximum_Peak_Detector_A_Comp_1.c ****     #if (CY_PSOC5A)
 534:Generated_Source\PSoC5/Maximum_Peak_Detector_A_Comp_1.c ****         Maximum_Peak_Detector_A_Comp_1_TR = (uint8) trimVal;
 535:Generated_Source\PSoC5/Maximum_Peak_Detector_A_Comp_1.c ****     #endif /* CY_PSOC5A */
 536:Generated_Source\PSoC5/Maximum_Peak_Detector_A_Comp_1.c ****     
 537:Generated_Source\PSoC5/Maximum_Peak_Detector_A_Comp_1.c ****     /* PSoC3, PSoC5LP or later */
 538:Generated_Source\PSoC5/Maximum_Peak_Detector_A_Comp_1.c ****     #if (CY_PSOC3 || CY_PSOC5LP)
 539:Generated_Source\PSoC5/Maximum_Peak_Detector_A_Comp_1.c ****         /* Stores value in the Analog Comparator trim register for P-type load */
 540:Generated_Source\PSoC5/Maximum_Peak_Detector_A_Comp_1.c ****         Maximum_Peak_Detector_A_Comp_1_TR0 = (uint8) trimVal;
 521              		.loc 1 540 0
 522 0000 024B     		ldr	r3, .L46
 523 0002 C2B2     		uxtb	r2, r0
 541:Generated_Source\PSoC5/Maximum_Peak_Detector_A_Comp_1.c ****         
 542:Generated_Source\PSoC5/Maximum_Peak_Detector_A_Comp_1.c ****         /* Stores value in the Analog Comparator trim register for N-type load */
 543:Generated_Source\PSoC5/Maximum_Peak_Detector_A_Comp_1.c ****         Maximum_Peak_Detector_A_Comp_1_TR1 = (uint8) (trimVal >> 8); 
 524              		.loc 1 543 0
 525 0004 000A     		lsrs	r0, r0, #8
 526              	.LVL23:
 540:Generated_Source\PSoC5/Maximum_Peak_Detector_A_Comp_1.c ****         
 527              		.loc 1 540 0
 528 0006 1A70     		strb	r2, [r3]
 529              		.loc 1 543 0
 530 0008 5870     		strb	r0, [r3, #1]
 531 000a 7047     		bx	lr
 532              	.L47:
 533              		.align	2
 534              	.L46:
 535 000c 34460040 		.word	1073759796
 536              		.cfi_endproc
 537              	.LFE8:
 538              		.size	Maximum_Peak_Detector_A_Comp_1_LoadTrim, .-Maximum_Peak_Detector_A_Comp_1_LoadTrim
 539              		.section	.text.Maximum_Peak_Detector_A_Comp_1_PwrDwnOverrideEnable,"ax",%progbits
 540              		.align	1
 541              		.global	Maximum_Peak_Detector_A_Comp_1_PwrDwnOverrideEnable
ARM GAS  C:\Users\ALEXAN~1\AppData\Local\Temp\ccyIvZIY.s 			page 21


 542              		.thumb
 543              		.thumb_func
 544              		.type	Maximum_Peak_Detector_A_Comp_1_PwrDwnOverrideEnable, %function
 545              	Maximum_Peak_Detector_A_Comp_1_PwrDwnOverrideEnable:
 546              	.LFB9:
 544:Generated_Source\PSoC5/Maximum_Peak_Detector_A_Comp_1.c ****     #endif /* CY_PSOC3 || CY_PSOC5LP */
 545:Generated_Source\PSoC5/Maximum_Peak_Detector_A_Comp_1.c **** }
 546:Generated_Source\PSoC5/Maximum_Peak_Detector_A_Comp_1.c **** 
 547:Generated_Source\PSoC5/Maximum_Peak_Detector_A_Comp_1.c **** 
 548:Generated_Source\PSoC5/Maximum_Peak_Detector_A_Comp_1.c **** #if (CY_PSOC3 || CY_PSOC5LP)
 549:Generated_Source\PSoC5/Maximum_Peak_Detector_A_Comp_1.c **** 
 550:Generated_Source\PSoC5/Maximum_Peak_Detector_A_Comp_1.c ****     /*******************************************************************************
 551:Generated_Source\PSoC5/Maximum_Peak_Detector_A_Comp_1.c ****     * Function Name: Maximum_Peak_Detector_A_Comp_1_PwrDwnOverrideEnable
 552:Generated_Source\PSoC5/Maximum_Peak_Detector_A_Comp_1.c ****     ********************************************************************************
 553:Generated_Source\PSoC5/Maximum_Peak_Detector_A_Comp_1.c ****     *
 554:Generated_Source\PSoC5/Maximum_Peak_Detector_A_Comp_1.c ****     * Summary:
 555:Generated_Source\PSoC5/Maximum_Peak_Detector_A_Comp_1.c ****     *  This is the power down over-ride feature. This function ignores sleep 
 556:Generated_Source\PSoC5/Maximum_Peak_Detector_A_Comp_1.c ****     *  parameter and allows the component to stay active during sleep mode.
 557:Generated_Source\PSoC5/Maximum_Peak_Detector_A_Comp_1.c ****     *
 558:Generated_Source\PSoC5/Maximum_Peak_Detector_A_Comp_1.c ****     * Parameters:
 559:Generated_Source\PSoC5/Maximum_Peak_Detector_A_Comp_1.c ****     *  None
 560:Generated_Source\PSoC5/Maximum_Peak_Detector_A_Comp_1.c ****     *
 561:Generated_Source\PSoC5/Maximum_Peak_Detector_A_Comp_1.c ****     * Return:
 562:Generated_Source\PSoC5/Maximum_Peak_Detector_A_Comp_1.c ****     *  None
 563:Generated_Source\PSoC5/Maximum_Peak_Detector_A_Comp_1.c ****     *
 564:Generated_Source\PSoC5/Maximum_Peak_Detector_A_Comp_1.c ****     *******************************************************************************/
 565:Generated_Source\PSoC5/Maximum_Peak_Detector_A_Comp_1.c ****     void Maximum_Peak_Detector_A_Comp_1_PwrDwnOverrideEnable(void) 
 566:Generated_Source\PSoC5/Maximum_Peak_Detector_A_Comp_1.c ****     {
 547              		.loc 1 566 0
 548              		.cfi_startproc
 549              		@ args = 0, pretend = 0, frame = 0
 550              		@ frame_needed = 0, uses_anonymous_args = 0
 551              		@ link register save eliminated.
 567:Generated_Source\PSoC5/Maximum_Peak_Detector_A_Comp_1.c ****         /* Set the pd_override bit in CMP_CR register */
 568:Generated_Source\PSoC5/Maximum_Peak_Detector_A_Comp_1.c ****         Maximum_Peak_Detector_A_Comp_1_CR |= Maximum_Peak_Detector_A_Comp_1_PWRDWN_OVRD;
 552              		.loc 1 568 0
 553 0000 024A     		ldr	r2, .L49
 554 0002 1378     		ldrb	r3, [r2]	@ zero_extendqisi2
 555 0004 43F00403 		orr	r3, r3, #4
 556 0008 1370     		strb	r3, [r2]
 557 000a 7047     		bx	lr
 558              	.L50:
 559              		.align	2
 560              	.L49:
 561 000c 42580040 		.word	1073764418
 562              		.cfi_endproc
 563              	.LFE9:
 564              		.size	Maximum_Peak_Detector_A_Comp_1_PwrDwnOverrideEnable, .-Maximum_Peak_Detector_A_Comp_1_PwrDwn
 565              		.section	.text.Maximum_Peak_Detector_A_Comp_1_PwrDwnOverrideDisable,"ax",%progbits
 566              		.align	1
 567              		.global	Maximum_Peak_Detector_A_Comp_1_PwrDwnOverrideDisable
 568              		.thumb
 569              		.thumb_func
 570              		.type	Maximum_Peak_Detector_A_Comp_1_PwrDwnOverrideDisable, %function
 571              	Maximum_Peak_Detector_A_Comp_1_PwrDwnOverrideDisable:
 572              	.LFB10:
 569:Generated_Source\PSoC5/Maximum_Peak_Detector_A_Comp_1.c ****     }
ARM GAS  C:\Users\ALEXAN~1\AppData\Local\Temp\ccyIvZIY.s 			page 22


 570:Generated_Source\PSoC5/Maximum_Peak_Detector_A_Comp_1.c **** 
 571:Generated_Source\PSoC5/Maximum_Peak_Detector_A_Comp_1.c **** 
 572:Generated_Source\PSoC5/Maximum_Peak_Detector_A_Comp_1.c ****     /*******************************************************************************
 573:Generated_Source\PSoC5/Maximum_Peak_Detector_A_Comp_1.c ****     * Function Name: Maximum_Peak_Detector_A_Comp_1_PwrDwnOverrideDisable
 574:Generated_Source\PSoC5/Maximum_Peak_Detector_A_Comp_1.c ****     ********************************************************************************
 575:Generated_Source\PSoC5/Maximum_Peak_Detector_A_Comp_1.c ****     *
 576:Generated_Source\PSoC5/Maximum_Peak_Detector_A_Comp_1.c ****     * Summary:
 577:Generated_Source\PSoC5/Maximum_Peak_Detector_A_Comp_1.c ****     *  This is the power down over-ride feature. This allows the component to stay
 578:Generated_Source\PSoC5/Maximum_Peak_Detector_A_Comp_1.c ****     *  inactive during sleep.
 579:Generated_Source\PSoC5/Maximum_Peak_Detector_A_Comp_1.c ****     *
 580:Generated_Source\PSoC5/Maximum_Peak_Detector_A_Comp_1.c ****     * Parameters:
 581:Generated_Source\PSoC5/Maximum_Peak_Detector_A_Comp_1.c ****     *  None
 582:Generated_Source\PSoC5/Maximum_Peak_Detector_A_Comp_1.c ****     *
 583:Generated_Source\PSoC5/Maximum_Peak_Detector_A_Comp_1.c ****     * Return:
 584:Generated_Source\PSoC5/Maximum_Peak_Detector_A_Comp_1.c ****     *  None
 585:Generated_Source\PSoC5/Maximum_Peak_Detector_A_Comp_1.c ****     *
 586:Generated_Source\PSoC5/Maximum_Peak_Detector_A_Comp_1.c ****     *******************************************************************************/
 587:Generated_Source\PSoC5/Maximum_Peak_Detector_A_Comp_1.c ****     void Maximum_Peak_Detector_A_Comp_1_PwrDwnOverrideDisable(void) 
 588:Generated_Source\PSoC5/Maximum_Peak_Detector_A_Comp_1.c ****     {
 573              		.loc 1 588 0
 574              		.cfi_startproc
 575              		@ args = 0, pretend = 0, frame = 0
 576              		@ frame_needed = 0, uses_anonymous_args = 0
 577              		@ link register save eliminated.
 589:Generated_Source\PSoC5/Maximum_Peak_Detector_A_Comp_1.c ****         /* Reset the pd_override bit in CMP_CR register */
 590:Generated_Source\PSoC5/Maximum_Peak_Detector_A_Comp_1.c ****         Maximum_Peak_Detector_A_Comp_1_CR &= (uint8)(~Maximum_Peak_Detector_A_Comp_1_PWRDWN_OVRD);
 578              		.loc 1 590 0
 579 0000 024A     		ldr	r2, .L52
 580 0002 1378     		ldrb	r3, [r2]	@ zero_extendqisi2
 581 0004 03F0FB03 		and	r3, r3, #251
 582 0008 1370     		strb	r3, [r2]
 583 000a 7047     		bx	lr
 584              	.L53:
 585              		.align	2
 586              	.L52:
 587 000c 42580040 		.word	1073764418
 588              		.cfi_endproc
 589              	.LFE10:
 590              		.size	Maximum_Peak_Detector_A_Comp_1_PwrDwnOverrideDisable, .-Maximum_Peak_Detector_A_Comp_1_PwrDw
 591              		.global	Maximum_Peak_Detector_A_Comp_1_initVar
 592              		.bss
 593              		.set	.LANCHOR0,. + 0
 594              		.type	Maximum_Peak_Detector_A_Comp_1_initVar, %object
 595              		.size	Maximum_Peak_Detector_A_Comp_1_initVar, 1
 596              	Maximum_Peak_Detector_A_Comp_1_initVar:
 597 0000 00       		.space	1
 598              		.text
 599              	.Letext0:
 600              		.file 2 "Generated_Source\\PSoC5\\cytypes.h"
 601              		.file 3 "Generated_Source\\PSoC5\\CyLib.h"