ARM GAS  C:\Users\ALEXAN~1\AppData\Local\Temp\ccA8ruZM.s 			page 1


   1              		.syntax unified
   2              		.cpu cortex-m3
   3              		.fpu softvfp
   4              		.eabi_attribute 20, 1
   5              		.eabi_attribute 21, 1
   6              		.eabi_attribute 23, 3
   7              		.eabi_attribute 24, 1
   8              		.eabi_attribute 25, 1
   9              		.eabi_attribute 26, 1
  10              		.eabi_attribute 30, 4
  11              		.eabi_attribute 34, 1
  12              		.eabi_attribute 18, 4
  13              		.thumb
  14              		.syntax unified
  15              		.file	"Maximum_Peak_Detector_B_Sample_Hold_PM.c"
  16              		.text
  17              	.Ltext0:
  18              		.cfi_sections	.debug_frame
  19              		.section	.text.Maximum_Peak_Detector_B_Sample_Hold_SaveConfig,"ax",%progbits
  20              		.align	1
  21              		.global	Maximum_Peak_Detector_B_Sample_Hold_SaveConfig
  22              		.thumb
  23              		.thumb_func
  24              		.type	Maximum_Peak_Detector_B_Sample_Hold_SaveConfig, %function
  25              	Maximum_Peak_Detector_B_Sample_Hold_SaveConfig:
  26              	.LFB5:
  27              		.cfi_startproc
  28              		@ args = 0, pretend = 0, frame = 0
  29              		@ frame_needed = 0, uses_anonymous_args = 0
  30              		@ link register save eliminated.
  31 0000 7047     		bx	lr
  32              		.cfi_endproc
  33              	.LFE5:
  34              		.size	Maximum_Peak_Detector_B_Sample_Hold_SaveConfig, .-Maximum_Peak_Detector_B_Sample_Hold_SaveCo
  35              		.section	.text.Maximum_Peak_Detector_B_Sample_Hold_RestoreConfig,"ax",%progbits
  36              		.align	1
  37              		.global	Maximum_Peak_Detector_B_Sample_Hold_RestoreConfig
  38              		.thumb
  39              		.thumb_func
  40              		.type	Maximum_Peak_Detector_B_Sample_Hold_RestoreConfig, %function
  41              	Maximum_Peak_Detector_B_Sample_Hold_RestoreConfig:
  42              	.LFB1:
  43              		.file 1 "Generated_Source\\PSoC5\\Maximum_Peak_Detector_B_Sample_Hold_PM.c"
   1:Generated_Source\PSoC5/Maximum_Peak_Detector_B_Sample_Hold_PM.c **** /*******************************************************************************
   2:Generated_Source\PSoC5/Maximum_Peak_Detector_B_Sample_Hold_PM.c **** * File Name: Maximum_Peak_Detector_B_Sample_Hold_PM.c  
   3:Generated_Source\PSoC5/Maximum_Peak_Detector_B_Sample_Hold_PM.c **** * Version 2.0
   4:Generated_Source\PSoC5/Maximum_Peak_Detector_B_Sample_Hold_PM.c **** *
   5:Generated_Source\PSoC5/Maximum_Peak_Detector_B_Sample_Hold_PM.c **** * Description:
   6:Generated_Source\PSoC5/Maximum_Peak_Detector_B_Sample_Hold_PM.c **** *  This file provides the power manager source code to the API for 
   7:Generated_Source\PSoC5/Maximum_Peak_Detector_B_Sample_Hold_PM.c **** *  the MIXER component.
   8:Generated_Source\PSoC5/Maximum_Peak_Detector_B_Sample_Hold_PM.c **** *
   9:Generated_Source\PSoC5/Maximum_Peak_Detector_B_Sample_Hold_PM.c **** * Note:
  10:Generated_Source\PSoC5/Maximum_Peak_Detector_B_Sample_Hold_PM.c **** *
  11:Generated_Source\PSoC5/Maximum_Peak_Detector_B_Sample_Hold_PM.c **** *******************************************************************************
  12:Generated_Source\PSoC5/Maximum_Peak_Detector_B_Sample_Hold_PM.c **** * Copyright 2008-2012, Cypress Semiconductor Corporation.  All rights reserved.
  13:Generated_Source\PSoC5/Maximum_Peak_Detector_B_Sample_Hold_PM.c **** * You may use this file only in accordance with the license, terms, conditions, 
  14:Generated_Source\PSoC5/Maximum_Peak_Detector_B_Sample_Hold_PM.c **** * disclaimers, and limitations in the end user license agreement accompanying 
ARM GAS  C:\Users\ALEXAN~1\AppData\Local\Temp\ccA8ruZM.s 			page 2


  15:Generated_Source\PSoC5/Maximum_Peak_Detector_B_Sample_Hold_PM.c **** * the software package with which this file was provided.
  16:Generated_Source\PSoC5/Maximum_Peak_Detector_B_Sample_Hold_PM.c **** *******************************************************************************/
  17:Generated_Source\PSoC5/Maximum_Peak_Detector_B_Sample_Hold_PM.c **** 
  18:Generated_Source\PSoC5/Maximum_Peak_Detector_B_Sample_Hold_PM.c **** #include "Maximum_Peak_Detector_B_Sample_Hold.h"
  19:Generated_Source\PSoC5/Maximum_Peak_Detector_B_Sample_Hold_PM.c **** 
  20:Generated_Source\PSoC5/Maximum_Peak_Detector_B_Sample_Hold_PM.c **** static Maximum_Peak_Detector_B_Sample_Hold_backupStruct  Maximum_Peak_Detector_B_Sample_Hold_backup
  21:Generated_Source\PSoC5/Maximum_Peak_Detector_B_Sample_Hold_PM.c **** 
  22:Generated_Source\PSoC5/Maximum_Peak_Detector_B_Sample_Hold_PM.c **** 
  23:Generated_Source\PSoC5/Maximum_Peak_Detector_B_Sample_Hold_PM.c **** /*******************************************************************************
  24:Generated_Source\PSoC5/Maximum_Peak_Detector_B_Sample_Hold_PM.c **** * Function Name: Maximum_Peak_Detector_B_Sample_Hold_SaveConfig
  25:Generated_Source\PSoC5/Maximum_Peak_Detector_B_Sample_Hold_PM.c **** ********************************************************************************
  26:Generated_Source\PSoC5/Maximum_Peak_Detector_B_Sample_Hold_PM.c **** *
  27:Generated_Source\PSoC5/Maximum_Peak_Detector_B_Sample_Hold_PM.c **** * Summary:
  28:Generated_Source\PSoC5/Maximum_Peak_Detector_B_Sample_Hold_PM.c **** *  Saves the current user configuration.
  29:Generated_Source\PSoC5/Maximum_Peak_Detector_B_Sample_Hold_PM.c **** *  
  30:Generated_Source\PSoC5/Maximum_Peak_Detector_B_Sample_Hold_PM.c **** * Parameters:  
  31:Generated_Source\PSoC5/Maximum_Peak_Detector_B_Sample_Hold_PM.c **** *  void.
  32:Generated_Source\PSoC5/Maximum_Peak_Detector_B_Sample_Hold_PM.c **** *
  33:Generated_Source\PSoC5/Maximum_Peak_Detector_B_Sample_Hold_PM.c **** * Return: 
  34:Generated_Source\PSoC5/Maximum_Peak_Detector_B_Sample_Hold_PM.c **** *  void.
  35:Generated_Source\PSoC5/Maximum_Peak_Detector_B_Sample_Hold_PM.c **** *
  36:Generated_Source\PSoC5/Maximum_Peak_Detector_B_Sample_Hold_PM.c **** *******************************************************************************/
  37:Generated_Source\PSoC5/Maximum_Peak_Detector_B_Sample_Hold_PM.c **** void Maximum_Peak_Detector_B_Sample_Hold_SaveConfig(void) 
  38:Generated_Source\PSoC5/Maximum_Peak_Detector_B_Sample_Hold_PM.c **** {
  39:Generated_Source\PSoC5/Maximum_Peak_Detector_B_Sample_Hold_PM.c ****     /* Nothing to save before entering into sleep mode as all the registers used 
  40:Generated_Source\PSoC5/Maximum_Peak_Detector_B_Sample_Hold_PM.c ****        here are retension registers. */
  41:Generated_Source\PSoC5/Maximum_Peak_Detector_B_Sample_Hold_PM.c **** }
  42:Generated_Source\PSoC5/Maximum_Peak_Detector_B_Sample_Hold_PM.c **** 
  43:Generated_Source\PSoC5/Maximum_Peak_Detector_B_Sample_Hold_PM.c **** 
  44:Generated_Source\PSoC5/Maximum_Peak_Detector_B_Sample_Hold_PM.c **** /*******************************************************************************
  45:Generated_Source\PSoC5/Maximum_Peak_Detector_B_Sample_Hold_PM.c **** * Function Name: Maximum_Peak_Detector_B_Sample_Hold_RestoreConfig
  46:Generated_Source\PSoC5/Maximum_Peak_Detector_B_Sample_Hold_PM.c **** ********************************************************************************
  47:Generated_Source\PSoC5/Maximum_Peak_Detector_B_Sample_Hold_PM.c **** *
  48:Generated_Source\PSoC5/Maximum_Peak_Detector_B_Sample_Hold_PM.c **** * Summary:
  49:Generated_Source\PSoC5/Maximum_Peak_Detector_B_Sample_Hold_PM.c **** *  Restores the current user configuration.
  50:Generated_Source\PSoC5/Maximum_Peak_Detector_B_Sample_Hold_PM.c **** *
  51:Generated_Source\PSoC5/Maximum_Peak_Detector_B_Sample_Hold_PM.c **** * Parameters:  
  52:Generated_Source\PSoC5/Maximum_Peak_Detector_B_Sample_Hold_PM.c **** *  void.
  53:Generated_Source\PSoC5/Maximum_Peak_Detector_B_Sample_Hold_PM.c **** *
  54:Generated_Source\PSoC5/Maximum_Peak_Detector_B_Sample_Hold_PM.c **** * Return: 
  55:Generated_Source\PSoC5/Maximum_Peak_Detector_B_Sample_Hold_PM.c **** *  void
  56:Generated_Source\PSoC5/Maximum_Peak_Detector_B_Sample_Hold_PM.c **** *
  57:Generated_Source\PSoC5/Maximum_Peak_Detector_B_Sample_Hold_PM.c **** *******************************************************************************/
  58:Generated_Source\PSoC5/Maximum_Peak_Detector_B_Sample_Hold_PM.c **** void Maximum_Peak_Detector_B_Sample_Hold_RestoreConfig(void) 
  59:Generated_Source\PSoC5/Maximum_Peak_Detector_B_Sample_Hold_PM.c **** {
  44              		.loc 1 59 0
  45              		.cfi_startproc
  46              		@ args = 0, pretend = 0, frame = 0
  47              		@ frame_needed = 0, uses_anonymous_args = 0
  48              		@ link register save eliminated.
  49 0000 7047     		bx	lr
  50              		.cfi_endproc
  51              	.LFE1:
  52              		.size	Maximum_Peak_Detector_B_Sample_Hold_RestoreConfig, .-Maximum_Peak_Detector_B_Sample_Hold_Res
  53              		.section	.text.Maximum_Peak_Detector_B_Sample_Hold_Sleep,"ax",%progbits
  54              		.align	1
  55              		.global	Maximum_Peak_Detector_B_Sample_Hold_Sleep
ARM GAS  C:\Users\ALEXAN~1\AppData\Local\Temp\ccA8ruZM.s 			page 3


  56              		.thumb
  57              		.thumb_func
  58              		.type	Maximum_Peak_Detector_B_Sample_Hold_Sleep, %function
  59              	Maximum_Peak_Detector_B_Sample_Hold_Sleep:
  60              	.LFB2:
  60:Generated_Source\PSoC5/Maximum_Peak_Detector_B_Sample_Hold_PM.c ****     /* Nothing to restore */
  61:Generated_Source\PSoC5/Maximum_Peak_Detector_B_Sample_Hold_PM.c **** }
  62:Generated_Source\PSoC5/Maximum_Peak_Detector_B_Sample_Hold_PM.c **** 
  63:Generated_Source\PSoC5/Maximum_Peak_Detector_B_Sample_Hold_PM.c **** 
  64:Generated_Source\PSoC5/Maximum_Peak_Detector_B_Sample_Hold_PM.c **** /*******************************************************************************
  65:Generated_Source\PSoC5/Maximum_Peak_Detector_B_Sample_Hold_PM.c **** * Function Name: Maximum_Peak_Detector_B_Sample_Hold_Sleep
  66:Generated_Source\PSoC5/Maximum_Peak_Detector_B_Sample_Hold_PM.c **** ********************************************************************************
  67:Generated_Source\PSoC5/Maximum_Peak_Detector_B_Sample_Hold_PM.c **** *
  68:Generated_Source\PSoC5/Maximum_Peak_Detector_B_Sample_Hold_PM.c **** * Summary:
  69:Generated_Source\PSoC5/Maximum_Peak_Detector_B_Sample_Hold_PM.c **** *  Disables block's operation and saves its configuration. Should be called 
  70:Generated_Source\PSoC5/Maximum_Peak_Detector_B_Sample_Hold_PM.c **** *  just prior to entering sleep.
  71:Generated_Source\PSoC5/Maximum_Peak_Detector_B_Sample_Hold_PM.c **** *  
  72:Generated_Source\PSoC5/Maximum_Peak_Detector_B_Sample_Hold_PM.c **** * Parameters:  
  73:Generated_Source\PSoC5/Maximum_Peak_Detector_B_Sample_Hold_PM.c **** *  None
  74:Generated_Source\PSoC5/Maximum_Peak_Detector_B_Sample_Hold_PM.c **** *
  75:Generated_Source\PSoC5/Maximum_Peak_Detector_B_Sample_Hold_PM.c **** * Return: 
  76:Generated_Source\PSoC5/Maximum_Peak_Detector_B_Sample_Hold_PM.c **** *  None
  77:Generated_Source\PSoC5/Maximum_Peak_Detector_B_Sample_Hold_PM.c **** *
  78:Generated_Source\PSoC5/Maximum_Peak_Detector_B_Sample_Hold_PM.c **** * Global variables:
  79:Generated_Source\PSoC5/Maximum_Peak_Detector_B_Sample_Hold_PM.c **** *  Maximum_Peak_Detector_B_Sample_Hold_backup:  The structure field 'enableState' is modified 
  80:Generated_Source\PSoC5/Maximum_Peak_Detector_B_Sample_Hold_PM.c **** *  depending on the enable state of the block before entering to sleep mode.
  81:Generated_Source\PSoC5/Maximum_Peak_Detector_B_Sample_Hold_PM.c **** *
  82:Generated_Source\PSoC5/Maximum_Peak_Detector_B_Sample_Hold_PM.c **** *******************************************************************************/
  83:Generated_Source\PSoC5/Maximum_Peak_Detector_B_Sample_Hold_PM.c **** void Maximum_Peak_Detector_B_Sample_Hold_Sleep(void) 
  84:Generated_Source\PSoC5/Maximum_Peak_Detector_B_Sample_Hold_PM.c **** {
  61              		.loc 1 84 0
  62              		.cfi_startproc
  63              		@ args = 0, pretend = 0, frame = 0
  64              		@ frame_needed = 0, uses_anonymous_args = 0
  65              		@ link register save eliminated.
  85:Generated_Source\PSoC5/Maximum_Peak_Detector_B_Sample_Hold_PM.c ****     /* Save Mixer enable state */
  86:Generated_Source\PSoC5/Maximum_Peak_Detector_B_Sample_Hold_PM.c ****     if((Maximum_Peak_Detector_B_Sample_Hold_PM_ACT_CFG_REG & Maximum_Peak_Detector_B_Sample_Hold_AC
  66              		.loc 1 86 0
  67 0000 054B     		ldr	r3, .L6
  68 0002 064A     		ldr	r2, .L6+4
  69 0004 1B78     		ldrb	r3, [r3]	@ zero_extendqisi2
  70 0006 13F00103 		ands	r3, r3, #1
  71 000a 03D0     		beq	.L4
  87:Generated_Source\PSoC5/Maximum_Peak_Detector_B_Sample_Hold_PM.c ****     {
  88:Generated_Source\PSoC5/Maximum_Peak_Detector_B_Sample_Hold_PM.c ****         /* Component is enabled */
  89:Generated_Source\PSoC5/Maximum_Peak_Detector_B_Sample_Hold_PM.c ****         Maximum_Peak_Detector_B_Sample_Hold_backup.enableState = 1u;
  72              		.loc 1 89 0
  73 000c 0123     		movs	r3, #1
  74 000e 1370     		strb	r3, [r2]
  90:Generated_Source\PSoC5/Maximum_Peak_Detector_B_Sample_Hold_PM.c ****         /* Stop the configuration */
  91:Generated_Source\PSoC5/Maximum_Peak_Detector_B_Sample_Hold_PM.c ****         Maximum_Peak_Detector_B_Sample_Hold_Stop();
  75              		.loc 1 91 0
  76 0010 FFF7FEBF 		b	Maximum_Peak_Detector_B_Sample_Hold_Stop
  77              	.LVL0:
  78              	.L4:
  92:Generated_Source\PSoC5/Maximum_Peak_Detector_B_Sample_Hold_PM.c ****     }
  93:Generated_Source\PSoC5/Maximum_Peak_Detector_B_Sample_Hold_PM.c ****     else
ARM GAS  C:\Users\ALEXAN~1\AppData\Local\Temp\ccA8ruZM.s 			page 4


  94:Generated_Source\PSoC5/Maximum_Peak_Detector_B_Sample_Hold_PM.c ****     {
  95:Generated_Source\PSoC5/Maximum_Peak_Detector_B_Sample_Hold_PM.c ****         /* Component is disabled */
  96:Generated_Source\PSoC5/Maximum_Peak_Detector_B_Sample_Hold_PM.c ****         Maximum_Peak_Detector_B_Sample_Hold_backup.enableState = 0u;
  79              		.loc 1 96 0
  80 0014 1370     		strb	r3, [r2]
  81 0016 7047     		bx	lr
  82              	.L7:
  83              		.align	2
  84              	.L6:
  85 0018 A9430040 		.word	1073759145
  86 001c 00000000 		.word	.LANCHOR0
  87              		.cfi_endproc
  88              	.LFE2:
  89              		.size	Maximum_Peak_Detector_B_Sample_Hold_Sleep, .-Maximum_Peak_Detector_B_Sample_Hold_Sleep
  90              		.section	.text.Maximum_Peak_Detector_B_Sample_Hold_Wakeup,"ax",%progbits
  91              		.align	1
  92              		.global	Maximum_Peak_Detector_B_Sample_Hold_Wakeup
  93              		.thumb
  94              		.thumb_func
  95              		.type	Maximum_Peak_Detector_B_Sample_Hold_Wakeup, %function
  96              	Maximum_Peak_Detector_B_Sample_Hold_Wakeup:
  97              	.LFB3:
  97:Generated_Source\PSoC5/Maximum_Peak_Detector_B_Sample_Hold_PM.c ****     }
  98:Generated_Source\PSoC5/Maximum_Peak_Detector_B_Sample_Hold_PM.c ****     /* Saves the user configuration */
  99:Generated_Source\PSoC5/Maximum_Peak_Detector_B_Sample_Hold_PM.c ****     Maximum_Peak_Detector_B_Sample_Hold_SaveConfig();
 100:Generated_Source\PSoC5/Maximum_Peak_Detector_B_Sample_Hold_PM.c **** }
 101:Generated_Source\PSoC5/Maximum_Peak_Detector_B_Sample_Hold_PM.c **** 
 102:Generated_Source\PSoC5/Maximum_Peak_Detector_B_Sample_Hold_PM.c **** 
 103:Generated_Source\PSoC5/Maximum_Peak_Detector_B_Sample_Hold_PM.c **** /*******************************************************************************
 104:Generated_Source\PSoC5/Maximum_Peak_Detector_B_Sample_Hold_PM.c **** * Function Name: Maximum_Peak_Detector_B_Sample_Hold_Wakeup
 105:Generated_Source\PSoC5/Maximum_Peak_Detector_B_Sample_Hold_PM.c **** ********************************************************************************
 106:Generated_Source\PSoC5/Maximum_Peak_Detector_B_Sample_Hold_PM.c **** *
 107:Generated_Source\PSoC5/Maximum_Peak_Detector_B_Sample_Hold_PM.c **** * Summary:
 108:Generated_Source\PSoC5/Maximum_Peak_Detector_B_Sample_Hold_PM.c **** *  Enables block's operation and restores its configuration. Should be called
 109:Generated_Source\PSoC5/Maximum_Peak_Detector_B_Sample_Hold_PM.c **** *  just after awaking from sleep.
 110:Generated_Source\PSoC5/Maximum_Peak_Detector_B_Sample_Hold_PM.c **** *  
 111:Generated_Source\PSoC5/Maximum_Peak_Detector_B_Sample_Hold_PM.c **** * Parameters:  
 112:Generated_Source\PSoC5/Maximum_Peak_Detector_B_Sample_Hold_PM.c **** *  None
 113:Generated_Source\PSoC5/Maximum_Peak_Detector_B_Sample_Hold_PM.c **** *
 114:Generated_Source\PSoC5/Maximum_Peak_Detector_B_Sample_Hold_PM.c **** * Return: 
 115:Generated_Source\PSoC5/Maximum_Peak_Detector_B_Sample_Hold_PM.c **** *  void
 116:Generated_Source\PSoC5/Maximum_Peak_Detector_B_Sample_Hold_PM.c **** *
 117:Generated_Source\PSoC5/Maximum_Peak_Detector_B_Sample_Hold_PM.c **** * Global variables:
 118:Generated_Source\PSoC5/Maximum_Peak_Detector_B_Sample_Hold_PM.c **** *  Maximum_Peak_Detector_B_Sample_Hold_backup:  The structure field 'enableState' is used to 
 119:Generated_Source\PSoC5/Maximum_Peak_Detector_B_Sample_Hold_PM.c **** *  restore the enable state of block after wakeup from sleep mode.
 120:Generated_Source\PSoC5/Maximum_Peak_Detector_B_Sample_Hold_PM.c **** *
 121:Generated_Source\PSoC5/Maximum_Peak_Detector_B_Sample_Hold_PM.c **** *******************************************************************************/
 122:Generated_Source\PSoC5/Maximum_Peak_Detector_B_Sample_Hold_PM.c **** void Maximum_Peak_Detector_B_Sample_Hold_Wakeup(void) 
 123:Generated_Source\PSoC5/Maximum_Peak_Detector_B_Sample_Hold_PM.c **** {
  98              		.loc 1 123 0
  99              		.cfi_startproc
 100              		@ args = 0, pretend = 0, frame = 0
 101              		@ frame_needed = 0, uses_anonymous_args = 0
 102              		@ link register save eliminated.
 124:Generated_Source\PSoC5/Maximum_Peak_Detector_B_Sample_Hold_PM.c ****     /* Restore the user configuration */
 125:Generated_Source\PSoC5/Maximum_Peak_Detector_B_Sample_Hold_PM.c ****     Maximum_Peak_Detector_B_Sample_Hold_RestoreConfig();
 126:Generated_Source\PSoC5/Maximum_Peak_Detector_B_Sample_Hold_PM.c ****     
ARM GAS  C:\Users\ALEXAN~1\AppData\Local\Temp\ccA8ruZM.s 			page 5


 127:Generated_Source\PSoC5/Maximum_Peak_Detector_B_Sample_Hold_PM.c ****     /* Enable's the component operation */
 128:Generated_Source\PSoC5/Maximum_Peak_Detector_B_Sample_Hold_PM.c ****     if(Maximum_Peak_Detector_B_Sample_Hold_backup.enableState == 1u)
 103              		.loc 1 128 0
 104 0000 034B     		ldr	r3, .L10
 105 0002 1B78     		ldrb	r3, [r3]	@ zero_extendqisi2
 106 0004 012B     		cmp	r3, #1
 107 0006 01D1     		bne	.L8
 129:Generated_Source\PSoC5/Maximum_Peak_Detector_B_Sample_Hold_PM.c ****     {
 130:Generated_Source\PSoC5/Maximum_Peak_Detector_B_Sample_Hold_PM.c ****         Maximum_Peak_Detector_B_Sample_Hold_Enable();
 108              		.loc 1 130 0
 109 0008 FFF7FEBF 		b	Maximum_Peak_Detector_B_Sample_Hold_Enable
 110              	.LVL1:
 111              	.L8:
 112 000c 7047     		bx	lr
 113              	.L11:
 114 000e 00BF     		.align	2
 115              	.L10:
 116 0010 00000000 		.word	.LANCHOR0
 117              		.cfi_endproc
 118              	.LFE3:
 119              		.size	Maximum_Peak_Detector_B_Sample_Hold_Wakeup, .-Maximum_Peak_Detector_B_Sample_Hold_Wakeup
 120              		.bss
 121              		.set	.LANCHOR0,. + 0
 122              		.type	Maximum_Peak_Detector_B_Sample_Hold_backup, %object
 123              		.size	Maximum_Peak_Detector_B_Sample_Hold_backup, 4
 124              	Maximum_Peak_Detector_B_Sample_Hold_backup:
 125 0000 00000000 		.space	4
 126              		.text
 127              	.Letext0:
 128              		.file 2 "Generated_Source\\PSoC5\\cytypes.h"
 129              		.file 3 "Generated_Source\\PSoC5\\Maximum_Peak_Detector_B_Sample_Hold.h"