ARM GAS  C:\Users\rens_\AppData\Local\Temp\ccX3tJar.s 			page 1


   1              		.syntax unified
   2              		.cpu cortex-m3
   3              		.fpu softvfp
   4              		.eabi_attribute 20, 1
   5              		.eabi_attribute 21, 1
   6              		.eabi_attribute 23, 3
   7              		.eabi_attribute 24, 1
   8              		.eabi_attribute 25, 1
   9              		.eabi_attribute 26, 1
  10              		.eabi_attribute 30, 4
  11              		.eabi_attribute 34, 1
  12              		.eabi_attribute 18, 4
  13              		.thumb
  14              		.syntax unified
  15              		.file	"Maximum_Peak_Detector_A.c"
  16              		.text
  17              	.Ltext0:
  18              		.cfi_sections	.debug_frame
  19              		.section	.text.Maximum_Peak_Detector_A_Start,"ax",%progbits
  20              		.align	1
  21              		.global	Maximum_Peak_Detector_A_Start
  22              		.thumb
  23              		.thumb_func
  24              		.type	Maximum_Peak_Detector_A_Start, %function
  25              	Maximum_Peak_Detector_A_Start:
  26              	.LFB0:
  27              		.file 1 "Generated_Source\\PSoC5\\Maximum_Peak_Detector_A.c"
   1:Generated_Source\PSoC5/Maximum_Peak_Detector_A.c **** /******************************************************************************
   2:Generated_Source\PSoC5/Maximum_Peak_Detector_A.c **** * File Name: Maximum_Peak_Detector_A.c
   3:Generated_Source\PSoC5/Maximum_Peak_Detector_A.c **** * Version 1.0
   4:Generated_Source\PSoC5/Maximum_Peak_Detector_A.c **** *
   5:Generated_Source\PSoC5/Maximum_Peak_Detector_A.c **** *  Description: 
   6:Generated_Source\PSoC5/Maximum_Peak_Detector_A.c **** *   API for controlling the maximum peak detector.
   7:Generated_Source\PSoC5/Maximum_Peak_Detector_A.c **** *
   8:Generated_Source\PSoC5/Maximum_Peak_Detector_A.c **** *
   9:Generated_Source\PSoC5/Maximum_Peak_Detector_A.c **** ********************************************************************************
  10:Generated_Source\PSoC5/Maximum_Peak_Detector_A.c **** * Copyright 2008-2010, Cypress Semiconductor Corporation.  All rights reserved.
  11:Generated_Source\PSoC5/Maximum_Peak_Detector_A.c **** * You may use this file only in accordance with the license, terms, conditions, 
  12:Generated_Source\PSoC5/Maximum_Peak_Detector_A.c **** * disclaimers, and limitations in the end user license agreement accompanying 
  13:Generated_Source\PSoC5/Maximum_Peak_Detector_A.c **** * the software package with which this file was provided.
  14:Generated_Source\PSoC5/Maximum_Peak_Detector_A.c **** ********************************************************************************/
  15:Generated_Source\PSoC5/Maximum_Peak_Detector_A.c **** 
  16:Generated_Source\PSoC5/Maximum_Peak_Detector_A.c **** #include <CYDEVICE.H>
  17:Generated_Source\PSoC5/Maximum_Peak_Detector_A.c **** #include "Maximum_Peak_Detector_A.h"
  18:Generated_Source\PSoC5/Maximum_Peak_Detector_A.c **** #include "Maximum_Peak_Detector_A_Comp_1.h"
  19:Generated_Source\PSoC5/Maximum_Peak_Detector_A.c **** #include "Maximum_Peak_Detector_A_Sample_Hold.h"
  20:Generated_Source\PSoC5/Maximum_Peak_Detector_A.c **** 
  21:Generated_Source\PSoC5/Maximum_Peak_Detector_A.c **** /*******************************************************************************
  22:Generated_Source\PSoC5/Maximum_Peak_Detector_A.c **** * Function Name: Maximum_Peak_Detector_A_Start
  23:Generated_Source\PSoC5/Maximum_Peak_Detector_A.c **** ********************************************************************************
  24:Generated_Source\PSoC5/Maximum_Peak_Detector_A.c **** * Summary:
  25:Generated_Source\PSoC5/Maximum_Peak_Detector_A.c **** *   Enables the peak detector component.
  26:Generated_Source\PSoC5/Maximum_Peak_Detector_A.c **** *
  27:Generated_Source\PSoC5/Maximum_Peak_Detector_A.c **** *
  28:Generated_Source\PSoC5/Maximum_Peak_Detector_A.c **** * Parameters:
  29:Generated_Source\PSoC5/Maximum_Peak_Detector_A.c **** *   void.
  30:Generated_Source\PSoC5/Maximum_Peak_Detector_A.c **** *
ARM GAS  C:\Users\rens_\AppData\Local\Temp\ccX3tJar.s 			page 2


  31:Generated_Source\PSoC5/Maximum_Peak_Detector_A.c **** * Return:
  32:Generated_Source\PSoC5/Maximum_Peak_Detector_A.c **** *   void.
  33:Generated_Source\PSoC5/Maximum_Peak_Detector_A.c **** *   
  34:Generated_Source\PSoC5/Maximum_Peak_Detector_A.c **** *
  35:Generated_Source\PSoC5/Maximum_Peak_Detector_A.c **** *******************************************************************************/
  36:Generated_Source\PSoC5/Maximum_Peak_Detector_A.c **** void Maximum_Peak_Detector_A_Start(void)
  37:Generated_Source\PSoC5/Maximum_Peak_Detector_A.c **** {
  28              		.loc 1 37 0
  29              		.cfi_startproc
  30              		@ args = 0, pretend = 0, frame = 0
  31              		@ frame_needed = 0, uses_anonymous_args = 0
  32 0000 08B5     		push	{r3, lr}
  33              		.cfi_def_cfa_offset 8
  34              		.cfi_offset 3, -8
  35              		.cfi_offset 14, -4
  38:Generated_Source\PSoC5/Maximum_Peak_Detector_A.c **** 	Maximum_Peak_Detector_A_Sample_Hold_Start();
  36              		.loc 1 38 0
  37 0002 FFF7FEFF 		bl	Maximum_Peak_Detector_A_Sample_Hold_Start
  38              	.LVL0:
  39:Generated_Source\PSoC5/Maximum_Peak_Detector_A.c **** 	Maximum_Peak_Detector_A_Comp_1_Start();
  40:Generated_Source\PSoC5/Maximum_Peak_Detector_A.c **** }
  39              		.loc 1 40 0
  40 0006 BDE80840 		pop	{r3, lr}
  41              		.cfi_restore 14
  42              		.cfi_restore 3
  43              		.cfi_def_cfa_offset 0
  39:Generated_Source\PSoC5/Maximum_Peak_Detector_A.c **** 	Maximum_Peak_Detector_A_Comp_1_Start();
  44              		.loc 1 39 0
  45 000a FFF7FEBF 		b	Maximum_Peak_Detector_A_Comp_1_Start
  46              	.LVL1:
  47              		.cfi_endproc
  48              	.LFE0:
  49              		.size	Maximum_Peak_Detector_A_Start, .-Maximum_Peak_Detector_A_Start
  50              		.section	.text.Maximum_Peak_Detector_A_Stop,"ax",%progbits
  51              		.align	1
  52              		.global	Maximum_Peak_Detector_A_Stop
  53              		.thumb
  54              		.thumb_func
  55              		.type	Maximum_Peak_Detector_A_Stop, %function
  56              	Maximum_Peak_Detector_A_Stop:
  57              	.LFB1:
  41:Generated_Source\PSoC5/Maximum_Peak_Detector_A.c **** 
  42:Generated_Source\PSoC5/Maximum_Peak_Detector_A.c **** /*******************************************************************************
  43:Generated_Source\PSoC5/Maximum_Peak_Detector_A.c **** * Function Name: Maximum_Peak_Detector_A_Stop
  44:Generated_Source\PSoC5/Maximum_Peak_Detector_A.c **** ********************************************************************************
  45:Generated_Source\PSoC5/Maximum_Peak_Detector_A.c **** * Summary:
  46:Generated_Source\PSoC5/Maximum_Peak_Detector_A.c **** *   Disables the peak detector component.
  47:Generated_Source\PSoC5/Maximum_Peak_Detector_A.c **** *
  48:Generated_Source\PSoC5/Maximum_Peak_Detector_A.c **** *
  49:Generated_Source\PSoC5/Maximum_Peak_Detector_A.c **** * Parameters:
  50:Generated_Source\PSoC5/Maximum_Peak_Detector_A.c **** *   void.
  51:Generated_Source\PSoC5/Maximum_Peak_Detector_A.c **** *
  52:Generated_Source\PSoC5/Maximum_Peak_Detector_A.c **** * Return:
  53:Generated_Source\PSoC5/Maximum_Peak_Detector_A.c **** *   void.
  54:Generated_Source\PSoC5/Maximum_Peak_Detector_A.c **** *   
  55:Generated_Source\PSoC5/Maximum_Peak_Detector_A.c **** *
  56:Generated_Source\PSoC5/Maximum_Peak_Detector_A.c **** *******************************************************************************/
ARM GAS  C:\Users\rens_\AppData\Local\Temp\ccX3tJar.s 			page 3


  57:Generated_Source\PSoC5/Maximum_Peak_Detector_A.c **** void Maximum_Peak_Detector_A_Stop(void)
  58:Generated_Source\PSoC5/Maximum_Peak_Detector_A.c **** {
  58              		.loc 1 58 0
  59              		.cfi_startproc
  60              		@ args = 0, pretend = 0, frame = 0
  61              		@ frame_needed = 0, uses_anonymous_args = 0
  62 0000 08B5     		push	{r3, lr}
  63              		.cfi_def_cfa_offset 8
  64              		.cfi_offset 3, -8
  65              		.cfi_offset 14, -4
  59:Generated_Source\PSoC5/Maximum_Peak_Detector_A.c **** 	Maximum_Peak_Detector_A_Sample_Hold_Stop();
  66              		.loc 1 59 0
  67 0002 FFF7FEFF 		bl	Maximum_Peak_Detector_A_Sample_Hold_Stop
  68              	.LVL2:
  60:Generated_Source\PSoC5/Maximum_Peak_Detector_A.c **** 	Maximum_Peak_Detector_A_Comp_1_Stop();
  61:Generated_Source\PSoC5/Maximum_Peak_Detector_A.c **** }
  69              		.loc 1 61 0
  70 0006 BDE80840 		pop	{r3, lr}
  71              		.cfi_restore 14
  72              		.cfi_restore 3
  73              		.cfi_def_cfa_offset 0
  60:Generated_Source\PSoC5/Maximum_Peak_Detector_A.c **** 	Maximum_Peak_Detector_A_Comp_1_Stop();
  74              		.loc 1 60 0
  75 000a FFF7FEBF 		b	Maximum_Peak_Detector_A_Comp_1_Stop
  76              	.LVL3:
  77              		.cfi_endproc
  78              	.LFE1:
  79              		.size	Maximum_Peak_Detector_A_Stop, .-Maximum_Peak_Detector_A_Stop
  80              		.text
  81              	.Letext0:
  82              		.file 2 "Generated_Source\\PSoC5\\Maximum_Peak_Detector_A_Sample_Hold.h"
  83              		.file 3 "Generated_Source\\PSoC5\\Maximum_Peak_Detector_A_Comp_1.h"