ARM GAS  C:\Users\ALEXAN~1\AppData\Local\Temp\cc2tNuml.s 			page 1


   1              		.syntax unified
   2              		.cpu cortex-m3
   3              		.fpu softvfp
   4              		.eabi_attribute 20, 1
   5              		.eabi_attribute 21, 1
   6              		.eabi_attribute 23, 3
   7              		.eabi_attribute 24, 1
   8              		.eabi_attribute 25, 1
   9              		.eabi_attribute 26, 1
  10              		.eabi_attribute 30, 4
  11              		.eabi_attribute 34, 1
  12              		.eabi_attribute 18, 4
  13              		.thumb
  14              		.syntax unified
  15              		.file	"Maximum_Peak_Detector_A_Sample_Hold.c"
  16              		.text
  17              	.Ltext0:
  18              		.cfi_sections	.debug_frame
  19              		.section	.text.Maximum_Peak_Detector_A_Sample_Hold_Enable,"ax",%progbits
  20              		.align	1
  21              		.global	Maximum_Peak_Detector_A_Sample_Hold_Enable
  22              		.thumb
  23              		.thumb_func
  24              		.type	Maximum_Peak_Detector_A_Sample_Hold_Enable, %function
  25              	Maximum_Peak_Detector_A_Sample_Hold_Enable:
  26              	.LFB1:
  27              		.file 1 "Generated_Source\\PSoC5\\Maximum_Peak_Detector_A_Sample_Hold.c"
   1:Generated_Source\PSoC5/Maximum_Peak_Detector_A_Sample_Hold.c **** /*******************************************************************************
   2:Generated_Source\PSoC5/Maximum_Peak_Detector_A_Sample_Hold.c **** * File Name: Maximum_Peak_Detector_A_Sample_Hold.c  
   3:Generated_Source\PSoC5/Maximum_Peak_Detector_A_Sample_Hold.c **** * Version 2.0
   4:Generated_Source\PSoC5/Maximum_Peak_Detector_A_Sample_Hold.c **** *
   5:Generated_Source\PSoC5/Maximum_Peak_Detector_A_Sample_Hold.c **** * Description:
   6:Generated_Source\PSoC5/Maximum_Peak_Detector_A_Sample_Hold.c **** *  This file provides the source code to the API for the MIXER Component.
   7:Generated_Source\PSoC5/Maximum_Peak_Detector_A_Sample_Hold.c **** *
   8:Generated_Source\PSoC5/Maximum_Peak_Detector_A_Sample_Hold.c **** * Note:
   9:Generated_Source\PSoC5/Maximum_Peak_Detector_A_Sample_Hold.c **** *
  10:Generated_Source\PSoC5/Maximum_Peak_Detector_A_Sample_Hold.c **** *******************************************************************************
  11:Generated_Source\PSoC5/Maximum_Peak_Detector_A_Sample_Hold.c **** * Copyright 2008-2012, Cypress Semiconductor Corporation.  All rights reserved.
  12:Generated_Source\PSoC5/Maximum_Peak_Detector_A_Sample_Hold.c **** * You may use this file only in accordance with the license, terms, conditions, 
  13:Generated_Source\PSoC5/Maximum_Peak_Detector_A_Sample_Hold.c **** * disclaimers, and limitations in the end user license agreement accompanying 
  14:Generated_Source\PSoC5/Maximum_Peak_Detector_A_Sample_Hold.c **** * the software package with which this file was provided.
  15:Generated_Source\PSoC5/Maximum_Peak_Detector_A_Sample_Hold.c **** *******************************************************************************/
  16:Generated_Source\PSoC5/Maximum_Peak_Detector_A_Sample_Hold.c **** 
  17:Generated_Source\PSoC5/Maximum_Peak_Detector_A_Sample_Hold.c **** #include "Maximum_Peak_Detector_A_Sample_Hold.h"
  18:Generated_Source\PSoC5/Maximum_Peak_Detector_A_Sample_Hold.c **** 
  19:Generated_Source\PSoC5/Maximum_Peak_Detector_A_Sample_Hold.c **** #if (!CY_PSOC5A)
  20:Generated_Source\PSoC5/Maximum_Peak_Detector_A_Sample_Hold.c ****     #if (CYDEV_VARIABLE_VDDA == 1u)
  21:Generated_Source\PSoC5/Maximum_Peak_Detector_A_Sample_Hold.c ****         #include "CyScBoostClk.h"
  22:Generated_Source\PSoC5/Maximum_Peak_Detector_A_Sample_Hold.c ****     #endif /* (CYDEV_VARIABLE_VDDA == 1u) */
  23:Generated_Source\PSoC5/Maximum_Peak_Detector_A_Sample_Hold.c **** #endif /* (!CY_PSOC5A) */
  24:Generated_Source\PSoC5/Maximum_Peak_Detector_A_Sample_Hold.c **** 
  25:Generated_Source\PSoC5/Maximum_Peak_Detector_A_Sample_Hold.c **** #if (Maximum_Peak_Detector_A_Sample_Hold_LO_SOURCE == Maximum_Peak_Detector_A_Sample_Hold_LO_SOURCE
  26:Generated_Source\PSoC5/Maximum_Peak_Detector_A_Sample_Hold.c ****     #include "Maximum_Peak_Detector_A_Sample_Hold_aclk.h"
  27:Generated_Source\PSoC5/Maximum_Peak_Detector_A_Sample_Hold.c **** #endif /* Maximum_Peak_Detector_A_Sample_Hold_LO_SOURCE */
  28:Generated_Source\PSoC5/Maximum_Peak_Detector_A_Sample_Hold.c **** 
  29:Generated_Source\PSoC5/Maximum_Peak_Detector_A_Sample_Hold.c **** /* Fixed configuration of SC Block only performed once */
  30:Generated_Source\PSoC5/Maximum_Peak_Detector_A_Sample_Hold.c **** uint8 Maximum_Peak_Detector_A_Sample_Hold_initVar = 0u;
ARM GAS  C:\Users\ALEXAN~1\AppData\Local\Temp\cc2tNuml.s 			page 2


  31:Generated_Source\PSoC5/Maximum_Peak_Detector_A_Sample_Hold.c **** 
  32:Generated_Source\PSoC5/Maximum_Peak_Detector_A_Sample_Hold.c **** /* Only for PSoC5A */
  33:Generated_Source\PSoC5/Maximum_Peak_Detector_A_Sample_Hold.c **** #if (CY_PSOC5A)
  34:Generated_Source\PSoC5/Maximum_Peak_Detector_A_Sample_Hold.c ****     static Maximum_Peak_Detector_A_Sample_Hold_backupStruct Maximum_Peak_Detector_A_Sample_Hold_P5b
  35:Generated_Source\PSoC5/Maximum_Peak_Detector_A_Sample_Hold.c **** #endif /* CY_PSOC5A */
  36:Generated_Source\PSoC5/Maximum_Peak_Detector_A_Sample_Hold.c **** 
  37:Generated_Source\PSoC5/Maximum_Peak_Detector_A_Sample_Hold.c **** 
  38:Generated_Source\PSoC5/Maximum_Peak_Detector_A_Sample_Hold.c **** /*******************************************************************************
  39:Generated_Source\PSoC5/Maximum_Peak_Detector_A_Sample_Hold.c **** * Function Name: Maximum_Peak_Detector_A_Sample_Hold_Init
  40:Generated_Source\PSoC5/Maximum_Peak_Detector_A_Sample_Hold.c **** ********************************************************************************
  41:Generated_Source\PSoC5/Maximum_Peak_Detector_A_Sample_Hold.c **** *
  42:Generated_Source\PSoC5/Maximum_Peak_Detector_A_Sample_Hold.c **** * Summary:
  43:Generated_Source\PSoC5/Maximum_Peak_Detector_A_Sample_Hold.c **** *  Initialize component's parameters to the parameters set by user in the 
  44:Generated_Source\PSoC5/Maximum_Peak_Detector_A_Sample_Hold.c **** *  customizer of the component placed onto schematic. Usually called in 
  45:Generated_Source\PSoC5/Maximum_Peak_Detector_A_Sample_Hold.c **** *  Maximum_Peak_Detector_A_Sample_Hold_Start().
  46:Generated_Source\PSoC5/Maximum_Peak_Detector_A_Sample_Hold.c **** *
  47:Generated_Source\PSoC5/Maximum_Peak_Detector_A_Sample_Hold.c **** * Parameters:  
  48:Generated_Source\PSoC5/Maximum_Peak_Detector_A_Sample_Hold.c **** *  void
  49:Generated_Source\PSoC5/Maximum_Peak_Detector_A_Sample_Hold.c **** *
  50:Generated_Source\PSoC5/Maximum_Peak_Detector_A_Sample_Hold.c **** * Return: 
  51:Generated_Source\PSoC5/Maximum_Peak_Detector_A_Sample_Hold.c **** *  void
  52:Generated_Source\PSoC5/Maximum_Peak_Detector_A_Sample_Hold.c **** *
  53:Generated_Source\PSoC5/Maximum_Peak_Detector_A_Sample_Hold.c **** *******************************************************************************/
  54:Generated_Source\PSoC5/Maximum_Peak_Detector_A_Sample_Hold.c **** void Maximum_Peak_Detector_A_Sample_Hold_Init(void) 
  55:Generated_Source\PSoC5/Maximum_Peak_Detector_A_Sample_Hold.c **** {
  56:Generated_Source\PSoC5/Maximum_Peak_Detector_A_Sample_Hold.c ****     float LOf = Maximum_Peak_Detector_A_Sample_Hold_LO_CLOCK_FREQ;
  57:Generated_Source\PSoC5/Maximum_Peak_Detector_A_Sample_Hold.c ****     
  58:Generated_Source\PSoC5/Maximum_Peak_Detector_A_Sample_Hold.c ****     /* Configure SC Block based on selected Mixer type */
  59:Generated_Source\PSoC5/Maximum_Peak_Detector_A_Sample_Hold.c ****     /* Continuous Time (up) mixer */
  60:Generated_Source\PSoC5/Maximum_Peak_Detector_A_Sample_Hold.c ****     #if (Maximum_Peak_Detector_A_Sample_Hold_MIXER_TYPE == Maximum_Peak_Detector_A_Sample_Hold_CTMI
  61:Generated_Source\PSoC5/Maximum_Peak_Detector_A_Sample_Hold.c ****         /* SC Block mode -  - SCxx_CR0[3:1] */
  62:Generated_Source\PSoC5/Maximum_Peak_Detector_A_Sample_Hold.c ****         Maximum_Peak_Detector_A_Sample_Hold_CR0_REG = Maximum_Peak_Detector_A_Sample_Hold_MODE_CTMI
  63:Generated_Source\PSoC5/Maximum_Peak_Detector_A_Sample_Hold.c **** 
  64:Generated_Source\PSoC5/Maximum_Peak_Detector_A_Sample_Hold.c ****         /* SC Block CR1 */ 
  65:Generated_Source\PSoC5/Maximum_Peak_Detector_A_Sample_Hold.c ****         Maximum_Peak_Detector_A_Sample_Hold_CR1_REG = (Maximum_Peak_Detector_A_Sample_Hold_COMP_4P3
  66:Generated_Source\PSoC5/Maximum_Peak_Detector_A_Sample_Hold.c ****                                 Maximum_Peak_Detector_A_Sample_Hold_DIV2_DISABLE |
  67:Generated_Source\PSoC5/Maximum_Peak_Detector_A_Sample_Hold.c ****                                 Maximum_Peak_Detector_A_Sample_Hold_GAIN_0DB);                     
  68:Generated_Source\PSoC5/Maximum_Peak_Detector_A_Sample_Hold.c **** 
  69:Generated_Source\PSoC5/Maximum_Peak_Detector_A_Sample_Hold.c ****         /* 
  70:Generated_Source\PSoC5/Maximum_Peak_Detector_A_Sample_Hold.c ****             Set SC Block resistor values based on Local Oscillator being above 
  71:Generated_Source\PSoC5/Maximum_Peak_Detector_A_Sample_Hold.c ****             or below 100kHz - controled by r20_40 (Rmix) bit for CT mode mixer
  72:Generated_Source\PSoC5/Maximum_Peak_Detector_A_Sample_Hold.c ****             and SC Block
  73:Generated_Source\PSoC5/Maximum_Peak_Detector_A_Sample_Hold.c ****         */
  74:Generated_Source\PSoC5/Maximum_Peak_Detector_A_Sample_Hold.c **** 
  75:Generated_Source\PSoC5/Maximum_Peak_Detector_A_Sample_Hold.c ****         if (LOf < Maximum_Peak_Detector_A_Sample_Hold_LO_CLOCK_FREQ_100_KHz)
  76:Generated_Source\PSoC5/Maximum_Peak_Detector_A_Sample_Hold.c ****         {
  77:Generated_Source\PSoC5/Maximum_Peak_Detector_A_Sample_Hold.c ****             Maximum_Peak_Detector_A_Sample_Hold_CR2_REG = (Maximum_Peak_Detector_A_Sample_Hold_BIAS
  78:Generated_Source\PSoC5/Maximum_Peak_Detector_A_Sample_Hold.c **** 										Maximum_Peak_Detector_A_Sample_Hold_REDC_01 |
  79:Generated_Source\PSoC5/Maximum_Peak_Detector_A_Sample_Hold.c **** 										Maximum_Peak_Detector_A_Sample_Hold_GNDVREF_DI |
  80:Generated_Source\PSoC5/Maximum_Peak_Detector_A_Sample_Hold.c **** 										Maximum_Peak_Detector_A_Sample_Hold_R20_40B_40K);
  81:Generated_Source\PSoC5/Maximum_Peak_Detector_A_Sample_Hold.c ****         }
  82:Generated_Source\PSoC5/Maximum_Peak_Detector_A_Sample_Hold.c ****         else
  83:Generated_Source\PSoC5/Maximum_Peak_Detector_A_Sample_Hold.c ****         {
  84:Generated_Source\PSoC5/Maximum_Peak_Detector_A_Sample_Hold.c ****             Maximum_Peak_Detector_A_Sample_Hold_CR2_REG = (Maximum_Peak_Detector_A_Sample_Hold_BIAS
  85:Generated_Source\PSoC5/Maximum_Peak_Detector_A_Sample_Hold.c **** 										Maximum_Peak_Detector_A_Sample_Hold_REDC_01 |
  86:Generated_Source\PSoC5/Maximum_Peak_Detector_A_Sample_Hold.c **** 										Maximum_Peak_Detector_A_Sample_Hold_GNDVREF_DI |
  87:Generated_Source\PSoC5/Maximum_Peak_Detector_A_Sample_Hold.c **** 										Maximum_Peak_Detector_A_Sample_Hold_R20_40B_20K);
ARM GAS  C:\Users\ALEXAN~1\AppData\Local\Temp\cc2tNuml.s 			page 3


  88:Generated_Source\PSoC5/Maximum_Peak_Detector_A_Sample_Hold.c ****         }
  89:Generated_Source\PSoC5/Maximum_Peak_Detector_A_Sample_Hold.c ****     #else
  90:Generated_Source\PSoC5/Maximum_Peak_Detector_A_Sample_Hold.c ****         /* Discrete Time (down) mixer */
  91:Generated_Source\PSoC5/Maximum_Peak_Detector_A_Sample_Hold.c ****         /* SC Block mode -  - SCxx_CR0[3:1] */
  92:Generated_Source\PSoC5/Maximum_Peak_Detector_A_Sample_Hold.c ****         Maximum_Peak_Detector_A_Sample_Hold_CR0_REG = Maximum_Peak_Detector_A_Sample_Hold_MODE_DTMI
  93:Generated_Source\PSoC5/Maximum_Peak_Detector_A_Sample_Hold.c **** 
  94:Generated_Source\PSoC5/Maximum_Peak_Detector_A_Sample_Hold.c ****         /* SC Block CR1 */ 
  95:Generated_Source\PSoC5/Maximum_Peak_Detector_A_Sample_Hold.c ****         Maximum_Peak_Detector_A_Sample_Hold_CR1_REG = (Maximum_Peak_Detector_A_Sample_Hold_COMP_4P3
  96:Generated_Source\PSoC5/Maximum_Peak_Detector_A_Sample_Hold.c ****                                 Maximum_Peak_Detector_A_Sample_Hold_DIV2_ENABLE |
  97:Generated_Source\PSoC5/Maximum_Peak_Detector_A_Sample_Hold.c ****                                 Maximum_Peak_Detector_A_Sample_Hold_GAIN_0DB);
  98:Generated_Source\PSoC5/Maximum_Peak_Detector_A_Sample_Hold.c **** 
  99:Generated_Source\PSoC5/Maximum_Peak_Detector_A_Sample_Hold.c ****         /* 
 100:Generated_Source\PSoC5/Maximum_Peak_Detector_A_Sample_Hold.c ****             Set SC Block resistor values based on Local Oscillator beign above 
 101:Generated_Source\PSoC5/Maximum_Peak_Detector_A_Sample_Hold.c ****             or below 100kHz - set r20_40 (input resitance) and rval (feedback) 
 102:Generated_Source\PSoC5/Maximum_Peak_Detector_A_Sample_Hold.c ****             resistor values seperately for DT mode and SC Block
 103:Generated_Source\PSoC5/Maximum_Peak_Detector_A_Sample_Hold.c ****         */
 104:Generated_Source\PSoC5/Maximum_Peak_Detector_A_Sample_Hold.c ****         if (LOf < Maximum_Peak_Detector_A_Sample_Hold_LO_CLOCK_FREQ_100_KHz)
 105:Generated_Source\PSoC5/Maximum_Peak_Detector_A_Sample_Hold.c ****         {
 106:Generated_Source\PSoC5/Maximum_Peak_Detector_A_Sample_Hold.c ****             Maximum_Peak_Detector_A_Sample_Hold_CR2_REG = (Maximum_Peak_Detector_A_Sample_Hold_BIAS
 107:Generated_Source\PSoC5/Maximum_Peak_Detector_A_Sample_Hold.c **** 										Maximum_Peak_Detector_A_Sample_Hold_GNDVREF_DI |
 108:Generated_Source\PSoC5/Maximum_Peak_Detector_A_Sample_Hold.c **** 										Maximum_Peak_Detector_A_Sample_Hold_R20_40B_40K |
 109:Generated_Source\PSoC5/Maximum_Peak_Detector_A_Sample_Hold.c **** 										Maximum_Peak_Detector_A_Sample_Hold_RVAL_40K); 
 110:Generated_Source\PSoC5/Maximum_Peak_Detector_A_Sample_Hold.c ****         }
 111:Generated_Source\PSoC5/Maximum_Peak_Detector_A_Sample_Hold.c ****         else
 112:Generated_Source\PSoC5/Maximum_Peak_Detector_A_Sample_Hold.c ****         {
 113:Generated_Source\PSoC5/Maximum_Peak_Detector_A_Sample_Hold.c ****             Maximum_Peak_Detector_A_Sample_Hold_CR2_REG = (Maximum_Peak_Detector_A_Sample_Hold_BIAS
 114:Generated_Source\PSoC5/Maximum_Peak_Detector_A_Sample_Hold.c **** 										Maximum_Peak_Detector_A_Sample_Hold_GNDVREF_DI |
 115:Generated_Source\PSoC5/Maximum_Peak_Detector_A_Sample_Hold.c **** 										Maximum_Peak_Detector_A_Sample_Hold_R20_40B_20K |
 116:Generated_Source\PSoC5/Maximum_Peak_Detector_A_Sample_Hold.c **** 										Maximum_Peak_Detector_A_Sample_Hold_RVAL_20K);
 117:Generated_Source\PSoC5/Maximum_Peak_Detector_A_Sample_Hold.c ****         }
 118:Generated_Source\PSoC5/Maximum_Peak_Detector_A_Sample_Hold.c ****     #endif /* end if - Mixer Type */
 119:Generated_Source\PSoC5/Maximum_Peak_Detector_A_Sample_Hold.c **** 
 120:Generated_Source\PSoC5/Maximum_Peak_Detector_A_Sample_Hold.c ****     /* Enable SC Block clocking */
 121:Generated_Source\PSoC5/Maximum_Peak_Detector_A_Sample_Hold.c ****     Maximum_Peak_Detector_A_Sample_Hold_CLK_REG |= Maximum_Peak_Detector_A_Sample_Hold_CLK_EN;
 122:Generated_Source\PSoC5/Maximum_Peak_Detector_A_Sample_Hold.c **** 
 123:Generated_Source\PSoC5/Maximum_Peak_Detector_A_Sample_Hold.c ****     /* Set default power */
 124:Generated_Source\PSoC5/Maximum_Peak_Detector_A_Sample_Hold.c ****     Maximum_Peak_Detector_A_Sample_Hold_SetPower(Maximum_Peak_Detector_A_Sample_Hold_INIT_POWER);
 125:Generated_Source\PSoC5/Maximum_Peak_Detector_A_Sample_Hold.c ****     
 126:Generated_Source\PSoC5/Maximum_Peak_Detector_A_Sample_Hold.c ****     /* Set 50 % Duty cycle for LO clock if LO source is internal */
 127:Generated_Source\PSoC5/Maximum_Peak_Detector_A_Sample_Hold.c ****     #if(Maximum_Peak_Detector_A_Sample_Hold_LO_SOURCE == Maximum_Peak_Detector_A_Sample_Hold_LO_SOU
 128:Generated_Source\PSoC5/Maximum_Peak_Detector_A_Sample_Hold.c ****         Maximum_Peak_Detector_A_Sample_Hold_aclk_SetMode(CYCLK_DUTY);
 129:Generated_Source\PSoC5/Maximum_Peak_Detector_A_Sample_Hold.c ****     #endif /* Maximum_Peak_Detector_A_Sample_Hold_LO_SOURCE == Maximum_Peak_Detector_A_Sample_Hold_
 130:Generated_Source\PSoC5/Maximum_Peak_Detector_A_Sample_Hold.c **** 
 131:Generated_Source\PSoC5/Maximum_Peak_Detector_A_Sample_Hold.c **** }
 132:Generated_Source\PSoC5/Maximum_Peak_Detector_A_Sample_Hold.c **** 
 133:Generated_Source\PSoC5/Maximum_Peak_Detector_A_Sample_Hold.c **** 
 134:Generated_Source\PSoC5/Maximum_Peak_Detector_A_Sample_Hold.c **** /*******************************************************************************
 135:Generated_Source\PSoC5/Maximum_Peak_Detector_A_Sample_Hold.c **** * Function Name: Maximum_Peak_Detector_A_Sample_Hold_Enable
 136:Generated_Source\PSoC5/Maximum_Peak_Detector_A_Sample_Hold.c **** ********************************************************************************
 137:Generated_Source\PSoC5/Maximum_Peak_Detector_A_Sample_Hold.c **** *  
 138:Generated_Source\PSoC5/Maximum_Peak_Detector_A_Sample_Hold.c **** * Summary: 
 139:Generated_Source\PSoC5/Maximum_Peak_Detector_A_Sample_Hold.c **** *  Enables the Mixer block operation
 140:Generated_Source\PSoC5/Maximum_Peak_Detector_A_Sample_Hold.c **** *
 141:Generated_Source\PSoC5/Maximum_Peak_Detector_A_Sample_Hold.c **** * Parameters:  
 142:Generated_Source\PSoC5/Maximum_Peak_Detector_A_Sample_Hold.c **** *  void
 143:Generated_Source\PSoC5/Maximum_Peak_Detector_A_Sample_Hold.c **** *
 144:Generated_Source\PSoC5/Maximum_Peak_Detector_A_Sample_Hold.c **** * Return: 
ARM GAS  C:\Users\ALEXAN~1\AppData\Local\Temp\cc2tNuml.s 			page 4


 145:Generated_Source\PSoC5/Maximum_Peak_Detector_A_Sample_Hold.c **** *  void
 146:Generated_Source\PSoC5/Maximum_Peak_Detector_A_Sample_Hold.c **** *
 147:Generated_Source\PSoC5/Maximum_Peak_Detector_A_Sample_Hold.c **** *******************************************************************************/
 148:Generated_Source\PSoC5/Maximum_Peak_Detector_A_Sample_Hold.c **** void Maximum_Peak_Detector_A_Sample_Hold_Enable(void) 
 149:Generated_Source\PSoC5/Maximum_Peak_Detector_A_Sample_Hold.c **** {
  28              		.loc 1 149 0
  29              		.cfi_startproc
  30              		@ args = 0, pretend = 0, frame = 0
  31              		@ frame_needed = 0, uses_anonymous_args = 0
  32              		@ link register save eliminated.
 150:Generated_Source\PSoC5/Maximum_Peak_Detector_A_Sample_Hold.c ****     /* This is to restore the value of register CR1 and CR2 which is saved 
 151:Generated_Source\PSoC5/Maximum_Peak_Detector_A_Sample_Hold.c ****       in prior to the modifications in stop() API */
 152:Generated_Source\PSoC5/Maximum_Peak_Detector_A_Sample_Hold.c ****     #if (CY_PSOC5A)
 153:Generated_Source\PSoC5/Maximum_Peak_Detector_A_Sample_Hold.c ****         if(Maximum_Peak_Detector_A_Sample_Hold_P5backup.enableState == 1u)
 154:Generated_Source\PSoC5/Maximum_Peak_Detector_A_Sample_Hold.c ****         {
 155:Generated_Source\PSoC5/Maximum_Peak_Detector_A_Sample_Hold.c ****             Maximum_Peak_Detector_A_Sample_Hold_CR1_REG = Maximum_Peak_Detector_A_Sample_Hold_P5bac
 156:Generated_Source\PSoC5/Maximum_Peak_Detector_A_Sample_Hold.c ****             Maximum_Peak_Detector_A_Sample_Hold_CR2_REG = Maximum_Peak_Detector_A_Sample_Hold_P5bac
 157:Generated_Source\PSoC5/Maximum_Peak_Detector_A_Sample_Hold.c ****             Maximum_Peak_Detector_A_Sample_Hold_P5backup.enableState = 0u;
 158:Generated_Source\PSoC5/Maximum_Peak_Detector_A_Sample_Hold.c ****         }
 159:Generated_Source\PSoC5/Maximum_Peak_Detector_A_Sample_Hold.c ****     #endif /* CY_PSOC5A */
 160:Generated_Source\PSoC5/Maximum_Peak_Detector_A_Sample_Hold.c ****     
 161:Generated_Source\PSoC5/Maximum_Peak_Detector_A_Sample_Hold.c ****     /* Enable power to SC block in active mode */
 162:Generated_Source\PSoC5/Maximum_Peak_Detector_A_Sample_Hold.c ****     Maximum_Peak_Detector_A_Sample_Hold_PM_ACT_CFG_REG |= Maximum_Peak_Detector_A_Sample_Hold_ACT_P
  33              		.loc 1 162 0
  34 0000 084A     		ldr	r2, .L2
  35 0002 1378     		ldrb	r3, [r2]	@ zero_extendqisi2
  36 0004 43F00203 		orr	r3, r3, #2
  37 0008 1370     		strb	r3, [r2]
 163:Generated_Source\PSoC5/Maximum_Peak_Detector_A_Sample_Hold.c **** 
 164:Generated_Source\PSoC5/Maximum_Peak_Detector_A_Sample_Hold.c ****     /* Enable power to SC block in Alternative active mode */
 165:Generated_Source\PSoC5/Maximum_Peak_Detector_A_Sample_Hold.c ****     Maximum_Peak_Detector_A_Sample_Hold_PM_STBY_CFG_REG |= Maximum_Peak_Detector_A_Sample_Hold_STBY
  38              		.loc 1 165 0
  39 000a 137C     		ldrb	r3, [r2, #16]	@ zero_extendqisi2
  40 000c 43F00203 		orr	r3, r3, #2
  41 0010 1374     		strb	r3, [r2, #16]
 166:Generated_Source\PSoC5/Maximum_Peak_Detector_A_Sample_Hold.c ****     
 167:Generated_Source\PSoC5/Maximum_Peak_Detector_A_Sample_Hold.c ****     /* Enable LO_Internal clock if LO source is choosen as internal */
 168:Generated_Source\PSoC5/Maximum_Peak_Detector_A_Sample_Hold.c ****     #if(Maximum_Peak_Detector_A_Sample_Hold_LO_SOURCE == Maximum_Peak_Detector_A_Sample_Hold_LO_SOU
 169:Generated_Source\PSoC5/Maximum_Peak_Detector_A_Sample_Hold.c ****         /* Enable power to the LO clock */
 170:Generated_Source\PSoC5/Maximum_Peak_Detector_A_Sample_Hold.c ****         Maximum_Peak_Detector_A_Sample_Hold_PWRMGR_ACLK_REG |= Maximum_Peak_Detector_A_Sample_Hold_
 171:Generated_Source\PSoC5/Maximum_Peak_Detector_A_Sample_Hold.c ****         Maximum_Peak_Detector_A_Sample_Hold_STBY_PWRMGR_ACLK_REG |= Maximum_Peak_Detector_A_Sample_
 172:Generated_Source\PSoC5/Maximum_Peak_Detector_A_Sample_Hold.c ****         /* Enable the clock */
 173:Generated_Source\PSoC5/Maximum_Peak_Detector_A_Sample_Hold.c ****         Maximum_Peak_Detector_A_Sample_Hold_aclk_Enable();        
 174:Generated_Source\PSoC5/Maximum_Peak_Detector_A_Sample_Hold.c ****     #endif /* Maximum_Peak_Detector_A_Sample_Hold_LO_SOURCE == Maximum_Peak_Detector_A_Sample_Hold_
 175:Generated_Source\PSoC5/Maximum_Peak_Detector_A_Sample_Hold.c **** 
 176:Generated_Source\PSoC5/Maximum_Peak_Detector_A_Sample_Hold.c ****     Maximum_Peak_Detector_A_Sample_Hold_PUMP_CR1_REG |= Maximum_Peak_Detector_A_Sample_Hold_PUMP_CR
  42              		.loc 1 176 0
  43 0012 02F5A652 		add	r2, r2, #5312
  44 0016 0E32     		adds	r2, r2, #14
  45 0018 1378     		ldrb	r3, [r2]	@ zero_extendqisi2
  46 001a 43F08003 		orr	r3, r3, #128
  47 001e 1370     		strb	r3, [r2]
  48 0020 7047     		bx	lr
  49              	.L3:
  50 0022 00BF     		.align	2
  51              	.L2:
  52 0024 A9430040 		.word	1073759145
ARM GAS  C:\Users\ALEXAN~1\AppData\Local\Temp\cc2tNuml.s 			page 5


  53              		.cfi_endproc
  54              	.LFE1:
  55              		.size	Maximum_Peak_Detector_A_Sample_Hold_Enable, .-Maximum_Peak_Detector_A_Sample_Hold_Enable
  56              		.section	.text.Maximum_Peak_Detector_A_Sample_Hold_Stop,"ax",%progbits
  57              		.align	1
  58              		.global	Maximum_Peak_Detector_A_Sample_Hold_Stop
  59              		.thumb
  60              		.thumb_func
  61              		.type	Maximum_Peak_Detector_A_Sample_Hold_Stop, %function
  62              	Maximum_Peak_Detector_A_Sample_Hold_Stop:
  63              	.LFB3:
 177:Generated_Source\PSoC5/Maximum_Peak_Detector_A_Sample_Hold.c ****     
 178:Generated_Source\PSoC5/Maximum_Peak_Detector_A_Sample_Hold.c ****     #if (!CY_PSOC5A)
 179:Generated_Source\PSoC5/Maximum_Peak_Detector_A_Sample_Hold.c ****         #if (CYDEV_VARIABLE_VDDA == 1u)
 180:Generated_Source\PSoC5/Maximum_Peak_Detector_A_Sample_Hold.c ****             if(CyScPumpEnabled == 1u)
 181:Generated_Source\PSoC5/Maximum_Peak_Detector_A_Sample_Hold.c ****             {
 182:Generated_Source\PSoC5/Maximum_Peak_Detector_A_Sample_Hold.c ****                 Maximum_Peak_Detector_A_Sample_Hold_BSTCLK_REG &= (uint8)(~Maximum_Peak_Detector_A_
 183:Generated_Source\PSoC5/Maximum_Peak_Detector_A_Sample_Hold.c ****                 Maximum_Peak_Detector_A_Sample_Hold_BSTCLK_REG |= Maximum_Peak_Detector_A_Sample_Ho
 184:Generated_Source\PSoC5/Maximum_Peak_Detector_A_Sample_Hold.c ****                 Maximum_Peak_Detector_A_Sample_Hold_SC_MISC_REG |= Maximum_Peak_Detector_A_Sample_H
 185:Generated_Source\PSoC5/Maximum_Peak_Detector_A_Sample_Hold.c ****                 CyScBoostClk_Start();
 186:Generated_Source\PSoC5/Maximum_Peak_Detector_A_Sample_Hold.c ****             }
 187:Generated_Source\PSoC5/Maximum_Peak_Detector_A_Sample_Hold.c ****             else
 188:Generated_Source\PSoC5/Maximum_Peak_Detector_A_Sample_Hold.c ****             {
 189:Generated_Source\PSoC5/Maximum_Peak_Detector_A_Sample_Hold.c ****                 Maximum_Peak_Detector_A_Sample_Hold_BSTCLK_REG &= (uint8)(~Maximum_Peak_Detector_A_
 190:Generated_Source\PSoC5/Maximum_Peak_Detector_A_Sample_Hold.c ****                 Maximum_Peak_Detector_A_Sample_Hold_SC_MISC_REG &= (uint8)(~Maximum_Peak_Detector_A
 191:Generated_Source\PSoC5/Maximum_Peak_Detector_A_Sample_Hold.c ****             }
 192:Generated_Source\PSoC5/Maximum_Peak_Detector_A_Sample_Hold.c ****         #endif /* (CYDEV_VARIABLE_VDDA == 1u) */
 193:Generated_Source\PSoC5/Maximum_Peak_Detector_A_Sample_Hold.c ****     #endif /* (!CY_PSOC5A) */
 194:Generated_Source\PSoC5/Maximum_Peak_Detector_A_Sample_Hold.c **** }
 195:Generated_Source\PSoC5/Maximum_Peak_Detector_A_Sample_Hold.c **** 
 196:Generated_Source\PSoC5/Maximum_Peak_Detector_A_Sample_Hold.c **** 
 197:Generated_Source\PSoC5/Maximum_Peak_Detector_A_Sample_Hold.c **** /*******************************************************************************
 198:Generated_Source\PSoC5/Maximum_Peak_Detector_A_Sample_Hold.c **** * Function Name: Maximum_Peak_Detector_A_Sample_Hold_Start
 199:Generated_Source\PSoC5/Maximum_Peak_Detector_A_Sample_Hold.c **** ********************************************************************************
 200:Generated_Source\PSoC5/Maximum_Peak_Detector_A_Sample_Hold.c **** *
 201:Generated_Source\PSoC5/Maximum_Peak_Detector_A_Sample_Hold.c **** * Summary:
 202:Generated_Source\PSoC5/Maximum_Peak_Detector_A_Sample_Hold.c **** *  The start function initializes the SC block control registers based on the
 203:Generated_Source\PSoC5/Maximum_Peak_Detector_A_Sample_Hold.c **** *  Mixer type selected and and enables power to the SC block
 204:Generated_Source\PSoC5/Maximum_Peak_Detector_A_Sample_Hold.c **** *
 205:Generated_Source\PSoC5/Maximum_Peak_Detector_A_Sample_Hold.c **** * Parameters:  
 206:Generated_Source\PSoC5/Maximum_Peak_Detector_A_Sample_Hold.c **** *  void
 207:Generated_Source\PSoC5/Maximum_Peak_Detector_A_Sample_Hold.c **** *
 208:Generated_Source\PSoC5/Maximum_Peak_Detector_A_Sample_Hold.c **** * Return: 
 209:Generated_Source\PSoC5/Maximum_Peak_Detector_A_Sample_Hold.c **** *  void 
 210:Generated_Source\PSoC5/Maximum_Peak_Detector_A_Sample_Hold.c **** *
 211:Generated_Source\PSoC5/Maximum_Peak_Detector_A_Sample_Hold.c **** * Global variables:
 212:Generated_Source\PSoC5/Maximum_Peak_Detector_A_Sample_Hold.c **** *  Maximum_Peak_Detector_A_Sample_Hold_initVar:  Used to check the initial configuration,
 213:Generated_Source\PSoC5/Maximum_Peak_Detector_A_Sample_Hold.c **** *  modified when this function is called for the first time.
 214:Generated_Source\PSoC5/Maximum_Peak_Detector_A_Sample_Hold.c **** *
 215:Generated_Source\PSoC5/Maximum_Peak_Detector_A_Sample_Hold.c **** * Theory: 
 216:Generated_Source\PSoC5/Maximum_Peak_Detector_A_Sample_Hold.c **** *  Full initialization of the SC Block configuration registers is only perfomed 
 217:Generated_Source\PSoC5/Maximum_Peak_Detector_A_Sample_Hold.c **** *  the first time the routine executes - global variable 
 218:Generated_Source\PSoC5/Maximum_Peak_Detector_A_Sample_Hold.c **** *  Maximum_Peak_Detector_A_Sample_Hold_initVar is used indicate that the static configuration has 
 219:Generated_Source\PSoC5/Maximum_Peak_Detector_A_Sample_Hold.c **** *  been completed.
 220:Generated_Source\PSoC5/Maximum_Peak_Detector_A_Sample_Hold.c **** *
 221:Generated_Source\PSoC5/Maximum_Peak_Detector_A_Sample_Hold.c **** *******************************************************************************/
 222:Generated_Source\PSoC5/Maximum_Peak_Detector_A_Sample_Hold.c **** void Maximum_Peak_Detector_A_Sample_Hold_Start(void) 
ARM GAS  C:\Users\ALEXAN~1\AppData\Local\Temp\cc2tNuml.s 			page 6


 223:Generated_Source\PSoC5/Maximum_Peak_Detector_A_Sample_Hold.c **** {
 224:Generated_Source\PSoC5/Maximum_Peak_Detector_A_Sample_Hold.c ****     /* If not Initialized then initialize all required hardware and software */
 225:Generated_Source\PSoC5/Maximum_Peak_Detector_A_Sample_Hold.c ****     if(Maximum_Peak_Detector_A_Sample_Hold_initVar == 0u)
 226:Generated_Source\PSoC5/Maximum_Peak_Detector_A_Sample_Hold.c ****     {
 227:Generated_Source\PSoC5/Maximum_Peak_Detector_A_Sample_Hold.c ****         Maximum_Peak_Detector_A_Sample_Hold_Init();
 228:Generated_Source\PSoC5/Maximum_Peak_Detector_A_Sample_Hold.c ****         Maximum_Peak_Detector_A_Sample_Hold_initVar = 1u;
 229:Generated_Source\PSoC5/Maximum_Peak_Detector_A_Sample_Hold.c ****     }
 230:Generated_Source\PSoC5/Maximum_Peak_Detector_A_Sample_Hold.c ****     /* Enable the power to the block */
 231:Generated_Source\PSoC5/Maximum_Peak_Detector_A_Sample_Hold.c ****     Maximum_Peak_Detector_A_Sample_Hold_Enable();
 232:Generated_Source\PSoC5/Maximum_Peak_Detector_A_Sample_Hold.c ****     
 233:Generated_Source\PSoC5/Maximum_Peak_Detector_A_Sample_Hold.c **** }
 234:Generated_Source\PSoC5/Maximum_Peak_Detector_A_Sample_Hold.c **** 
 235:Generated_Source\PSoC5/Maximum_Peak_Detector_A_Sample_Hold.c **** 
 236:Generated_Source\PSoC5/Maximum_Peak_Detector_A_Sample_Hold.c **** /*******************************************************************************
 237:Generated_Source\PSoC5/Maximum_Peak_Detector_A_Sample_Hold.c **** * Function Name: Maximum_Peak_Detector_A_Sample_Hold_Stop
 238:Generated_Source\PSoC5/Maximum_Peak_Detector_A_Sample_Hold.c **** ********************************************************************************
 239:Generated_Source\PSoC5/Maximum_Peak_Detector_A_Sample_Hold.c **** *
 240:Generated_Source\PSoC5/Maximum_Peak_Detector_A_Sample_Hold.c **** * Summary:
 241:Generated_Source\PSoC5/Maximum_Peak_Detector_A_Sample_Hold.c **** *  Disables power to SC block.
 242:Generated_Source\PSoC5/Maximum_Peak_Detector_A_Sample_Hold.c **** *
 243:Generated_Source\PSoC5/Maximum_Peak_Detector_A_Sample_Hold.c **** * Parameters:  
 244:Generated_Source\PSoC5/Maximum_Peak_Detector_A_Sample_Hold.c **** *  void 
 245:Generated_Source\PSoC5/Maximum_Peak_Detector_A_Sample_Hold.c **** *
 246:Generated_Source\PSoC5/Maximum_Peak_Detector_A_Sample_Hold.c **** * Return: 
 247:Generated_Source\PSoC5/Maximum_Peak_Detector_A_Sample_Hold.c **** *  void 
 248:Generated_Source\PSoC5/Maximum_Peak_Detector_A_Sample_Hold.c **** *
 249:Generated_Source\PSoC5/Maximum_Peak_Detector_A_Sample_Hold.c **** *******************************************************************************/
 250:Generated_Source\PSoC5/Maximum_Peak_Detector_A_Sample_Hold.c **** void Maximum_Peak_Detector_A_Sample_Hold_Stop(void) 
 251:Generated_Source\PSoC5/Maximum_Peak_Detector_A_Sample_Hold.c **** {       
  64              		.loc 1 251 0
  65              		.cfi_startproc
  66              		@ args = 0, pretend = 0, frame = 0
  67              		@ frame_needed = 0, uses_anonymous_args = 0
  68              		@ link register save eliminated.
 252:Generated_Source\PSoC5/Maximum_Peak_Detector_A_Sample_Hold.c ****     /* Disble power to the Amp in Active mode template */
 253:Generated_Source\PSoC5/Maximum_Peak_Detector_A_Sample_Hold.c ****     Maximum_Peak_Detector_A_Sample_Hold_PM_ACT_CFG_REG &= (uint8)(~Maximum_Peak_Detector_A_Sample_H
  69              		.loc 1 253 0
  70 0000 044A     		ldr	r2, .L5
  71 0002 1378     		ldrb	r3, [r2]	@ zero_extendqisi2
  72 0004 03F0FD03 		and	r3, r3, #253
  73 0008 1370     		strb	r3, [r2]
 254:Generated_Source\PSoC5/Maximum_Peak_Detector_A_Sample_Hold.c **** 
 255:Generated_Source\PSoC5/Maximum_Peak_Detector_A_Sample_Hold.c ****     /* Disble power to the Amp in Alternative Active mode template */
 256:Generated_Source\PSoC5/Maximum_Peak_Detector_A_Sample_Hold.c ****     Maximum_Peak_Detector_A_Sample_Hold_PM_STBY_CFG_REG &= (uint8)(~Maximum_Peak_Detector_A_Sample_
  74              		.loc 1 256 0
  75 000a 137C     		ldrb	r3, [r2, #16]	@ zero_extendqisi2
  76 000c 03F0FD03 		and	r3, r3, #253
  77 0010 1374     		strb	r3, [r2, #16]
  78 0012 7047     		bx	lr
  79              	.L6:
  80              		.align	2
  81              	.L5:
  82 0014 A9430040 		.word	1073759145
  83              		.cfi_endproc
  84              	.LFE3:
  85              		.size	Maximum_Peak_Detector_A_Sample_Hold_Stop, .-Maximum_Peak_Detector_A_Sample_Hold_Stop
  86              		.section	.text.Maximum_Peak_Detector_A_Sample_Hold_SetPower,"ax",%progbits
ARM GAS  C:\Users\ALEXAN~1\AppData\Local\Temp\cc2tNuml.s 			page 7


  87              		.align	1
  88              		.global	Maximum_Peak_Detector_A_Sample_Hold_SetPower
  89              		.thumb
  90              		.thumb_func
  91              		.type	Maximum_Peak_Detector_A_Sample_Hold_SetPower, %function
  92              	Maximum_Peak_Detector_A_Sample_Hold_SetPower:
  93              	.LFB4:
 257:Generated_Source\PSoC5/Maximum_Peak_Detector_A_Sample_Hold.c ****     
 258:Generated_Source\PSoC5/Maximum_Peak_Detector_A_Sample_Hold.c ****     #if (!CY_PSOC5A)
 259:Generated_Source\PSoC5/Maximum_Peak_Detector_A_Sample_Hold.c ****         #if (CYDEV_VARIABLE_VDDA == 1u)
 260:Generated_Source\PSoC5/Maximum_Peak_Detector_A_Sample_Hold.c ****             Maximum_Peak_Detector_A_Sample_Hold_BSTCLK_REG &= (uint8)(~Maximum_Peak_Detector_A_Samp
 261:Generated_Source\PSoC5/Maximum_Peak_Detector_A_Sample_Hold.c ****             /* Disable pumps only if there aren't any SC block in use */
 262:Generated_Source\PSoC5/Maximum_Peak_Detector_A_Sample_Hold.c ****             if ((Maximum_Peak_Detector_A_Sample_Hold_PM_ACT_CFG_REG & Maximum_Peak_Detector_A_Sampl
 263:Generated_Source\PSoC5/Maximum_Peak_Detector_A_Sample_Hold.c ****             {
 264:Generated_Source\PSoC5/Maximum_Peak_Detector_A_Sample_Hold.c ****                 Maximum_Peak_Detector_A_Sample_Hold_SC_MISC_REG &= (uint8)(~Maximum_Peak_Detector_A
 265:Generated_Source\PSoC5/Maximum_Peak_Detector_A_Sample_Hold.c ****                 Maximum_Peak_Detector_A_Sample_Hold_PUMP_CR1_REG &= (uint8)(~Maximum_Peak_Detector_
 266:Generated_Source\PSoC5/Maximum_Peak_Detector_A_Sample_Hold.c ****                 CyScBoostClk_Stop();
 267:Generated_Source\PSoC5/Maximum_Peak_Detector_A_Sample_Hold.c ****             }
 268:Generated_Source\PSoC5/Maximum_Peak_Detector_A_Sample_Hold.c ****         #endif /* CYDEV_VARIABLE_VDDA == 1u */
 269:Generated_Source\PSoC5/Maximum_Peak_Detector_A_Sample_Hold.c ****     #endif /* (CY_PSOC3 || CY_PSOC5LP) */
 270:Generated_Source\PSoC5/Maximum_Peak_Detector_A_Sample_Hold.c ****     
 271:Generated_Source\PSoC5/Maximum_Peak_Detector_A_Sample_Hold.c ****     /* This sets Sample and hold in zero current mode and output routes are valid */
 272:Generated_Source\PSoC5/Maximum_Peak_Detector_A_Sample_Hold.c ****     #if (CY_PSOC5A)
 273:Generated_Source\PSoC5/Maximum_Peak_Detector_A_Sample_Hold.c ****         Maximum_Peak_Detector_A_Sample_Hold_P5backup.scCR1Reg = Maximum_Peak_Detector_A_Sample_Hold
 274:Generated_Source\PSoC5/Maximum_Peak_Detector_A_Sample_Hold.c ****         Maximum_Peak_Detector_A_Sample_Hold_P5backup.scCR2Reg = Maximum_Peak_Detector_A_Sample_Hold
 275:Generated_Source\PSoC5/Maximum_Peak_Detector_A_Sample_Hold.c ****         Maximum_Peak_Detector_A_Sample_Hold_CR1_REG = 0x00u;
 276:Generated_Source\PSoC5/Maximum_Peak_Detector_A_Sample_Hold.c ****         Maximum_Peak_Detector_A_Sample_Hold_CR2_REG = 0x00u;
 277:Generated_Source\PSoC5/Maximum_Peak_Detector_A_Sample_Hold.c ****         Maximum_Peak_Detector_A_Sample_Hold_P5backup.enableState = 1u;
 278:Generated_Source\PSoC5/Maximum_Peak_Detector_A_Sample_Hold.c ****     #endif /* CY_PSOC5A */  
 279:Generated_Source\PSoC5/Maximum_Peak_Detector_A_Sample_Hold.c ****     
 280:Generated_Source\PSoC5/Maximum_Peak_Detector_A_Sample_Hold.c ****     /* Disable aclk */
 281:Generated_Source\PSoC5/Maximum_Peak_Detector_A_Sample_Hold.c ****     #if(Maximum_Peak_Detector_A_Sample_Hold_LO_SOURCE == Maximum_Peak_Detector_A_Sample_Hold_LO_SOU
 282:Generated_Source\PSoC5/Maximum_Peak_Detector_A_Sample_Hold.c ****         /* Disable power to clock */
 283:Generated_Source\PSoC5/Maximum_Peak_Detector_A_Sample_Hold.c ****         Maximum_Peak_Detector_A_Sample_Hold_PWRMGR_ACLK_REG &= (uint8)(~Maximum_Peak_Detector_A_Sam
 284:Generated_Source\PSoC5/Maximum_Peak_Detector_A_Sample_Hold.c ****         Maximum_Peak_Detector_A_Sample_Hold_STBY_PWRMGR_ACLK_REG &= (uint8)(~Maximum_Peak_Detector_
 285:Generated_Source\PSoC5/Maximum_Peak_Detector_A_Sample_Hold.c ****         /* Disable the clock */
 286:Generated_Source\PSoC5/Maximum_Peak_Detector_A_Sample_Hold.c ****         Maximum_Peak_Detector_A_Sample_Hold_aclk_Disable();
 287:Generated_Source\PSoC5/Maximum_Peak_Detector_A_Sample_Hold.c ****     #endif /* Maximum_Peak_Detector_A_Sample_Hold_LO_SOURCE == Maximum_Peak_Detector_A_Sample_Hold_
 288:Generated_Source\PSoC5/Maximum_Peak_Detector_A_Sample_Hold.c **** }
 289:Generated_Source\PSoC5/Maximum_Peak_Detector_A_Sample_Hold.c **** 
 290:Generated_Source\PSoC5/Maximum_Peak_Detector_A_Sample_Hold.c **** 
 291:Generated_Source\PSoC5/Maximum_Peak_Detector_A_Sample_Hold.c **** /*******************************************************************************
 292:Generated_Source\PSoC5/Maximum_Peak_Detector_A_Sample_Hold.c **** * Function Name: Maximum_Peak_Detector_A_Sample_Hold_SetPower
 293:Generated_Source\PSoC5/Maximum_Peak_Detector_A_Sample_Hold.c **** ********************************************************************************
 294:Generated_Source\PSoC5/Maximum_Peak_Detector_A_Sample_Hold.c **** *
 295:Generated_Source\PSoC5/Maximum_Peak_Detector_A_Sample_Hold.c **** * Summary:
 296:Generated_Source\PSoC5/Maximum_Peak_Detector_A_Sample_Hold.c **** *  Set the drive power of the MIXER
 297:Generated_Source\PSoC5/Maximum_Peak_Detector_A_Sample_Hold.c **** *
 298:Generated_Source\PSoC5/Maximum_Peak_Detector_A_Sample_Hold.c **** * Parameters:  
 299:Generated_Source\PSoC5/Maximum_Peak_Detector_A_Sample_Hold.c **** *  power:  Sets power level between (0) and (3) high power
 300:Generated_Source\PSoC5/Maximum_Peak_Detector_A_Sample_Hold.c **** *
 301:Generated_Source\PSoC5/Maximum_Peak_Detector_A_Sample_Hold.c **** * Return: 
 302:Generated_Source\PSoC5/Maximum_Peak_Detector_A_Sample_Hold.c **** *  void 
 303:Generated_Source\PSoC5/Maximum_Peak_Detector_A_Sample_Hold.c **** *
 304:Generated_Source\PSoC5/Maximum_Peak_Detector_A_Sample_Hold.c **** *******************************************************************************/
 305:Generated_Source\PSoC5/Maximum_Peak_Detector_A_Sample_Hold.c **** void Maximum_Peak_Detector_A_Sample_Hold_SetPower(uint8 power) 
 306:Generated_Source\PSoC5/Maximum_Peak_Detector_A_Sample_Hold.c **** {
ARM GAS  C:\Users\ALEXAN~1\AppData\Local\Temp\cc2tNuml.s 			page 8


  94              		.loc 1 306 0
  95              		.cfi_startproc
  96              		@ args = 0, pretend = 0, frame = 0
  97              		@ frame_needed = 0, uses_anonymous_args = 0
  98              		@ link register save eliminated.
  99              	.LVL0:
 307:Generated_Source\PSoC5/Maximum_Peak_Detector_A_Sample_Hold.c ****     uint8 tmpCR;
 308:Generated_Source\PSoC5/Maximum_Peak_Detector_A_Sample_Hold.c **** 
 309:Generated_Source\PSoC5/Maximum_Peak_Detector_A_Sample_Hold.c ****     /* Sets drive bits in SC Block Control Register 1:  SCxx_CR[1:0] */    
 310:Generated_Source\PSoC5/Maximum_Peak_Detector_A_Sample_Hold.c ****     tmpCR = Maximum_Peak_Detector_A_Sample_Hold_CR1_REG & (uint8)(~Maximum_Peak_Detector_A_Sample_H
 100              		.loc 1 310 0
 101 0000 044A     		ldr	r2, .L8
 311:Generated_Source\PSoC5/Maximum_Peak_Detector_A_Sample_Hold.c ****     tmpCR |= (power & Maximum_Peak_Detector_A_Sample_Hold_DRIVE_MASK);
 102              		.loc 1 311 0
 103 0002 00F00300 		and	r0, r0, #3
 104              	.LVL1:
 310:Generated_Source\PSoC5/Maximum_Peak_Detector_A_Sample_Hold.c ****     tmpCR |= (power & Maximum_Peak_Detector_A_Sample_Hold_DRIVE_MASK);
 105              		.loc 1 310 0
 106 0006 1378     		ldrb	r3, [r2]	@ zero_extendqisi2
 107 0008 03F0FC03 		and	r3, r3, #252
 108              	.LVL2:
 109              		.loc 1 311 0
 110 000c 1843     		orrs	r0, r0, r3
 111              	.LVL3:
 312:Generated_Source\PSoC5/Maximum_Peak_Detector_A_Sample_Hold.c ****     Maximum_Peak_Detector_A_Sample_Hold_CR1_REG = tmpCR;  
 112              		.loc 1 312 0
 113 000e 1070     		strb	r0, [r2]
 114 0010 7047     		bx	lr
 115              	.L9:
 116 0012 00BF     		.align	2
 117              	.L8:
 118 0014 05580040 		.word	1073764357
 119              		.cfi_endproc
 120              	.LFE4:
 121              		.size	Maximum_Peak_Detector_A_Sample_Hold_SetPower, .-Maximum_Peak_Detector_A_Sample_Hold_SetPower
 122              		.section	.text.Maximum_Peak_Detector_A_Sample_Hold_Init,"ax",%progbits
 123              		.align	1
 124              		.global	Maximum_Peak_Detector_A_Sample_Hold_Init
 125              		.thumb
 126              		.thumb_func
 127              		.type	Maximum_Peak_Detector_A_Sample_Hold_Init, %function
 128              	Maximum_Peak_Detector_A_Sample_Hold_Init:
 129              	.LFB0:
  55:Generated_Source\PSoC5/Maximum_Peak_Detector_A_Sample_Hold.c ****     float LOf = Maximum_Peak_Detector_A_Sample_Hold_LO_CLOCK_FREQ;
 130              		.loc 1 55 0
 131              		.cfi_startproc
 132              		@ args = 0, pretend = 0, frame = 0
 133              		@ frame_needed = 0, uses_anonymous_args = 0
 134              		@ link register save eliminated.
 135              	.LVL4:
  92:Generated_Source\PSoC5/Maximum_Peak_Detector_A_Sample_Hold.c **** 
 136              		.loc 1 92 0
 137 0000 074B     		ldr	r3, .L11
 138 0002 0622     		movs	r2, #6
 139 0004 1A70     		strb	r2, [r3]
  95:Generated_Source\PSoC5/Maximum_Peak_Detector_A_Sample_Hold.c ****                                 Maximum_Peak_Detector_A_Sample_Hold_DIV2_ENABLE |
 140              		.loc 1 95 0
ARM GAS  C:\Users\ALEXAN~1\AppData\Local\Temp\cc2tNuml.s 			page 9


 141 0006 1822     		movs	r2, #24
 142 0008 5A70     		strb	r2, [r3, #1]
 106:Generated_Source\PSoC5/Maximum_Peak_Detector_A_Sample_Hold.c **** 										Maximum_Peak_Detector_A_Sample_Hold_GNDVREF_DI |
 143              		.loc 1 106 0
 144 000a 2122     		movs	r2, #33
 145 000c 9A70     		strb	r2, [r3, #2]
 121:Generated_Source\PSoC5/Maximum_Peak_Detector_A_Sample_Hold.c **** 
 146              		.loc 1 121 0
 147 000e 054A     		ldr	r2, .L11+4
 124:Generated_Source\PSoC5/Maximum_Peak_Detector_A_Sample_Hold.c ****     
 148              		.loc 1 124 0
 149 0010 0320     		movs	r0, #3
 121:Generated_Source\PSoC5/Maximum_Peak_Detector_A_Sample_Hold.c **** 
 150              		.loc 1 121 0
 151 0012 1378     		ldrb	r3, [r2]	@ zero_extendqisi2
 152 0014 43F00803 		orr	r3, r3, #8
 153 0018 1370     		strb	r3, [r2]
 124:Generated_Source\PSoC5/Maximum_Peak_Detector_A_Sample_Hold.c ****     
 154              		.loc 1 124 0
 155 001a FFF7FEBF 		b	Maximum_Peak_Detector_A_Sample_Hold_SetPower
 156              	.LVL5:
 157              	.L12:
 158 001e 00BF     		.align	2
 159              	.L11:
 160 0020 04580040 		.word	1073764356
 161 0024 1B5A0040 		.word	1073764891
 162              		.cfi_endproc
 163              	.LFE0:
 164              		.size	Maximum_Peak_Detector_A_Sample_Hold_Init, .-Maximum_Peak_Detector_A_Sample_Hold_Init
 165              		.section	.text.Maximum_Peak_Detector_A_Sample_Hold_Start,"ax",%progbits
 166              		.align	1
 167              		.global	Maximum_Peak_Detector_A_Sample_Hold_Start
 168              		.thumb
 169              		.thumb_func
 170              		.type	Maximum_Peak_Detector_A_Sample_Hold_Start, %function
 171              	Maximum_Peak_Detector_A_Sample_Hold_Start:
 172              	.LFB2:
 223:Generated_Source\PSoC5/Maximum_Peak_Detector_A_Sample_Hold.c ****     /* If not Initialized then initialize all required hardware and software */
 173              		.loc 1 223 0
 174              		.cfi_startproc
 175              		@ args = 0, pretend = 0, frame = 0
 176              		@ frame_needed = 0, uses_anonymous_args = 0
 177 0000 08B5     		push	{r3, lr}
 178              		.cfi_def_cfa_offset 8
 179              		.cfi_offset 3, -8
 180              		.cfi_offset 14, -4
 225:Generated_Source\PSoC5/Maximum_Peak_Detector_A_Sample_Hold.c ****     {
 181              		.loc 1 225 0
 182 0002 0549     		ldr	r1, .L16
 183 0004 0B78     		ldrb	r3, [r1]	@ zero_extendqisi2
 184 0006 1BB9     		cbnz	r3, .L14
 227:Generated_Source\PSoC5/Maximum_Peak_Detector_A_Sample_Hold.c ****         Maximum_Peak_Detector_A_Sample_Hold_initVar = 1u;
 185              		.loc 1 227 0
 186 0008 FFF7FEFF 		bl	Maximum_Peak_Detector_A_Sample_Hold_Init
 187              	.LVL6:
 228:Generated_Source\PSoC5/Maximum_Peak_Detector_A_Sample_Hold.c ****     }
 188              		.loc 1 228 0
ARM GAS  C:\Users\ALEXAN~1\AppData\Local\Temp\cc2tNuml.s 			page 10


 189 000c 0123     		movs	r3, #1
 190 000e 0B70     		strb	r3, [r1]
 191              	.L14:
 233:Generated_Source\PSoC5/Maximum_Peak_Detector_A_Sample_Hold.c **** 
 192              		.loc 1 233 0
 193 0010 BDE80840 		pop	{r3, lr}
 194              		.cfi_restore 14
 195              		.cfi_restore 3
 196              		.cfi_def_cfa_offset 0
 231:Generated_Source\PSoC5/Maximum_Peak_Detector_A_Sample_Hold.c ****     
 197              		.loc 1 231 0
 198 0014 FFF7FEBF 		b	Maximum_Peak_Detector_A_Sample_Hold_Enable
 199              	.LVL7:
 200              	.L17:
 201              		.align	2
 202              	.L16:
 203 0018 00000000 		.word	.LANCHOR0
 204              		.cfi_endproc
 205              	.LFE2:
 206              		.size	Maximum_Peak_Detector_A_Sample_Hold_Start, .-Maximum_Peak_Detector_A_Sample_Hold_Start
 207              		.global	Maximum_Peak_Detector_A_Sample_Hold_initVar
 208              		.bss
 209              		.set	.LANCHOR0,. + 0
 210              		.type	Maximum_Peak_Detector_A_Sample_Hold_initVar, %object
 211              		.size	Maximum_Peak_Detector_A_Sample_Hold_initVar, 1
 212              	Maximum_Peak_Detector_A_Sample_Hold_initVar:
 213 0000 00       		.space	1
 214              		.text
 215              	.Letext0:
 216              		.file 2 "Generated_Source\\PSoC5\\cytypes.h"