ARM GAS  C:\Users\ALEXAN~1\AppData\Local\Temp\cc7nZbZo.s 			page 1


   1              		.syntax unified
   2              		.cpu cortex-m3
   3              		.fpu softvfp
   4              		.eabi_attribute 20, 1
   5              		.eabi_attribute 21, 1
   6              		.eabi_attribute 23, 3
   7              		.eabi_attribute 24, 1
   8              		.eabi_attribute 25, 1
   9              		.eabi_attribute 26, 1
  10              		.eabi_attribute 30, 4
  11              		.eabi_attribute 34, 1
  12              		.eabi_attribute 18, 4
  13              		.thumb
  14              		.syntax unified
  15              		.file	"nRF24_FUNCS.c"
  16              		.text
  17              	.Ltext0:
  18              		.cfi_sections	.debug_frame
  19              		.section	.text.nRF24_init,"ax",%progbits
  20              		.align	1
  21              		.global	nRF24_init
  22              		.thumb
  23              		.thumb_func
  24              		.type	nRF24_init, %function
  25              	nRF24_init:
  26              	.LFB2:
  27              		.file 1 "Generated_Source\\PSoC5\\nRF24_FUNCS.c"
   1:Generated_Source\PSoC5/nRF24_FUNCS.c **** /****************************************************************************
   2:Generated_Source\PSoC5/nRF24_FUNCS.c **** * This file is part of the nRF24 Custom Component for PSoC Devices.
   3:Generated_Source\PSoC5/nRF24_FUNCS.c **** *
   4:Generated_Source\PSoC5/nRF24_FUNCS.c **** * Copyright (C) 2017 Carlos Diaz <carlos.santiago.diaz@gmail.com>
   5:Generated_Source\PSoC5/nRF24_FUNCS.c **** *
   6:Generated_Source\PSoC5/nRF24_FUNCS.c **** * Permission to use, copy, modify, and/or distribute this software for any
   7:Generated_Source\PSoC5/nRF24_FUNCS.c **** * purpose with or without fee is hereby granted, provided that the above
   8:Generated_Source\PSoC5/nRF24_FUNCS.c **** * copyright notice and this permission notice appear in all copies.
   9:Generated_Source\PSoC5/nRF24_FUNCS.c **** *
  10:Generated_Source\PSoC5/nRF24_FUNCS.c **** * THE SOFTWARE IS PROVIDED "AS IS" AND THE AUTHOR DISCLAIMS ALL WARRANTIES
  11:Generated_Source\PSoC5/nRF24_FUNCS.c **** * WITH REGARD TO THIS SOFTWARE INCLUDING ALL IMPLIED WARRANTIES OF
  12:Generated_Source\PSoC5/nRF24_FUNCS.c **** * MERCHANTABILITY AND FITNESS. IN NO EVENT SHALL THE AUTHOR BE LIABLE FOR
  13:Generated_Source\PSoC5/nRF24_FUNCS.c **** * ANY SPECIAL, DIRECT, INDIRECT, OR CONSEQUENTIAL DAMAGES OR ANY DAMAGES
  14:Generated_Source\PSoC5/nRF24_FUNCS.c **** * WHATSOEVER RESULTING FROM LOSS OF USE, DATA OR PROFITS, WHETHER IN AN
  15:Generated_Source\PSoC5/nRF24_FUNCS.c **** * ACTION OF CONTRACT, NEGLIGENCE OR OTHER TORTIOUS ACTION, ARISING OUT OF
  16:Generated_Source\PSoC5/nRF24_FUNCS.c **** * OR IN CONNECTION WITH THE USE OR PERFORMANCE OF THIS SOFTWARE.
  17:Generated_Source\PSoC5/nRF24_FUNCS.c **** ****************************************************************************/
  18:Generated_Source\PSoC5/nRF24_FUNCS.c **** 
  19:Generated_Source\PSoC5/nRF24_FUNCS.c **** /**
  20:Generated_Source\PSoC5/nRF24_FUNCS.c **** * @file nRF24_NRF_FUNCS.c
  21:Generated_Source\PSoC5/nRF24_FUNCS.c **** *
  22:Generated_Source\PSoC5/nRF24_FUNCS.c **** * @brief This file define all the functions available to the user.
  23:Generated_Source\PSoC5/nRF24_FUNCS.c **** */
  24:Generated_Source\PSoC5/nRF24_FUNCS.c **** 
  25:Generated_Source\PSoC5/nRF24_FUNCS.c **** #include "nRF24_CONFIG.h"
  26:Generated_Source\PSoC5/nRF24_FUNCS.c **** #include "nRF24_HAL.h"
  27:Generated_Source\PSoC5/nRF24_FUNCS.c **** #include "nRF24_COMMANDS.h"
  28:Generated_Source\PSoC5/nRF24_FUNCS.c **** #include "nRF24_FUNCS.h"
  29:Generated_Source\PSoC5/nRF24_FUNCS.c **** #include "nRF24_DEFS.h"
  30:Generated_Source\PSoC5/nRF24_FUNCS.c **** 
ARM GAS  C:\Users\ALEXAN~1\AppData\Local\Temp\cc7nZbZo.s 			page 2


  31:Generated_Source\PSoC5/nRF24_FUNCS.c **** /* "Helper" global variables */
  32:Generated_Source\PSoC5/nRF24_FUNCS.c **** /* _nrf_addr_width expresed in bytes, declared with the default value */
  33:Generated_Source\PSoC5/nRF24_FUNCS.c **** static nrf_pipe_addr_width _nrf_addr_width = NRF_PIPE_ADDR_WIDTH_5BYTES;
  34:Generated_Source\PSoC5/nRF24_FUNCS.c **** 
  35:Generated_Source\PSoC5/nRF24_FUNCS.c **** static void
  36:Generated_Source\PSoC5/nRF24_FUNCS.c **** _addr_width_conf_to_bytes(nrf_addr_width addr_width)
  37:Generated_Source\PSoC5/nRF24_FUNCS.c **** {
  38:Generated_Source\PSoC5/nRF24_FUNCS.c ****     switch(addr_width)
  39:Generated_Source\PSoC5/nRF24_FUNCS.c ****     {
  40:Generated_Source\PSoC5/nRF24_FUNCS.c ****     case NRF_SETUP_AW_3BYTES:
  41:Generated_Source\PSoC5/nRF24_FUNCS.c ****         _nrf_addr_width = NRF_PIPE_ADDR_WIDTH_3BYTES;
  42:Generated_Source\PSoC5/nRF24_FUNCS.c ****         break;
  43:Generated_Source\PSoC5/nRF24_FUNCS.c ****     case NRF_SETUP_AW_4BYTES:
  44:Generated_Source\PSoC5/nRF24_FUNCS.c ****         _nrf_addr_width = NRF_PIPE_ADDR_WIDTH_4BYTES;
  45:Generated_Source\PSoC5/nRF24_FUNCS.c ****         break;
  46:Generated_Source\PSoC5/nRF24_FUNCS.c ****     case NRF_SETUP_AW_5BYTES:
  47:Generated_Source\PSoC5/nRF24_FUNCS.c ****         _nrf_addr_width = NRF_PIPE_ADDR_WIDTH_5BYTES;
  48:Generated_Source\PSoC5/nRF24_FUNCS.c ****         break;
  49:Generated_Source\PSoC5/nRF24_FUNCS.c ****     }
  50:Generated_Source\PSoC5/nRF24_FUNCS.c **** }
  51:Generated_Source\PSoC5/nRF24_FUNCS.c **** 
  52:Generated_Source\PSoC5/nRF24_FUNCS.c **** /**
  53:Generated_Source\PSoC5/nRF24_FUNCS.c ****  * @brief Configure the radio and clear IRQs, TX and RX FIFOs.
  54:Generated_Source\PSoC5/nRF24_FUNCS.c ****  */
  55:Generated_Source\PSoC5/nRF24_FUNCS.c **** void nRF24_start(void)
  56:Generated_Source\PSoC5/nRF24_FUNCS.c **** {
  57:Generated_Source\PSoC5/nRF24_FUNCS.c ****     // Recommended delay before start using the nRF24
  58:Generated_Source\PSoC5/nRF24_FUNCS.c ****     CyDelay(NRF_POWER_UP_DELAY_MS);
  59:Generated_Source\PSoC5/nRF24_FUNCS.c **** 
  60:Generated_Source\PSoC5/nRF24_FUNCS.c ****     // Now the radio is in Power Down mode
  61:Generated_Source\PSoC5/nRF24_FUNCS.c **** 
  62:Generated_Source\PSoC5/nRF24_FUNCS.c **** #if defined (_PSOC6)
  63:Generated_Source\PSoC5/nRF24_FUNCS.c ****     /* We are using the low level driver, so pass NULL to the context */
  64:Generated_Source\PSoC5/nRF24_FUNCS.c ****     (void) Cy_SCB_SPI_Init(SPI_HW, &SPI_config, NULL);
  65:Generated_Source\PSoC5/nRF24_FUNCS.c ****     Cy_SCB_SPI_Enable(SPI_HW);
  66:Generated_Source\PSoC5/nRF24_FUNCS.c **** #else // _PSoC4_SCB and _PSOC_UDB
  67:Generated_Source\PSoC5/nRF24_FUNCS.c ****     SPI_Start();
  68:Generated_Source\PSoC5/nRF24_FUNCS.c **** #endif
  69:Generated_Source\PSoC5/nRF24_FUNCS.c ****     nRF24_ss_write(GPIO_SET);
  70:Generated_Source\PSoC5/nRF24_FUNCS.c ****     nRF24_ce_write(GPIO_CLEAR);
  71:Generated_Source\PSoC5/nRF24_FUNCS.c **** 
  72:Generated_Source\PSoC5/nRF24_FUNCS.c ****     // Flush both nRF24 FIFOs
  73:Generated_Source\PSoC5/nRF24_FUNCS.c ****     nRF24_flush_rx_cmd();
  74:Generated_Source\PSoC5/nRF24_FUNCS.c ****     nRF24_flush_tx_cmd();
  75:Generated_Source\PSoC5/nRF24_FUNCS.c ****     // Clear IRQ flags
  76:Generated_Source\PSoC5/nRF24_FUNCS.c ****     nRF24_clear_all_irqs();
  77:Generated_Source\PSoC5/nRF24_FUNCS.c **** 
  78:Generated_Source\PSoC5/nRF24_FUNCS.c ****     // Configure the nRF24 with the data from the customizer
  79:Generated_Source\PSoC5/nRF24_FUNCS.c ****     nRF24_init();
  80:Generated_Source\PSoC5/nRF24_FUNCS.c **** 
  81:Generated_Source\PSoC5/nRF24_FUNCS.c ****     // After PWR_UP = 1 the radio is in Standby-I mode, 130us of delay for settling
  82:Generated_Source\PSoC5/nRF24_FUNCS.c ****     CyDelayUs(150);
  83:Generated_Source\PSoC5/nRF24_FUNCS.c **** }
  84:Generated_Source\PSoC5/nRF24_FUNCS.c **** 
  85:Generated_Source\PSoC5/nRF24_FUNCS.c **** /**
  86:Generated_Source\PSoC5/nRF24_FUNCS.c ****  * Configure the nRF radio with the data from the customizer.
  87:Generated_Source\PSoC5/nRF24_FUNCS.c ****  */
ARM GAS  C:\Users\ALEXAN~1\AppData\Local\Temp\cc7nZbZo.s 			page 3


  88:Generated_Source\PSoC5/nRF24_FUNCS.c **** void nRF24_init(void)
  89:Generated_Source\PSoC5/nRF24_FUNCS.c **** {
  28              		.loc 1 89 0
  29              		.cfi_startproc
  30              		@ args = 0, pretend = 0, frame = 0
  31              		@ frame_needed = 0, uses_anonymous_args = 0
  32 0000 08B5     		push	{r3, lr}
  33              		.cfi_def_cfa_offset 8
  34              		.cfi_offset 3, -8
  35              		.cfi_offset 14, -4
  90:Generated_Source\PSoC5/nRF24_FUNCS.c ****     nRF24_write_register(NRF_REG_EN_AA, CUSTOMIZER_EN_AA);
  36              		.loc 1 90 0
  37 0002 0021     		movs	r1, #0
  38 0004 0120     		movs	r0, #1
  39 0006 FFF7FEFF 		bl	nRF24_write_register
  40              	.LVL0:
  91:Generated_Source\PSoC5/nRF24_FUNCS.c ****     nRF24_write_register(NRF_REG_EN_RXADDR, CUSTOMIZER_EN_RXADDR);
  41              		.loc 1 91 0
  42 000a 0121     		movs	r1, #1
  43 000c 0220     		movs	r0, #2
  44 000e FFF7FEFF 		bl	nRF24_write_register
  45              	.LVL1:
  92:Generated_Source\PSoC5/nRF24_FUNCS.c ****     nRF24_write_register(NRF_REG_SETUP_AW, CUSTOMIZER_SETUP_AW);
  46              		.loc 1 92 0
  47 0012 0321     		movs	r1, #3
  48 0014 0846     		mov	r0, r1
  49 0016 FFF7FEFF 		bl	nRF24_write_register
  50              	.LVL2:
  93:Generated_Source\PSoC5/nRF24_FUNCS.c ****     nRF24_write_register(NRF_REG_SETUP_RETR, CUSTOMIZER_SETUP_RETR);
  51              		.loc 1 93 0
  52 001a 0021     		movs	r1, #0
  53 001c 0420     		movs	r0, #4
  54 001e FFF7FEFF 		bl	nRF24_write_register
  55              	.LVL3:
  94:Generated_Source\PSoC5/nRF24_FUNCS.c ****     nRF24_write_register(NRF_REG_RF_CH, CUSTOMIZER_RF_CH);
  56              		.loc 1 94 0
  57 0022 4B21     		movs	r1, #75
  58 0024 0520     		movs	r0, #5
  59 0026 FFF7FEFF 		bl	nRF24_write_register
  60              	.LVL4:
  95:Generated_Source\PSoC5/nRF24_FUNCS.c ****     nRF24_write_register(NRF_REG_RF_SETUP, CUSTOMIZER_RF_SETUP);
  61              		.loc 1 95 0
  62 002a 0E21     		movs	r1, #14
  63 002c 0620     		movs	r0, #6
  64 002e FFF7FEFF 		bl	nRF24_write_register
  65              	.LVL5:
  96:Generated_Source\PSoC5/nRF24_FUNCS.c ****     nRF24_write_register(NRF_REG_DYNPD, CUSTOMIZER_DYNPD);
  66              		.loc 1 96 0
  67 0032 0021     		movs	r1, #0
  68 0034 1C20     		movs	r0, #28
  69 0036 FFF7FEFF 		bl	nRF24_write_register
  70              	.LVL6:
  97:Generated_Source\PSoC5/nRF24_FUNCS.c ****     nRF24_write_register(NRF_REG_FEATURE, CUSTOMIZER_FEATURE);
  71              		.loc 1 97 0
  72 003a 0021     		movs	r1, #0
  73 003c 1D20     		movs	r0, #29
  74 003e FFF7FEFF 		bl	nRF24_write_register
ARM GAS  C:\Users\ALEXAN~1\AppData\Local\Temp\cc7nZbZo.s 			page 4


  75              	.LVL7:
  98:Generated_Source\PSoC5/nRF24_FUNCS.c **** 
  99:Generated_Source\PSoC5/nRF24_FUNCS.c **** // Configuring data pipes
 100:Generated_Source\PSoC5/nRF24_FUNCS.c **** #if (ENABLE_PIPE0 == 1)
 101:Generated_Source\PSoC5/nRF24_FUNCS.c ****     nRF24_write_register(NRF_REG_RX_PW_P0, CUSTOMIZER_RX_PW_P0);
  76              		.loc 1 101 0
  77 0042 0221     		movs	r1, #2
  78 0044 1120     		movs	r0, #17
  79 0046 FFF7FEFF 		bl	nRF24_write_register
  80              	.LVL8:
 102:Generated_Source\PSoC5/nRF24_FUNCS.c **** #endif
 103:Generated_Source\PSoC5/nRF24_FUNCS.c **** #if (ENABLE_PIPE1 == 1)
 104:Generated_Source\PSoC5/nRF24_FUNCS.c ****     nRF24_write_register(NRF_REG_RX_PW_P1, CUSTOMIZER_RX_PW_P1);
 105:Generated_Source\PSoC5/nRF24_FUNCS.c **** #endif
 106:Generated_Source\PSoC5/nRF24_FUNCS.c **** #if (ENABLE_PIPE2 == 1)
 107:Generated_Source\PSoC5/nRF24_FUNCS.c ****     nRF24_write_register(NRF_REG_RX_ADDR_P2, CUSTOMIZER_RX_ADDR_P2);
 108:Generated_Source\PSoC5/nRF24_FUNCS.c ****     nRF24_write_register(NRF_REG_RX_PW_P2, CUSTOMIZER_RX_PW_P2);
 109:Generated_Source\PSoC5/nRF24_FUNCS.c **** #endif
 110:Generated_Source\PSoC5/nRF24_FUNCS.c **** #if (ENABLE_PIPE3 == 1)
 111:Generated_Source\PSoC5/nRF24_FUNCS.c ****     nRF24_write_register(NRF_REG_RX_ADDR_P3, CUSTOMIZER_RX_ADDR_P3);
 112:Generated_Source\PSoC5/nRF24_FUNCS.c ****     nRF24_write_register(NRF_REG_RX_PW_P3, CUSTOMIZER_RX_PW_P3);
 113:Generated_Source\PSoC5/nRF24_FUNCS.c **** #endif
 114:Generated_Source\PSoC5/nRF24_FUNCS.c **** #if (ENABLE_PIPE4 == 1)
 115:Generated_Source\PSoC5/nRF24_FUNCS.c ****     nRF24_write_register(NRF_REG_RX_ADDR_P4, CUSTOMIZER_RX_ADDR_P4);
 116:Generated_Source\PSoC5/nRF24_FUNCS.c ****     nRF24_write_register(NRF_REG_RX_PW_P4, CUSTOMIZER_RX_PW_P4);
 117:Generated_Source\PSoC5/nRF24_FUNCS.c **** #endif
 118:Generated_Source\PSoC5/nRF24_FUNCS.c **** #if (ENABLE_PIPE5 == 1)
 119:Generated_Source\PSoC5/nRF24_FUNCS.c ****     nRF24_write_register(NRF_REG_RX_ADDR_P5, CUSTOMIZER_RX_ADDR_P5);
 120:Generated_Source\PSoC5/nRF24_FUNCS.c ****     nRF24_write_register(NRF_REG_RX_PW_P5, CUSTOMIZER_RX_PW_P5);
 121:Generated_Source\PSoC5/nRF24_FUNCS.c **** #endif
 122:Generated_Source\PSoC5/nRF24_FUNCS.c **** 
 123:Generated_Source\PSoC5/nRF24_FUNCS.c ****     nRF24_write_register(NRF_REG_CONFIG, CUSTOMIZER_CONFIG);
  81              		.loc 1 123 0
  82 004a 3721     		movs	r1, #55
  83 004c 0020     		movs	r0, #0
  84 004e FFF7FEFF 		bl	nRF24_write_register
  85              	.LVL9:
  86              	.LBB6:
  87              	.LBB7:
  47:Generated_Source\PSoC5/nRF24_FUNCS.c ****         break;
  88              		.loc 1 47 0
  89 0052 024B     		ldr	r3, .L2
  90 0054 0522     		movs	r2, #5
  91 0056 1A70     		strb	r2, [r3]
  92              	.LVL10:
  93 0058 08BD     		pop	{r3, pc}
  94              	.L3:
  95 005a 00BF     		.align	2
  96              	.L2:
  97 005c 00000000 		.word	.LANCHOR0
  98              	.LBE7:
  99              	.LBE6:
 100              		.cfi_endproc
 101              	.LFE2:
 102              		.size	nRF24_init, .-nRF24_init
 103              		.section	.text.nRF24_enable,"ax",%progbits
 104              		.align	1
ARM GAS  C:\Users\ALEXAN~1\AppData\Local\Temp\cc7nZbZo.s 			page 5


 105              		.global	nRF24_enable
 106              		.thumb
 107              		.thumb_func
 108              		.type	nRF24_enable, %function
 109              	nRF24_enable:
 110              	.LFB70:
 111              		.cfi_startproc
 112              		@ args = 0, pretend = 0, frame = 0
 113              		@ frame_needed = 0, uses_anonymous_args = 0
 114              		@ link register save eliminated.
 115 0000 7047     		bx	lr
 116              		.cfi_endproc
 117              	.LFE70:
 118              		.size	nRF24_enable, .-nRF24_enable
 119              		.section	.text.nRF24_stop,"ax",%progbits
 120              		.align	1
 121              		.global	nRF24_stop
 122              		.thumb
 123              		.thumb_func
 124              		.type	nRF24_stop, %function
 125              	nRF24_stop:
 126              	.LFB68:
 127              		.cfi_startproc
 128              		@ args = 0, pretend = 0, frame = 0
 129              		@ frame_needed = 0, uses_anonymous_args = 0
 130              		@ link register save eliminated.
 131 0000 7047     		bx	lr
 132              		.cfi_endproc
 133              	.LFE68:
 134              		.size	nRF24_stop, .-nRF24_stop
 135              		.section	.text.nRF24_wakeup,"ax",%progbits
 136              		.align	1
 137              		.global	nRF24_wakeup
 138              		.thumb
 139              		.thumb_func
 140              		.type	nRF24_wakeup, %function
 141              	nRF24_wakeup:
 142              	.LFB6:
 124:Generated_Source\PSoC5/nRF24_FUNCS.c **** 
 125:Generated_Source\PSoC5/nRF24_FUNCS.c ****     // Set the _nrf_addr_width variable
 126:Generated_Source\PSoC5/nRF24_FUNCS.c ****     _addr_width_conf_to_bytes(CUSTOMIZER_SETUP_AW);
 127:Generated_Source\PSoC5/nRF24_FUNCS.c **** }
 128:Generated_Source\PSoC5/nRF24_FUNCS.c **** 
 129:Generated_Source\PSoC5/nRF24_FUNCS.c **** /**
 130:Generated_Source\PSoC5/nRF24_FUNCS.c ****  * Enable the nRF24 radio.
 131:Generated_Source\PSoC5/nRF24_FUNCS.c ****  *
 132:Generated_Source\PSoC5/nRF24_FUNCS.c ****  * @todo Implement this function
 133:Generated_Source\PSoC5/nRF24_FUNCS.c ****  */
 134:Generated_Source\PSoC5/nRF24_FUNCS.c **** void nRF24_enable(void)
 135:Generated_Source\PSoC5/nRF24_FUNCS.c **** {
 136:Generated_Source\PSoC5/nRF24_FUNCS.c **** }
 137:Generated_Source\PSoC5/nRF24_FUNCS.c **** 
 138:Generated_Source\PSoC5/nRF24_FUNCS.c **** /**
 139:Generated_Source\PSoC5/nRF24_FUNCS.c ****  * Stop the nRF24 radio.
 140:Generated_Source\PSoC5/nRF24_FUNCS.c ****  *
 141:Generated_Source\PSoC5/nRF24_FUNCS.c ****  * @todo Implement this function
 142:Generated_Source\PSoC5/nRF24_FUNCS.c ****  */
ARM GAS  C:\Users\ALEXAN~1\AppData\Local\Temp\cc7nZbZo.s 			page 6


 143:Generated_Source\PSoC5/nRF24_FUNCS.c **** void nRF24_stop(void)
 144:Generated_Source\PSoC5/nRF24_FUNCS.c **** {
 145:Generated_Source\PSoC5/nRF24_FUNCS.c **** }
 146:Generated_Source\PSoC5/nRF24_FUNCS.c **** 
 147:Generated_Source\PSoC5/nRF24_FUNCS.c **** /**
 148:Generated_Source\PSoC5/nRF24_FUNCS.c ****  * Put the nRF24 radio on Standby-I mode.
 149:Generated_Source\PSoC5/nRF24_FUNCS.c ****  * This function doesn't put the SPI, MCU nor pins to sleep
 150:Generated_Source\PSoC5/nRF24_FUNCS.c ****  */
 151:Generated_Source\PSoC5/nRF24_FUNCS.c **** void nRF24_sleep(void)
 152:Generated_Source\PSoC5/nRF24_FUNCS.c **** {
 153:Generated_Source\PSoC5/nRF24_FUNCS.c ****     // is standby.I the lowest power mode?
 154:Generated_Source\PSoC5/nRF24_FUNCS.c ****     nRF24_set_standby_i_mode();
 155:Generated_Source\PSoC5/nRF24_FUNCS.c **** }
 156:Generated_Source\PSoC5/nRF24_FUNCS.c **** 
 157:Generated_Source\PSoC5/nRF24_FUNCS.c **** /**
 158:Generated_Source\PSoC5/nRF24_FUNCS.c ****  * Wakeup the nRF24 radio, and restore the configuration.
 159:Generated_Source\PSoC5/nRF24_FUNCS.c ****  *
 160:Generated_Source\PSoC5/nRF24_FUNCS.c ****  * @todo Implement this function.
 161:Generated_Source\PSoC5/nRF24_FUNCS.c ****  */
 162:Generated_Source\PSoC5/nRF24_FUNCS.c **** void nRF24_wakeup(void)
 163:Generated_Source\PSoC5/nRF24_FUNCS.c **** {
 143              		.loc 1 163 0
 144              		.cfi_startproc
 145              		@ args = 0, pretend = 0, frame = 0
 146              		@ frame_needed = 0, uses_anonymous_args = 0
 147              		.loc 1 163 0
 148 0000 08B5     		push	{r3, lr}
 149              		.cfi_def_cfa_offset 8
 150              		.cfi_offset 3, -8
 151              		.cfi_offset 14, -4
 164:Generated_Source\PSoC5/nRF24_FUNCS.c ****     // after leaving standby-I mode the radio need a time to
 165:Generated_Source\PSoC5/nRF24_FUNCS.c ****     // return to TX or RX Mode
 166:Generated_Source\PSoC5/nRF24_FUNCS.c ****     nRF24_set_bit(NRF_REG_CONFIG, NRF_CONFIG_PWR_UP);
 152              		.loc 1 166 0
 153 0002 0020     		movs	r0, #0
 154 0004 0221     		movs	r1, #2
 155 0006 FFF7FEFF 		bl	nRF24_set_bit
 156              	.LVL11:
 167:Generated_Source\PSoC5/nRF24_FUNCS.c ****     CyDelay(5);
 168:Generated_Source\PSoC5/nRF24_FUNCS.c **** }
 157              		.loc 1 168 0
 158 000a BDE80840 		pop	{r3, lr}
 159              		.cfi_restore 14
 160              		.cfi_restore 3
 161              		.cfi_def_cfa_offset 0
 167:Generated_Source\PSoC5/nRF24_FUNCS.c ****     CyDelay(5);
 162              		.loc 1 167 0
 163 000e 0520     		movs	r0, #5
 164 0010 FFF7FEBF 		b	CyDelay
 165              	.LVL12:
 166              		.cfi_endproc
 167              	.LFE6:
 168              		.size	nRF24_wakeup, .-nRF24_wakeup
 169              		.section	.text.nRF24_save_config,"ax",%progbits
 170              		.align	1
 171              		.global	nRF24_save_config
 172              		.thumb
ARM GAS  C:\Users\ALEXAN~1\AppData\Local\Temp\cc7nZbZo.s 			page 7


 173              		.thumb_func
 174              		.type	nRF24_save_config, %function
 175              	nRF24_save_config:
 176              	.LFB66:
 177              		.cfi_startproc
 178              		@ args = 0, pretend = 0, frame = 0
 179              		@ frame_needed = 0, uses_anonymous_args = 0
 180              		@ link register save eliminated.
 181 0000 7047     		bx	lr
 182              		.cfi_endproc
 183              	.LFE66:
 184              		.size	nRF24_save_config, .-nRF24_save_config
 185              		.section	.text.nRF24_restore_config,"ax",%progbits
 186              		.align	1
 187              		.global	nRF24_restore_config
 188              		.thumb
 189              		.thumb_func
 190              		.type	nRF24_restore_config, %function
 191              	nRF24_restore_config:
 192              	.LFB64:
 193              		.cfi_startproc
 194              		@ args = 0, pretend = 0, frame = 0
 195              		@ frame_needed = 0, uses_anonymous_args = 0
 196              		@ link register save eliminated.
 197 0000 7047     		bx	lr
 198              		.cfi_endproc
 199              	.LFE64:
 200              		.size	nRF24_restore_config, .-nRF24_restore_config
 201              		.section	.text.nRF24_set_power_down_mode,"ax",%progbits
 202              		.align	1
 203              		.global	nRF24_set_power_down_mode
 204              		.thumb
 205              		.thumb_func
 206              		.type	nRF24_set_power_down_mode, %function
 207              	nRF24_set_power_down_mode:
 208              	.LFB10:
 169:Generated_Source\PSoC5/nRF24_FUNCS.c **** 
 170:Generated_Source\PSoC5/nRF24_FUNCS.c **** /**
 171:Generated_Source\PSoC5/nRF24_FUNCS.c ****  * Save the nRF24 radio configuration.
 172:Generated_Source\PSoC5/nRF24_FUNCS.c ****  *
 173:Generated_Source\PSoC5/nRF24_FUNCS.c ****  * @todo Implement this function.
 174:Generated_Source\PSoC5/nRF24_FUNCS.c ****  */
 175:Generated_Source\PSoC5/nRF24_FUNCS.c **** void nRF24_save_config(void)
 176:Generated_Source\PSoC5/nRF24_FUNCS.c **** {
 177:Generated_Source\PSoC5/nRF24_FUNCS.c **** }
 178:Generated_Source\PSoC5/nRF24_FUNCS.c **** 
 179:Generated_Source\PSoC5/nRF24_FUNCS.c **** /**
 180:Generated_Source\PSoC5/nRF24_FUNCS.c ****  * Restore the nRF24 radio configuration.
 181:Generated_Source\PSoC5/nRF24_FUNCS.c ****  *
 182:Generated_Source\PSoC5/nRF24_FUNCS.c ****  * @todo Implement this function.
 183:Generated_Source\PSoC5/nRF24_FUNCS.c ****  */
 184:Generated_Source\PSoC5/nRF24_FUNCS.c **** void nRF24_restore_config(void)
 185:Generated_Source\PSoC5/nRF24_FUNCS.c **** {
 186:Generated_Source\PSoC5/nRF24_FUNCS.c **** }
 187:Generated_Source\PSoC5/nRF24_FUNCS.c **** 
 188:Generated_Source\PSoC5/nRF24_FUNCS.c **** /**
 189:Generated_Source\PSoC5/nRF24_FUNCS.c ****  * Configure the radio as Receiver or Transmitter.
ARM GAS  C:\Users\ALEXAN~1\AppData\Local\Temp\cc7nZbZo.s 			page 8


 190:Generated_Source\PSoC5/nRF24_FUNCS.c ****  *
 191:Generated_Source\PSoC5/nRF24_FUNCS.c ****  * @param const nrf_mode mode: The radio can be configured as Receiver (PRX)
 192:Generated_Source\PSoC5/nRF24_FUNCS.c ****  * or Transmitter (PTX).
 193:Generated_Source\PSoC5/nRF24_FUNCS.c ****  */
 194:Generated_Source\PSoC5/nRF24_FUNCS.c **** void nRF24_set_mode(const nrf_mode mode)
 195:Generated_Source\PSoC5/nRF24_FUNCS.c **** {
 196:Generated_Source\PSoC5/nRF24_FUNCS.c ****     mode ? nRF24_set_rx_mode() : nRF24_set_tx_mode();
 197:Generated_Source\PSoC5/nRF24_FUNCS.c **** }
 198:Generated_Source\PSoC5/nRF24_FUNCS.c **** 
 199:Generated_Source\PSoC5/nRF24_FUNCS.c **** /**
 200:Generated_Source\PSoC5/nRF24_FUNCS.c ****  * @brief Set radio in Power Down Mode.
 201:Generated_Source\PSoC5/nRF24_FUNCS.c ****  *
 202:Generated_Source\PSoC5/nRF24_FUNCS.c ****  * In power down mode nRF24 is disabled using minimal current consumption.
 203:Generated_Source\PSoC5/nRF24_FUNCS.c ****  * All register values available are maintained and the SPI is kept active,
 204:Generated_Source\PSoC5/nRF24_FUNCS.c ****  * enabling change of configuration and the uploading/downloading of data
 205:Generated_Source\PSoC5/nRF24_FUNCS.c ****  * registers.
 206:Generated_Source\PSoC5/nRF24_FUNCS.c ****  * Power down mode is entered by setting the PWR_UP bit (CONFIG register) to 0.
 207:Generated_Source\PSoC5/nRF24_FUNCS.c ****  */
 208:Generated_Source\PSoC5/nRF24_FUNCS.c **** void nRF24_set_power_down_mode(void)
 209:Generated_Source\PSoC5/nRF24_FUNCS.c **** {
 209              		.loc 1 209 0
 210              		.cfi_startproc
 211              		@ args = 0, pretend = 0, frame = 0
 212              		@ frame_needed = 0, uses_anonymous_args = 0
 213              		@ link register save eliminated.
 210:Generated_Source\PSoC5/nRF24_FUNCS.c ****     nRF24_clear_bit(NRF_REG_CONFIG, NRF_CONFIG_PWR_UP);
 214              		.loc 1 210 0
 215 0000 0221     		movs	r1, #2
 216 0002 0020     		movs	r0, #0
 217 0004 FFF7FEBF 		b	nRF24_clear_bit
 218              	.LVL13:
 219              		.cfi_endproc
 220              	.LFE10:
 221              		.size	nRF24_set_power_down_mode, .-nRF24_set_power_down_mode
 222              		.section	.text.nRF24_set_rx_mode,"ax",%progbits
 223              		.align	1
 224              		.global	nRF24_set_rx_mode
 225              		.thumb
 226              		.thumb_func
 227              		.type	nRF24_set_rx_mode, %function
 228              	nRF24_set_rx_mode:
 229              	.LFB13:
 211:Generated_Source\PSoC5/nRF24_FUNCS.c **** }
 212:Generated_Source\PSoC5/nRF24_FUNCS.c **** 
 213:Generated_Source\PSoC5/nRF24_FUNCS.c **** /**
 214:Generated_Source\PSoC5/nRF24_FUNCS.c ****  * @brief Set the radio in Standby I Mode.
 215:Generated_Source\PSoC5/nRF24_FUNCS.c ****  *
 216:Generated_Source\PSoC5/nRF24_FUNCS.c ****  * By setting the PWR_UP bit in the CONFIG register to 1, the device enters
 217:Generated_Source\PSoC5/nRF24_FUNCS.c ****  * standby-I mode. Standby-I mode is used to minimize average current
 218:Generated_Source\PSoC5/nRF24_FUNCS.c ****  * consumption while maintaining short start up times.
 219:Generated_Source\PSoC5/nRF24_FUNCS.c ****  * In this mode only part of the crystal oscillator is active. Change to
 220:Generated_Source\PSoC5/nRF24_FUNCS.c ****  * active modes only happens if CE is set high and when CE is set low,
 221:Generated_Source\PSoC5/nRF24_FUNCS.c ****  * the nRF24 returns to standby-I mode from both the TX and RX modes.
 222:Generated_Source\PSoC5/nRF24_FUNCS.c ****  */
 223:Generated_Source\PSoC5/nRF24_FUNCS.c **** void nRF24_set_standby_i_mode(void)
 224:Generated_Source\PSoC5/nRF24_FUNCS.c **** {
 225:Generated_Source\PSoC5/nRF24_FUNCS.c ****     nRF24_stop_listening();
ARM GAS  C:\Users\ALEXAN~1\AppData\Local\Temp\cc7nZbZo.s 			page 9


 226:Generated_Source\PSoC5/nRF24_FUNCS.c ****     nRF24_set_bit(NRF_REG_CONFIG, NRF_CONFIG_PWR_UP);
 227:Generated_Source\PSoC5/nRF24_FUNCS.c **** }
 228:Generated_Source\PSoC5/nRF24_FUNCS.c **** 
 229:Generated_Source\PSoC5/nRF24_FUNCS.c **** /**
 230:Generated_Source\PSoC5/nRF24_FUNCS.c ****  * @brief Set the radio in Standby II Mode.
 231:Generated_Source\PSoC5/nRF24_FUNCS.c ****  *
 232:Generated_Source\PSoC5/nRF24_FUNCS.c ****  * In standby-II mode extra clock buffers are active and more current is used
 233:Generated_Source\PSoC5/nRF24_FUNCS.c ****  * compared to standby-I mode. nRF24 enters standby-II mode if CE is held high
 234:Generated_Source\PSoC5/nRF24_FUNCS.c ****  * on a TX device with an empty TX FIFO.
 235:Generated_Source\PSoC5/nRF24_FUNCS.c ****  * If a new packet is uploaded to the TX FIFO, the PLL immediately starts and
 236:Generated_Source\PSoC5/nRF24_FUNCS.c ****  * the packet is transmitted after the normal PLL settling  delay (130us).
 237:Generated_Source\PSoC5/nRF24_FUNCS.c ****  */
 238:Generated_Source\PSoC5/nRF24_FUNCS.c **** void nRF24_set_standby_ii_mode(void)
 239:Generated_Source\PSoC5/nRF24_FUNCS.c **** {
 240:Generated_Source\PSoC5/nRF24_FUNCS.c ****     nRF24_start_listening();
 241:Generated_Source\PSoC5/nRF24_FUNCS.c ****     nRF24_set_bit(NRF_REG_CONFIG, NRF_CONFIG_PWR_UP);
 242:Generated_Source\PSoC5/nRF24_FUNCS.c **** }
 243:Generated_Source\PSoC5/nRF24_FUNCS.c **** 
 244:Generated_Source\PSoC5/nRF24_FUNCS.c **** /**
 245:Generated_Source\PSoC5/nRF24_FUNCS.c ****  * @brief Set the radio in Receiver (Rx) Mode.
 246:Generated_Source\PSoC5/nRF24_FUNCS.c ****  *
 247:Generated_Source\PSoC5/nRF24_FUNCS.c ****  * RX mode is an active mode where the nRF24 radio is used as receiver. To
 248:Generated_Source\PSoC5/nRF24_FUNCS.c ****  * enter this mode, the nRF24 must have the PWR_UP bit, PRIM_RX bit and the CE
 249:Generated_Source\PSoC5/nRF24_FUNCS.c ****  * pin set high.
 250:Generated_Source\PSoC5/nRF24_FUNCS.c ****  */
 251:Generated_Source\PSoC5/nRF24_FUNCS.c **** void nRF24_set_rx_mode(void)
 252:Generated_Source\PSoC5/nRF24_FUNCS.c **** {
 230              		.loc 1 252 0
 231              		.cfi_startproc
 232              		@ args = 0, pretend = 0, frame = 0
 233              		@ frame_needed = 0, uses_anonymous_args = 0
 234              		@ link register save eliminated.
 253:Generated_Source\PSoC5/nRF24_FUNCS.c ****     nRF24_set_bit(NRF_REG_CONFIG, NRF_CONFIG_BIT_PRIM_RX);
 235              		.loc 1 253 0
 236 0000 0021     		movs	r1, #0
 237 0002 0846     		mov	r0, r1
 238 0004 FFF7FEBF 		b	nRF24_set_bit
 239              	.LVL14:
 240              		.cfi_endproc
 241              	.LFE13:
 242              		.size	nRF24_set_rx_mode, .-nRF24_set_rx_mode
 243              		.section	.text.nRF24_set_tx_mode,"ax",%progbits
 244              		.align	1
 245              		.global	nRF24_set_tx_mode
 246              		.thumb
 247              		.thumb_func
 248              		.type	nRF24_set_tx_mode, %function
 249              	nRF24_set_tx_mode:
 250              	.LFB14:
 254:Generated_Source\PSoC5/nRF24_FUNCS.c **** }
 255:Generated_Source\PSoC5/nRF24_FUNCS.c **** 
 256:Generated_Source\PSoC5/nRF24_FUNCS.c **** /**
 257:Generated_Source\PSoC5/nRF24_FUNCS.c ****  * @brief Set the radio in Transmitted (Tx) Mode.
 258:Generated_Source\PSoC5/nRF24_FUNCS.c ****  *
 259:Generated_Source\PSoC5/nRF24_FUNCS.c ****  * TX mode is an active mode for transmitting packets. To enter this mode,
 260:Generated_Source\PSoC5/nRF24_FUNCS.c ****  * the nRF24 must have the PWR_UP bit set high, PRIM_RX bit set low, a payload
 261:Generated_Source\PSoC5/nRF24_FUNCS.c ****  * in the TX FIFO and a high pulse on the CE for more than 10us.
ARM GAS  C:\Users\ALEXAN~1\AppData\Local\Temp\cc7nZbZo.s 			page 10


 262:Generated_Source\PSoC5/nRF24_FUNCS.c ****  */
 263:Generated_Source\PSoC5/nRF24_FUNCS.c **** void nRF24_set_tx_mode(void)
 264:Generated_Source\PSoC5/nRF24_FUNCS.c **** {
 251              		.loc 1 264 0
 252              		.cfi_startproc
 253              		@ args = 0, pretend = 0, frame = 0
 254              		@ frame_needed = 0, uses_anonymous_args = 0
 255              		@ link register save eliminated.
 265:Generated_Source\PSoC5/nRF24_FUNCS.c ****     nRF24_clear_bit(NRF_REG_CONFIG, NRF_CONFIG_BIT_PRIM_RX);
 256              		.loc 1 265 0
 257 0000 0021     		movs	r1, #0
 258 0002 0846     		mov	r0, r1
 259 0004 FFF7FEBF 		b	nRF24_clear_bit
 260              	.LVL15:
 261              		.cfi_endproc
 262              	.LFE14:
 263              		.size	nRF24_set_tx_mode, .-nRF24_set_tx_mode
 264              		.section	.text.nRF24_set_mode,"ax",%progbits
 265              		.align	1
 266              		.global	nRF24_set_mode
 267              		.thumb
 268              		.thumb_func
 269              		.type	nRF24_set_mode, %function
 270              	nRF24_set_mode:
 271              	.LFB9:
 195:Generated_Source\PSoC5/nRF24_FUNCS.c ****     mode ? nRF24_set_rx_mode() : nRF24_set_tx_mode();
 272              		.loc 1 195 0
 273              		.cfi_startproc
 274              		@ args = 0, pretend = 0, frame = 0
 275              		@ frame_needed = 0, uses_anonymous_args = 0
 276              		@ link register save eliminated.
 277              	.LVL16:
 196:Generated_Source\PSoC5/nRF24_FUNCS.c **** }
 278              		.loc 1 196 0
 279 0000 08B1     		cbz	r0, .L13
 196:Generated_Source\PSoC5/nRF24_FUNCS.c **** }
 280              		.loc 1 196 0 is_stmt 0 discriminator 1
 281 0002 FFF7FEBF 		b	nRF24_set_rx_mode
 282              	.LVL17:
 283              	.L13:
 196:Generated_Source\PSoC5/nRF24_FUNCS.c **** }
 284              		.loc 1 196 0 discriminator 2
 285 0006 FFF7FEBF 		b	nRF24_set_tx_mode
 286              	.LVL18:
 287              		.cfi_endproc
 288              	.LFE9:
 289              		.size	nRF24_set_mode, .-nRF24_set_mode
 290              		.section	.text.nRF24_enable_auto_ack,"ax",%progbits
 291              		.align	1
 292              		.global	nRF24_enable_auto_ack
 293              		.thumb
 294              		.thumb_func
 295              		.type	nRF24_enable_auto_ack, %function
 296              	nRF24_enable_auto_ack:
 297              	.LFB15:
 266:Generated_Source\PSoC5/nRF24_FUNCS.c **** }
 267:Generated_Source\PSoC5/nRF24_FUNCS.c **** 
ARM GAS  C:\Users\ALEXAN~1\AppData\Local\Temp\cc7nZbZo.s 			page 11


 268:Generated_Source\PSoC5/nRF24_FUNCS.c **** /**
 269:Generated_Source\PSoC5/nRF24_FUNCS.c ****  * @brief Enable AutoACK in the given pipe.
 270:Generated_Source\PSoC5/nRF24_FUNCS.c ****  *
 271:Generated_Source\PSoC5/nRF24_FUNCS.c ****  * @param pipe: Enable AutoACK in the given pipe.
 272:Generated_Source\PSoC5/nRF24_FUNCS.c ****  */
 273:Generated_Source\PSoC5/nRF24_FUNCS.c **** void nRF24_enable_auto_ack(const nrf_pipe pipe)
 274:Generated_Source\PSoC5/nRF24_FUNCS.c **** {
 298              		.loc 1 274 0 is_stmt 1
 299              		.cfi_startproc
 300              		@ args = 0, pretend = 0, frame = 0
 301              		@ frame_needed = 0, uses_anonymous_args = 0
 302              		@ link register save eliminated.
 303              	.LVL19:
 275:Generated_Source\PSoC5/nRF24_FUNCS.c ****     nRF24_set_bit(NRF_REG_EN_AA, pipe);
 304              		.loc 1 275 0
 305 0000 0146     		mov	r1, r0
 306 0002 0120     		movs	r0, #1
 307              	.LVL20:
 308 0004 FFF7FEBF 		b	nRF24_set_bit
 309              	.LVL21:
 310              		.cfi_endproc
 311              	.LFE15:
 312              		.size	nRF24_enable_auto_ack, .-nRF24_enable_auto_ack
 313              		.section	.text.nRF24_disable_auto_ack,"ax",%progbits
 314              		.align	1
 315              		.global	nRF24_disable_auto_ack
 316              		.thumb
 317              		.thumb_func
 318              		.type	nRF24_disable_auto_ack, %function
 319              	nRF24_disable_auto_ack:
 320              	.LFB16:
 276:Generated_Source\PSoC5/nRF24_FUNCS.c **** }
 277:Generated_Source\PSoC5/nRF24_FUNCS.c **** 
 278:Generated_Source\PSoC5/nRF24_FUNCS.c **** /**
 279:Generated_Source\PSoC5/nRF24_FUNCS.c ****  * @brief Disable AutoACK in the given pipe.
 280:Generated_Source\PSoC5/nRF24_FUNCS.c ****  *
 281:Generated_Source\PSoC5/nRF24_FUNCS.c ****  * @param pipe: Disable AutoACK in the given pipe.
 282:Generated_Source\PSoC5/nRF24_FUNCS.c ****  */
 283:Generated_Source\PSoC5/nRF24_FUNCS.c **** void nRF24_disable_auto_ack(const nrf_pipe pipe)
 284:Generated_Source\PSoC5/nRF24_FUNCS.c **** {
 321              		.loc 1 284 0
 322              		.cfi_startproc
 323              		@ args = 0, pretend = 0, frame = 0
 324              		@ frame_needed = 0, uses_anonymous_args = 0
 325              		@ link register save eliminated.
 326              	.LVL22:
 285:Generated_Source\PSoC5/nRF24_FUNCS.c ****     nRF24_clear_bit(NRF_REG_EN_AA, pipe);
 327              		.loc 1 285 0
 328 0000 0146     		mov	r1, r0
 329 0002 0120     		movs	r0, #1
 330              	.LVL23:
 331 0004 FFF7FEBF 		b	nRF24_clear_bit
 332              	.LVL24:
 333              		.cfi_endproc
 334              	.LFE16:
 335              		.size	nRF24_disable_auto_ack, .-nRF24_disable_auto_ack
 336              		.section	.text.nRF24_set_channel,"ax",%progbits
ARM GAS  C:\Users\ALEXAN~1\AppData\Local\Temp\cc7nZbZo.s 			page 12


 337              		.align	1
 338              		.global	nRF24_set_channel
 339              		.thumb
 340              		.thumb_func
 341              		.type	nRF24_set_channel, %function
 342              	nRF24_set_channel:
 343              	.LFB17:
 286:Generated_Source\PSoC5/nRF24_FUNCS.c **** }
 287:Generated_Source\PSoC5/nRF24_FUNCS.c **** 
 288:Generated_Source\PSoC5/nRF24_FUNCS.c **** /**
 289:Generated_Source\PSoC5/nRF24_FUNCS.c ****  * @brief Set the channel where the radio will work.
 290:Generated_Source\PSoC5/nRF24_FUNCS.c ****  *
 291:Generated_Source\PSoC5/nRF24_FUNCS.c ****  * @param uint8_t channel: Channel where the radio will work.
 292:Generated_Source\PSoC5/nRF24_FUNCS.c ****  */
 293:Generated_Source\PSoC5/nRF24_FUNCS.c **** void nRF24_set_channel(uint8_t channel)
 294:Generated_Source\PSoC5/nRF24_FUNCS.c **** {
 344              		.loc 1 294 0
 345              		.cfi_startproc
 346              		@ args = 0, pretend = 0, frame = 0
 347              		@ frame_needed = 0, uses_anonymous_args = 0
 348              	.LVL25:
 349 0000 08B5     		push	{r3, lr}
 350              		.cfi_def_cfa_offset 8
 351              		.cfi_offset 3, -8
 352              		.cfi_offset 14, -4
 295:Generated_Source\PSoC5/nRF24_FUNCS.c ****     if (NRF_MAX_RF_CHANNEL < channel) {
 296:Generated_Source\PSoC5/nRF24_FUNCS.c ****         channel = NRF_MAX_RF_CHANNEL;
 297:Generated_Source\PSoC5/nRF24_FUNCS.c ****     }
 298:Generated_Source\PSoC5/nRF24_FUNCS.c **** 
 299:Generated_Source\PSoC5/nRF24_FUNCS.c ****     nRF24_write_register(NRF_REG_RF_CH, channel);
 353              		.loc 1 299 0
 354 0002 7D28     		cmp	r0, #125
 355 0004 0146     		mov	r1, r0
 356 0006 28BF     		it	cs
 357 0008 7D21     		movcs	r1, #125
 358 000a 0520     		movs	r0, #5
 359              	.LVL26:
 360 000c FFF7FEFF 		bl	nRF24_write_register
 361              	.LVL27:
 300:Generated_Source\PSoC5/nRF24_FUNCS.c **** 
 301:Generated_Source\PSoC5/nRF24_FUNCS.c ****     // Flush both nRF24 FIFOs, from mcuoneclipse nrf24 component
 302:Generated_Source\PSoC5/nRF24_FUNCS.c ****     nRF24_flush_rx_cmd();
 362              		.loc 1 302 0
 363 0010 FFF7FEFF 		bl	nRF24_flush_rx_cmd
 364              	.LVL28:
 303:Generated_Source\PSoC5/nRF24_FUNCS.c ****     nRF24_flush_tx_cmd();
 304:Generated_Source\PSoC5/nRF24_FUNCS.c **** }
 365              		.loc 1 304 0
 366 0014 BDE80840 		pop	{r3, lr}
 367              		.cfi_restore 14
 368              		.cfi_restore 3
 369              		.cfi_def_cfa_offset 0
 303:Generated_Source\PSoC5/nRF24_FUNCS.c ****     nRF24_flush_tx_cmd();
 370              		.loc 1 303 0
 371 0018 FFF7FEBF 		b	nRF24_flush_tx_cmd
 372              	.LVL29:
 373              		.cfi_endproc
ARM GAS  C:\Users\ALEXAN~1\AppData\Local\Temp\cc7nZbZo.s 			page 13


 374              	.LFE17:
 375              		.size	nRF24_set_channel, .-nRF24_set_channel
 376              		.section	.text.nRF24_get_channel,"ax",%progbits
 377              		.align	1
 378              		.global	nRF24_get_channel
 379              		.thumb
 380              		.thumb_func
 381              		.type	nRF24_get_channel, %function
 382              	nRF24_get_channel:
 383              	.LFB18:
 305:Generated_Source\PSoC5/nRF24_FUNCS.c **** 
 306:Generated_Source\PSoC5/nRF24_FUNCS.c **** /**
 307:Generated_Source\PSoC5/nRF24_FUNCS.c ****  * @brief Set the data pipes address width.
 308:Generated_Source\PSoC5/nRF24_FUNCS.c ****  *
 309:Generated_Source\PSoC5/nRF24_FUNCS.c ****  * @param const nrf_setup_address_width addr_width:
 310:Generated_Source\PSoC5/nRF24_FUNCS.c ****  */
 311:Generated_Source\PSoC5/nRF24_FUNCS.c **** uint8_t nRF24_get_channel(void)
 312:Generated_Source\PSoC5/nRF24_FUNCS.c **** {
 384              		.loc 1 312 0
 385              		.cfi_startproc
 386              		@ args = 0, pretend = 0, frame = 0
 387              		@ frame_needed = 0, uses_anonymous_args = 0
 388              		@ link register save eliminated.
 313:Generated_Source\PSoC5/nRF24_FUNCS.c ****     return nRF24_read_register(NRF_REG_RF_CH);
 389              		.loc 1 313 0
 390 0000 0520     		movs	r0, #5
 391 0002 FFF7FEBF 		b	nRF24_read_register
 392              	.LVL30:
 393              		.cfi_endproc
 394              	.LFE18:
 395              		.size	nRF24_get_channel, .-nRF24_get_channel
 396              		.section	.text.nRF24_set_address_width,"ax",%progbits
 397              		.align	1
 398              		.global	nRF24_set_address_width
 399              		.thumb
 400              		.thumb_func
 401              		.type	nRF24_set_address_width, %function
 402              	nRF24_set_address_width:
 403              	.LFB19:
 314:Generated_Source\PSoC5/nRF24_FUNCS.c **** }
 315:Generated_Source\PSoC5/nRF24_FUNCS.c **** 
 316:Generated_Source\PSoC5/nRF24_FUNCS.c **** /**
 317:Generated_Source\PSoC5/nRF24_FUNCS.c ****  * @brief Set the data pipes address width.
 318:Generated_Source\PSoC5/nRF24_FUNCS.c ****  *
 319:Generated_Source\PSoC5/nRF24_FUNCS.c ****  * @param const nrf_addr_width addr_width:
 320:Generated_Source\PSoC5/nRF24_FUNCS.c ****  */
 321:Generated_Source\PSoC5/nRF24_FUNCS.c **** void nRF24_set_address_width(const nrf_addr_width addr_width)
 322:Generated_Source\PSoC5/nRF24_FUNCS.c **** {
 404              		.loc 1 322 0
 405              		.cfi_startproc
 406              		@ args = 0, pretend = 0, frame = 0
 407              		@ frame_needed = 0, uses_anonymous_args = 0
 408              	.LVL31:
 409 0000 10B5     		push	{r4, lr}
 410              		.cfi_def_cfa_offset 8
 411              		.cfi_offset 4, -8
 412              		.cfi_offset 14, -4
ARM GAS  C:\Users\ALEXAN~1\AppData\Local\Temp\cc7nZbZo.s 			page 14


 413              		.loc 1 322 0
 414 0002 0446     		mov	r4, r0
 323:Generated_Source\PSoC5/nRF24_FUNCS.c ****     nRF24_write_register(NRF_REG_SETUP_AW, (uint8_t)addr_width);
 415              		.loc 1 323 0
 416 0004 0146     		mov	r1, r0
 417 0006 0320     		movs	r0, #3
 418              	.LVL32:
 419 0008 FFF7FEFF 		bl	nRF24_write_register
 420              	.LVL33:
 421              	.LBB10:
 422              	.LBB11:
  38:Generated_Source\PSoC5/nRF24_FUNCS.c ****     {
 423              		.loc 1 38 0
 424 000c 022C     		cmp	r4, #2
 425 000e 05D0     		beq	.L21
 426 0010 032C     		cmp	r4, #3
 427 0012 05D0     		beq	.L22
 428 0014 012C     		cmp	r4, #1
 429 0016 06D1     		bne	.L19
  41:Generated_Source\PSoC5/nRF24_FUNCS.c ****         break;
 430              		.loc 1 41 0
 431 0018 0322     		movs	r2, #3
 432 001a 02E0     		b	.L24
 433              	.L21:
  44:Generated_Source\PSoC5/nRF24_FUNCS.c ****         break;
 434              		.loc 1 44 0
 435 001c 0422     		movs	r2, #4
 436 001e 00E0     		b	.L24
 437              	.L22:
  47:Generated_Source\PSoC5/nRF24_FUNCS.c ****         break;
 438              		.loc 1 47 0
 439 0020 0522     		movs	r2, #5
 440              	.L24:
 441 0022 014B     		ldr	r3, .L25
 442 0024 1A70     		strb	r2, [r3]
 443              	.LVL34:
 444              	.L19:
 445 0026 10BD     		pop	{r4, pc}
 446              	.L26:
 447              		.align	2
 448              	.L25:
 449 0028 00000000 		.word	.LANCHOR0
 450              	.LBE11:
 451              	.LBE10:
 452              		.cfi_endproc
 453              	.LFE19:
 454              		.size	nRF24_set_address_width, .-nRF24_set_address_width
 455              		.section	.text.nRF24_get_address_width,"ax",%progbits
 456              		.align	1
 457              		.global	nRF24_get_address_width
 458              		.thumb
 459              		.thumb_func
 460              		.type	nRF24_get_address_width, %function
 461              	nRF24_get_address_width:
 462              	.LFB20:
 324:Generated_Source\PSoC5/nRF24_FUNCS.c ****     // update the _nrf_addr_width variable
 325:Generated_Source\PSoC5/nRF24_FUNCS.c ****     _addr_width_conf_to_bytes(addr_width);
ARM GAS  C:\Users\ALEXAN~1\AppData\Local\Temp\cc7nZbZo.s 			page 15


 326:Generated_Source\PSoC5/nRF24_FUNCS.c **** }
 327:Generated_Source\PSoC5/nRF24_FUNCS.c **** 
 328:Generated_Source\PSoC5/nRF24_FUNCS.c **** /**
 329:Generated_Source\PSoC5/nRF24_FUNCS.c ****  * @brief Get the address width of the data pipes.
 330:Generated_Source\PSoC5/nRF24_FUNCS.c ****  *
 331:Generated_Source\PSoC5/nRF24_FUNCS.c ****  * @return uint8_t: Address width in bytes.
 332:Generated_Source\PSoC5/nRF24_FUNCS.c ****  */
 333:Generated_Source\PSoC5/nRF24_FUNCS.c **** uint8_t nRF24_get_address_width(void)
 334:Generated_Source\PSoC5/nRF24_FUNCS.c **** {
 463              		.loc 1 334 0
 464              		.cfi_startproc
 465              		@ args = 0, pretend = 0, frame = 0
 466              		@ frame_needed = 0, uses_anonymous_args = 0
 467              		@ link register save eliminated.
 335:Generated_Source\PSoC5/nRF24_FUNCS.c ****     return _nrf_addr_width;
 336:Generated_Source\PSoC5/nRF24_FUNCS.c **** }
 468              		.loc 1 336 0
 469 0000 014B     		ldr	r3, .L28
 470 0002 1878     		ldrb	r0, [r3]	@ zero_extendqisi2
 471 0004 7047     		bx	lr
 472              	.L29:
 473 0006 00BF     		.align	2
 474              	.L28:
 475 0008 00000000 		.word	.LANCHOR0
 476              		.cfi_endproc
 477              	.LFE20:
 478              		.size	nRF24_get_address_width, .-nRF24_get_address_width
 479              		.section	.text.nRF24_set_rx_pipe_address,"ax",%progbits
 480              		.align	1
 481              		.global	nRF24_set_rx_pipe_address
 482              		.thumb
 483              		.thumb_func
 484              		.type	nRF24_set_rx_pipe_address, %function
 485              	nRF24_set_rx_pipe_address:
 486              	.LFB21:
 337:Generated_Source\PSoC5/nRF24_FUNCS.c **** 
 338:Generated_Source\PSoC5/nRF24_FUNCS.c **** /**
 339:Generated_Source\PSoC5/nRF24_FUNCS.c ****  * @brief Set the address of the RX Pipe 0 in the radio.
 340:Generated_Source\PSoC5/nRF24_FUNCS.c ****  *
 341:Generated_Source\PSoC5/nRF24_FUNCS.c ****  * This function configure the address of the Rx Pipe 0 of the radio.
 342:Generated_Source\PSoC5/nRF24_FUNCS.c ****  *
 343:Generated_Source\PSoC5/nRF24_FUNCS.c ****  * @param const uint8_t* addr:
 344:Generated_Source\PSoC5/nRF24_FUNCS.c ****  * @param size_t size:
 345:Generated_Source\PSoC5/nRF24_FUNCS.c ****  */
 346:Generated_Source\PSoC5/nRF24_FUNCS.c **** void nRF24_set_rx_pipe_address(const nrf_addr_rx_pipe pipe,
 347:Generated_Source\PSoC5/nRF24_FUNCS.c ****                                             const uint8_t *addr, size_t size)
 348:Generated_Source\PSoC5/nRF24_FUNCS.c **** {
 487              		.loc 1 348 0
 488              		.cfi_startproc
 489              		@ args = 0, pretend = 0, frame = 0
 490              		@ frame_needed = 0, uses_anonymous_args = 0
 491              	.LVL35:
 492 0000 00B5     		push	{lr}
 493              		.cfi_def_cfa_offset 4
 494              		.cfi_offset 14, -4
 349:Generated_Source\PSoC5/nRF24_FUNCS.c ****     if (NULL == addr) {
 495              		.loc 1 349 0
ARM GAS  C:\Users\ALEXAN~1\AppData\Local\Temp\cc7nZbZo.s 			page 16


 496 0002 99B1     		cbz	r1, .L30
 350:Generated_Source\PSoC5/nRF24_FUNCS.c ****         return;
 351:Generated_Source\PSoC5/nRF24_FUNCS.c ****     }
 352:Generated_Source\PSoC5/nRF24_FUNCS.c ****     
 353:Generated_Source\PSoC5/nRF24_FUNCS.c ****     switch(pipe) {
 497              		.loc 1 353 0
 498 0004 A0F10A03 		sub	r3, r0, #10
 499 0008 052B     		cmp	r3, #5
 500 000a 0FD8     		bhi	.L30
 501 000c DFE803F0 		tbb	[pc, r3]
 502              	.L33:
 503 0010 03       		.byte	(.L32-.L33)/2
 504 0011 03       		.byte	(.L32-.L33)/2
 505 0012 09       		.byte	(.L34-.L33)/2
 506 0013 09       		.byte	(.L34-.L33)/2
 507 0014 09       		.byte	(.L34-.L33)/2
 508 0015 09       		.byte	(.L34-.L33)/2
 509              		.p2align 1
 510              	.L32:
 354:Generated_Source\PSoC5/nRF24_FUNCS.c ****     // For pipes 0 and 1 we can change up to 5 bytes of it's addresses
 355:Generated_Source\PSoC5/nRF24_FUNCS.c ****     case NRF_ADDR_PIPE0:
 356:Generated_Source\PSoC5/nRF24_FUNCS.c ****     case NRF_ADDR_PIPE1:
 357:Generated_Source\PSoC5/nRF24_FUNCS.c ****         // The smaller address is 3 bytes
 358:Generated_Source\PSoC5/nRF24_FUNCS.c ****         if (NRF_PIPE_ADDR_WIDTH_3BYTES > size) {
 359:Generated_Source\PSoC5/nRF24_FUNCS.c ****             // TODO
 360:Generated_Source\PSoC5/nRF24_FUNCS.c ****         }
 361:Generated_Source\PSoC5/nRF24_FUNCS.c ****         
 362:Generated_Source\PSoC5/nRF24_FUNCS.c ****         if (_nrf_addr_width < size) {
 511              		.loc 1 362 0
 512 0016 064B     		ldr	r3, .L39
 513 0018 1B78     		ldrb	r3, [r3]	@ zero_extendqisi2
 514              	.LVL36:
 363:Generated_Source\PSoC5/nRF24_FUNCS.c ****             size = _nrf_addr_width;
 364:Generated_Source\PSoC5/nRF24_FUNCS.c ****         }
 365:Generated_Source\PSoC5/nRF24_FUNCS.c ****             
 366:Generated_Source\PSoC5/nRF24_FUNCS.c ****         nRF24_write_long_register(pipe, addr, size);
 515              		.loc 1 366 0
 516 001a 9A42     		cmp	r2, r3
 517 001c 28BF     		it	cs
 518 001e 1A46     		movcs	r2, r3
 519              	.LVL37:
 520 0020 00E0     		b	.L38
 521              	.LVL38:
 522              	.L34:
 367:Generated_Source\PSoC5/nRF24_FUNCS.c ****         break;
 368:Generated_Source\PSoC5/nRF24_FUNCS.c ****     // For pipes 2, 3, 4 and 5 we can change only the LSB of it's address
 369:Generated_Source\PSoC5/nRF24_FUNCS.c ****     case NRF_ADDR_PIPE2:
 370:Generated_Source\PSoC5/nRF24_FUNCS.c ****     case NRF_ADDR_PIPE3:
 371:Generated_Source\PSoC5/nRF24_FUNCS.c ****     case NRF_ADDR_PIPE4:
 372:Generated_Source\PSoC5/nRF24_FUNCS.c ****     case NRF_ADDR_PIPE5:
 373:Generated_Source\PSoC5/nRF24_FUNCS.c ****         (void)size; // so we don't get a warning on unused variable
 374:Generated_Source\PSoC5/nRF24_FUNCS.c ****         
 375:Generated_Source\PSoC5/nRF24_FUNCS.c ****         nRF24_write_long_register(pipe, addr, 1);
 523              		.loc 1 375 0
 524 0022 0122     		movs	r2, #1
 525              	.LVL39:
 526              	.L38:
ARM GAS  C:\Users\ALEXAN~1\AppData\Local\Temp\cc7nZbZo.s 			page 17


 376:Generated_Source\PSoC5/nRF24_FUNCS.c ****         break;
 377:Generated_Source\PSoC5/nRF24_FUNCS.c ****     }
 378:Generated_Source\PSoC5/nRF24_FUNCS.c **** }
 527              		.loc 1 378 0
 528 0024 5DF804EB 		ldr	lr, [sp], #4
 529              		.cfi_remember_state
 530              		.cfi_restore 14
 531              		.cfi_def_cfa_offset 0
 375:Generated_Source\PSoC5/nRF24_FUNCS.c ****         break;
 532              		.loc 1 375 0
 533 0028 FFF7FEBF 		b	nRF24_write_long_register
 534              	.LVL40:
 535              	.L30:
 536              		.cfi_restore_state
 537 002c 5DF804FB 		ldr	pc, [sp], #4
 538              	.L40:
 539              		.align	2
 540              	.L39:
 541 0030 00000000 		.word	.LANCHOR0
 542              		.cfi_endproc
 543              	.LFE21:
 544              		.size	nRF24_set_rx_pipe_address, .-nRF24_set_rx_pipe_address
 545              		.section	.text.nRF24_get_rx_pipe_address,"ax",%progbits
 546              		.align	1
 547              		.global	nRF24_get_rx_pipe_address
 548              		.thumb
 549              		.thumb_func
 550              		.type	nRF24_get_rx_pipe_address, %function
 551              	nRF24_get_rx_pipe_address:
 552              	.LFB22:
 379:Generated_Source\PSoC5/nRF24_FUNCS.c **** 
 380:Generated_Source\PSoC5/nRF24_FUNCS.c **** /**
 381:Generated_Source\PSoC5/nRF24_FUNCS.c ****  * @brief Get the address of the RX Pipe 0 in the radio.
 382:Generated_Source\PSoC5/nRF24_FUNCS.c ****  *
 383:Generated_Source\PSoC5/nRF24_FUNCS.c ****  * @param uint8_t* addr:
 384:Generated_Source\PSoC5/nRF24_FUNCS.c ****  * @param size_t size:
 385:Generated_Source\PSoC5/nRF24_FUNCS.c ****  */
 386:Generated_Source\PSoC5/nRF24_FUNCS.c **** void nRF24_get_rx_pipe_address(const nrf_addr_rx_pipe pipe,
 387:Generated_Source\PSoC5/nRF24_FUNCS.c ****                                             uint8_t *addr, size_t size)
 388:Generated_Source\PSoC5/nRF24_FUNCS.c **** {
 553              		.loc 1 388 0
 554              		.cfi_startproc
 555              		@ args = 0, pretend = 0, frame = 0
 556              		@ frame_needed = 0, uses_anonymous_args = 0
 557              	.LVL41:
 558 0000 70B5     		push	{r4, r5, r6, lr}
 559              		.cfi_def_cfa_offset 16
 560              		.cfi_offset 4, -16
 561              		.cfi_offset 5, -12
 562              		.cfi_offset 6, -8
 563              		.cfi_offset 14, -4
 564              		.loc 1 388 0
 565 0002 0646     		mov	r6, r0
 389:Generated_Source\PSoC5/nRF24_FUNCS.c ****     if (NULL == addr) {
 566              		.loc 1 389 0
 567 0004 0D46     		mov	r5, r1
 568 0006 E1B1     		cbz	r1, .L41
ARM GAS  C:\Users\ALEXAN~1\AppData\Local\Temp\cc7nZbZo.s 			page 18


 390:Generated_Source\PSoC5/nRF24_FUNCS.c ****         return;
 391:Generated_Source\PSoC5/nRF24_FUNCS.c ****     }
 392:Generated_Source\PSoC5/nRF24_FUNCS.c ****     
 393:Generated_Source\PSoC5/nRF24_FUNCS.c ****     // The smaller address is 3 bytes
 394:Generated_Source\PSoC5/nRF24_FUNCS.c ****     if (NRF_PIPE_ADDR_WIDTH_3BYTES > size) {
 395:Generated_Source\PSoC5/nRF24_FUNCS.c ****         // TODO
 396:Generated_Source\PSoC5/nRF24_FUNCS.c ****     }
 397:Generated_Source\PSoC5/nRF24_FUNCS.c ****     
 398:Generated_Source\PSoC5/nRF24_FUNCS.c ****     if (_nrf_addr_width < size) {
 569              		.loc 1 398 0
 570 0008 0E4B     		ldr	r3, .L49
 571 000a 1C78     		ldrb	r4, [r3]	@ zero_extendqisi2
 399:Generated_Source\PSoC5/nRF24_FUNCS.c ****         size = _nrf_addr_width;
 400:Generated_Source\PSoC5/nRF24_FUNCS.c ****     }
 401:Generated_Source\PSoC5/nRF24_FUNCS.c ****     
 402:Generated_Source\PSoC5/nRF24_FUNCS.c ****     switch(pipe) {
 572              		.loc 1 402 0
 573 000c A0F10A03 		sub	r3, r0, #10
 574 0010 A242     		cmp	r2, r4
 575 0012 28BF     		it	cs
 576 0014 2246     		movcs	r2, r4
 577              	.LVL42:
 578 0016 052B     		cmp	r3, #5
 579 0018 13D8     		bhi	.L41
 580 001a DFE803F0 		tbb	[pc, r3]
 581              	.LVL43:
 582              	.L44:
 583 001e 03       		.byte	(.L43-.L44)/2
 584 001f 03       		.byte	(.L43-.L44)/2
 585 0020 08       		.byte	(.L45-.L44)/2
 586 0021 08       		.byte	(.L45-.L44)/2
 587 0022 08       		.byte	(.L45-.L44)/2
 588 0023 08       		.byte	(.L45-.L44)/2
 589              		.p2align 1
 590              	.L43:
 403:Generated_Source\PSoC5/nRF24_FUNCS.c ****     // For pipes 0 and 1 we can read up to 5 bytes of it's addresses
 404:Generated_Source\PSoC5/nRF24_FUNCS.c ****     case NRF_ADDR_PIPE0:
 405:Generated_Source\PSoC5/nRF24_FUNCS.c ****     case NRF_ADDR_PIPE1:
 406:Generated_Source\PSoC5/nRF24_FUNCS.c ****         nRF24_read_long_register(pipe, addr, size);
 591              		.loc 1 406 0
 592 0024 2946     		mov	r1, r5
 407:Generated_Source\PSoC5/nRF24_FUNCS.c ****         break;
 408:Generated_Source\PSoC5/nRF24_FUNCS.c ****     // For pipes 2, 3, 4 and 5 the address is the same to pipe1 except the LSB
 409:Generated_Source\PSoC5/nRF24_FUNCS.c ****     case NRF_ADDR_PIPE2:
 410:Generated_Source\PSoC5/nRF24_FUNCS.c ****     case NRF_ADDR_PIPE3:
 411:Generated_Source\PSoC5/nRF24_FUNCS.c ****     case NRF_ADDR_PIPE4:
 412:Generated_Source\PSoC5/nRF24_FUNCS.c ****     case NRF_ADDR_PIPE5:
 413:Generated_Source\PSoC5/nRF24_FUNCS.c ****         nRF24_read_long_register(NRF_REG_RX_ADDR_P1, addr, size - 1);
 414:Generated_Source\PSoC5/nRF24_FUNCS.c ****         addr[size - 1] = nRF24_read_register(pipe);
 415:Generated_Source\PSoC5/nRF24_FUNCS.c ****         break;
 416:Generated_Source\PSoC5/nRF24_FUNCS.c ****     }
 417:Generated_Source\PSoC5/nRF24_FUNCS.c **** }
 593              		.loc 1 417 0
 594 0026 BDE87040 		pop	{r4, r5, r6, lr}
 595              		.cfi_remember_state
 596              		.cfi_restore 14
 597              		.cfi_restore 6
ARM GAS  C:\Users\ALEXAN~1\AppData\Local\Temp\cc7nZbZo.s 			page 19


 598              		.cfi_restore 5
 599              		.cfi_restore 4
 600              		.cfi_def_cfa_offset 0
 601              	.LVL44:
 406:Generated_Source\PSoC5/nRF24_FUNCS.c ****         break;
 602              		.loc 1 406 0
 603 002a FFF7FEBF 		b	nRF24_read_long_register
 604              	.LVL45:
 605              	.L45:
 606              		.cfi_restore_state
 413:Generated_Source\PSoC5/nRF24_FUNCS.c ****         addr[size - 1] = nRF24_read_register(pipe);
 607              		.loc 1 413 0
 608 002e 541E     		subs	r4, r2, #1
 609 0030 2246     		mov	r2, r4
 610              	.LVL46:
 611 0032 2946     		mov	r1, r5
 612 0034 0B20     		movs	r0, #11
 613              	.LVL47:
 614 0036 FFF7FEFF 		bl	nRF24_read_long_register
 615              	.LVL48:
 414:Generated_Source\PSoC5/nRF24_FUNCS.c ****         break;
 616              		.loc 1 414 0
 617 003a 3046     		mov	r0, r6
 618 003c FFF7FEFF 		bl	nRF24_read_register
 619              	.LVL49:
 620 0040 2855     		strb	r0, [r5, r4]
 621              	.LVL50:
 622              	.L41:
 623 0042 70BD     		pop	{r4, r5, r6, pc}
 624              	.LVL51:
 625              	.L50:
 626              		.align	2
 627              	.L49:
 628 0044 00000000 		.word	.LANCHOR0
 629              		.cfi_endproc
 630              	.LFE22:
 631              		.size	nRF24_get_rx_pipe_address, .-nRF24_get_rx_pipe_address
 632              		.section	.text.nRF24_set_tx_address,"ax",%progbits
 633              		.align	1
 634              		.global	nRF24_set_tx_address
 635              		.thumb
 636              		.thumb_func
 637              		.type	nRF24_set_tx_address, %function
 638              	nRF24_set_tx_address:
 639              	.LFB23:
 418:Generated_Source\PSoC5/nRF24_FUNCS.c **** 
 419:Generated_Source\PSoC5/nRF24_FUNCS.c **** /**
 420:Generated_Source\PSoC5/nRF24_FUNCS.c ****  * @brief Set the TX Address of the radio.
 421:Generated_Source\PSoC5/nRF24_FUNCS.c ****  *
 422:Generated_Source\PSoC5/nRF24_FUNCS.c ****  * @param const uint8_t* addr:
 423:Generated_Source\PSoC5/nRF24_FUNCS.c ****  * @param size_t size:
 424:Generated_Source\PSoC5/nRF24_FUNCS.c ****  */
 425:Generated_Source\PSoC5/nRF24_FUNCS.c **** void nRF24_set_tx_address(const uint8_t *const addr, size_t size)
 426:Generated_Source\PSoC5/nRF24_FUNCS.c **** {
 640              		.loc 1 426 0
 641              		.cfi_startproc
 642              		@ args = 0, pretend = 0, frame = 0
ARM GAS  C:\Users\ALEXAN~1\AppData\Local\Temp\cc7nZbZo.s 			page 20


 643              		@ frame_needed = 0, uses_anonymous_args = 0
 644              		@ link register save eliminated.
 645              	.LVL52:
 427:Generated_Source\PSoC5/nRF24_FUNCS.c ****     if (NULL == addr) {
 646              		.loc 1 427 0
 647 0000 40B1     		cbz	r0, .L51
 428:Generated_Source\PSoC5/nRF24_FUNCS.c ****         return;
 429:Generated_Source\PSoC5/nRF24_FUNCS.c ****     }
 430:Generated_Source\PSoC5/nRF24_FUNCS.c **** 
 431:Generated_Source\PSoC5/nRF24_FUNCS.c ****     if (_nrf_addr_width < size) {
 648              		.loc 1 431 0
 649 0002 054B     		ldr	r3, .L53
 650 0004 1A78     		ldrb	r2, [r3]	@ zero_extendqisi2
 651              	.LVL53:
 432:Generated_Source\PSoC5/nRF24_FUNCS.c ****         size = _nrf_addr_width;
 433:Generated_Source\PSoC5/nRF24_FUNCS.c ****     }
 434:Generated_Source\PSoC5/nRF24_FUNCS.c **** 
 435:Generated_Source\PSoC5/nRF24_FUNCS.c ****     nRF24_write_long_register(NRF_REG_TX_ADDR, addr, size);
 652              		.loc 1 435 0
 653 0006 8A42     		cmp	r2, r1
 654 0008 28BF     		it	cs
 655 000a 0A46     		movcs	r2, r1
 656              	.LVL54:
 657 000c 0146     		mov	r1, r0
 658              	.LVL55:
 659 000e 1020     		movs	r0, #16
 660              	.LVL56:
 661 0010 FFF7FEBF 		b	nRF24_write_long_register
 662              	.LVL57:
 663              	.L51:
 664 0014 7047     		bx	lr
 665              	.L54:
 666 0016 00BF     		.align	2
 667              	.L53:
 668 0018 00000000 		.word	.LANCHOR0
 669              		.cfi_endproc
 670              	.LFE23:
 671              		.size	nRF24_set_tx_address, .-nRF24_set_tx_address
 672              		.section	.text.nRF24_get_tx_address,"ax",%progbits
 673              		.align	1
 674              		.global	nRF24_get_tx_address
 675              		.thumb
 676              		.thumb_func
 677              		.type	nRF24_get_tx_address, %function
 678              	nRF24_get_tx_address:
 679              	.LFB24:
 436:Generated_Source\PSoC5/nRF24_FUNCS.c **** }
 437:Generated_Source\PSoC5/nRF24_FUNCS.c **** 
 438:Generated_Source\PSoC5/nRF24_FUNCS.c **** /**
 439:Generated_Source\PSoC5/nRF24_FUNCS.c ****  * @brief Get the TX Address of the radio.
 440:Generated_Source\PSoC5/nRF24_FUNCS.c ****  *
 441:Generated_Source\PSoC5/nRF24_FUNCS.c ****  * @param const uint8_t* addr:
 442:Generated_Source\PSoC5/nRF24_FUNCS.c ****  * @param const size_t size:
 443:Generated_Source\PSoC5/nRF24_FUNCS.c ****  */
 444:Generated_Source\PSoC5/nRF24_FUNCS.c **** void nRF24_get_tx_address(uint8_t* addr, size_t size)
 445:Generated_Source\PSoC5/nRF24_FUNCS.c **** {
 680              		.loc 1 445 0
ARM GAS  C:\Users\ALEXAN~1\AppData\Local\Temp\cc7nZbZo.s 			page 21


 681              		.cfi_startproc
 682              		@ args = 0, pretend = 0, frame = 0
 683              		@ frame_needed = 0, uses_anonymous_args = 0
 684              		@ link register save eliminated.
 685              	.LVL58:
 446:Generated_Source\PSoC5/nRF24_FUNCS.c ****     if (NULL == addr) {
 686              		.loc 1 446 0
 687 0000 40B1     		cbz	r0, .L55
 447:Generated_Source\PSoC5/nRF24_FUNCS.c ****         return;
 448:Generated_Source\PSoC5/nRF24_FUNCS.c ****     }
 449:Generated_Source\PSoC5/nRF24_FUNCS.c **** 
 450:Generated_Source\PSoC5/nRF24_FUNCS.c ****     if (_nrf_addr_width < size) {
 688              		.loc 1 450 0
 689 0002 054B     		ldr	r3, .L57
 690 0004 1A78     		ldrb	r2, [r3]	@ zero_extendqisi2
 691              	.LVL59:
 451:Generated_Source\PSoC5/nRF24_FUNCS.c ****         size = _nrf_addr_width;
 452:Generated_Source\PSoC5/nRF24_FUNCS.c ****     }
 453:Generated_Source\PSoC5/nRF24_FUNCS.c **** 
 454:Generated_Source\PSoC5/nRF24_FUNCS.c ****     nRF24_read_long_register(NRF_REG_TX_ADDR, addr, size);
 692              		.loc 1 454 0
 693 0006 8A42     		cmp	r2, r1
 694 0008 28BF     		it	cs
 695 000a 0A46     		movcs	r2, r1
 696              	.LVL60:
 697 000c 0146     		mov	r1, r0
 698              	.LVL61:
 699 000e 1020     		movs	r0, #16
 700              	.LVL62:
 701 0010 FFF7FEBF 		b	nRF24_read_long_register
 702              	.LVL63:
 703              	.L55:
 704 0014 7047     		bx	lr
 705              	.L58:
 706 0016 00BF     		.align	2
 707              	.L57:
 708 0018 00000000 		.word	.LANCHOR0
 709              		.cfi_endproc
 710              	.LFE24:
 711              		.size	nRF24_get_tx_address, .-nRF24_get_tx_address
 712              		.section	.text.nRF24_set_payload_size,"ax",%progbits
 713              		.align	1
 714              		.global	nRF24_set_payload_size
 715              		.thumb
 716              		.thumb_func
 717              		.type	nRF24_set_payload_size, %function
 718              	nRF24_set_payload_size:
 719              	.LFB25:
 455:Generated_Source\PSoC5/nRF24_FUNCS.c **** }
 456:Generated_Source\PSoC5/nRF24_FUNCS.c **** 
 457:Generated_Source\PSoC5/nRF24_FUNCS.c **** /**
 458:Generated_Source\PSoC5/nRF24_FUNCS.c ****  * @brief Set the payload size of the given pipe.
 459:Generated_Source\PSoC5/nRF24_FUNCS.c ****  *
 460:Generated_Source\PSoC5/nRF24_FUNCS.c ****  * Configure the payload size of the given pipe.
 461:Generated_Source\PSoC5/nRF24_FUNCS.c ****  *
 462:Generated_Source\PSoC5/nRF24_FUNCS.c ****  * @param const nrf_pipe pipe:
 463:Generated_Source\PSoC5/nRF24_FUNCS.c ****  * @param uint8_t size:
ARM GAS  C:\Users\ALEXAN~1\AppData\Local\Temp\cc7nZbZo.s 			page 22


 464:Generated_Source\PSoC5/nRF24_FUNCS.c ****  */
 465:Generated_Source\PSoC5/nRF24_FUNCS.c **** void nRF24_set_payload_size(const nrf_pld_size pipe, uint8_t size)
 466:Generated_Source\PSoC5/nRF24_FUNCS.c **** {
 720              		.loc 1 466 0
 721              		.cfi_startproc
 722              		@ args = 0, pretend = 0, frame = 0
 723              		@ frame_needed = 0, uses_anonymous_args = 0
 724              		@ link register save eliminated.
 725              	.LVL64:
 467:Generated_Source\PSoC5/nRF24_FUNCS.c ****     if (NRF_PAYLOAD_SIZE_MAX < size) {
 468:Generated_Source\PSoC5/nRF24_FUNCS.c ****         size = NRF_PAYLOAD_SIZE_MAX;
 469:Generated_Source\PSoC5/nRF24_FUNCS.c ****     }
 470:Generated_Source\PSoC5/nRF24_FUNCS.c **** 
 471:Generated_Source\PSoC5/nRF24_FUNCS.c ****     nRF24_write_register(pipe, size);
 726              		.loc 1 471 0
 727 0000 2029     		cmp	r1, #32
 728 0002 28BF     		it	cs
 729 0004 2021     		movcs	r1, #32
 730              	.LVL65:
 731 0006 FFF7FEBF 		b	nRF24_write_register
 732              	.LVL66:
 733              		.cfi_endproc
 734              	.LFE25:
 735              		.size	nRF24_set_payload_size, .-nRF24_set_payload_size
 736              		.section	.text.nRF24_get_payload_size,"ax",%progbits
 737              		.align	1
 738              		.global	nRF24_get_payload_size
 739              		.thumb
 740              		.thumb_func
 741              		.type	nRF24_get_payload_size, %function
 742              	nRF24_get_payload_size:
 743              	.LFB26:
 472:Generated_Source\PSoC5/nRF24_FUNCS.c **** }
 473:Generated_Source\PSoC5/nRF24_FUNCS.c **** 
 474:Generated_Source\PSoC5/nRF24_FUNCS.c **** /**
 475:Generated_Source\PSoC5/nRF24_FUNCS.c ****  * Get the payload size of the given pipe.
 476:Generated_Source\PSoC5/nRF24_FUNCS.c ****  *
 477:Generated_Source\PSoC5/nRF24_FUNCS.c ****  * @param const nrf_pipe pipe: Pipe to be read.
 478:Generated_Source\PSoC5/nRF24_FUNCS.c ****  *
 479:Generated_Source\PSoC5/nRF24_FUNCS.c ****  * @return uint8_t: Configured payload size of the given pipe.
 480:Generated_Source\PSoC5/nRF24_FUNCS.c ****  */
 481:Generated_Source\PSoC5/nRF24_FUNCS.c **** uint8_t nRF24_get_payload_size(const nrf_pld_size pipe)
 482:Generated_Source\PSoC5/nRF24_FUNCS.c **** {
 744              		.loc 1 482 0
 745              		.cfi_startproc
 746              		@ args = 0, pretend = 0, frame = 0
 747              		@ frame_needed = 0, uses_anonymous_args = 0
 748              		@ link register save eliminated.
 749              	.LVL67:
 483:Generated_Source\PSoC5/nRF24_FUNCS.c ****     return nRF24_read_register(pipe);
 750              		.loc 1 483 0
 751 0000 FFF7FEBF 		b	nRF24_read_register
 752              	.LVL68:
 753              		.cfi_endproc
 754              	.LFE26:
 755              		.size	nRF24_get_payload_size, .-nRF24_get_payload_size
 756              		.section	.text.nRF24_enable_dynamic_payload,"ax",%progbits
ARM GAS  C:\Users\ALEXAN~1\AppData\Local\Temp\cc7nZbZo.s 			page 23


 757              		.align	1
 758              		.global	nRF24_enable_dynamic_payload
 759              		.thumb
 760              		.thumb_func
 761              		.type	nRF24_enable_dynamic_payload, %function
 762              	nRF24_enable_dynamic_payload:
 763              	.LFB28:
 484:Generated_Source\PSoC5/nRF24_FUNCS.c **** }
 485:Generated_Source\PSoC5/nRF24_FUNCS.c **** 
 486:Generated_Source\PSoC5/nRF24_FUNCS.c **** /**
 487:Generated_Source\PSoC5/nRF24_FUNCS.c ****  * @brief Reuse last transmitted payload.
 488:Generated_Source\PSoC5/nRF24_FUNCS.c ****  *
 489:Generated_Source\PSoC5/nRF24_FUNCS.c ****  * This function issue the command ReuseTxPayload and then toggle the CE pin
 490:Generated_Source\PSoC5/nRF24_FUNCS.c ****  * to transmit the last transmitted payload.
 491:Generated_Source\PSoC5/nRF24_FUNCS.c ****  */
 492:Generated_Source\PSoC5/nRF24_FUNCS.c **** void nRF24_reuse_last_transmitted_payload(void)
 493:Generated_Source\PSoC5/nRF24_FUNCS.c **** {
 494:Generated_Source\PSoC5/nRF24_FUNCS.c ****     nRF24_reuse_tx_payload_cmd();
 495:Generated_Source\PSoC5/nRF24_FUNCS.c ****     nRF24_transmit_pulse();
 496:Generated_Source\PSoC5/nRF24_FUNCS.c **** }
 497:Generated_Source\PSoC5/nRF24_FUNCS.c **** 
 498:Generated_Source\PSoC5/nRF24_FUNCS.c **** /**
 499:Generated_Source\PSoC5/nRF24_FUNCS.c ****  * @brief Enable dynamic payload on the given pipe.
 500:Generated_Source\PSoC5/nRF24_FUNCS.c ****  *
 501:Generated_Source\PSoC5/nRF24_FUNCS.c ****  * @param const nrf_pipe pipe:
 502:Generated_Source\PSoC5/nRF24_FUNCS.c ****  */
 503:Generated_Source\PSoC5/nRF24_FUNCS.c **** void nRF24_enable_dynamic_payload(void)
 504:Generated_Source\PSoC5/nRF24_FUNCS.c **** {
 764              		.loc 1 504 0
 765              		.cfi_startproc
 766              		@ args = 0, pretend = 0, frame = 0
 767              		@ frame_needed = 0, uses_anonymous_args = 0
 768 0000 08B5     		push	{r3, lr}
 769              		.cfi_def_cfa_offset 8
 770              		.cfi_offset 3, -8
 771              		.cfi_offset 14, -4
 505:Generated_Source\PSoC5/nRF24_FUNCS.c ****     // TODO: Read the FEATURE register, check the needed values and set
 506:Generated_Source\PSoC5/nRF24_FUNCS.c ****     // the bits if not set already
 507:Generated_Source\PSoC5/nRF24_FUNCS.c ****     nRF24_set_bit(NRF_REG_FEATURE, NRF_FEATURE_BIT_EN_ACK_PAY);
 772              		.loc 1 507 0
 773 0002 0121     		movs	r1, #1
 774 0004 1D20     		movs	r0, #29
 775 0006 FFF7FEFF 		bl	nRF24_set_bit
 776              	.LVL69:
 508:Generated_Source\PSoC5/nRF24_FUNCS.c ****     nRF24_set_bit(NRF_REG_FEATURE, NRF_FEATURE_BIT_EN_DPL);
 509:Generated_Source\PSoC5/nRF24_FUNCS.c **** }
 777              		.loc 1 509 0
 778 000a BDE80840 		pop	{r3, lr}
 779              		.cfi_restore 14
 780              		.cfi_restore 3
 781              		.cfi_def_cfa_offset 0
 508:Generated_Source\PSoC5/nRF24_FUNCS.c ****     nRF24_set_bit(NRF_REG_FEATURE, NRF_FEATURE_BIT_EN_DPL);
 782              		.loc 1 508 0
 783 000e 0221     		movs	r1, #2
 784 0010 1D20     		movs	r0, #29
 785 0012 FFF7FEBF 		b	nRF24_set_bit
 786              	.LVL70:
ARM GAS  C:\Users\ALEXAN~1\AppData\Local\Temp\cc7nZbZo.s 			page 24


 787              		.cfi_endproc
 788              	.LFE28:
 789              		.size	nRF24_enable_dynamic_payload, .-nRF24_enable_dynamic_payload
 790              		.section	.text.nRF24_enable_dynamic_payload_on_pipe,"ax",%progbits
 791              		.align	1
 792              		.global	nRF24_enable_dynamic_payload_on_pipe
 793              		.thumb
 794              		.thumb_func
 795              		.type	nRF24_enable_dynamic_payload_on_pipe, %function
 796              	nRF24_enable_dynamic_payload_on_pipe:
 797              	.LFB29:
 510:Generated_Source\PSoC5/nRF24_FUNCS.c **** 
 511:Generated_Source\PSoC5/nRF24_FUNCS.c **** /**
 512:Generated_Source\PSoC5/nRF24_FUNCS.c ****  * @brief Enable dynamic payload on the given pipe.
 513:Generated_Source\PSoC5/nRF24_FUNCS.c ****  *
 514:Generated_Source\PSoC5/nRF24_FUNCS.c ****  * @param const nrf_pipe pipe:
 515:Generated_Source\PSoC5/nRF24_FUNCS.c ****  */
 516:Generated_Source\PSoC5/nRF24_FUNCS.c **** void nRF24_enable_dynamic_payload_on_pipe(const nrf_pipe pipe)
 517:Generated_Source\PSoC5/nRF24_FUNCS.c **** {
 798              		.loc 1 517 0
 799              		.cfi_startproc
 800              		@ args = 0, pretend = 0, frame = 0
 801              		@ frame_needed = 0, uses_anonymous_args = 0
 802              	.LVL71:
 803 0000 10B5     		push	{r4, lr}
 804              		.cfi_def_cfa_offset 8
 805              		.cfi_offset 4, -8
 806              		.cfi_offset 14, -4
 807              		.loc 1 517 0
 808 0002 0446     		mov	r4, r0
 518:Generated_Source\PSoC5/nRF24_FUNCS.c ****     nRF24_set_bit(NRF_REG_EN_AA, pipe);
 809              		.loc 1 518 0
 810 0004 0146     		mov	r1, r0
 811 0006 0120     		movs	r0, #1
 812              	.LVL72:
 813 0008 FFF7FEFF 		bl	nRF24_set_bit
 814              	.LVL73:
 519:Generated_Source\PSoC5/nRF24_FUNCS.c ****     nRF24_set_bit(NRF_REG_DYNPD, pipe);
 815              		.loc 1 519 0
 816 000c 2146     		mov	r1, r4
 520:Generated_Source\PSoC5/nRF24_FUNCS.c **** }
 817              		.loc 1 520 0
 818 000e BDE81040 		pop	{r4, lr}
 819              		.cfi_restore 14
 820              		.cfi_restore 4
 821              		.cfi_def_cfa_offset 0
 519:Generated_Source\PSoC5/nRF24_FUNCS.c ****     nRF24_set_bit(NRF_REG_DYNPD, pipe);
 822              		.loc 1 519 0
 823 0012 1C20     		movs	r0, #28
 824 0014 FFF7FEBF 		b	nRF24_set_bit
 825              	.LVL74:
 826              		.cfi_endproc
 827              	.LFE29:
 828              		.size	nRF24_enable_dynamic_payload_on_pipe, .-nRF24_enable_dynamic_payload_on_pipe
 829              		.section	.text.nRF24_disable_dynamic_payload,"ax",%progbits
 830              		.align	1
 831              		.global	nRF24_disable_dynamic_payload
ARM GAS  C:\Users\ALEXAN~1\AppData\Local\Temp\cc7nZbZo.s 			page 25


 832              		.thumb
 833              		.thumb_func
 834              		.type	nRF24_disable_dynamic_payload, %function
 835              	nRF24_disable_dynamic_payload:
 836              	.LFB30:
 521:Generated_Source\PSoC5/nRF24_FUNCS.c **** 
 522:Generated_Source\PSoC5/nRF24_FUNCS.c **** /**
 523:Generated_Source\PSoC5/nRF24_FUNCS.c ****  * @brief Disable dynamic payload on the given pipe.
 524:Generated_Source\PSoC5/nRF24_FUNCS.c ****  *
 525:Generated_Source\PSoC5/nRF24_FUNCS.c ****  * @param const nrf_pipe pipe:
 526:Generated_Source\PSoC5/nRF24_FUNCS.c ****  */
 527:Generated_Source\PSoC5/nRF24_FUNCS.c **** void nRF24_disable_dynamic_payload()
 528:Generated_Source\PSoC5/nRF24_FUNCS.c **** {
 837              		.loc 1 528 0
 838              		.cfi_startproc
 839              		@ args = 0, pretend = 0, frame = 0
 840              		@ frame_needed = 0, uses_anonymous_args = 0
 841 0000 08B5     		push	{r3, lr}
 842              		.cfi_def_cfa_offset 8
 843              		.cfi_offset 3, -8
 844              		.cfi_offset 14, -4
 529:Generated_Source\PSoC5/nRF24_FUNCS.c ****     // TODO: Read the FEATURE register, check the needed values and clear
 530:Generated_Source\PSoC5/nRF24_FUNCS.c ****     // the bits if not clear already
 531:Generated_Source\PSoC5/nRF24_FUNCS.c ****     nRF24_clear_bit(NRF_REG_FEATURE, NRF_FEATURE_BIT_EN_ACK_PAY);
 845              		.loc 1 531 0
 846 0002 0121     		movs	r1, #1
 847 0004 1D20     		movs	r0, #29
 848 0006 FFF7FEFF 		bl	nRF24_clear_bit
 849              	.LVL75:
 532:Generated_Source\PSoC5/nRF24_FUNCS.c ****     nRF24_clear_bit(NRF_REG_FEATURE, NRF_FEATURE_BIT_EN_DPL);
 533:Generated_Source\PSoC5/nRF24_FUNCS.c **** }
 850              		.loc 1 533 0
 851 000a BDE80840 		pop	{r3, lr}
 852              		.cfi_restore 14
 853              		.cfi_restore 3
 854              		.cfi_def_cfa_offset 0
 532:Generated_Source\PSoC5/nRF24_FUNCS.c ****     nRF24_clear_bit(NRF_REG_FEATURE, NRF_FEATURE_BIT_EN_DPL);
 855              		.loc 1 532 0
 856 000e 0221     		movs	r1, #2
 857 0010 1D20     		movs	r0, #29
 858 0012 FFF7FEBF 		b	nRF24_clear_bit
 859              	.LVL76:
 860              		.cfi_endproc
 861              	.LFE30:
 862              		.size	nRF24_disable_dynamic_payload, .-nRF24_disable_dynamic_payload
 863              		.section	.text.nRF24_disable_dynamic_payload_on_pipe,"ax",%progbits
 864              		.align	1
 865              		.global	nRF24_disable_dynamic_payload_on_pipe
 866              		.thumb
 867              		.thumb_func
 868              		.type	nRF24_disable_dynamic_payload_on_pipe, %function
 869              	nRF24_disable_dynamic_payload_on_pipe:
 870              	.LFB31:
 534:Generated_Source\PSoC5/nRF24_FUNCS.c **** 
 535:Generated_Source\PSoC5/nRF24_FUNCS.c **** /**
 536:Generated_Source\PSoC5/nRF24_FUNCS.c ****  * @brief Disable dynamic payload on the given pipe.
 537:Generated_Source\PSoC5/nRF24_FUNCS.c ****  *
ARM GAS  C:\Users\ALEXAN~1\AppData\Local\Temp\cc7nZbZo.s 			page 26


 538:Generated_Source\PSoC5/nRF24_FUNCS.c ****  * @param const nrf_pipe pipe:
 539:Generated_Source\PSoC5/nRF24_FUNCS.c ****  */
 540:Generated_Source\PSoC5/nRF24_FUNCS.c **** void nRF24_disable_dynamic_payload_on_pipe(const nrf_pipe pipe)
 541:Generated_Source\PSoC5/nRF24_FUNCS.c **** {
 871              		.loc 1 541 0
 872              		.cfi_startproc
 873              		@ args = 0, pretend = 0, frame = 0
 874              		@ frame_needed = 0, uses_anonymous_args = 0
 875              	.LVL77:
 876 0000 10B5     		push	{r4, lr}
 877              		.cfi_def_cfa_offset 8
 878              		.cfi_offset 4, -8
 879              		.cfi_offset 14, -4
 880              		.loc 1 541 0
 881 0002 0446     		mov	r4, r0
 542:Generated_Source\PSoC5/nRF24_FUNCS.c ****     nRF24_clear_bit(NRF_REG_EN_AA, pipe);
 882              		.loc 1 542 0
 883 0004 0146     		mov	r1, r0
 884 0006 0120     		movs	r0, #1
 885              	.LVL78:
 886 0008 FFF7FEFF 		bl	nRF24_clear_bit
 887              	.LVL79:
 543:Generated_Source\PSoC5/nRF24_FUNCS.c ****     nRF24_clear_bit(NRF_REG_DYNPD, pipe);
 888              		.loc 1 543 0
 889 000c 2146     		mov	r1, r4
 544:Generated_Source\PSoC5/nRF24_FUNCS.c **** }
 890              		.loc 1 544 0
 891 000e BDE81040 		pop	{r4, lr}
 892              		.cfi_restore 14
 893              		.cfi_restore 4
 894              		.cfi_def_cfa_offset 0
 543:Generated_Source\PSoC5/nRF24_FUNCS.c ****     nRF24_clear_bit(NRF_REG_DYNPD, pipe);
 895              		.loc 1 543 0
 896 0012 1C20     		movs	r0, #28
 897 0014 FFF7FEBF 		b	nRF24_clear_bit
 898              	.LVL80:
 899              		.cfi_endproc
 900              	.LFE31:
 901              		.size	nRF24_disable_dynamic_payload_on_pipe, .-nRF24_disable_dynamic_payload_on_pipe
 902              		.section	.text.nRF24_enable_dynamic_payload_length,"ax",%progbits
 903              		.align	1
 904              		.global	nRF24_enable_dynamic_payload_length
 905              		.thumb
 906              		.thumb_func
 907              		.type	nRF24_enable_dynamic_payload_length, %function
 908              	nRF24_enable_dynamic_payload_length:
 909              	.LFB32:
 545:Generated_Source\PSoC5/nRF24_FUNCS.c **** 
 546:Generated_Source\PSoC5/nRF24_FUNCS.c **** /**
 547:Generated_Source\PSoC5/nRF24_FUNCS.c ****  * @brief Enable dinamic payload length.
 548:Generated_Source\PSoC5/nRF24_FUNCS.c ****  */
 549:Generated_Source\PSoC5/nRF24_FUNCS.c **** void nRF24_enable_dynamic_payload_length(void)
 550:Generated_Source\PSoC5/nRF24_FUNCS.c **** {
 910              		.loc 1 550 0
 911              		.cfi_startproc
 912              		@ args = 0, pretend = 0, frame = 0
 913              		@ frame_needed = 0, uses_anonymous_args = 0
ARM GAS  C:\Users\ALEXAN~1\AppData\Local\Temp\cc7nZbZo.s 			page 27


 914              		@ link register save eliminated.
 551:Generated_Source\PSoC5/nRF24_FUNCS.c ****     nRF24_set_bit(NRF_REG_FEATURE, NRF_FEATURE_BIT_EN_DPL);
 915              		.loc 1 551 0
 916 0000 0221     		movs	r1, #2
 917 0002 1D20     		movs	r0, #29
 918 0004 FFF7FEBF 		b	nRF24_set_bit
 919              	.LVL81:
 920              		.cfi_endproc
 921              	.LFE32:
 922              		.size	nRF24_enable_dynamic_payload_length, .-nRF24_enable_dynamic_payload_length
 923              		.section	.text.nRF24_disable_dynamic_payload_length,"ax",%progbits
 924              		.align	1
 925              		.global	nRF24_disable_dynamic_payload_length
 926              		.thumb
 927              		.thumb_func
 928              		.type	nRF24_disable_dynamic_payload_length, %function
 929              	nRF24_disable_dynamic_payload_length:
 930              	.LFB33:
 552:Generated_Source\PSoC5/nRF24_FUNCS.c **** }
 553:Generated_Source\PSoC5/nRF24_FUNCS.c **** 
 554:Generated_Source\PSoC5/nRF24_FUNCS.c **** /**
 555:Generated_Source\PSoC5/nRF24_FUNCS.c ****  * @brief Disable dynamic payload length.
 556:Generated_Source\PSoC5/nRF24_FUNCS.c ****  */
 557:Generated_Source\PSoC5/nRF24_FUNCS.c **** void nRF24_disable_dynamic_payload_length(void)
 558:Generated_Source\PSoC5/nRF24_FUNCS.c **** {
 931              		.loc 1 558 0
 932              		.cfi_startproc
 933              		@ args = 0, pretend = 0, frame = 0
 934              		@ frame_needed = 0, uses_anonymous_args = 0
 935              		@ link register save eliminated.
 559:Generated_Source\PSoC5/nRF24_FUNCS.c ****     nRF24_clear_bit(NRF_REG_FEATURE, NRF_FEATURE_BIT_EN_DPL);
 936              		.loc 1 559 0
 937 0000 0221     		movs	r1, #2
 938 0002 1D20     		movs	r0, #29
 939 0004 FFF7FEBF 		b	nRF24_clear_bit
 940              	.LVL82:
 941              		.cfi_endproc
 942              	.LFE33:
 943              		.size	nRF24_disable_dynamic_payload_length, .-nRF24_disable_dynamic_payload_length
 944              		.section	.text.nRF24_enable_payload_with_ack,"ax",%progbits
 945              		.align	1
 946              		.global	nRF24_enable_payload_with_ack
 947              		.thumb
 948              		.thumb_func
 949              		.type	nRF24_enable_payload_with_ack, %function
 950              	nRF24_enable_payload_with_ack:
 951              	.LFB34:
 560:Generated_Source\PSoC5/nRF24_FUNCS.c **** }
 561:Generated_Source\PSoC5/nRF24_FUNCS.c **** 
 562:Generated_Source\PSoC5/nRF24_FUNCS.c **** /**
 563:Generated_Source\PSoC5/nRF24_FUNCS.c ****  * @brief Enable payload with ACK.
 564:Generated_Source\PSoC5/nRF24_FUNCS.c ****  */
 565:Generated_Source\PSoC5/nRF24_FUNCS.c **** void nRF24_enable_payload_with_ack(void)
 566:Generated_Source\PSoC5/nRF24_FUNCS.c **** {
 952              		.loc 1 566 0
 953              		.cfi_startproc
 954              		@ args = 0, pretend = 0, frame = 0
ARM GAS  C:\Users\ALEXAN~1\AppData\Local\Temp\cc7nZbZo.s 			page 28


 955              		@ frame_needed = 0, uses_anonymous_args = 0
 956              		@ link register save eliminated.
 567:Generated_Source\PSoC5/nRF24_FUNCS.c ****     nRF24_set_bit(NRF_REG_FEATURE, NRF_FEATURE_BIT_EN_ACK_PAY);
 957              		.loc 1 567 0
 958 0000 0121     		movs	r1, #1
 959 0002 1D20     		movs	r0, #29
 960 0004 FFF7FEBF 		b	nRF24_set_bit
 961              	.LVL83:
 962              		.cfi_endproc
 963              	.LFE34:
 964              		.size	nRF24_enable_payload_with_ack, .-nRF24_enable_payload_with_ack
 965              		.section	.text.nRF24_disable_payload_with_ack,"ax",%progbits
 966              		.align	1
 967              		.global	nRF24_disable_payload_with_ack
 968              		.thumb
 969              		.thumb_func
 970              		.type	nRF24_disable_payload_with_ack, %function
 971              	nRF24_disable_payload_with_ack:
 972              	.LFB35:
 568:Generated_Source\PSoC5/nRF24_FUNCS.c **** }
 569:Generated_Source\PSoC5/nRF24_FUNCS.c **** 
 570:Generated_Source\PSoC5/nRF24_FUNCS.c **** /**
 571:Generated_Source\PSoC5/nRF24_FUNCS.c ****  * @brief Disable Payload with ACK.
 572:Generated_Source\PSoC5/nRF24_FUNCS.c ****  */
 573:Generated_Source\PSoC5/nRF24_FUNCS.c **** void nRF24_disable_payload_with_ack(void)
 574:Generated_Source\PSoC5/nRF24_FUNCS.c **** {
 973              		.loc 1 574 0
 974              		.cfi_startproc
 975              		@ args = 0, pretend = 0, frame = 0
 976              		@ frame_needed = 0, uses_anonymous_args = 0
 977              		@ link register save eliminated.
 575:Generated_Source\PSoC5/nRF24_FUNCS.c ****     nRF24_clear_bit(NRF_REG_FEATURE, NRF_FEATURE_BIT_EN_ACK_PAY);
 978              		.loc 1 575 0
 979 0000 0121     		movs	r1, #1
 980 0002 1D20     		movs	r0, #29
 981 0004 FFF7FEBF 		b	nRF24_clear_bit
 982              	.LVL84:
 983              		.cfi_endproc
 984              	.LFE35:
 985              		.size	nRF24_disable_payload_with_ack, .-nRF24_disable_payload_with_ack
 986              		.section	.text.nRF24_enable_payload_with_no_ack,"ax",%progbits
 987              		.align	1
 988              		.global	nRF24_enable_payload_with_no_ack
 989              		.thumb
 990              		.thumb_func
 991              		.type	nRF24_enable_payload_with_no_ack, %function
 992              	nRF24_enable_payload_with_no_ack:
 993              	.LFB36:
 576:Generated_Source\PSoC5/nRF24_FUNCS.c **** }
 577:Generated_Source\PSoC5/nRF24_FUNCS.c **** 
 578:Generated_Source\PSoC5/nRF24_FUNCS.c **** /**
 579:Generated_Source\PSoC5/nRF24_FUNCS.c ****  * @brief Enable dynamic payload length.
 580:Generated_Source\PSoC5/nRF24_FUNCS.c ****  */
 581:Generated_Source\PSoC5/nRF24_FUNCS.c **** void nRF24_enable_payload_with_no_ack(void)
 582:Generated_Source\PSoC5/nRF24_FUNCS.c **** {
 994              		.loc 1 582 0
 995              		.cfi_startproc
ARM GAS  C:\Users\ALEXAN~1\AppData\Local\Temp\cc7nZbZo.s 			page 29


 996              		@ args = 0, pretend = 0, frame = 0
 997              		@ frame_needed = 0, uses_anonymous_args = 0
 998              		@ link register save eliminated.
 583:Generated_Source\PSoC5/nRF24_FUNCS.c ****     nRF24_set_bit(NRF_REG_FEATURE, NRF_FEATURE_BIT_EN_DYN_ACK);
 999              		.loc 1 583 0
 1000 0000 0021     		movs	r1, #0
 1001 0002 1D20     		movs	r0, #29
 1002 0004 FFF7FEBF 		b	nRF24_set_bit
 1003              	.LVL85:
 1004              		.cfi_endproc
 1005              	.LFE36:
 1006              		.size	nRF24_enable_payload_with_no_ack, .-nRF24_enable_payload_with_no_ack
 1007              		.section	.text.nRF24_disable_payload_with_no_ack,"ax",%progbits
 1008              		.align	1
 1009              		.global	nRF24_disable_payload_with_no_ack
 1010              		.thumb
 1011              		.thumb_func
 1012              		.type	nRF24_disable_payload_with_no_ack, %function
 1013              	nRF24_disable_payload_with_no_ack:
 1014              	.LFB37:
 584:Generated_Source\PSoC5/nRF24_FUNCS.c **** }
 585:Generated_Source\PSoC5/nRF24_FUNCS.c **** 
 586:Generated_Source\PSoC5/nRF24_FUNCS.c **** /**
 587:Generated_Source\PSoC5/nRF24_FUNCS.c ****  * @brief Disable Payload with no ACK.
 588:Generated_Source\PSoC5/nRF24_FUNCS.c ****  */
 589:Generated_Source\PSoC5/nRF24_FUNCS.c **** void nRF24_disable_payload_with_no_ack(void)
 590:Generated_Source\PSoC5/nRF24_FUNCS.c **** {
 1015              		.loc 1 590 0
 1016              		.cfi_startproc
 1017              		@ args = 0, pretend = 0, frame = 0
 1018              		@ frame_needed = 0, uses_anonymous_args = 0
 1019              		@ link register save eliminated.
 591:Generated_Source\PSoC5/nRF24_FUNCS.c ****     nRF24_clear_bit(NRF_REG_FEATURE, NRF_FEATURE_BIT_EN_DYN_ACK);
 1020              		.loc 1 591 0
 1021 0000 0021     		movs	r1, #0
 1022 0002 1D20     		movs	r0, #29
 1023 0004 FFF7FEBF 		b	nRF24_clear_bit
 1024              	.LVL86:
 1025              		.cfi_endproc
 1026              	.LFE37:
 1027              		.size	nRF24_disable_payload_with_no_ack, .-nRF24_disable_payload_with_no_ack
 1028              		.section	.text.nRF24_start_listening,"ax",%progbits
 1029              		.align	1
 1030              		.global	nRF24_start_listening
 1031              		.thumb
 1032              		.thumb_func
 1033              		.type	nRF24_start_listening, %function
 1034              	nRF24_start_listening:
 1035              	.LFB38:
 592:Generated_Source\PSoC5/nRF24_FUNCS.c **** }
 593:Generated_Source\PSoC5/nRF24_FUNCS.c **** 
 594:Generated_Source\PSoC5/nRF24_FUNCS.c **** /**
 595:Generated_Source\PSoC5/nRF24_FUNCS.c ****  * @brief The nRF24 radio will start listening.
 596:Generated_Source\PSoC5/nRF24_FUNCS.c ****  *
 597:Generated_Source\PSoC5/nRF24_FUNCS.c ****  * This function set the pin CE to logic high, this enable the radio for
 598:Generated_Source\PSoC5/nRF24_FUNCS.c ****  * listening.
 599:Generated_Source\PSoC5/nRF24_FUNCS.c ****  */
ARM GAS  C:\Users\ALEXAN~1\AppData\Local\Temp\cc7nZbZo.s 			page 30


 600:Generated_Source\PSoC5/nRF24_FUNCS.c **** void nRF24_start_listening(void)
 601:Generated_Source\PSoC5/nRF24_FUNCS.c **** {
 1036              		.loc 1 601 0
 1037              		.cfi_startproc
 1038              		@ args = 0, pretend = 0, frame = 0
 1039              		@ frame_needed = 0, uses_anonymous_args = 0
 1040              		@ link register save eliminated.
 602:Generated_Source\PSoC5/nRF24_FUNCS.c ****     nRF24_ce_write(GPIO_SET);
 1041              		.loc 1 602 0
 1042 0000 0120     		movs	r0, #1
 1043 0002 FFF7FEBF 		b	nRF24_ce_write
 1044              	.LVL87:
 1045              		.cfi_endproc
 1046              	.LFE38:
 1047              		.size	nRF24_start_listening, .-nRF24_start_listening
 1048              		.section	.text.nRF24_set_standby_ii_mode,"ax",%progbits
 1049              		.align	1
 1050              		.global	nRF24_set_standby_ii_mode
 1051              		.thumb
 1052              		.thumb_func
 1053              		.type	nRF24_set_standby_ii_mode, %function
 1054              	nRF24_set_standby_ii_mode:
 1055              	.LFB12:
 239:Generated_Source\PSoC5/nRF24_FUNCS.c ****     nRF24_start_listening();
 1056              		.loc 1 239 0
 1057              		.cfi_startproc
 1058              		@ args = 0, pretend = 0, frame = 0
 1059              		@ frame_needed = 0, uses_anonymous_args = 0
 1060 0000 08B5     		push	{r3, lr}
 1061              		.cfi_def_cfa_offset 8
 1062              		.cfi_offset 3, -8
 1063              		.cfi_offset 14, -4
 240:Generated_Source\PSoC5/nRF24_FUNCS.c ****     nRF24_set_bit(NRF_REG_CONFIG, NRF_CONFIG_PWR_UP);
 1064              		.loc 1 240 0
 1065 0002 FFF7FEFF 		bl	nRF24_start_listening
 1066              	.LVL88:
 242:Generated_Source\PSoC5/nRF24_FUNCS.c **** 
 1067              		.loc 1 242 0
 1068 0006 BDE80840 		pop	{r3, lr}
 1069              		.cfi_restore 14
 1070              		.cfi_restore 3
 1071              		.cfi_def_cfa_offset 0
 241:Generated_Source\PSoC5/nRF24_FUNCS.c **** }
 1072              		.loc 1 241 0
 1073 000a 0221     		movs	r1, #2
 1074 000c 0020     		movs	r0, #0
 1075 000e FFF7FEBF 		b	nRF24_set_bit
 1076              	.LVL89:
 1077              		.cfi_endproc
 1078              	.LFE12:
 1079              		.size	nRF24_set_standby_ii_mode, .-nRF24_set_standby_ii_mode
 1080              		.section	.text.nRF24_stop_listening,"ax",%progbits
 1081              		.align	1
 1082              		.global	nRF24_stop_listening
 1083              		.thumb
 1084              		.thumb_func
 1085              		.type	nRF24_stop_listening, %function
ARM GAS  C:\Users\ALEXAN~1\AppData\Local\Temp\cc7nZbZo.s 			page 31


 1086              	nRF24_stop_listening:
 1087              	.LFB39:
 603:Generated_Source\PSoC5/nRF24_FUNCS.c **** }
 604:Generated_Source\PSoC5/nRF24_FUNCS.c **** 
 605:Generated_Source\PSoC5/nRF24_FUNCS.c **** /**
 606:Generated_Source\PSoC5/nRF24_FUNCS.c ****  * @brief The nRF24 radio will stop listening.
 607:Generated_Source\PSoC5/nRF24_FUNCS.c ****  *
 608:Generated_Source\PSoC5/nRF24_FUNCS.c ****  * This function the pin CE of the nRF24 radio will be set to logic low,
 609:Generated_Source\PSoC5/nRF24_FUNCS.c ****  * this disable the radio for listening.
 610:Generated_Source\PSoC5/nRF24_FUNCS.c ****  */
 611:Generated_Source\PSoC5/nRF24_FUNCS.c **** void nRF24_stop_listening(void)
 612:Generated_Source\PSoC5/nRF24_FUNCS.c **** {
 1088              		.loc 1 612 0
 1089              		.cfi_startproc
 1090              		@ args = 0, pretend = 0, frame = 0
 1091              		@ frame_needed = 0, uses_anonymous_args = 0
 1092              		@ link register save eliminated.
 613:Generated_Source\PSoC5/nRF24_FUNCS.c ****     nRF24_ce_write(GPIO_CLEAR);
 1093              		.loc 1 613 0
 1094 0000 0020     		movs	r0, #0
 1095 0002 FFF7FEBF 		b	nRF24_ce_write
 1096              	.LVL90:
 1097              		.cfi_endproc
 1098              	.LFE39:
 1099              		.size	nRF24_stop_listening, .-nRF24_stop_listening
 1100              		.section	.text.nRF24_set_standby_i_mode,"ax",%progbits
 1101              		.align	1
 1102              		.global	nRF24_set_standby_i_mode
 1103              		.thumb
 1104              		.thumb_func
 1105              		.type	nRF24_set_standby_i_mode, %function
 1106              	nRF24_set_standby_i_mode:
 1107              	.LFB11:
 224:Generated_Source\PSoC5/nRF24_FUNCS.c ****     nRF24_stop_listening();
 1108              		.loc 1 224 0
 1109              		.cfi_startproc
 1110              		@ args = 0, pretend = 0, frame = 0
 1111              		@ frame_needed = 0, uses_anonymous_args = 0
 1112 0000 08B5     		push	{r3, lr}
 1113              		.cfi_def_cfa_offset 8
 1114              		.cfi_offset 3, -8
 1115              		.cfi_offset 14, -4
 225:Generated_Source\PSoC5/nRF24_FUNCS.c ****     nRF24_set_bit(NRF_REG_CONFIG, NRF_CONFIG_PWR_UP);
 1116              		.loc 1 225 0
 1117 0002 FFF7FEFF 		bl	nRF24_stop_listening
 1118              	.LVL91:
 227:Generated_Source\PSoC5/nRF24_FUNCS.c **** 
 1119              		.loc 1 227 0
 1120 0006 BDE80840 		pop	{r3, lr}
 1121              		.cfi_restore 14
 1122              		.cfi_restore 3
 1123              		.cfi_def_cfa_offset 0
 226:Generated_Source\PSoC5/nRF24_FUNCS.c **** }
 1124              		.loc 1 226 0
 1125 000a 0221     		movs	r1, #2
 1126 000c 0020     		movs	r0, #0
 1127 000e FFF7FEBF 		b	nRF24_set_bit
ARM GAS  C:\Users\ALEXAN~1\AppData\Local\Temp\cc7nZbZo.s 			page 32


 1128              	.LVL92:
 1129              		.cfi_endproc
 1130              	.LFE11:
 1131              		.size	nRF24_set_standby_i_mode, .-nRF24_set_standby_i_mode
 1132              		.section	.text.nRF24_sleep,"ax",%progbits
 1133              		.align	1
 1134              		.global	nRF24_sleep
 1135              		.thumb
 1136              		.thumb_func
 1137              		.type	nRF24_sleep, %function
 1138              	nRF24_sleep:
 1139              	.LFB5:
 152:Generated_Source\PSoC5/nRF24_FUNCS.c ****     // is standby.I the lowest power mode?
 1140              		.loc 1 152 0
 1141              		.cfi_startproc
 1142              		@ args = 0, pretend = 0, frame = 0
 1143              		@ frame_needed = 0, uses_anonymous_args = 0
 1144              		@ link register save eliminated.
 154:Generated_Source\PSoC5/nRF24_FUNCS.c **** }
 1145              		.loc 1 154 0
 1146 0000 FFF7FEBF 		b	nRF24_set_standby_i_mode
 1147              	.LVL93:
 1148              		.cfi_endproc
 1149              	.LFE5:
 1150              		.size	nRF24_sleep, .-nRF24_sleep
 1151              		.section	.text.nRF24_transmit_pulse,"ax",%progbits
 1152              		.align	1
 1153              		.global	nRF24_transmit_pulse
 1154              		.thumb
 1155              		.thumb_func
 1156              		.type	nRF24_transmit_pulse, %function
 1157              	nRF24_transmit_pulse:
 1158              	.LFB40:
 614:Generated_Source\PSoC5/nRF24_FUNCS.c **** }
 615:Generated_Source\PSoC5/nRF24_FUNCS.c **** 
 616:Generated_Source\PSoC5/nRF24_FUNCS.c **** /**
 617:Generated_Source\PSoC5/nRF24_FUNCS.c ****  * @brief Transmit pulse on the CE pin.
 618:Generated_Source\PSoC5/nRF24_FUNCS.c ****  *
 619:Generated_Source\PSoC5/nRF24_FUNCS.c ****  * With this function the CE pin of the nRF24 radio will have a pulse of 15us,
 620:Generated_Source\PSoC5/nRF24_FUNCS.c ****  * this pulse trigger a transmission of the content of the TX FIFO.
 621:Generated_Source\PSoC5/nRF24_FUNCS.c ****  */
 622:Generated_Source\PSoC5/nRF24_FUNCS.c **** void nRF24_transmit_pulse(void)
 623:Generated_Source\PSoC5/nRF24_FUNCS.c **** {
 1159              		.loc 1 623 0
 1160              		.cfi_startproc
 1161              		@ args = 0, pretend = 0, frame = 0
 1162              		@ frame_needed = 0, uses_anonymous_args = 0
 1163 0000 08B5     		push	{r3, lr}
 1164              		.cfi_def_cfa_offset 8
 1165              		.cfi_offset 3, -8
 1166              		.cfi_offset 14, -4
 624:Generated_Source\PSoC5/nRF24_FUNCS.c ****     nRF24_ce_write(GPIO_SET);
 1167              		.loc 1 624 0
 1168 0002 0120     		movs	r0, #1
 1169 0004 FFF7FEFF 		bl	nRF24_ce_write
 1170              	.LVL94:
 625:Generated_Source\PSoC5/nRF24_FUNCS.c ****     CyDelayUs(NRF_CE_PULSE_WIDTH_US);
ARM GAS  C:\Users\ALEXAN~1\AppData\Local\Temp\cc7nZbZo.s 			page 33


 1171              		.loc 1 625 0
 1172 0008 0F20     		movs	r0, #15
 1173 000a FFF7FEFF 		bl	CyDelayUs
 1174              	.LVL95:
 626:Generated_Source\PSoC5/nRF24_FUNCS.c ****     nRF24_ce_write(GPIO_CLEAR);
 627:Generated_Source\PSoC5/nRF24_FUNCS.c **** }
 1175              		.loc 1 627 0
 1176 000e BDE80840 		pop	{r3, lr}
 1177              		.cfi_restore 14
 1178              		.cfi_restore 3
 1179              		.cfi_def_cfa_offset 0
 626:Generated_Source\PSoC5/nRF24_FUNCS.c ****     nRF24_ce_write(GPIO_CLEAR);
 1180              		.loc 1 626 0
 1181 0012 0020     		movs	r0, #0
 1182 0014 FFF7FEBF 		b	nRF24_ce_write
 1183              	.LVL96:
 1184              		.cfi_endproc
 1185              	.LFE40:
 1186              		.size	nRF24_transmit_pulse, .-nRF24_transmit_pulse
 1187              		.section	.text.nRF24_reuse_last_transmitted_payload,"ax",%progbits
 1188              		.align	1
 1189              		.global	nRF24_reuse_last_transmitted_payload
 1190              		.thumb
 1191              		.thumb_func
 1192              		.type	nRF24_reuse_last_transmitted_payload, %function
 1193              	nRF24_reuse_last_transmitted_payload:
 1194              	.LFB27:
 493:Generated_Source\PSoC5/nRF24_FUNCS.c ****     nRF24_reuse_tx_payload_cmd();
 1195              		.loc 1 493 0
 1196              		.cfi_startproc
 1197              		@ args = 0, pretend = 0, frame = 0
 1198              		@ frame_needed = 0, uses_anonymous_args = 0
 1199 0000 08B5     		push	{r3, lr}
 1200              		.cfi_def_cfa_offset 8
 1201              		.cfi_offset 3, -8
 1202              		.cfi_offset 14, -4
 494:Generated_Source\PSoC5/nRF24_FUNCS.c ****     nRF24_transmit_pulse();
 1203              		.loc 1 494 0
 1204 0002 FFF7FEFF 		bl	nRF24_reuse_tx_payload_cmd
 1205              	.LVL97:
 496:Generated_Source\PSoC5/nRF24_FUNCS.c **** 
 1206              		.loc 1 496 0
 1207 0006 BDE80840 		pop	{r3, lr}
 1208              		.cfi_restore 14
 1209              		.cfi_restore 3
 1210              		.cfi_def_cfa_offset 0
 495:Generated_Source\PSoC5/nRF24_FUNCS.c **** }
 1211              		.loc 1 495 0
 1212 000a FFF7FEBF 		b	nRF24_transmit_pulse
 1213              	.LVL98:
 1214              		.cfi_endproc
 1215              	.LFE27:
 1216              		.size	nRF24_reuse_last_transmitted_payload, .-nRF24_reuse_last_transmitted_payload
 1217              		.section	.text.nRF24_get_status,"ax",%progbits
 1218              		.align	1
 1219              		.global	nRF24_get_status
 1220              		.thumb
ARM GAS  C:\Users\ALEXAN~1\AppData\Local\Temp\cc7nZbZo.s 			page 34


 1221              		.thumb_func
 1222              		.type	nRF24_get_status, %function
 1223              	nRF24_get_status:
 1224              	.LFB41:
 628:Generated_Source\PSoC5/nRF24_FUNCS.c **** 
 629:Generated_Source\PSoC5/nRF24_FUNCS.c **** /**
 630:Generated_Source\PSoC5/nRF24_FUNCS.c ****  * @brief Get the STATUS register of the nRF24.
 631:Generated_Source\PSoC5/nRF24_FUNCS.c ****  *
 632:Generated_Source\PSoC5/nRF24_FUNCS.c ****  * @return uint8_t: STATUS register of the nRF24.
 633:Generated_Source\PSoC5/nRF24_FUNCS.c ****  */
 634:Generated_Source\PSoC5/nRF24_FUNCS.c **** uint8_t nRF24_get_status(void)
 635:Generated_Source\PSoC5/nRF24_FUNCS.c **** {
 1225              		.loc 1 635 0
 1226              		.cfi_startproc
 1227              		@ args = 0, pretend = 0, frame = 0
 1228              		@ frame_needed = 0, uses_anonymous_args = 0
 1229              		@ link register save eliminated.
 636:Generated_Source\PSoC5/nRF24_FUNCS.c ****     return nRF24_nop_cmd();
 1230              		.loc 1 636 0
 1231 0000 FFF7FEBF 		b	nRF24_nop_cmd
 1232              	.LVL99:
 1233              		.cfi_endproc
 1234              	.LFE41:
 1235              		.size	nRF24_get_status, .-nRF24_get_status
 1236              		.section	.text.nRF24_get_fifo_status,"ax",%progbits
 1237              		.align	1
 1238              		.global	nRF24_get_fifo_status
 1239              		.thumb
 1240              		.thumb_func
 1241              		.type	nRF24_get_fifo_status, %function
 1242              	nRF24_get_fifo_status:
 1243              	.LFB42:
 637:Generated_Source\PSoC5/nRF24_FUNCS.c **** }
 638:Generated_Source\PSoC5/nRF24_FUNCS.c **** 
 639:Generated_Source\PSoC5/nRF24_FUNCS.c **** /**
 640:Generated_Source\PSoC5/nRF24_FUNCS.c ****  * @brief Get the STATUS register of the nRF24.
 641:Generated_Source\PSoC5/nRF24_FUNCS.c ****  *
 642:Generated_Source\PSoC5/nRF24_FUNCS.c ****  * @return uint8_t: STATUS register of the nRF24.
 643:Generated_Source\PSoC5/nRF24_FUNCS.c ****  */
 644:Generated_Source\PSoC5/nRF24_FUNCS.c **** uint8_t nRF24_get_fifo_status(void)
 645:Generated_Source\PSoC5/nRF24_FUNCS.c **** {
 1244              		.loc 1 645 0
 1245              		.cfi_startproc
 1246              		@ args = 0, pretend = 0, frame = 0
 1247              		@ frame_needed = 0, uses_anonymous_args = 0
 1248              		@ link register save eliminated.
 646:Generated_Source\PSoC5/nRF24_FUNCS.c ****     return nRF24_read_register(NRF_REG_FIFO_STATUS);
 1249              		.loc 1 646 0
 1250 0000 1720     		movs	r0, #23
 1251 0002 FFF7FEBF 		b	nRF24_read_register
 1252              	.LVL100:
 1253              		.cfi_endproc
 1254              	.LFE42:
 1255              		.size	nRF24_get_fifo_status, .-nRF24_get_fifo_status
 1256              		.section	.text.nRF24_get_retransmissions_count,"ax",%progbits
 1257              		.align	1
 1258              		.global	nRF24_get_retransmissions_count
ARM GAS  C:\Users\ALEXAN~1\AppData\Local\Temp\cc7nZbZo.s 			page 35


 1259              		.thumb
 1260              		.thumb_func
 1261              		.type	nRF24_get_retransmissions_count, %function
 1262              	nRF24_get_retransmissions_count:
 1263              	.LFB43:
 647:Generated_Source\PSoC5/nRF24_FUNCS.c **** }
 648:Generated_Source\PSoC5/nRF24_FUNCS.c **** 
 649:Generated_Source\PSoC5/nRF24_FUNCS.c **** /**
 650:Generated_Source\PSoC5/nRF24_FUNCS.c ****  * @brief Get the number of retransmissions.
 651:Generated_Source\PSoC5/nRF24_FUNCS.c ****  *
 652:Generated_Source\PSoC5/nRF24_FUNCS.c ****  * @return uint8_t: Retransmissions count.
 653:Generated_Source\PSoC5/nRF24_FUNCS.c ****  */
 654:Generated_Source\PSoC5/nRF24_FUNCS.c **** uint8_t nRF24_get_retransmissions_count(void)
 655:Generated_Source\PSoC5/nRF24_FUNCS.c **** {
 1264              		.loc 1 655 0
 1265              		.cfi_startproc
 1266              		@ args = 0, pretend = 0, frame = 0
 1267              		@ frame_needed = 0, uses_anonymous_args = 0
 1268 0000 08B5     		push	{r3, lr}
 1269              		.cfi_def_cfa_offset 8
 1270              		.cfi_offset 3, -8
 1271              		.cfi_offset 14, -4
 656:Generated_Source\PSoC5/nRF24_FUNCS.c ****     uint8_t count = nRF24_read_register(NRF_REG_OBSERVE_TX);
 1272              		.loc 1 656 0
 1273 0002 0820     		movs	r0, #8
 1274 0004 FFF7FEFF 		bl	nRF24_read_register
 1275              	.LVL101:
 657:Generated_Source\PSoC5/nRF24_FUNCS.c ****     return count & NRF_OBSERVE_TX_ARC_CNT_MASK;
 658:Generated_Source\PSoC5/nRF24_FUNCS.c **** }
 1276              		.loc 1 658 0
 1277 0008 00F00F00 		and	r0, r0, #15
 1278              	.LVL102:
 1279 000c 08BD     		pop	{r3, pc}
 1280              		.cfi_endproc
 1281              	.LFE43:
 1282              		.size	nRF24_get_retransmissions_count, .-nRF24_get_retransmissions_count
 1283              		.section	.text.nRF24_get_lost_packets_count,"ax",%progbits
 1284              		.align	1
 1285              		.global	nRF24_get_lost_packets_count
 1286              		.thumb
 1287              		.thumb_func
 1288              		.type	nRF24_get_lost_packets_count, %function
 1289              	nRF24_get_lost_packets_count:
 1290              	.LFB44:
 659:Generated_Source\PSoC5/nRF24_FUNCS.c **** 
 660:Generated_Source\PSoC5/nRF24_FUNCS.c **** /**
 661:Generated_Source\PSoC5/nRF24_FUNCS.c ****  * @brief Get the number of lost packets.
 662:Generated_Source\PSoC5/nRF24_FUNCS.c ****  *
 663:Generated_Source\PSoC5/nRF24_FUNCS.c ****  * @return uint8_t: Lost packets.
 664:Generated_Source\PSoC5/nRF24_FUNCS.c ****  */
 665:Generated_Source\PSoC5/nRF24_FUNCS.c **** uint8_t nRF24_get_lost_packets_count(void)
 666:Generated_Source\PSoC5/nRF24_FUNCS.c **** {
 1291              		.loc 1 666 0
 1292              		.cfi_startproc
 1293              		@ args = 0, pretend = 0, frame = 0
 1294              		@ frame_needed = 0, uses_anonymous_args = 0
 1295 0000 08B5     		push	{r3, lr}
ARM GAS  C:\Users\ALEXAN~1\AppData\Local\Temp\cc7nZbZo.s 			page 36


 1296              		.cfi_def_cfa_offset 8
 1297              		.cfi_offset 3, -8
 1298              		.cfi_offset 14, -4
 667:Generated_Source\PSoC5/nRF24_FUNCS.c ****     uint8_t lostPackets = nRF24_read_register(NRF_REG_OBSERVE_TX);
 1299              		.loc 1 667 0
 1300 0002 0820     		movs	r0, #8
 1301 0004 FFF7FEFF 		bl	nRF24_read_register
 1302              	.LVL103:
 668:Generated_Source\PSoC5/nRF24_FUNCS.c ****     lostPackets = lostPackets & NRF_OBSERVE_TX_PLOS_CNT_MASK;
 669:Generated_Source\PSoC5/nRF24_FUNCS.c ****     return lostPackets >> NRF_OBSERVE_TX_BIT_PLOS_CNT;
 670:Generated_Source\PSoC5/nRF24_FUNCS.c **** }
 1303              		.loc 1 670 0
 1304 0008 C0F30710 		ubfx	r0, r0, #4, #8
 1305              	.LVL104:
 1306 000c 08BD     		pop	{r3, pc}
 1307              		.cfi_endproc
 1308              	.LFE44:
 1309              		.size	nRF24_get_lost_packets_count, .-nRF24_get_lost_packets_count
 1310              		.section	.text.nRF24_put_in_tx_fifo,"ax",%progbits
 1311              		.align	1
 1312              		.global	nRF24_put_in_tx_fifo
 1313              		.thumb
 1314              		.thumb_func
 1315              		.type	nRF24_put_in_tx_fifo, %function
 1316              	nRF24_put_in_tx_fifo:
 1317              	.LFB45:
 671:Generated_Source\PSoC5/nRF24_FUNCS.c **** 
 672:Generated_Source\PSoC5/nRF24_FUNCS.c **** /**
 673:Generated_Source\PSoC5/nRF24_FUNCS.c ****  * Put data into the TX FIFO wihout sending it.
 674:Generated_Source\PSoC5/nRF24_FUNCS.c ****  *
 675:Generated_Source\PSoC5/nRF24_FUNCS.c ****  * @param const uint8_t* data:
 676:Generated_Source\PSoC5/nRF24_FUNCS.c ****  * @param const size_t size:
 677:Generated_Source\PSoC5/nRF24_FUNCS.c ****  */
 678:Generated_Source\PSoC5/nRF24_FUNCS.c **** void nRF24_put_in_tx_fifo(const uint8_t* data, size_t size)
 679:Generated_Source\PSoC5/nRF24_FUNCS.c **** {
 1318              		.loc 1 679 0
 1319              		.cfi_startproc
 1320              		@ args = 0, pretend = 0, frame = 0
 1321              		@ frame_needed = 0, uses_anonymous_args = 0
 1322              		@ link register save eliminated.
 1323              	.LVL105:
 680:Generated_Source\PSoC5/nRF24_FUNCS.c ****     if (NULL == data) {
 1324              		.loc 1 680 0
 1325 0000 20B1     		cbz	r0, .L82
 1326              	.LVL106:
 681:Generated_Source\PSoC5/nRF24_FUNCS.c ****         return;
 682:Generated_Source\PSoC5/nRF24_FUNCS.c ****     }
 683:Generated_Source\PSoC5/nRF24_FUNCS.c **** 
 684:Generated_Source\PSoC5/nRF24_FUNCS.c ****     if (NRF_PAYLOAD_SIZE_MAX < size) {
 685:Generated_Source\PSoC5/nRF24_FUNCS.c ****         size = NRF_PAYLOAD_SIZE_MAX;
 686:Generated_Source\PSoC5/nRF24_FUNCS.c ****     }
 687:Generated_Source\PSoC5/nRF24_FUNCS.c **** 
 688:Generated_Source\PSoC5/nRF24_FUNCS.c ****     nRF24_write_tx_payload_cmd(data, size);
 1327              		.loc 1 688 0
 1328 0002 2029     		cmp	r1, #32
 1329 0004 28BF     		it	cs
 1330 0006 2021     		movcs	r1, #32
ARM GAS  C:\Users\ALEXAN~1\AppData\Local\Temp\cc7nZbZo.s 			page 37


 1331              	.LVL107:
 1332 0008 FFF7FEBF 		b	nRF24_write_tx_payload_cmd
 1333              	.LVL108:
 1334              	.L82:
 1335 000c 7047     		bx	lr
 1336              		.cfi_endproc
 1337              	.LFE45:
 1338              		.size	nRF24_put_in_tx_fifo, .-nRF24_put_in_tx_fifo
 1339              		.section	.text.nRF24_transmit,"ax",%progbits
 1340              		.align	1
 1341              		.global	nRF24_transmit
 1342              		.thumb
 1343              		.thumb_func
 1344              		.type	nRF24_transmit, %function
 1345              	nRF24_transmit:
 1346              	.LFB46:
 689:Generated_Source\PSoC5/nRF24_FUNCS.c **** }
 690:Generated_Source\PSoC5/nRF24_FUNCS.c **** 
 691:Generated_Source\PSoC5/nRF24_FUNCS.c **** /**
 692:Generated_Source\PSoC5/nRF24_FUNCS.c ****  * Put data in TX FIFO and transmit it.
 693:Generated_Source\PSoC5/nRF24_FUNCS.c ****  *
 694:Generated_Source\PSoC5/nRF24_FUNCS.c ****  * @param const uint8_t* data:
 695:Generated_Source\PSoC5/nRF24_FUNCS.c ****  * @param const size_t size:
 696:Generated_Source\PSoC5/nRF24_FUNCS.c ****  */
 697:Generated_Source\PSoC5/nRF24_FUNCS.c **** void nRF24_transmit(const uint8_t* data, size_t size)
 698:Generated_Source\PSoC5/nRF24_FUNCS.c **** {
 1347              		.loc 1 698 0
 1348              		.cfi_startproc
 1349              		@ args = 0, pretend = 0, frame = 0
 1350              		@ frame_needed = 0, uses_anonymous_args = 0
 1351              	.LVL109:
 1352 0000 08B5     		push	{r3, lr}
 1353              		.cfi_def_cfa_offset 8
 1354              		.cfi_offset 3, -8
 1355              		.cfi_offset 14, -4
 699:Generated_Source\PSoC5/nRF24_FUNCS.c ****     if (NULL == data) {
 1356              		.loc 1 699 0
 1357 0002 40B1     		cbz	r0, .L84
 1358              	.LVL110:
 700:Generated_Source\PSoC5/nRF24_FUNCS.c ****         return;
 701:Generated_Source\PSoC5/nRF24_FUNCS.c ****     }
 702:Generated_Source\PSoC5/nRF24_FUNCS.c **** 
 703:Generated_Source\PSoC5/nRF24_FUNCS.c ****     if (NRF_PAYLOAD_SIZE_MAX < size) {
 704:Generated_Source\PSoC5/nRF24_FUNCS.c ****         size = NRF_PAYLOAD_SIZE_MAX;
 705:Generated_Source\PSoC5/nRF24_FUNCS.c ****     }
 706:Generated_Source\PSoC5/nRF24_FUNCS.c **** 
 707:Generated_Source\PSoC5/nRF24_FUNCS.c ****     nRF24_put_in_tx_fifo(data, size);
 1359              		.loc 1 707 0
 1360 0004 2029     		cmp	r1, #32
 1361 0006 28BF     		it	cs
 1362 0008 2021     		movcs	r1, #32
 1363              	.LVL111:
 1364 000a FFF7FEFF 		bl	nRF24_put_in_tx_fifo
 1365              	.LVL112:
 708:Generated_Source\PSoC5/nRF24_FUNCS.c ****     nRF24_transmit_pulse();
 709:Generated_Source\PSoC5/nRF24_FUNCS.c **** }
 1366              		.loc 1 709 0
ARM GAS  C:\Users\ALEXAN~1\AppData\Local\Temp\cc7nZbZo.s 			page 38


 1367 000e BDE80840 		pop	{r3, lr}
 1368              		.cfi_remember_state
 1369              		.cfi_restore 14
 1370              		.cfi_restore 3
 1371              		.cfi_def_cfa_offset 0
 708:Generated_Source\PSoC5/nRF24_FUNCS.c ****     nRF24_transmit_pulse();
 1372              		.loc 1 708 0
 1373 0012 FFF7FEBF 		b	nRF24_transmit_pulse
 1374              	.LVL113:
 1375              	.L84:
 1376              		.cfi_restore_state
 1377 0016 08BD     		pop	{r3, pc}
 1378              		.cfi_endproc
 1379              	.LFE46:
 1380              		.size	nRF24_transmit, .-nRF24_transmit
 1381              		.section	.text.nRF24_is_data_ready,"ax",%progbits
 1382              		.align	1
 1383              		.global	nRF24_is_data_ready
 1384              		.thumb
 1385              		.thumb_func
 1386              		.type	nRF24_is_data_ready, %function
 1387              	nRF24_is_data_ready:
 1388              	.LFB47:
 710:Generated_Source\PSoC5/nRF24_FUNCS.c **** 
 711:Generated_Source\PSoC5/nRF24_FUNCS.c **** /**
 712:Generated_Source\PSoC5/nRF24_FUNCS.c ****  * @brief
 713:Generated_Source\PSoC5/nRF24_FUNCS.c ****  *
 714:Generated_Source\PSoC5/nRF24_FUNCS.c ****  * @return bool: True if there's data ready.
 715:Generated_Source\PSoC5/nRF24_FUNCS.c ****  */
 716:Generated_Source\PSoC5/nRF24_FUNCS.c **** bool nRF24_is_data_ready(void)
 717:Generated_Source\PSoC5/nRF24_FUNCS.c **** {
 1389              		.loc 1 717 0
 1390              		.cfi_startproc
 1391              		@ args = 0, pretend = 0, frame = 0
 1392              		@ frame_needed = 0, uses_anonymous_args = 0
 1393 0000 08B5     		push	{r3, lr}
 1394              		.cfi_def_cfa_offset 8
 1395              		.cfi_offset 3, -8
 1396              		.cfi_offset 14, -4
 1397              	.LBB12:
 1398              	.LBB13:
 636:Generated_Source\PSoC5/nRF24_FUNCS.c **** }
 1399              		.loc 1 636 0
 1400 0002 FFF7FEFF 		bl	nRF24_nop_cmd
 1401              	.LVL114:
 1402              	.LBE13:
 1403              	.LBE12:
 718:Generated_Source\PSoC5/nRF24_FUNCS.c ****     return NRF_STATUS_RX_DR_MASK & nRF24_get_status();
 719:Generated_Source\PSoC5/nRF24_FUNCS.c **** }
 1404              		.loc 1 719 0
 1405 0006 C0F38010 		ubfx	r0, r0, #6, #1
 1406 000a 08BD     		pop	{r3, pc}
 1407              		.cfi_endproc
 1408              	.LFE47:
 1409              		.size	nRF24_is_data_ready, .-nRF24_is_data_ready
 1410              		.section	.text.nRF24_get_rx_payload,"ax",%progbits
 1411              		.align	1
ARM GAS  C:\Users\ALEXAN~1\AppData\Local\Temp\cc7nZbZo.s 			page 39


 1412              		.global	nRF24_get_rx_payload
 1413              		.thumb
 1414              		.thumb_func
 1415              		.type	nRF24_get_rx_payload, %function
 1416              	nRF24_get_rx_payload:
 1417              	.LFB48:
 720:Generated_Source\PSoC5/nRF24_FUNCS.c **** 
 721:Generated_Source\PSoC5/nRF24_FUNCS.c **** /**
 722:Generated_Source\PSoC5/nRF24_FUNCS.c ****  * @brief
 723:Generated_Source\PSoC5/nRF24_FUNCS.c ****  *
 724:Generated_Source\PSoC5/nRF24_FUNCS.c ****  * @param uint8_t* data:
 725:Generated_Source\PSoC5/nRF24_FUNCS.c ****  * @param const size_t size:
 726:Generated_Source\PSoC5/nRF24_FUNCS.c ****  */
 727:Generated_Source\PSoC5/nRF24_FUNCS.c **** void nRF24_get_rx_payload(uint8_t *data, const size_t size)
 728:Generated_Source\PSoC5/nRF24_FUNCS.c **** {
 1418              		.loc 1 728 0
 1419              		.cfi_startproc
 1420              		@ args = 0, pretend = 0, frame = 0
 1421              		@ frame_needed = 0, uses_anonymous_args = 0
 1422              	.LVL115:
 1423 0000 38B5     		push	{r3, r4, r5, lr}
 1424              		.cfi_def_cfa_offset 16
 1425              		.cfi_offset 3, -16
 1426              		.cfi_offset 4, -12
 1427              		.cfi_offset 5, -8
 1428              		.cfi_offset 14, -4
 1429              		.loc 1 728 0
 1430 0002 0D46     		mov	r5, r1
 729:Generated_Source\PSoC5/nRF24_FUNCS.c ****     if (NULL == data) {
 1431              		.loc 1 729 0
 1432 0004 0446     		mov	r4, r0
 1433 0006 58B1     		cbz	r0, .L87
 730:Generated_Source\PSoC5/nRF24_FUNCS.c ****         return;
 731:Generated_Source\PSoC5/nRF24_FUNCS.c ****     }
 732:Generated_Source\PSoC5/nRF24_FUNCS.c **** 
 733:Generated_Source\PSoC5/nRF24_FUNCS.c ****     nRF24_ce_write(GPIO_CLEAR);
 1434              		.loc 1 733 0
 1435 0008 0020     		movs	r0, #0
 1436              	.LVL116:
 1437 000a FFF7FEFF 		bl	nRF24_ce_write
 1438              	.LVL117:
 734:Generated_Source\PSoC5/nRF24_FUNCS.c ****     nRF24_read_rx_payload_cmd(data, size);
 1439              		.loc 1 734 0
 1440 000e 2046     		mov	r0, r4
 1441 0010 2946     		mov	r1, r5
 1442 0012 FFF7FEFF 		bl	nRF24_read_rx_payload_cmd
 1443              	.LVL118:
 735:Generated_Source\PSoC5/nRF24_FUNCS.c ****     nRF24_ce_write(GPIO_SET);
 736:Generated_Source\PSoC5/nRF24_FUNCS.c **** }
 1444              		.loc 1 736 0
 1445 0016 BDE83840 		pop	{r3, r4, r5, lr}
 1446              		.cfi_remember_state
 1447              		.cfi_restore 14
 1448              		.cfi_restore 5
 1449              		.cfi_restore 4
 1450              		.cfi_restore 3
 1451              		.cfi_def_cfa_offset 0
ARM GAS  C:\Users\ALEXAN~1\AppData\Local\Temp\cc7nZbZo.s 			page 40


 1452              	.LVL119:
 735:Generated_Source\PSoC5/nRF24_FUNCS.c ****     nRF24_ce_write(GPIO_SET);
 1453              		.loc 1 735 0
 1454 001a 0120     		movs	r0, #1
 1455 001c FFF7FEBF 		b	nRF24_ce_write
 1456              	.LVL120:
 1457              	.L87:
 1458              		.cfi_restore_state
 1459 0020 38BD     		pop	{r3, r4, r5, pc}
 1460              		.cfi_endproc
 1461              	.LFE48:
 1462              		.size	nRF24_get_rx_payload, .-nRF24_get_rx_payload
 1463              		.section	.text.nRF24_tx_transmit_no_ack,"ax",%progbits
 1464              		.align	1
 1465              		.global	nRF24_tx_transmit_no_ack
 1466              		.thumb
 1467              		.thumb_func
 1468              		.type	nRF24_tx_transmit_no_ack, %function
 1469              	nRF24_tx_transmit_no_ack:
 1470              	.LFB49:
 737:Generated_Source\PSoC5/nRF24_FUNCS.c **** 
 738:Generated_Source\PSoC5/nRF24_FUNCS.c **** /**
 739:Generated_Source\PSoC5/nRF24_FUNCS.c ****  * @brief
 740:Generated_Source\PSoC5/nRF24_FUNCS.c ****  *
 741:Generated_Source\PSoC5/nRF24_FUNCS.c ****  * @param const uint8_t* data:
 742:Generated_Source\PSoC5/nRF24_FUNCS.c ****  * @param size_t size:
 743:Generated_Source\PSoC5/nRF24_FUNCS.c ****  */
 744:Generated_Source\PSoC5/nRF24_FUNCS.c **** void nRF24_tx_transmit_no_ack(const uint8_t *data, size_t size)
 745:Generated_Source\PSoC5/nRF24_FUNCS.c **** {
 1471              		.loc 1 745 0
 1472              		.cfi_startproc
 1473              		@ args = 0, pretend = 0, frame = 0
 1474              		@ frame_needed = 0, uses_anonymous_args = 0
 1475              	.LVL121:
 1476 0000 08B5     		push	{r3, lr}
 1477              		.cfi_def_cfa_offset 8
 1478              		.cfi_offset 3, -8
 1479              		.cfi_offset 14, -4
 746:Generated_Source\PSoC5/nRF24_FUNCS.c ****     if (NULL == data) {
 1480              		.loc 1 746 0
 1481 0002 38B1     		cbz	r0, .L89
 747:Generated_Source\PSoC5/nRF24_FUNCS.c ****         return;
 748:Generated_Source\PSoC5/nRF24_FUNCS.c ****     }
 749:Generated_Source\PSoC5/nRF24_FUNCS.c **** 
 750:Generated_Source\PSoC5/nRF24_FUNCS.c ****     if (NRF_PAYLOAD_SIZE_MAX < size) {
 1482              		.loc 1 750 0
 1483 0004 2029     		cmp	r1, #32
 1484 0006 05D8     		bhi	.L89
 751:Generated_Source\PSoC5/nRF24_FUNCS.c ****         return;
 752:Generated_Source\PSoC5/nRF24_FUNCS.c ****     }
 753:Generated_Source\PSoC5/nRF24_FUNCS.c **** 
 754:Generated_Source\PSoC5/nRF24_FUNCS.c ****     nRF24_no_ack_payload_cmd(data, size);
 1485              		.loc 1 754 0
 1486 0008 FFF7FEFF 		bl	nRF24_no_ack_payload_cmd
 1487              	.LVL122:
 755:Generated_Source\PSoC5/nRF24_FUNCS.c ****     nRF24_transmit_pulse();
 756:Generated_Source\PSoC5/nRF24_FUNCS.c **** }
ARM GAS  C:\Users\ALEXAN~1\AppData\Local\Temp\cc7nZbZo.s 			page 41


 1488              		.loc 1 756 0
 1489 000c BDE80840 		pop	{r3, lr}
 1490              		.cfi_remember_state
 1491              		.cfi_restore 14
 1492              		.cfi_restore 3
 1493              		.cfi_def_cfa_offset 0
 755:Generated_Source\PSoC5/nRF24_FUNCS.c ****     nRF24_transmit_pulse();
 1494              		.loc 1 755 0
 1495 0010 FFF7FEBF 		b	nRF24_transmit_pulse
 1496              	.LVL123:
 1497              	.L89:
 1498              		.cfi_restore_state
 1499 0014 08BD     		pop	{r3, pc}
 1500              		.cfi_endproc
 1501              	.LFE49:
 1502              		.size	nRF24_tx_transmit_no_ack, .-nRF24_tx_transmit_no_ack
 1503              		.section	.text.nRF24_rx_write_payload,"ax",%progbits
 1504              		.align	1
 1505              		.global	nRF24_rx_write_payload
 1506              		.thumb
 1507              		.thumb_func
 1508              		.type	nRF24_rx_write_payload, %function
 1509              	nRF24_rx_write_payload:
 1510              	.LFB50:
 757:Generated_Source\PSoC5/nRF24_FUNCS.c **** 
 758:Generated_Source\PSoC5/nRF24_FUNCS.c **** /**
 759:Generated_Source\PSoC5/nRF24_FUNCS.c ****  * @brief
 760:Generated_Source\PSoC5/nRF24_FUNCS.c ****  *
 761:Generated_Source\PSoC5/nRF24_FUNCS.c ****  * @param const nrf_pipe pipe:
 762:Generated_Source\PSoC5/nRF24_FUNCS.c ****  * @param const uint8_t* data:
 763:Generated_Source\PSoC5/nRF24_FUNCS.c ****  * @param size_t size:
 764:Generated_Source\PSoC5/nRF24_FUNCS.c ****  */
 765:Generated_Source\PSoC5/nRF24_FUNCS.c **** void nRF24_rx_write_payload(const nrf_pipe pipe,
 766:Generated_Source\PSoC5/nRF24_FUNCS.c ****                                         const uint8_t *data, size_t size)
 767:Generated_Source\PSoC5/nRF24_FUNCS.c **** {
 1511              		.loc 1 767 0
 1512              		.cfi_startproc
 1513              		@ args = 0, pretend = 0, frame = 0
 1514              		@ frame_needed = 0, uses_anonymous_args = 0
 1515              		@ link register save eliminated.
 1516              	.LVL124:
 768:Generated_Source\PSoC5/nRF24_FUNCS.c ****     if (NULL == data) {
 1517              		.loc 1 768 0
 1518 0000 21B1     		cbz	r1, .L94
 1519              	.LVL125:
 769:Generated_Source\PSoC5/nRF24_FUNCS.c ****         return;
 770:Generated_Source\PSoC5/nRF24_FUNCS.c ****     }
 771:Generated_Source\PSoC5/nRF24_FUNCS.c **** 
 772:Generated_Source\PSoC5/nRF24_FUNCS.c ****     if (NRF_PAYLOAD_SIZE_MAX < size) {
 773:Generated_Source\PSoC5/nRF24_FUNCS.c ****         size = NRF_PAYLOAD_SIZE_MAX;
 774:Generated_Source\PSoC5/nRF24_FUNCS.c ****     }
 775:Generated_Source\PSoC5/nRF24_FUNCS.c **** 
 776:Generated_Source\PSoC5/nRF24_FUNCS.c ****     nRF24_write_ack_payload_cmd(pipe, data, size);
 1520              		.loc 1 776 0
 1521 0002 202A     		cmp	r2, #32
 1522 0004 28BF     		it	cs
 1523 0006 2022     		movcs	r2, #32
ARM GAS  C:\Users\ALEXAN~1\AppData\Local\Temp\cc7nZbZo.s 			page 42


 1524              	.LVL126:
 1525 0008 FFF7FEBF 		b	nRF24_write_ack_payload_cmd
 1526              	.LVL127:
 1527              	.L94:
 1528 000c 7047     		bx	lr
 1529              		.cfi_endproc
 1530              	.LFE50:
 1531              		.size	nRF24_rx_write_payload, .-nRF24_rx_write_payload
 1532              		.section	.text.nRF24_get_data_pipe_with_payload,"ax",%progbits
 1533              		.align	1
 1534              		.global	nRF24_get_data_pipe_with_payload
 1535              		.thumb
 1536              		.thumb_func
 1537              		.type	nRF24_get_data_pipe_with_payload, %function
 1538              	nRF24_get_data_pipe_with_payload:
 1539              	.LFB51:
 777:Generated_Source\PSoC5/nRF24_FUNCS.c **** }
 778:Generated_Source\PSoC5/nRF24_FUNCS.c **** 
 779:Generated_Source\PSoC5/nRF24_FUNCS.c **** /**
 780:Generated_Source\PSoC5/nRF24_FUNCS.c ****  * Return the pipe number with data.
 781:Generated_Source\PSoC5/nRF24_FUNCS.c ****  *
 782:Generated_Source\PSoC5/nRF24_FUNCS.c ****  * @return uint8_t:
 783:Generated_Source\PSoC5/nRF24_FUNCS.c ****  */
 784:Generated_Source\PSoC5/nRF24_FUNCS.c **** uint8_t nRF24_get_data_pipe_with_payload(void)
 785:Generated_Source\PSoC5/nRF24_FUNCS.c **** {
 1540              		.loc 1 785 0
 1541              		.cfi_startproc
 1542              		@ args = 0, pretend = 0, frame = 0
 1543              		@ frame_needed = 0, uses_anonymous_args = 0
 1544 0000 08B5     		push	{r3, lr}
 1545              		.cfi_def_cfa_offset 8
 1546              		.cfi_offset 3, -8
 1547              		.cfi_offset 14, -4
 786:Generated_Source\PSoC5/nRF24_FUNCS.c ****     uint8_t pipe = nRF24_read_register(NRF_REG_STATUS);
 1548              		.loc 1 786 0
 1549 0002 0720     		movs	r0, #7
 1550 0004 FFF7FEFF 		bl	nRF24_read_register
 1551              	.LVL128:
 787:Generated_Source\PSoC5/nRF24_FUNCS.c ****     return (pipe & NRF_STATUS_PIPES_MASK) >> NRF_STATUS_PIPES_SHIFT;
 788:Generated_Source\PSoC5/nRF24_FUNCS.c **** }
 1552              		.loc 1 788 0
 1553 0008 C0F34200 		ubfx	r0, r0, #1, #3
 1554              	.LVL129:
 1555 000c 08BD     		pop	{r3, pc}
 1556              		.cfi_endproc
 1557              	.LFE51:
 1558              		.size	nRF24_get_data_pipe_with_payload, .-nRF24_get_data_pipe_with_payload
 1559              		.section	.text.nRF24_received_power_detector,"ax",%progbits
 1560              		.align	1
 1561              		.global	nRF24_received_power_detector
 1562              		.thumb
 1563              		.thumb_func
 1564              		.type	nRF24_received_power_detector, %function
 1565              	nRF24_received_power_detector:
 1566              	.LFB52:
 789:Generated_Source\PSoC5/nRF24_FUNCS.c **** 
 790:Generated_Source\PSoC5/nRF24_FUNCS.c **** /**
ARM GAS  C:\Users\ALEXAN~1\AppData\Local\Temp\cc7nZbZo.s 			page 43


 791:Generated_Source\PSoC5/nRF24_FUNCS.c ****  * @brief
 792:Generated_Source\PSoC5/nRF24_FUNCS.c ****  *
 793:Generated_Source\PSoC5/nRF24_FUNCS.c ****  * @return uint8_t:
 794:Generated_Source\PSoC5/nRF24_FUNCS.c ****  */
 795:Generated_Source\PSoC5/nRF24_FUNCS.c **** uint8_t nRF24_received_power_detector(void)
 796:Generated_Source\PSoC5/nRF24_FUNCS.c **** {
 1567              		.loc 1 796 0
 1568              		.cfi_startproc
 1569              		@ args = 0, pretend = 0, frame = 0
 1570              		@ frame_needed = 0, uses_anonymous_args = 0
 1571              		@ link register save eliminated.
 797:Generated_Source\PSoC5/nRF24_FUNCS.c ****     return nRF24_read_bit(NRF_REG_RPD, NRF_RPD_BIT_RPD);
 1572              		.loc 1 797 0
 1573 0000 0021     		movs	r1, #0
 1574 0002 0920     		movs	r0, #9
 1575 0004 FFF7FEBF 		b	nRF24_read_bit
 1576              	.LVL130:
 1577              		.cfi_endproc
 1578              	.LFE52:
 1579              		.size	nRF24_received_power_detector, .-nRF24_received_power_detector
 1580              		.section	.text.nRF24_is_tx_fifo_full,"ax",%progbits
 1581              		.align	1
 1582              		.global	nRF24_is_tx_fifo_full
 1583              		.thumb
 1584              		.thumb_func
 1585              		.type	nRF24_is_tx_fifo_full, %function
 1586              	nRF24_is_tx_fifo_full:
 1587              	.LFB53:
 798:Generated_Source\PSoC5/nRF24_FUNCS.c **** }
 799:Generated_Source\PSoC5/nRF24_FUNCS.c **** 
 800:Generated_Source\PSoC5/nRF24_FUNCS.c **** /**
 801:Generated_Source\PSoC5/nRF24_FUNCS.c ****  * @return bool: true if the TX FIFO is full, false if it have available
 802:Generated_Source\PSoC5/nRF24_FUNCS.c ****  * locations.
 803:Generated_Source\PSoC5/nRF24_FUNCS.c ****  */
 804:Generated_Source\PSoC5/nRF24_FUNCS.c **** bool nRF24_is_tx_fifo_full(void)
 805:Generated_Source\PSoC5/nRF24_FUNCS.c **** {
 1588              		.loc 1 805 0
 1589              		.cfi_startproc
 1590              		@ args = 0, pretend = 0, frame = 0
 1591              		@ frame_needed = 0, uses_anonymous_args = 0
 1592              		@ link register save eliminated.
 806:Generated_Source\PSoC5/nRF24_FUNCS.c ****     return nRF24_read_bit(NRF_REG_FIFO_STATUS, NRF_FIFO_STATUS_BIT_TX_FULL);
 1593              		.loc 1 806 0
 1594 0000 0521     		movs	r1, #5
 1595 0002 1720     		movs	r0, #23
 1596 0004 FFF7FEBF 		b	nRF24_read_bit
 1597              	.LVL131:
 1598              		.cfi_endproc
 1599              	.LFE53:
 1600              		.size	nRF24_is_tx_fifo_full, .-nRF24_is_tx_fifo_full
 1601              		.section	.text.nRF24_is_rx_fifo_empty,"ax",%progbits
 1602              		.align	1
 1603              		.global	nRF24_is_rx_fifo_empty
 1604              		.thumb
 1605              		.thumb_func
 1606              		.type	nRF24_is_rx_fifo_empty, %function
 1607              	nRF24_is_rx_fifo_empty:
ARM GAS  C:\Users\ALEXAN~1\AppData\Local\Temp\cc7nZbZo.s 			page 44


 1608              	.LFB54:
 807:Generated_Source\PSoC5/nRF24_FUNCS.c **** }
 808:Generated_Source\PSoC5/nRF24_FUNCS.c **** 
 809:Generated_Source\PSoC5/nRF24_FUNCS.c **** /**
 810:Generated_Source\PSoC5/nRF24_FUNCS.c ****  * @return bool: true if the RX FIFO es empty, false if any pipe have data.
 811:Generated_Source\PSoC5/nRF24_FUNCS.c ****  */
 812:Generated_Source\PSoC5/nRF24_FUNCS.c **** bool nRF24_is_rx_fifo_empty(void)
 813:Generated_Source\PSoC5/nRF24_FUNCS.c **** {
 1609              		.loc 1 813 0
 1610              		.cfi_startproc
 1611              		@ args = 0, pretend = 0, frame = 0
 1612              		@ frame_needed = 0, uses_anonymous_args = 0
 1613              		@ link register save eliminated.
 814:Generated_Source\PSoC5/nRF24_FUNCS.c ****     return nRF24_read_bit(NRF_REG_FIFO_STATUS, NRF_FIFO_STATUS_BIT_RX_EMPTY);
 1614              		.loc 1 814 0
 1615 0000 0021     		movs	r1, #0
 1616 0002 1720     		movs	r0, #23
 1617 0004 FFF7FEBF 		b	nRF24_read_bit
 1618              	.LVL132:
 1619              		.cfi_endproc
 1620              	.LFE54:
 1621              		.size	nRF24_is_rx_fifo_empty, .-nRF24_is_rx_fifo_empty
 1622              		.section	.text.nRF24_test_carrier,"ax",%progbits
 1623              		.align	1
 1624              		.global	nRF24_test_carrier
 1625              		.thumb
 1626              		.thumb_func
 1627              		.type	nRF24_test_carrier, %function
 1628              	nRF24_test_carrier:
 1629              	.LFB55:
 815:Generated_Source\PSoC5/nRF24_FUNCS.c **** }
 816:Generated_Source\PSoC5/nRF24_FUNCS.c **** 
 817:Generated_Source\PSoC5/nRF24_FUNCS.c **** /**
 818:Generated_Source\PSoC5/nRF24_FUNCS.c ****  * Received Power Detector triggers at received power levels above -64dBm that
 819:Generated_Source\PSoC5/nRF24_FUNCS.c ****  * are present in the RF channel you receive on. If the received power is less
 820:Generated_Source\PSoC5/nRF24_FUNCS.c ****  * than -64dBm, RDP = 0.
 821:Generated_Source\PSoC5/nRF24_FUNCS.c ****  * The RPD can be read out at any time while nRF24L01+ is in receive mode.
 822:Generated_Source\PSoC5/nRF24_FUNCS.c ****  */
 823:Generated_Source\PSoC5/nRF24_FUNCS.c **** bool nRF24_test_carrier(void)
 824:Generated_Source\PSoC5/nRF24_FUNCS.c **** {
 1630              		.loc 1 824 0
 1631              		.cfi_startproc
 1632              		@ args = 0, pretend = 0, frame = 0
 1633              		@ frame_needed = 0, uses_anonymous_args = 0
 1634              		@ link register save eliminated.
 825:Generated_Source\PSoC5/nRF24_FUNCS.c ****     return nRF24_read_bit(NRF_REG_RPD, NRF_RPD_BIT_RPD);
 1635              		.loc 1 825 0
 1636 0000 0021     		movs	r1, #0
 1637 0002 0920     		movs	r0, #9
 1638 0004 FFF7FEBF 		b	nRF24_read_bit
 1639              	.LVL133:
 1640              		.cfi_endproc
 1641              	.LFE55:
 1642              		.size	nRF24_test_carrier, .-nRF24_test_carrier
 1643              		.section	.text.nRF24_clear_all_irqs,"ax",%progbits
 1644              		.align	1
 1645              		.global	nRF24_clear_all_irqs
ARM GAS  C:\Users\ALEXAN~1\AppData\Local\Temp\cc7nZbZo.s 			page 45


 1646              		.thumb
 1647              		.thumb_func
 1648              		.type	nRF24_clear_all_irqs, %function
 1649              	nRF24_clear_all_irqs:
 1650              	.LFB56:
 826:Generated_Source\PSoC5/nRF24_FUNCS.c **** }
 827:Generated_Source\PSoC5/nRF24_FUNCS.c **** 
 828:Generated_Source\PSoC5/nRF24_FUNCS.c **** /**
 829:Generated_Source\PSoC5/nRF24_FUNCS.c ****  * This function will write 1 to all the three IRQ "flag" bits on the
 830:Generated_Source\PSoC5/nRF24_FUNCS.c ****  * STATUS register.
 831:Generated_Source\PSoC5/nRF24_FUNCS.c ****  */
 832:Generated_Source\PSoC5/nRF24_FUNCS.c **** void nRF24_clear_all_irqs(void)
 833:Generated_Source\PSoC5/nRF24_FUNCS.c **** {
 1651              		.loc 1 833 0
 1652              		.cfi_startproc
 1653              		@ args = 0, pretend = 0, frame = 0
 1654              		@ frame_needed = 0, uses_anonymous_args = 0
 1655              		@ link register save eliminated.
 834:Generated_Source\PSoC5/nRF24_FUNCS.c ****     nRF24_write_register(NRF_REG_STATUS, NRF_ALL_IRQ_MASK);
 1656              		.loc 1 834 0
 1657 0000 7021     		movs	r1, #112
 1658 0002 0720     		movs	r0, #7
 1659 0004 FFF7FEBF 		b	nRF24_write_register
 1660              	.LVL134:
 1661              		.cfi_endproc
 1662              	.LFE56:
 1663              		.size	nRF24_clear_all_irqs, .-nRF24_clear_all_irqs
 1664              		.section	.text.nRF24_start,"ax",%progbits
 1665              		.align	1
 1666              		.global	nRF24_start
 1667              		.thumb
 1668              		.thumb_func
 1669              		.type	nRF24_start, %function
 1670              	nRF24_start:
 1671              	.LFB1:
  56:Generated_Source\PSoC5/nRF24_FUNCS.c ****     // Recommended delay before start using the nRF24
 1672              		.loc 1 56 0
 1673              		.cfi_startproc
 1674              		@ args = 0, pretend = 0, frame = 0
 1675              		@ frame_needed = 0, uses_anonymous_args = 0
 1676 0000 08B5     		push	{r3, lr}
 1677              		.cfi_def_cfa_offset 8
 1678              		.cfi_offset 3, -8
 1679              		.cfi_offset 14, -4
  58:Generated_Source\PSoC5/nRF24_FUNCS.c **** 
 1680              		.loc 1 58 0
 1681 0002 6420     		movs	r0, #100
 1682 0004 FFF7FEFF 		bl	CyDelay
 1683              	.LVL135:
  67:Generated_Source\PSoC5/nRF24_FUNCS.c **** #endif
 1684              		.loc 1 67 0
 1685 0008 FFF7FEFF 		bl	SPI_Start
 1686              	.LVL136:
  69:Generated_Source\PSoC5/nRF24_FUNCS.c ****     nRF24_ce_write(GPIO_CLEAR);
 1687              		.loc 1 69 0
 1688 000c 0120     		movs	r0, #1
 1689 000e FFF7FEFF 		bl	nRF24_ss_write
ARM GAS  C:\Users\ALEXAN~1\AppData\Local\Temp\cc7nZbZo.s 			page 46


 1690              	.LVL137:
  70:Generated_Source\PSoC5/nRF24_FUNCS.c **** 
 1691              		.loc 1 70 0
 1692 0012 0020     		movs	r0, #0
 1693 0014 FFF7FEFF 		bl	nRF24_ce_write
 1694              	.LVL138:
  73:Generated_Source\PSoC5/nRF24_FUNCS.c ****     nRF24_flush_tx_cmd();
 1695              		.loc 1 73 0
 1696 0018 FFF7FEFF 		bl	nRF24_flush_rx_cmd
 1697              	.LVL139:
  74:Generated_Source\PSoC5/nRF24_FUNCS.c ****     // Clear IRQ flags
 1698              		.loc 1 74 0
 1699 001c FFF7FEFF 		bl	nRF24_flush_tx_cmd
 1700              	.LVL140:
  76:Generated_Source\PSoC5/nRF24_FUNCS.c **** 
 1701              		.loc 1 76 0
 1702 0020 FFF7FEFF 		bl	nRF24_clear_all_irqs
 1703              	.LVL141:
  79:Generated_Source\PSoC5/nRF24_FUNCS.c **** 
 1704              		.loc 1 79 0
 1705 0024 FFF7FEFF 		bl	nRF24_init
 1706              	.LVL142:
  83:Generated_Source\PSoC5/nRF24_FUNCS.c **** 
 1707              		.loc 1 83 0
 1708 0028 BDE80840 		pop	{r3, lr}
 1709              		.cfi_restore 14
 1710              		.cfi_restore 3
 1711              		.cfi_def_cfa_offset 0
  82:Generated_Source\PSoC5/nRF24_FUNCS.c **** }
 1712              		.loc 1 82 0
 1713 002c 9620     		movs	r0, #150
 1714 002e FFF7FEBF 		b	CyDelayUs
 1715              	.LVL143:
 1716              		.cfi_endproc
 1717              	.LFE1:
 1718              		.size	nRF24_start, .-nRF24_start
 1719              		.section	.text.nRF24_clear_irq_flag,"ax",%progbits
 1720              		.align	1
 1721              		.global	nRF24_clear_irq_flag
 1722              		.thumb
 1723              		.thumb_func
 1724              		.type	nRF24_clear_irq_flag, %function
 1725              	nRF24_clear_irq_flag:
 1726              	.LFB57:
 835:Generated_Source\PSoC5/nRF24_FUNCS.c **** }
 836:Generated_Source\PSoC5/nRF24_FUNCS.c **** 
 837:Generated_Source\PSoC5/nRF24_FUNCS.c **** /**
 838:Generated_Source\PSoC5/nRF24_FUNCS.c ****  * @brief Clears the specific IRQ flag.
 839:Generated_Source\PSoC5/nRF24_FUNCS.c ****  *
 840:Generated_Source\PSoC5/nRF24_FUNCS.c ****  * Clear the flag by writing 1 to the interrupt flag bit.
 841:Generated_Source\PSoC5/nRF24_FUNCS.c ****  *
 842:Generated_Source\PSoC5/nRF24_FUNCS.c ****  * @param nrf_irq irq_flag: Interrupt flag to clear.
 843:Generated_Source\PSoC5/nRF24_FUNCS.c ****  */
 844:Generated_Source\PSoC5/nRF24_FUNCS.c **** void nRF24_clear_irq_flag(const nrf_irq irq_flag)
 845:Generated_Source\PSoC5/nRF24_FUNCS.c **** {
 1727              		.loc 1 845 0
 1728              		.cfi_startproc
ARM GAS  C:\Users\ALEXAN~1\AppData\Local\Temp\cc7nZbZo.s 			page 47


 1729              		@ args = 0, pretend = 0, frame = 0
 1730              		@ frame_needed = 0, uses_anonymous_args = 0
 1731              		@ link register save eliminated.
 1732              	.LVL144:
 846:Generated_Source\PSoC5/nRF24_FUNCS.c ****     nRF24_write_register(NRF_REG_STATUS, (1 << irq_flag));
 1733              		.loc 1 846 0
 1734 0000 0121     		movs	r1, #1
 1735 0002 8140     		lsls	r1, r1, r0
 1736 0004 C9B2     		uxtb	r1, r1
 1737 0006 0720     		movs	r0, #7
 1738              	.LVL145:
 1739 0008 FFF7FEBF 		b	nRF24_write_register
 1740              	.LVL146:
 1741              		.cfi_endproc
 1742              	.LFE57:
 1743              		.size	nRF24_clear_irq_flag, .-nRF24_clear_irq_flag
 1744              		.section	.text.nRF24_get_irq_flag,"ax",%progbits
 1745              		.align	1
 1746              		.global	nRF24_get_irq_flag
 1747              		.thumb
 1748              		.thumb_func
 1749              		.type	nRF24_get_irq_flag, %function
 1750              	nRF24_get_irq_flag:
 1751              	.LFB58:
 847:Generated_Source\PSoC5/nRF24_FUNCS.c **** }
 848:Generated_Source\PSoC5/nRF24_FUNCS.c **** 
 849:Generated_Source\PSoC5/nRF24_FUNCS.c **** /**
 850:Generated_Source\PSoC5/nRF24_FUNCS.c ****  * This method is used to get if any of the IRQ "flag" bits on the STATUS
 851:Generated_Source\PSoC5/nRF24_FUNCS.c ****  * register is set to 1. This function returns 0 is none of the flag bits
 852:Generated_Source\PSoC5/nRF24_FUNCS.c ****  * is not set to 1.
 853:Generated_Source\PSoC5/nRF24_FUNCS.c ****  *
 854:Generated_Source\PSoC5/nRF24_FUNCS.c ****  * @return nrf_irq: Asserted bit of the interrupt flags.
 855:Generated_Source\PSoC5/nRF24_FUNCS.c ****  */
 856:Generated_Source\PSoC5/nRF24_FUNCS.c **** nrf_irq nRF24_get_irq_flag(void)
 857:Generated_Source\PSoC5/nRF24_FUNCS.c **** {
 1752              		.loc 1 857 0
 1753              		.cfi_startproc
 1754              		@ args = 0, pretend = 0, frame = 0
 1755              		@ frame_needed = 0, uses_anonymous_args = 0
 1756              	.LVL147:
 1757 0000 08B5     		push	{r3, lr}
 1758              		.cfi_def_cfa_offset 8
 1759              		.cfi_offset 3, -8
 1760              		.cfi_offset 14, -4
 858:Generated_Source\PSoC5/nRF24_FUNCS.c ****     nrf_irq irq = NRF_NONE_IRQ;
 859:Generated_Source\PSoC5/nRF24_FUNCS.c **** 
 860:Generated_Source\PSoC5/nRF24_FUNCS.c ****     // Get the STATUS register
 861:Generated_Source\PSoC5/nRF24_FUNCS.c ****     uint8_t sts = nRF24_nop_cmd();
 1761              		.loc 1 861 0
 1762 0002 FFF7FEFF 		bl	nRF24_nop_cmd
 1763              	.LVL148:
 862:Generated_Source\PSoC5/nRF24_FUNCS.c **** 
 863:Generated_Source\PSoC5/nRF24_FUNCS.c ****     // We only care if bits 4, 5 or 6 are set, so we mask the STATUS with 0x0111_0000
 864:Generated_Source\PSoC5/nRF24_FUNCS.c ****     switch (sts & NRF_ALL_IRQ_MASK) {
 1764              		.loc 1 864 0
 1765 0006 00F07000 		and	r0, r0, #112
 1766              	.LVL149:
ARM GAS  C:\Users\ALEXAN~1\AppData\Local\Temp\cc7nZbZo.s 			page 48


 1767 000a 2028     		cmp	r0, #32
 1768 000c 06D0     		beq	.L106
 1769 000e 4028     		cmp	r0, #64
 1770 0010 06D0     		beq	.L109
 1771 0012 1028     		cmp	r0, #16
 865:Generated_Source\PSoC5/nRF24_FUNCS.c ****     case NRF_STATUS_RX_DR_MASK:
 866:Generated_Source\PSoC5/nRF24_FUNCS.c ****         irq = NRF_RX_DR_IRQ;
 867:Generated_Source\PSoC5/nRF24_FUNCS.c ****         break;
 868:Generated_Source\PSoC5/nRF24_FUNCS.c ****     case NRF_STATUS_TX_DS_MASK:
 869:Generated_Source\PSoC5/nRF24_FUNCS.c ****         irq = NRF_TX_DS_IRQ;
 870:Generated_Source\PSoC5/nRF24_FUNCS.c ****         break;
 871:Generated_Source\PSoC5/nRF24_FUNCS.c ****     case NRF_STATUS_MAX_RT_MASK:
 872:Generated_Source\PSoC5/nRF24_FUNCS.c ****         irq = NRF_MAX_RT_IRQ;
 873:Generated_Source\PSoC5/nRF24_FUNCS.c ****         break;
 874:Generated_Source\PSoC5/nRF24_FUNCS.c ****     default:
 875:Generated_Source\PSoC5/nRF24_FUNCS.c ****         irq = NRF_ALL_IRQ_MASK;
 1772              		.loc 1 875 0
 1773 0014 0CBF     		ite	eq
 1774 0016 0420     		moveq	r0, #4
 1775 0018 7020     		movne	r0, #112
 1776 001a 08BD     		pop	{r3, pc}
 1777              	.L106:
 869:Generated_Source\PSoC5/nRF24_FUNCS.c ****         break;
 1778              		.loc 1 869 0
 1779 001c 0520     		movs	r0, #5
 1780 001e 08BD     		pop	{r3, pc}
 1781              	.L109:
 866:Generated_Source\PSoC5/nRF24_FUNCS.c ****         break;
 1782              		.loc 1 866 0
 1783 0020 0620     		movs	r0, #6
 1784              	.LVL150:
 876:Generated_Source\PSoC5/nRF24_FUNCS.c ****         break;
 877:Generated_Source\PSoC5/nRF24_FUNCS.c ****     }
 878:Generated_Source\PSoC5/nRF24_FUNCS.c **** 
 879:Generated_Source\PSoC5/nRF24_FUNCS.c ****     return irq;
 880:Generated_Source\PSoC5/nRF24_FUNCS.c **** }
 1785              		.loc 1 880 0
 1786 0022 08BD     		pop	{r3, pc}
 1787              		.cfi_endproc
 1788              	.LFE58:
 1789              		.size	nRF24_get_irq_flag, .-nRF24_get_irq_flag
 1790              		.section	.text.nRF24_poll_interrupt,"ax",%progbits
 1791              		.align	1
 1792              		.global	nRF24_poll_interrupt
 1793              		.thumb
 1794              		.thumb_func
 1795              		.type	nRF24_poll_interrupt, %function
 1796              	nRF24_poll_interrupt:
 1797              	.LFB59:
 881:Generated_Source\PSoC5/nRF24_FUNCS.c **** 
 882:Generated_Source\PSoC5/nRF24_FUNCS.c **** void nRF24_poll_interrupt(void)
 883:Generated_Source\PSoC5/nRF24_FUNCS.c **** {
 1798              		.loc 1 883 0
 1799              		.cfi_startproc
 1800              		@ args = 0, pretend = 0, frame = 0
 1801              		@ frame_needed = 0, uses_anonymous_args = 0
 1802              		@ link register save eliminated.
ARM GAS  C:\Users\ALEXAN~1\AppData\Local\Temp\cc7nZbZo.s 			page 49


 1803 0000 7047     		bx	lr
 1804              		.cfi_endproc
 1805              	.LFE59:
 1806              		.size	nRF24_poll_interrupt, .-nRF24_poll_interrupt
 1807              		.section	.text.nRF24_get_status_clear_irq,"ax",%progbits
 1808              		.align	1
 1809              		.global	nRF24_get_status_clear_irq
 1810              		.thumb
 1811              		.thumb_func
 1812              		.type	nRF24_get_status_clear_irq, %function
 1813              	nRF24_get_status_clear_irq:
 1814              	.LFB60:
 884:Generated_Source\PSoC5/nRF24_FUNCS.c **** 
 885:Generated_Source\PSoC5/nRF24_FUNCS.c **** }
 886:Generated_Source\PSoC5/nRF24_FUNCS.c **** 
 887:Generated_Source\PSoC5/nRF24_FUNCS.c **** uint8_t nRF24_get_status_clear_irq(void)
 888:Generated_Source\PSoC5/nRF24_FUNCS.c **** {
 1815              		.loc 1 888 0
 1816              		.cfi_startproc
 1817              		@ args = 0, pretend = 0, frame = 0
 1818              		@ frame_needed = 0, uses_anonymous_args = 0
 1819              		.loc 1 888 0
 1820 0000 10B5     		push	{r4, lr}
 1821              		.cfi_def_cfa_offset 8
 1822              		.cfi_offset 4, -8
 1823              		.cfi_offset 14, -4
 889:Generated_Source\PSoC5/nRF24_FUNCS.c ****     uint8_t sts = nRF24_nop_cmd();
 1824              		.loc 1 889 0
 1825 0002 FFF7FEFF 		bl	nRF24_nop_cmd
 1826              	.LVL151:
 1827 0006 0446     		mov	r4, r0
 1828              	.LVL152:
 890:Generated_Source\PSoC5/nRF24_FUNCS.c ****     nRF24_write_register(NRF_REG_STATUS, NRF_ALL_IRQ_MASK);
 1829              		.loc 1 890 0
 1830 0008 7021     		movs	r1, #112
 1831 000a 0720     		movs	r0, #7
 1832 000c FFF7FEFF 		bl	nRF24_write_register
 1833              	.LVL153:
 891:Generated_Source\PSoC5/nRF24_FUNCS.c **** 
 892:Generated_Source\PSoC5/nRF24_FUNCS.c ****     return sts;
 893:Generated_Source\PSoC5/nRF24_FUNCS.c **** }
 1834              		.loc 1 893 0
 1835 0010 2046     		mov	r0, r4
 1836 0012 10BD     		pop	{r4, pc}
 1837              		.cfi_endproc
 1838              	.LFE60:
 1839              		.size	nRF24_get_status_clear_irq, .-nRF24_get_status_clear_irq
 1840              		.section	.text.nRF24_flush_rx,"ax",%progbits
 1841              		.align	1
 1842              		.global	nRF24_flush_rx
 1843              		.thumb
 1844              		.thumb_func
 1845              		.type	nRF24_flush_rx, %function
 1846              	nRF24_flush_rx:
 1847              	.LFB61:
 894:Generated_Source\PSoC5/nRF24_FUNCS.c **** 
 895:Generated_Source\PSoC5/nRF24_FUNCS.c **** // command wrappers
ARM GAS  C:\Users\ALEXAN~1\AppData\Local\Temp\cc7nZbZo.s 			page 50


 896:Generated_Source\PSoC5/nRF24_FUNCS.c **** void nRF24_flush_rx(void)
 897:Generated_Source\PSoC5/nRF24_FUNCS.c **** {
 1848              		.loc 1 897 0
 1849              		.cfi_startproc
 1850              		@ args = 0, pretend = 0, frame = 0
 1851              		@ frame_needed = 0, uses_anonymous_args = 0
 1852              		@ link register save eliminated.
 898:Generated_Source\PSoC5/nRF24_FUNCS.c ****     nRF24_flush_rx_cmd();
 1853              		.loc 1 898 0
 1854 0000 FFF7FEBF 		b	nRF24_flush_rx_cmd
 1855              	.LVL154:
 1856              		.cfi_endproc
 1857              	.LFE61:
 1858              		.size	nRF24_flush_rx, .-nRF24_flush_rx
 1859              		.section	.text.nRF24_flush_tx,"ax",%progbits
 1860              		.align	1
 1861              		.global	nRF24_flush_tx
 1862              		.thumb
 1863              		.thumb_func
 1864              		.type	nRF24_flush_tx, %function
 1865              	nRF24_flush_tx:
 1866              	.LFB62:
 899:Generated_Source\PSoC5/nRF24_FUNCS.c **** }
 900:Generated_Source\PSoC5/nRF24_FUNCS.c **** 
 901:Generated_Source\PSoC5/nRF24_FUNCS.c **** void nRF24_flush_tx(void)
 902:Generated_Source\PSoC5/nRF24_FUNCS.c **** {
 1867              		.loc 1 902 0
 1868              		.cfi_startproc
 1869              		@ args = 0, pretend = 0, frame = 0
 1870              		@ frame_needed = 0, uses_anonymous_args = 0
 1871              		@ link register save eliminated.
 903:Generated_Source\PSoC5/nRF24_FUNCS.c ****     nRF24_flush_tx_cmd();
 1872              		.loc 1 903 0
 1873 0000 FFF7FEBF 		b	nRF24_flush_tx_cmd
 1874              	.LVL155:
 1875              		.cfi_endproc
 1876              	.LFE62:
 1877              		.size	nRF24_flush_tx, .-nRF24_flush_tx
 1878              		.data
 1879              		.set	.LANCHOR0,. + 0
 1880              		.type	_nrf_addr_width, %object
 1881              		.size	_nrf_addr_width, 1
 1882              	_nrf_addr_width:
 1883 0000 05       		.byte	5
 1884              		.text
 1885              	.Letext0:
 1886              		.file 2 "c:\\program files (x86)\\cypress\\psoc creator\\4.2\\psoc creator\\import\\gnu\\arm\\5.4.
 1887              		.file 3 "c:\\program files (x86)\\cypress\\psoc creator\\4.2\\psoc creator\\import\\gnu\\arm\\5.4.
 1888              		.file 4 "c:\\program files (x86)\\cypress\\psoc creator\\4.2\\psoc creator\\import\\gnu\\arm\\5.4.
 1889              		.file 5 "Generated_Source\\PSoC5\\nRF24_DEFS.h"
 1890              		.file 6 "Generated_Source\\PSoC5\\nRF24_HAL.h"
 1891              		.file 7 "Generated_Source\\PSoC5\\CyLib.h"
 1892              		.file 8 "Generated_Source\\PSoC5\\nRF24_COMMANDS.h"
 1893              		.file 9 "Generated_Source\\PSoC5\\SPI.h"