ARM GAS  C:\Users\ALEXAN~1\AppData\Local\Temp\cc2aUVLh.s 			page 1


   1              		.syntax unified
   2              		.cpu cortex-m3
   3              		.fpu softvfp
   4              		.eabi_attribute 20, 1
   5              		.eabi_attribute 21, 1
   6              		.eabi_attribute 23, 3
   7              		.eabi_attribute 24, 1
   8              		.eabi_attribute 25, 1
   9              		.eabi_attribute 26, 1
  10              		.eabi_attribute 30, 4
  11              		.eabi_attribute 34, 1
  12              		.eabi_attribute 18, 4
  13              		.thumb
  14              		.syntax unified
  15              		.file	"nRF24_HAL.c"
  16              		.text
  17              	.Ltext0:
  18              		.cfi_sections	.debug_frame
  19              		.section	.text.nRF24_ss_write,"ax",%progbits
  20              		.align	1
  21              		.global	nRF24_ss_write
  22              		.thumb
  23              		.thumb_func
  24              		.type	nRF24_ss_write, %function
  25              	nRF24_ss_write:
  26              	.LFB0:
  27              		.file 1 "Generated_Source\\PSoC5\\nRF24_HAL.c"
   1:Generated_Source\PSoC5/nRF24_HAL.c **** /****************************************************************************
   2:Generated_Source\PSoC5/nRF24_HAL.c **** * This file is part of the nRF24 Custom Component for PSoC Devices.
   3:Generated_Source\PSoC5/nRF24_HAL.c **** *
   4:Generated_Source\PSoC5/nRF24_HAL.c **** * Copyright (C) 2017 Carlos Diaz <carlos.santiago.diaz@gmail.com>
   5:Generated_Source\PSoC5/nRF24_HAL.c **** *
   6:Generated_Source\PSoC5/nRF24_HAL.c **** * Permission to use, copy, modify, and/or distribute this software for any
   7:Generated_Source\PSoC5/nRF24_HAL.c **** * purpose with or without fee is hereby granted, provided that the above
   8:Generated_Source\PSoC5/nRF24_HAL.c **** * copyright notice and this permission notice appear in all copies.
   9:Generated_Source\PSoC5/nRF24_HAL.c **** *
  10:Generated_Source\PSoC5/nRF24_HAL.c **** * THE SOFTWARE IS PROVIDED "AS IS" AND THE AUTHOR DISCLAIMS ALL WARRANTIES
  11:Generated_Source\PSoC5/nRF24_HAL.c **** * WITH REGARD TO THIS SOFTWARE INCLUDING ALL IMPLIED WARRANTIES OF
  12:Generated_Source\PSoC5/nRF24_HAL.c **** * MERCHANTABILITY AND FITNESS. IN NO EVENT SHALL THE AUTHOR BE LIABLE FOR
  13:Generated_Source\PSoC5/nRF24_HAL.c **** * ANY SPECIAL, DIRECT, INDIRECT, OR CONSEQUENTIAL DAMAGES OR ANY DAMAGES
  14:Generated_Source\PSoC5/nRF24_HAL.c **** * WHATSOEVER RESULTING FROM LOSS OF USE, DATA OR PROFITS, WHETHER IN AN
  15:Generated_Source\PSoC5/nRF24_HAL.c **** * ACTION OF CONTRACT, NEGLIGENCE OR OTHER TORTIOUS ACTION, ARISING OUT OF
  16:Generated_Source\PSoC5/nRF24_HAL.c **** * OR IN CONNECTION WITH THE USE OR PERFORMANCE OF THIS SOFTWARE.
  17:Generated_Source\PSoC5/nRF24_HAL.c **** ****************************************************************************/
  18:Generated_Source\PSoC5/nRF24_HAL.c **** 
  19:Generated_Source\PSoC5/nRF24_HAL.c **** /**
  20:Generated_Source\PSoC5/nRF24_HAL.c **** * @file nRF24_HAL.c
  21:Generated_Source\PSoC5/nRF24_HAL.c **** *
  22:Generated_Source\PSoC5/nRF24_HAL.c **** * @brief The nRF24 radio is controlled via SPI, this file have all the SPI
  23:Generated_Source\PSoC5/nRF24_HAL.c **** * communication between the PSoC and the nRF24 radio.
  24:Generated_Source\PSoC5/nRF24_HAL.c **** */
  25:Generated_Source\PSoC5/nRF24_HAL.c **** 
  26:Generated_Source\PSoC5/nRF24_HAL.c **** #include <stdint.h>
  27:Generated_Source\PSoC5/nRF24_HAL.c **** #include <string.h>
  28:Generated_Source\PSoC5/nRF24_HAL.c **** 
  29:Generated_Source\PSoC5/nRF24_HAL.c **** #include "nRF24_CONFIG.h"
  30:Generated_Source\PSoC5/nRF24_HAL.c **** #include "nRF24_HAL.h"
ARM GAS  C:\Users\ALEXAN~1\AppData\Local\Temp\cc2aUVLh.s 			page 2


  31:Generated_Source\PSoC5/nRF24_HAL.c **** 
  32:Generated_Source\PSoC5/nRF24_HAL.c **** #if defined (_PSOC6)
  33:Generated_Source\PSoC5/nRF24_HAL.c **** # include "gpio/cy_gpio.h"
  34:Generated_Source\PSoC5/nRF24_HAL.c **** #else // (_PSOC_UDB) || (_PSOC4)
  35:Generated_Source\PSoC5/nRF24_HAL.c **** # if defined (_PSOC4_SCB)
  36:Generated_Source\PSoC5/nRF24_HAL.c **** #  include "SPI_SPI_UART.h" // may be no longer necessary
  37:Generated_Source\PSoC5/nRF24_HAL.c **** # endif
  38:Generated_Source\PSoC5/nRF24_HAL.c **** # include "CE.h"
  39:Generated_Source\PSoC5/nRF24_HAL.c **** # include "SS.h"
  40:Generated_Source\PSoC5/nRF24_HAL.c **** #endif
  41:Generated_Source\PSoC5/nRF24_HAL.c **** 
  42:Generated_Source\PSoC5/nRF24_HAL.c **** /* GPIO Control */
  43:Generated_Source\PSoC5/nRF24_HAL.c **** 
  44:Generated_Source\PSoC5/nRF24_HAL.c **** /**
  45:Generated_Source\PSoC5/nRF24_HAL.c ****  * GPIO control in PSoC6 and PSoC4/PSoC5LP is a little bit different,
  46:Generated_Source\PSoC5/nRF24_HAL.c ****  * so here we try to unify them.
  47:Generated_Source\PSoC5/nRF24_HAL.c ****  *
  48:Generated_Source\PSoC5/nRF24_HAL.c ****  * @param[in] nrf_gpio state 
  49:Generated_Source\PSoC5/nRF24_HAL.c ****  */
  50:Generated_Source\PSoC5/nRF24_HAL.c **** void nRF24_ss_write(nrf_gpio state)
  51:Generated_Source\PSoC5/nRF24_HAL.c **** {
  28              		.loc 1 51 0
  29              		.cfi_startproc
  30              		@ args = 0, pretend = 0, frame = 0
  31              		@ frame_needed = 0, uses_anonymous_args = 0
  32              		@ link register save eliminated.
  33              	.LVL0:
  52:Generated_Source\PSoC5/nRF24_HAL.c ****     if (GPIO_CLEAR == state) {
  34              		.loc 1 52 0
  35 0000 00B1     		cbz	r0, .L3
  53:Generated_Source\PSoC5/nRF24_HAL.c **** #if defined (_PSOC6)
  54:Generated_Source\PSoC5/nRF24_HAL.c ****     Cy_GPIO_Clr(SS_PORT, SS_NUM);
  55:Generated_Source\PSoC5/nRF24_HAL.c **** #else // _PSoC4_SCB | _PSOC_UDB
  56:Generated_Source\PSoC5/nRF24_HAL.c ****     SS_Write(0);
  57:Generated_Source\PSoC5/nRF24_HAL.c **** #endif
  58:Generated_Source\PSoC5/nRF24_HAL.c ****     } else { // GPIO_SET
  59:Generated_Source\PSoC5/nRF24_HAL.c **** #if defined (_PSOC6)
  60:Generated_Source\PSoC5/nRF24_HAL.c ****     Cy_GPIO_Set(SS_PORT, SS_NUM);
  61:Generated_Source\PSoC5/nRF24_HAL.c **** #else // _PSoC4_SCB | _PSOC_UDB
  62:Generated_Source\PSoC5/nRF24_HAL.c ****     SS_Write(1);
  36              		.loc 1 62 0
  37 0002 0120     		movs	r0, #1
  38              	.LVL1:
  39              	.L3:
  40 0004 FFF7FEBF 		b	SS_Write
  41              	.LVL2:
  42              		.cfi_endproc
  43              	.LFE0:
  44              		.size	nRF24_ss_write, .-nRF24_ss_write
  45              		.section	.text.nRF24_ce_write,"ax",%progbits
  46              		.align	1
  47              		.global	nRF24_ce_write
  48              		.thumb
  49              		.thumb_func
  50              		.type	nRF24_ce_write, %function
  51              	nRF24_ce_write:
  52              	.LFB1:
ARM GAS  C:\Users\ALEXAN~1\AppData\Local\Temp\cc2aUVLh.s 			page 3


  63:Generated_Source\PSoC5/nRF24_HAL.c **** #endif
  64:Generated_Source\PSoC5/nRF24_HAL.c ****     }
  65:Generated_Source\PSoC5/nRF24_HAL.c **** }
  66:Generated_Source\PSoC5/nRF24_HAL.c **** 
  67:Generated_Source\PSoC5/nRF24_HAL.c **** void nRF24_ce_write(nrf_gpio state)
  68:Generated_Source\PSoC5/nRF24_HAL.c **** {
  53              		.loc 1 68 0
  54              		.cfi_startproc
  55              		@ args = 0, pretend = 0, frame = 0
  56              		@ frame_needed = 0, uses_anonymous_args = 0
  57              		@ link register save eliminated.
  58              	.LVL3:
  69:Generated_Source\PSoC5/nRF24_HAL.c ****     if (GPIO_CLEAR == state) {
  59              		.loc 1 69 0
  60 0000 00B1     		cbz	r0, .L7
  70:Generated_Source\PSoC5/nRF24_HAL.c **** #if defined (_PSOC6)
  71:Generated_Source\PSoC5/nRF24_HAL.c ****     Cy_GPIO_Clr(CE_PORT, CE_NUM);
  72:Generated_Source\PSoC5/nRF24_HAL.c **** #else // _PSoC4_SCB | _PSOC_UDB
  73:Generated_Source\PSoC5/nRF24_HAL.c ****     CE_Write(0);
  74:Generated_Source\PSoC5/nRF24_HAL.c **** #endif
  75:Generated_Source\PSoC5/nRF24_HAL.c ****     } else { // GPIO_SET
  76:Generated_Source\PSoC5/nRF24_HAL.c **** #if defined (_PSOC6)
  77:Generated_Source\PSoC5/nRF24_HAL.c ****     Cy_GPIO_Set(CE_PORT, CE_NUM);
  78:Generated_Source\PSoC5/nRF24_HAL.c **** #else // _PSoC4_SCB | _PSOC_UDB
  79:Generated_Source\PSoC5/nRF24_HAL.c ****     CE_Write(1);
  61              		.loc 1 79 0
  62 0002 0120     		movs	r0, #1
  63              	.LVL4:
  64              	.L7:
  65 0004 FFF7FEBF 		b	CE_Write
  66              	.LVL5:
  67              		.cfi_endproc
  68              	.LFE1:
  69              		.size	nRF24_ce_write, .-nRF24_ce_write
  70              		.section	.text.nRF24_spi_xfer,"ax",%progbits
  71              		.align	1
  72              		.global	nRF24_spi_xfer
  73              		.thumb
  74              		.thumb_func
  75              		.type	nRF24_spi_xfer, %function
  76              	nRF24_spi_xfer:
  77              	.LFB2:
  80:Generated_Source\PSoC5/nRF24_HAL.c **** #endif
  81:Generated_Source\PSoC5/nRF24_HAL.c ****     }
  82:Generated_Source\PSoC5/nRF24_HAL.c **** }
  83:Generated_Source\PSoC5/nRF24_HAL.c **** 
  84:Generated_Source\PSoC5/nRF24_HAL.c **** // xfer xfer_size bytes to the nrf24 radio and get back xfer_size bytes back
  85:Generated_Source\PSoC5/nRF24_HAL.c **** // from it.
  86:Generated_Source\PSoC5/nRF24_HAL.c **** // in[0] is always the NRF_COMMAND
  87:Generated_Source\PSoC5/nRF24_HAL.c **** // out[0] is always the STATUS_REGISTER
  88:Generated_Source\PSoC5/nRF24_HAL.c **** //
  89:Generated_Source\PSoC5/nRF24_HAL.c **** // Example of use:
  90:Generated_Source\PSoC5/nRF24_HAL.c **** // - To read the radio status register and save it in status_reg variable:
  91:Generated_Source\PSoC5/nRF24_HAL.c **** //
  92:Generated_Source\PSoC5/nRF24_HAL.c **** // uint8_t NRF_DUMMY = 0xFF;
  93:Generated_Source\PSoC5/nRF24_HAL.c **** // uint8_t status_reg = 0;
  94:Generated_Source\PSoC5/nRF24_HAL.c **** // nrf24_spi_xfer(&NRF_DUMMY, &status_reg, 1);
ARM GAS  C:\Users\ALEXAN~1\AppData\Local\Temp\cc2aUVLh.s 			page 4


  95:Generated_Source\PSoC5/nRF24_HAL.c **** //
  96:Generated_Source\PSoC5/nRF24_HAL.c **** // TODO:
  97:Generated_Source\PSoC5/nRF24_HAL.c **** // This function will be the only way to transfer/get data from the radio,
  98:Generated_Source\PSoC5/nRF24_HAL.c **** // that way we can eliminate duplicated code on the NRF_HAL and NRF_COMMANDS
  99:Generated_Source\PSoC5/nRF24_HAL.c **** // files. Also that way we can ease the implementation of the custom spi_xfer
 100:Generated_Source\PSoC5/nRF24_HAL.c **** // function.
 101:Generated_Source\PSoC5/nRF24_HAL.c **** void nRF24_spi_xfer(const uint8_t *in, uint8_t *out, const size_t xfer_size)
 102:Generated_Source\PSoC5/nRF24_HAL.c **** {
  78              		.loc 1 102 0
  79              		.cfi_startproc
  80              		@ args = 0, pretend = 0, frame = 0
  81              		@ frame_needed = 0, uses_anonymous_args = 0
  82              	.LVL6:
  83 0000 70B5     		push	{r4, r5, r6, lr}
  84              		.cfi_def_cfa_offset 16
  85              		.cfi_offset 4, -16
  86              		.cfi_offset 5, -12
  87              		.cfi_offset 6, -8
  88              		.cfi_offset 14, -4
  89              		.loc 1 102 0
  90 0002 0546     		mov	r5, r0
  91 0004 0C46     		mov	r4, r1
  92 0006 1646     		mov	r6, r2
  93              	.LBB9:
  94              	.LBB10:
 103:Generated_Source\PSoC5/nRF24_HAL.c ****     nRF24_spi_clear_fifo();
 104:Generated_Source\PSoC5/nRF24_HAL.c **** 
 105:Generated_Source\PSoC5/nRF24_HAL.c ****     nRF24_ss_write(GPIO_CLEAR);
 106:Generated_Source\PSoC5/nRF24_HAL.c **** 
 107:Generated_Source\PSoC5/nRF24_HAL.c **** #if defined (_PSOC6)
 108:Generated_Source\PSoC5/nRF24_HAL.c ****     for(size_t i = 0; i < xfer_size; i++){
 109:Generated_Source\PSoC5/nRF24_HAL.c ****         while(Cy_SCB_Write(SPI_HW, in[i]) == 0);
 110:Generated_Source\PSoC5/nRF24_HAL.c ****         while (Cy_SCB_GetNumInRxFifo(SPI_HW) == 0) {}
 111:Generated_Source\PSoC5/nRF24_HAL.c ****         out[i] = Cy_SCB_ReadRxFifo(SPI_HW);
 112:Generated_Source\PSoC5/nRF24_HAL.c ****     }
 113:Generated_Source\PSoC5/nRF24_HAL.c **** #elif defined (_PSOC4_SCB)
 114:Generated_Source\PSoC5/nRF24_HAL.c ****     for (size_t i = 0; i < xfer_size; i++) {
 115:Generated_Source\PSoC5/nRF24_HAL.c ****         SPI_SpiUartWriteTxData(in[i]);
 116:Generated_Source\PSoC5/nRF24_HAL.c ****         while (SPI_SpiUartGetRxBufferSize() == 0){}
 117:Generated_Source\PSoC5/nRF24_HAL.c ****         out[i] = SPI_SpiUartReadRxData();
 118:Generated_Source\PSoC5/nRF24_HAL.c ****     }
 119:Generated_Source\PSoC5/nRF24_HAL.c **** #elif defined (_PSOC_UDB)
 120:Generated_Source\PSoC5/nRF24_HAL.c ****     for (size_t i = 0; i < xfer_size; i++) {
 121:Generated_Source\PSoC5/nRF24_HAL.c ****         SPI_WriteTxData(in[i]);
 122:Generated_Source\PSoC5/nRF24_HAL.c ****         while (!(SPI_ReadTxStatus() & SPI_STS_BYTE_COMPLETE)) {
 123:Generated_Source\PSoC5/nRF24_HAL.c ****         }
 124:Generated_Source\PSoC5/nRF24_HAL.c ****         out[i] = SPI_ReadRxData();
 125:Generated_Source\PSoC5/nRF24_HAL.c ****     }
 126:Generated_Source\PSoC5/nRF24_HAL.c **** #else
 127:Generated_Source\PSoC5/nRF24_HAL.c ****     #error "Non valid PSoC device identified."
 128:Generated_Source\PSoC5/nRF24_HAL.c **** #endif
 129:Generated_Source\PSoC5/nRF24_HAL.c **** 
 130:Generated_Source\PSoC5/nRF24_HAL.c ****     nRF24_ss_write(GPIO_SET);
 131:Generated_Source\PSoC5/nRF24_HAL.c **** }
 132:Generated_Source\PSoC5/nRF24_HAL.c **** 
 133:Generated_Source\PSoC5/nRF24_HAL.c **** void nRF24_spi_clear_fifo(void)
 134:Generated_Source\PSoC5/nRF24_HAL.c **** {
ARM GAS  C:\Users\ALEXAN~1\AppData\Local\Temp\cc2aUVLh.s 			page 5


 135:Generated_Source\PSoC5/nRF24_HAL.c **** #if defined (_PSOC6)
 136:Generated_Source\PSoC5/nRF24_HAL.c ****     Cy_SCB_ClearRxFifo(SPI_HW);
 137:Generated_Source\PSoC5/nRF24_HAL.c ****     Cy_SCB_ClearTxFifo(SPI_HW);
 138:Generated_Source\PSoC5/nRF24_HAL.c **** #elif defined (_PSOC4_SCB)
 139:Generated_Source\PSoC5/nRF24_HAL.c ****     SPI_SpiUartClearRxBuffer();
 140:Generated_Source\PSoC5/nRF24_HAL.c ****     SPI_SpiUartClearTxBuffer();
 141:Generated_Source\PSoC5/nRF24_HAL.c **** #elif defined (_PSOC_UDB)
 142:Generated_Source\PSoC5/nRF24_HAL.c ****     SPI_ClearFIFO();
  95              		.loc 1 142 0
  96 0008 FFF7FEFF 		bl	SPI_ClearFIFO
  97              	.LVL7:
  98              	.LBE10:
  99              	.LBE9:
 100              	.LBB11:
 101              	.LBB12:
  56:Generated_Source\PSoC5/nRF24_HAL.c **** #endif
 102              		.loc 1 56 0
 103 000c 0020     		movs	r0, #0
 104 000e FFF7FEFF 		bl	SS_Write
 105              	.LVL8:
 106 0012 013D     		subs	r5, r5, #1
 107              	.LVL9:
 108 0014 2644     		add	r6, r6, r4
 109              	.LVL10:
 110              	.L9:
 111              	.LBE12:
 112              	.LBE11:
 113              	.LBB13:
 120:Generated_Source\PSoC5/nRF24_HAL.c ****         SPI_WriteTxData(in[i]);
 114              		.loc 1 120 0 discriminator 1
 115 0016 B442     		cmp	r4, r6
 116 0018 0CD0     		beq	.L14
 121:Generated_Source\PSoC5/nRF24_HAL.c ****         while (!(SPI_ReadTxStatus() & SPI_STS_BYTE_COMPLETE)) {
 117              		.loc 1 121 0
 118 001a 15F8010F 		ldrb	r0, [r5, #1]!	@ zero_extendqisi2
 119 001e FFF7FEFF 		bl	SPI_WriteTxData
 120              	.LVL11:
 121              	.L10:
 122:Generated_Source\PSoC5/nRF24_HAL.c ****         }
 122              		.loc 1 122 0 discriminator 1
 123 0022 FFF7FEFF 		bl	SPI_ReadTxStatus
 124              	.LVL12:
 125 0026 0307     		lsls	r3, r0, #28
 126 0028 FBD5     		bpl	.L10
 124:Generated_Source\PSoC5/nRF24_HAL.c ****     }
 127              		.loc 1 124 0 discriminator 2
 128 002a FFF7FEFF 		bl	SPI_ReadRxData
 129              	.LVL13:
 130 002e 04F8010B 		strb	r0, [r4], #1
 131              	.LVL14:
 132 0032 F0E7     		b	.L9
 133              	.L14:
 134              	.LVL15:
 135              	.LBE13:
 136              	.LBB14:
 137              	.LBB15:
  62:Generated_Source\PSoC5/nRF24_HAL.c **** #endif
ARM GAS  C:\Users\ALEXAN~1\AppData\Local\Temp\cc2aUVLh.s 			page 6


 138              		.loc 1 62 0
 139 0034 0120     		movs	r0, #1
 140              	.LBE15:
 141              	.LBE14:
 131:Generated_Source\PSoC5/nRF24_HAL.c **** 
 142              		.loc 1 131 0
 143 0036 BDE87040 		pop	{r4, r5, r6, lr}
 144              		.cfi_restore 14
 145              		.cfi_restore 6
 146              		.cfi_restore 5
 147              		.cfi_restore 4
 148              		.cfi_def_cfa_offset 0
 149              	.LVL16:
 150              	.LBB17:
 151              	.LBB16:
  62:Generated_Source\PSoC5/nRF24_HAL.c **** #endif
 152              		.loc 1 62 0
 153 003a FFF7FEBF 		b	SS_Write
 154              	.LVL17:
 155              	.LBE16:
 156              	.LBE17:
 157              		.cfi_endproc
 158              	.LFE2:
 159              		.size	nRF24_spi_xfer, .-nRF24_spi_xfer
 160              		.section	.text.nRF24_spi_clear_fifo,"ax",%progbits
 161              		.align	1
 162              		.global	nRF24_spi_clear_fifo
 163              		.thumb
 164              		.thumb_func
 165              		.type	nRF24_spi_clear_fifo, %function
 166              	nRF24_spi_clear_fifo:
 167              	.LFB3:
 134:Generated_Source\PSoC5/nRF24_HAL.c **** #if defined (_PSOC6)
 168              		.loc 1 134 0
 169              		.cfi_startproc
 170              		@ args = 0, pretend = 0, frame = 0
 171              		@ frame_needed = 0, uses_anonymous_args = 0
 172              		@ link register save eliminated.
 173              		.loc 1 142 0
 174 0000 FFF7FEBF 		b	SPI_ClearFIFO
 175              	.LVL18:
 176              		.cfi_endproc
 177              	.LFE3:
 178              		.size	nRF24_spi_clear_fifo, .-nRF24_spi_clear_fifo
 179              		.section	.text.nRF24_read_register,"ax",%progbits
 180              		.align	1
 181              		.global	nRF24_read_register
 182              		.thumb
 183              		.thumb_func
 184              		.type	nRF24_read_register, %function
 185              	nRF24_read_register:
 186              	.LFB4:
 143:Generated_Source\PSoC5/nRF24_HAL.c **** #else
 144:Generated_Source\PSoC5/nRF24_HAL.c ****     #error "Non valid PSoC device identified."
 145:Generated_Source\PSoC5/nRF24_HAL.c **** #endif
 146:Generated_Source\PSoC5/nRF24_HAL.c **** }
 147:Generated_Source\PSoC5/nRF24_HAL.c **** 
ARM GAS  C:\Users\ALEXAN~1\AppData\Local\Temp\cc2aUVLh.s 			page 7


 148:Generated_Source\PSoC5/nRF24_HAL.c **** /**
 149:Generated_Source\PSoC5/nRF24_HAL.c ****  * Read the specified nRF24 register (1byte).
 150:Generated_Source\PSoC5/nRF24_HAL.c ****  * 
 151:Generated_Source\PSoC5/nRF24_HAL.c ****  * TODO: So here the microcontroller just need to write 2 uint8_t's
 152:Generated_Source\PSoC5/nRF24_HAL.c ****  * to the nrf24 radio and read the last stored uint8_t.
 153:Generated_Source\PSoC5/nRF24_HAL.c ****  *
 154:Generated_Source\PSoC5/nRF24_HAL.c ****  * @param const nrf_register reg: Register to be read.
 155:Generated_Source\PSoC5/nRF24_HAL.c ****  *
 156:Generated_Source\PSoC5/nRF24_HAL.c ****  * @return uint8_t: Content of the specified register.
 157:Generated_Source\PSoC5/nRF24_HAL.c ****  */
 158:Generated_Source\PSoC5/nRF24_HAL.c **** uint8_t nRF24_read_register(const nrf_register reg)
 159:Generated_Source\PSoC5/nRF24_HAL.c **** {
 187              		.loc 1 159 0
 188              		.cfi_startproc
 189              		@ args = 0, pretend = 0, frame = 8
 190              		@ frame_needed = 0, uses_anonymous_args = 0
 191              	.LVL19:
 192 0000 07B5     		push	{r0, r1, r2, lr}
 193              		.cfi_def_cfa_offset 16
 194              		.cfi_offset 14, -4
 160:Generated_Source\PSoC5/nRF24_HAL.c ****     const uint8_t _nrf_cmd[] = {
 195              		.loc 1 160 0
 196 0002 FF23     		movs	r3, #255
 197 0004 8DF80130 		strb	r3, [sp, #1]
 161:Generated_Source\PSoC5/nRF24_HAL.c ****         NRF_CMD_R_REGISTER | reg, NRF_CMD_NOP
 162:Generated_Source\PSoC5/nRF24_HAL.c ****     };
 163:Generated_Source\PSoC5/nRF24_HAL.c ****     uint8_t _nrf_data[2] = {0};
 198              		.loc 1 163 0
 199 0008 02A9     		add	r1, sp, #8
 200 000a 0023     		movs	r3, #0
 160:Generated_Source\PSoC5/nRF24_HAL.c ****     const uint8_t _nrf_cmd[] = {
 201              		.loc 1 160 0
 202 000c 8DF80000 		strb	r0, [sp]
 203              		.loc 1 163 0
 204 0010 21F8043D 		strh	r3, [r1, #-4]!	@ movhi
 164:Generated_Source\PSoC5/nRF24_HAL.c ****     
 165:Generated_Source\PSoC5/nRF24_HAL.c ****     nRF24_spi_xfer(_nrf_cmd, _nrf_data, sizeof(_nrf_cmd) / sizeof(_nrf_cmd[0]));
 205              		.loc 1 165 0
 206 0014 6846     		mov	r0, sp
 207              	.LVL20:
 208 0016 0222     		movs	r2, #2
 209 0018 FFF7FEFF 		bl	nRF24_spi_xfer
 210              	.LVL21:
 166:Generated_Source\PSoC5/nRF24_HAL.c **** 
 167:Generated_Source\PSoC5/nRF24_HAL.c ****     return _nrf_data[1];
 168:Generated_Source\PSoC5/nRF24_HAL.c **** }
 211              		.loc 1 168 0
 212 001c 9DF80500 		ldrb	r0, [sp, #5]	@ zero_extendqisi2
 213 0020 03B0     		add	sp, sp, #12
 214              		.cfi_def_cfa_offset 4
 215              		@ sp needed
 216 0022 5DF804FB 		ldr	pc, [sp], #4
 217              		.cfi_endproc
 218              	.LFE4:
 219              		.size	nRF24_read_register, .-nRF24_read_register
 220              		.section	.text.nRF24_read_long_register,"ax",%progbits
 221              		.align	1
ARM GAS  C:\Users\ALEXAN~1\AppData\Local\Temp\cc2aUVLh.s 			page 8


 222              		.global	nRF24_read_long_register
 223              		.thumb
 224              		.thumb_func
 225              		.type	nRF24_read_long_register, %function
 226              	nRF24_read_long_register:
 227              	.LFB5:
 169:Generated_Source\PSoC5/nRF24_HAL.c **** 
 170:Generated_Source\PSoC5/nRF24_HAL.c **** /**
 171:Generated_Source\PSoC5/nRF24_HAL.c ****  * Read the specified nRF24 register (bigger than 1 byte).
 172:Generated_Source\PSoC5/nRF24_HAL.c ****  *
 173:Generated_Source\PSoC5/nRF24_HAL.c ****  * @param const nrf_register reg: Register to be read.
 174:Generated_Source\PSoC5/nRF24_HAL.c ****  * @param uint8_t* data: Pointer to where the content of the register
 175:Generated_Source\PSoC5/nRF24_HAL.c ****  * will be stored.
 176:Generated_Source\PSoC5/nRF24_HAL.c ****  * @param size_t size: Size of the register and data.
 177:Generated_Source\PSoC5/nRF24_HAL.c ****  */
 178:Generated_Source\PSoC5/nRF24_HAL.c **** void nRF24_read_long_register(const nrf_register reg,
 179:Generated_Source\PSoC5/nRF24_HAL.c ****                                            uint8_t* data, const size_t size)
 180:Generated_Source\PSoC5/nRF24_HAL.c **** {
 228              		.loc 1 180 0
 229              		.cfi_startproc
 230              		@ args = 0, pretend = 0, frame = 0
 231              		@ frame_needed = 1, uses_anonymous_args = 0
 232              	.LVL22:
 233 0000 F8B5     		push	{r3, r4, r5, r6, r7, lr}
 234              		.cfi_def_cfa_offset 24
 235              		.cfi_offset 3, -24
 236              		.cfi_offset 4, -20
 237              		.cfi_offset 5, -16
 238              		.cfi_offset 6, -12
 239              		.cfi_offset 7, -8
 240              		.cfi_offset 14, -4
 181:Generated_Source\PSoC5/nRF24_HAL.c ****     uint8_t nrf_data[size + 1];
 241              		.loc 1 181 0
 242 0002 02F10803 		add	r3, r2, #8
 243 0006 23F00703 		bic	r3, r3, #7
 180:Generated_Source\PSoC5/nRF24_HAL.c ****     uint8_t nrf_data[size + 1];
 244              		.loc 1 180 0
 245 000a 00AF     		add	r7, sp, #0
 246              		.cfi_def_cfa_register 7
 247              		.loc 1 181 0
 248 000c ADEB030D 		sub	sp, sp, r3
 249 0010 6D46     		mov	r5, sp
 250              	.LVL23:
 180:Generated_Source\PSoC5/nRF24_HAL.c ****     uint8_t nrf_data[size + 1];
 251              		.loc 1 180 0
 252 0012 0E46     		mov	r6, r1
 253 0014 1446     		mov	r4, r2
 182:Generated_Source\PSoC5/nRF24_HAL.c ****     uint8_t dummy[size + 1];
 254              		.loc 1 182 0
 255 0016 ADEB030D 		sub	sp, sp, r3
 256              	.LVL24:
 183:Generated_Source\PSoC5/nRF24_HAL.c ****     
 184:Generated_Source\PSoC5/nRF24_HAL.c ****     dummy[0] = NRF_CMD_R_REGISTER | reg;
 257              		.loc 1 184 0
 258 001a 8DF80000 		strb	r0, [sp]
 185:Generated_Source\PSoC5/nRF24_HAL.c **** 
 186:Generated_Source\PSoC5/nRF24_HAL.c ****     // Send the command and get the status
ARM GAS  C:\Users\ALEXAN~1\AppData\Local\Temp\cc2aUVLh.s 			page 9


 187:Generated_Source\PSoC5/nRF24_HAL.c ****     nRF24_spi_xfer(dummy, nrf_data, sizeof(dummy));
 259              		.loc 1 187 0
 260 001e 2946     		mov	r1, r5
 261              	.LVL25:
 262 0020 6846     		mov	r0, sp
 263              	.LVL26:
 264 0022 0132     		adds	r2, r2, #1
 265              	.LVL27:
 266 0024 FFF7FEFF 		bl	nRF24_spi_xfer
 267              	.LVL28:
 188:Generated_Source\PSoC5/nRF24_HAL.c **** 
 189:Generated_Source\PSoC5/nRF24_HAL.c ****     // Copy data without the status register to the user pointer
 190:Generated_Source\PSoC5/nRF24_HAL.c ****     memcpy(data, &nrf_data[1], size);
 268              		.loc 1 190 0
 269 0028 2246     		mov	r2, r4
 270 002a 691C     		adds	r1, r5, #1
 271 002c 3046     		mov	r0, r6
 272 002e FFF7FEFF 		bl	memcpy
 273              	.LVL29:
 191:Generated_Source\PSoC5/nRF24_HAL.c **** }
 274              		.loc 1 191 0
 275 0032 BD46     		mov	sp, r7
 276              		.cfi_def_cfa_register 13
 277              	.LVL30:
 278              		@ sp needed
 279 0034 F8BD     		pop	{r3, r4, r5, r6, r7, pc}
 280              		.cfi_endproc
 281              	.LFE5:
 282              		.size	nRF24_read_long_register, .-nRF24_read_long_register
 283              		.section	.text.nRF24_write_register,"ax",%progbits
 284              		.align	1
 285              		.global	nRF24_write_register
 286              		.thumb
 287              		.thumb_func
 288              		.type	nRF24_write_register, %function
 289              	nRF24_write_register:
 290              	.LFB6:
 192:Generated_Source\PSoC5/nRF24_HAL.c **** 
 193:Generated_Source\PSoC5/nRF24_HAL.c **** /**
 194:Generated_Source\PSoC5/nRF24_HAL.c ****  * Write to the specified nRF24 Register (1byte).
 195:Generated_Source\PSoC5/nRF24_HAL.c ****  *
 196:Generated_Source\PSoC5/nRF24_HAL.c ****  * @param const nrf_register reg: Register to be written.
 197:Generated_Source\PSoC5/nRF24_HAL.c ****  * @param const uint8_t data: Data to be written into the specified register.
 198:Generated_Source\PSoC5/nRF24_HAL.c ****  */
 199:Generated_Source\PSoC5/nRF24_HAL.c **** void nRF24_write_register(const nrf_register reg, const uint8_t data)
 200:Generated_Source\PSoC5/nRF24_HAL.c **** {
 291              		.loc 1 200 0
 292              		.cfi_startproc
 293              		@ args = 0, pretend = 0, frame = 8
 294              		@ frame_needed = 0, uses_anonymous_args = 0
 295              	.LVL31:
 296 0000 07B5     		push	{r0, r1, r2, lr}
 297              		.cfi_def_cfa_offset 16
 298              		.cfi_offset 14, -4
 201:Generated_Source\PSoC5/nRF24_HAL.c ****     const uint8_t data_to_write[] = {NRF_CMD_W_REGISTER | reg, data};
 202:Generated_Source\PSoC5/nRF24_HAL.c ****     uint8_t nrf_data[2] = {0};
 299              		.loc 1 202 0
ARM GAS  C:\Users\ALEXAN~1\AppData\Local\Temp\cc2aUVLh.s 			page 10


 300 0002 0023     		movs	r3, #0
 201:Generated_Source\PSoC5/nRF24_HAL.c ****     const uint8_t data_to_write[] = {NRF_CMD_W_REGISTER | reg, data};
 301              		.loc 1 201 0
 302 0004 8DF80110 		strb	r1, [sp, #1]
 303 0008 40F02000 		orr	r0, r0, #32
 304              	.LVL32:
 305              		.loc 1 202 0
 306 000c 02A9     		add	r1, sp, #8
 307              	.LVL33:
 201:Generated_Source\PSoC5/nRF24_HAL.c ****     const uint8_t data_to_write[] = {NRF_CMD_W_REGISTER | reg, data};
 308              		.loc 1 201 0
 309 000e 8DF80000 		strb	r0, [sp]
 310              		.loc 1 202 0
 311 0012 21F8043D 		strh	r3, [r1, #-4]!	@ movhi
 203:Generated_Source\PSoC5/nRF24_HAL.c ****     
 204:Generated_Source\PSoC5/nRF24_HAL.c ****     nRF24_spi_xfer(data_to_write, nrf_data, sizeof(data_to_write));
 312              		.loc 1 204 0
 313 0016 0222     		movs	r2, #2
 314 0018 6846     		mov	r0, sp
 315 001a FFF7FEFF 		bl	nRF24_spi_xfer
 316              	.LVL34:
 205:Generated_Source\PSoC5/nRF24_HAL.c **** }
 317              		.loc 1 205 0
 318 001e 03B0     		add	sp, sp, #12
 319              		.cfi_def_cfa_offset 4
 320              		@ sp needed
 321 0020 5DF804FB 		ldr	pc, [sp], #4
 322              		.cfi_endproc
 323              	.LFE6:
 324              		.size	nRF24_write_register, .-nRF24_write_register
 325              		.section	.text.nRF24_write_long_register,"ax",%progbits
 326              		.align	1
 327              		.global	nRF24_write_long_register
 328              		.thumb
 329              		.thumb_func
 330              		.type	nRF24_write_long_register, %function
 331              	nRF24_write_long_register:
 332              	.LFB7:
 206:Generated_Source\PSoC5/nRF24_HAL.c **** 
 207:Generated_Source\PSoC5/nRF24_HAL.c **** /**
 208:Generated_Source\PSoC5/nRF24_HAL.c ****  * Write one or more bytes to the specified nRF24 Register.
 209:Generated_Source\PSoC5/nRF24_HAL.c ****  *
 210:Generated_Source\PSoC5/nRF24_HAL.c ****  * @param const nrf_register reg: Register to be written.
 211:Generated_Source\PSoC5/nRF24_HAL.c ****  * @param const uint8_t* data: Data to writen into the register.
 212:Generated_Source\PSoC5/nRF24_HAL.c ****  * @param size_t size: Bytes of the data to be written in the specified register.
 213:Generated_Source\PSoC5/nRF24_HAL.c ****  */
 214:Generated_Source\PSoC5/nRF24_HAL.c **** void nRF24_write_long_register(const nrf_register reg,
 215:Generated_Source\PSoC5/nRF24_HAL.c ****                                             const uint8_t* data, const size_t size)
 216:Generated_Source\PSoC5/nRF24_HAL.c **** {
 333              		.loc 1 216 0
 334              		.cfi_startproc
 335              		@ args = 0, pretend = 0, frame = 0
 336              		@ frame_needed = 1, uses_anonymous_args = 0
 337              	.LVL35:
 338 0000 1346     		mov	r3, r2
 339 0002 B0B5     		push	{r4, r5, r7, lr}
 340              		.cfi_def_cfa_offset 16
ARM GAS  C:\Users\ALEXAN~1\AppData\Local\Temp\cc2aUVLh.s 			page 11


 341              		.cfi_offset 4, -16
 342              		.cfi_offset 5, -12
 343              		.cfi_offset 7, -8
 344              		.cfi_offset 14, -4
 217:Generated_Source\PSoC5/nRF24_HAL.c ****     uint8_t data_to_nrf[size + 1];
 345              		.loc 1 217 0
 346 0004 0833     		adds	r3, r3, #8
 347 0006 23F00703 		bic	r3, r3, #7
 216:Generated_Source\PSoC5/nRF24_HAL.c ****     uint8_t data_to_nrf[size + 1];
 348              		.loc 1 216 0
 349 000a 00AF     		add	r7, sp, #0
 350              		.cfi_def_cfa_register 7
 351              		.loc 1 217 0
 352 000c ADEB030D 		sub	sp, sp, r3
 353 0010 6C46     		mov	r4, sp
 354              	.LVL36:
 218:Generated_Source\PSoC5/nRF24_HAL.c ****     uint8_t data_from_nrf[size + 1];
 355              		.loc 1 218 0
 356 0012 ADEB030D 		sub	sp, sp, r3
 357              	.LVL37:
 219:Generated_Source\PSoC5/nRF24_HAL.c ****     
 220:Generated_Source\PSoC5/nRF24_HAL.c ****     // Set the write command and the register to write to
 221:Generated_Source\PSoC5/nRF24_HAL.c ****     data_to_nrf[0] = NRF_CMD_W_REGISTER | reg;
 358              		.loc 1 221 0
 359 0016 40F02003 		orr	r3, r0, #32
 360 001a 2046     		mov	r0, r4
 361              	.LVL38:
 217:Generated_Source\PSoC5/nRF24_HAL.c ****     uint8_t data_from_nrf[size + 1];
 362              		.loc 1 217 0
 363 001c 551C     		adds	r5, r2, #1
 364              		.loc 1 221 0
 365 001e 00F8013B 		strb	r3, [r0], #1
 222:Generated_Source\PSoC5/nRF24_HAL.c ****     // add the data given by the user
 223:Generated_Source\PSoC5/nRF24_HAL.c ****     memcpy(&data_to_nrf[1], data, size);
 366              		.loc 1 223 0
 367 0022 FFF7FEFF 		bl	memcpy
 368              	.LVL39:
 224:Generated_Source\PSoC5/nRF24_HAL.c **** 
 225:Generated_Source\PSoC5/nRF24_HAL.c ****     nRF24_spi_xfer(data_to_nrf, data_from_nrf, sizeof(data_to_nrf));
 369              		.loc 1 225 0
 370 0026 2A46     		mov	r2, r5
 371 0028 6946     		mov	r1, sp
 372 002a 2046     		mov	r0, r4
 373 002c FFF7FEFF 		bl	nRF24_spi_xfer
 374              	.LVL40:
 226:Generated_Source\PSoC5/nRF24_HAL.c **** }
 375              		.loc 1 226 0
 376 0030 BD46     		mov	sp, r7
 377              		.cfi_def_cfa_register 13
 378              	.LVL41:
 379              		@ sp needed
 380 0032 B0BD     		pop	{r4, r5, r7, pc}
 381              		.cfi_endproc
 382              	.LFE7:
 383              		.size	nRF24_write_long_register, .-nRF24_write_long_register
 384              		.section	.text.nRF24_read_bit,"ax",%progbits
 385              		.align	1
ARM GAS  C:\Users\ALEXAN~1\AppData\Local\Temp\cc2aUVLh.s 			page 12


 386              		.global	nRF24_read_bit
 387              		.thumb
 388              		.thumb_func
 389              		.type	nRF24_read_bit, %function
 390              	nRF24_read_bit:
 391              	.LFB8:
 227:Generated_Source\PSoC5/nRF24_HAL.c **** 
 228:Generated_Source\PSoC5/nRF24_HAL.c **** /**
 229:Generated_Source\PSoC5/nRF24_HAL.c ****  * Read the content of the specified bit of the specified nrf_register.
 230:Generated_Source\PSoC5/nRF24_HAL.c ****  *
 231:Generated_Source\PSoC5/nRF24_HAL.c ****  * @param const nrf_register reg: Register to be read.
 232:Generated_Source\PSoC5/nRF24_HAL.c ****  * @param uint8_t bit: Bit to be read.
 233:Generated_Source\PSoC5/nRF24_HAL.c ****  *
 234:Generated_Source\PSoC5/nRF24_HAL.c ****  * @return bool: Return the content of the bit.
 235:Generated_Source\PSoC5/nRF24_HAL.c ****  */
 236:Generated_Source\PSoC5/nRF24_HAL.c **** bool nRF24_read_bit(const nrf_register reg, const uint8_t bit)
 237:Generated_Source\PSoC5/nRF24_HAL.c **** {
 392              		.loc 1 237 0
 393              		.cfi_startproc
 394              		@ args = 0, pretend = 0, frame = 0
 395              		@ frame_needed = 0, uses_anonymous_args = 0
 396              	.LVL42:
 397 0000 10B5     		push	{r4, lr}
 398              		.cfi_def_cfa_offset 8
 399              		.cfi_offset 4, -8
 400              		.cfi_offset 14, -4
 401              		.loc 1 237 0
 402 0002 0C46     		mov	r4, r1
 238:Generated_Source\PSoC5/nRF24_HAL.c ****     return (nRF24_read_register(reg) & (1 << bit)) != 0;
 403              		.loc 1 238 0
 404 0004 FFF7FEFF 		bl	nRF24_read_register
 405              	.LVL43:
 406 0008 2041     		asrs	r0, r0, r4
 239:Generated_Source\PSoC5/nRF24_HAL.c **** }
 407              		.loc 1 239 0
 408 000a 00F00100 		and	r0, r0, #1
 409 000e 10BD     		pop	{r4, pc}
 410              		.cfi_endproc
 411              	.LFE8:
 412              		.size	nRF24_read_bit, .-nRF24_read_bit
 413              		.section	.text.nRF24_clear_bit,"ax",%progbits
 414              		.align	1
 415              		.global	nRF24_clear_bit
 416              		.thumb
 417              		.thumb_func
 418              		.type	nRF24_clear_bit, %function
 419              	nRF24_clear_bit:
 420              	.LFB10:
 240:Generated_Source\PSoC5/nRF24_HAL.c **** 
 241:Generated_Source\PSoC5/nRF24_HAL.c **** /**
 242:Generated_Source\PSoC5/nRF24_HAL.c ****  * Set (1) or clear (0) the specified bit of the specified nRF24 register.
 243:Generated_Source\PSoC5/nRF24_HAL.c ****  *
 244:Generated_Source\PSoC5/nRF24_HAL.c ****  * First we read the specified register and check the content of the specified
 245:Generated_Source\PSoC5/nRF24_HAL.c ****  * bit, exit early if the bit already is the value we wanted, otherwise we set
 246:Generated_Source\PSoC5/nRF24_HAL.c ****  * the bit to the specified value.
 247:Generated_Source\PSoC5/nRF24_HAL.c ****  *
 248:Generated_Source\PSoC5/nRF24_HAL.c ****  * @param const nrf_register reg: Register to be written.
ARM GAS  C:\Users\ALEXAN~1\AppData\Local\Temp\cc2aUVLh.s 			page 13


 249:Generated_Source\PSoC5/nRF24_HAL.c ****  * @param const uint8_t bit: Position of the bit to be written.
 250:Generated_Source\PSoC5/nRF24_HAL.c ****  * @param const bool value: Value (1 or 0) to write into the bit.
 251:Generated_Source\PSoC5/nRF24_HAL.c ****  */
 252:Generated_Source\PSoC5/nRF24_HAL.c **** static void nRF24_write_bit(const nrf_register reg,
 253:Generated_Source\PSoC5/nRF24_HAL.c ****                                   const uint8_t bit, const bool value)
 254:Generated_Source\PSoC5/nRF24_HAL.c **** {
 255:Generated_Source\PSoC5/nRF24_HAL.c ****     uint8_t temp = nRF24_read_register(reg);
 256:Generated_Source\PSoC5/nRF24_HAL.c **** 
 257:Generated_Source\PSoC5/nRF24_HAL.c ****     // Read the bit value before writing to it.
 258:Generated_Source\PSoC5/nRF24_HAL.c ****     // Check if the bit is 1
 259:Generated_Source\PSoC5/nRF24_HAL.c ****     if ((temp & (1 << bit)) != 0) {
 260:Generated_Source\PSoC5/nRF24_HAL.c ****         // it is 1, return if we wanted to set it to 1
 261:Generated_Source\PSoC5/nRF24_HAL.c ****         if (value) {
 262:Generated_Source\PSoC5/nRF24_HAL.c ****             return;
 263:Generated_Source\PSoC5/nRF24_HAL.c ****         }
 264:Generated_Source\PSoC5/nRF24_HAL.c ****     } else { // the bit is 0
 265:Generated_Source\PSoC5/nRF24_HAL.c ****         // it is 0, return if we wanted to set it to 0
 266:Generated_Source\PSoC5/nRF24_HAL.c ****         if (!value) {
 267:Generated_Source\PSoC5/nRF24_HAL.c ****             return;
 268:Generated_Source\PSoC5/nRF24_HAL.c ****         }
 269:Generated_Source\PSoC5/nRF24_HAL.c ****     }
 270:Generated_Source\PSoC5/nRF24_HAL.c **** 
 271:Generated_Source\PSoC5/nRF24_HAL.c ****     // Calculate the new value to be written into the register
 272:Generated_Source\PSoC5/nRF24_HAL.c ****     temp = value ? temp | (1 << bit) : temp & ~(1 << bit);
 273:Generated_Source\PSoC5/nRF24_HAL.c **** 
 274:Generated_Source\PSoC5/nRF24_HAL.c ****     nRF24_write_register(reg, temp);
 275:Generated_Source\PSoC5/nRF24_HAL.c **** }
 276:Generated_Source\PSoC5/nRF24_HAL.c **** 
 277:Generated_Source\PSoC5/nRF24_HAL.c **** /**
 278:Generated_Source\PSoC5/nRF24_HAL.c ****  * Set to 0 the specified bit of the specified nRF24 register.
 279:Generated_Source\PSoC5/nRF24_HAL.c ****  *
 280:Generated_Source\PSoC5/nRF24_HAL.c ****  * @param const nrf_register reg: Register to be written.
 281:Generated_Source\PSoC5/nRF24_HAL.c ****  * @param const uint8_t bit: Bit to be written.
 282:Generated_Source\PSoC5/nRF24_HAL.c ****  */
 283:Generated_Source\PSoC5/nRF24_HAL.c **** void nRF24_clear_bit(const nrf_register reg, const uint8_t bit)
 284:Generated_Source\PSoC5/nRF24_HAL.c **** {
 421              		.loc 1 284 0
 422              		.cfi_startproc
 423              		@ args = 0, pretend = 0, frame = 0
 424              		@ frame_needed = 0, uses_anonymous_args = 0
 425              	.LVL44:
 285:Generated_Source\PSoC5/nRF24_HAL.c ****     if (8 < bit) {
 426              		.loc 1 285 0
 427 0000 0829     		cmp	r1, #8
 284:Generated_Source\PSoC5/nRF24_HAL.c ****     if (8 < bit) {
 428              		.loc 1 284 0
 429 0002 38B5     		push	{r3, r4, r5, lr}
 430              		.cfi_def_cfa_offset 16
 431              		.cfi_offset 3, -16
 432              		.cfi_offset 4, -12
 433              		.cfi_offset 5, -8
 434              		.cfi_offset 14, -4
 284:Generated_Source\PSoC5/nRF24_HAL.c ****     if (8 < bit) {
 435              		.loc 1 284 0
 436 0004 0546     		mov	r5, r0
 437 0006 0C46     		mov	r4, r1
 438              		.loc 1 285 0
ARM GAS  C:\Users\ALEXAN~1\AppData\Local\Temp\cc2aUVLh.s 			page 14


 439 0008 10D8     		bhi	.L21
 440              	.LVL45:
 441              	.LBB20:
 442              	.LBB21:
 255:Generated_Source\PSoC5/nRF24_HAL.c **** 
 443              		.loc 1 255 0
 444 000a FFF7FEFF 		bl	nRF24_read_register
 445              	.LVL46:
 259:Generated_Source\PSoC5/nRF24_HAL.c ****         // it is 1, return if we wanted to set it to 1
 446              		.loc 1 259 0
 447 000e 40FA04F3 		asr	r3, r0, r4
 448 0012 DB07     		lsls	r3, r3, #31
 449 0014 0AD5     		bpl	.L21
 450              	.LVL47:
 274:Generated_Source\PSoC5/nRF24_HAL.c **** }
 451              		.loc 1 274 0
 452 0016 0123     		movs	r3, #1
 453 0018 03FA04F1 		lsl	r1, r3, r4
 454 001c 20EA0101 		bic	r1, r0, r1
 455 0020 C9B2     		uxtb	r1, r1
 456 0022 2846     		mov	r0, r5
 457              	.LVL48:
 458              	.LBE21:
 459              	.LBE20:
 286:Generated_Source\PSoC5/nRF24_HAL.c ****         return;
 287:Generated_Source\PSoC5/nRF24_HAL.c ****     }
 288:Generated_Source\PSoC5/nRF24_HAL.c **** 
 289:Generated_Source\PSoC5/nRF24_HAL.c ****     nRF24_write_bit(reg, bit, 0);
 290:Generated_Source\PSoC5/nRF24_HAL.c **** }
 460              		.loc 1 290 0
 461 0024 BDE83840 		pop	{r3, r4, r5, lr}
 462              		.cfi_remember_state
 463              		.cfi_restore 14
 464              		.cfi_restore 5
 465              		.cfi_restore 4
 466              		.cfi_restore 3
 467              		.cfi_def_cfa_offset 0
 468              	.LVL49:
 469              	.LBB23:
 470              	.LBB22:
 274:Generated_Source\PSoC5/nRF24_HAL.c **** }
 471              		.loc 1 274 0
 472 0028 FFF7FEBF 		b	nRF24_write_register
 473              	.LVL50:
 474              	.L21:
 475              		.cfi_restore_state
 476 002c 38BD     		pop	{r3, r4, r5, pc}
 477              	.LBE22:
 478              	.LBE23:
 479              		.cfi_endproc
 480              	.LFE10:
 481              		.size	nRF24_clear_bit, .-nRF24_clear_bit
 482              		.section	.text.nRF24_set_bit,"ax",%progbits
 483              		.align	1
 484              		.global	nRF24_set_bit
 485              		.thumb
 486              		.thumb_func
ARM GAS  C:\Users\ALEXAN~1\AppData\Local\Temp\cc2aUVLh.s 			page 15


 487              		.type	nRF24_set_bit, %function
 488              	nRF24_set_bit:
 489              	.LFB11:
 291:Generated_Source\PSoC5/nRF24_HAL.c **** 
 292:Generated_Source\PSoC5/nRF24_HAL.c **** /**
 293:Generated_Source\PSoC5/nRF24_HAL.c ****  * Set to 1 the specified bit of the specified nRF24 register.
 294:Generated_Source\PSoC5/nRF24_HAL.c ****  *
 295:Generated_Source\PSoC5/nRF24_HAL.c ****  * @param const nrf_register reg: Register to be written.
 296:Generated_Source\PSoC5/nRF24_HAL.c ****  * @param const uint8_t bit: Bit to be written.
 297:Generated_Source\PSoC5/nRF24_HAL.c ****  */
 298:Generated_Source\PSoC5/nRF24_HAL.c **** void nRF24_set_bit(const nrf_register reg, const uint8_t bit)
 299:Generated_Source\PSoC5/nRF24_HAL.c **** {
 490              		.loc 1 299 0
 491              		.cfi_startproc
 492              		@ args = 0, pretend = 0, frame = 0
 493              		@ frame_needed = 0, uses_anonymous_args = 0
 494              	.LVL51:
 300:Generated_Source\PSoC5/nRF24_HAL.c ****     if (8 < bit) {
 495              		.loc 1 300 0
 496 0000 0829     		cmp	r1, #8
 299:Generated_Source\PSoC5/nRF24_HAL.c ****     if (8 < bit) {
 497              		.loc 1 299 0
 498 0002 38B5     		push	{r3, r4, r5, lr}
 499              		.cfi_def_cfa_offset 16
 500              		.cfi_offset 3, -16
 501              		.cfi_offset 4, -12
 502              		.cfi_offset 5, -8
 503              		.cfi_offset 14, -4
 299:Generated_Source\PSoC5/nRF24_HAL.c ****     if (8 < bit) {
 504              		.loc 1 299 0
 505 0004 0546     		mov	r5, r0
 506 0006 0C46     		mov	r4, r1
 507              		.loc 1 300 0
 508 0008 0FD8     		bhi	.L28
 509              	.LVL52:
 510              	.LBB26:
 511              	.LBB27:
 255:Generated_Source\PSoC5/nRF24_HAL.c **** 
 512              		.loc 1 255 0
 513 000a FFF7FEFF 		bl	nRF24_read_register
 514              	.LVL53:
 259:Generated_Source\PSoC5/nRF24_HAL.c ****         // it is 1, return if we wanted to set it to 1
 515              		.loc 1 259 0
 516 000e 40FA04F3 		asr	r3, r0, r4
 517 0012 DB07     		lsls	r3, r3, #31
 518 0014 09D4     		bmi	.L28
 519              	.LVL54:
 274:Generated_Source\PSoC5/nRF24_HAL.c **** }
 520              		.loc 1 274 0
 521 0016 0123     		movs	r3, #1
 522 0018 03FA04F1 		lsl	r1, r3, r4
 523 001c 0143     		orrs	r1, r1, r0
 524 001e C9B2     		uxtb	r1, r1
 525 0020 2846     		mov	r0, r5
 526              	.LVL55:
 527              	.LBE27:
 528              	.LBE26:
ARM GAS  C:\Users\ALEXAN~1\AppData\Local\Temp\cc2aUVLh.s 			page 16


 301:Generated_Source\PSoC5/nRF24_HAL.c ****         return;
 302:Generated_Source\PSoC5/nRF24_HAL.c ****     }
 303:Generated_Source\PSoC5/nRF24_HAL.c **** 
 304:Generated_Source\PSoC5/nRF24_HAL.c ****     nRF24_write_bit(reg, bit, 1);
 305:Generated_Source\PSoC5/nRF24_HAL.c **** }
 529              		.loc 1 305 0
 530 0022 BDE83840 		pop	{r3, r4, r5, lr}
 531              		.cfi_remember_state
 532              		.cfi_restore 14
 533              		.cfi_restore 5
 534              		.cfi_restore 4
 535              		.cfi_restore 3
 536              		.cfi_def_cfa_offset 0
 537              	.LVL56:
 538              	.LBB29:
 539              	.LBB28:
 274:Generated_Source\PSoC5/nRF24_HAL.c **** }
 540              		.loc 1 274 0
 541 0026 FFF7FEBF 		b	nRF24_write_register
 542              	.LVL57:
 543              	.L28:
 544              		.cfi_restore_state
 545 002a 38BD     		pop	{r3, r4, r5, pc}
 546              	.LBE28:
 547              	.LBE29:
 548              		.cfi_endproc
 549              	.LFE11:
 550              		.size	nRF24_set_bit, .-nRF24_set_bit
 551              		.text
 552              	.Letext0:
 553              		.file 2 "c:\\program files (x86)\\cypress\\psoc creator\\4.2\\psoc creator\\import\\gnu\\arm\\5.4.
 554              		.file 3 "c:\\program files (x86)\\cypress\\psoc creator\\4.2\\psoc creator\\import\\gnu\\arm\\5.4.
 555              		.file 4 "c:\\program files (x86)\\cypress\\psoc creator\\4.2\\psoc creator\\import\\gnu\\arm\\5.4.
 556              		.file 5 "Generated_Source\\PSoC5\\cytypes.h"
 557              		.file 6 "Generated_Source\\PSoC5\\nRF24_DEFS.h"
 558              		.file 7 "Generated_Source\\PSoC5\\nRF24_HAL.h"
 559              		.file 8 "Generated_Source\\PSoC5\\SS.h"
 560              		.file 9 "Generated_Source\\PSoC5\\CE.h"
 561              		.file 10 "Generated_Source\\PSoC5\\SPI.h"