ARM GAS  C:\Users\rens_\AppData\Local\Temp\ccYtZJYB.s 			page 1


   1              		.syntax unified
   2              		.cpu cortex-m3
   3              		.fpu softvfp
   4              		.eabi_attribute 20, 1
   5              		.eabi_attribute 21, 1
   6              		.eabi_attribute 23, 3
   7              		.eabi_attribute 24, 1
   8              		.eabi_attribute 25, 1
   9              		.eabi_attribute 26, 1
  10              		.eabi_attribute 30, 4
  11              		.eabi_attribute 34, 1
  12              		.eabi_attribute 18, 4
  13              		.thumb
  14              		.syntax unified
  15              		.file	"PWM_SERVO_PM.c"
  16              		.text
  17              	.Ltext0:
  18              		.cfi_sections	.debug_frame
  19              		.section	.text.PWM_SERVO_SaveConfig,"ax",%progbits
  20              		.align	1
  21              		.global	PWM_SERVO_SaveConfig
  22              		.thumb
  23              		.thumb_func
  24              		.type	PWM_SERVO_SaveConfig, %function
  25              	PWM_SERVO_SaveConfig:
  26              	.LFB5:
  27              		.cfi_startproc
  28              		@ args = 0, pretend = 0, frame = 0
  29              		@ frame_needed = 0, uses_anonymous_args = 0
  30              		@ link register save eliminated.
  31 0000 7047     		bx	lr
  32              		.cfi_endproc
  33              	.LFE5:
  34              		.size	PWM_SERVO_SaveConfig, .-PWM_SERVO_SaveConfig
  35              		.section	.text.PWM_SERVO_RestoreConfig,"ax",%progbits
  36              		.align	1
  37              		.global	PWM_SERVO_RestoreConfig
  38              		.thumb
  39              		.thumb_func
  40              		.type	PWM_SERVO_RestoreConfig, %function
  41              	PWM_SERVO_RestoreConfig:
  42              	.LFB1:
  43              		.file 1 "Generated_Source\\PSoC5\\PWM_SERVO_PM.c"
   1:Generated_Source\PSoC5/PWM_SERVO_PM.c **** /*******************************************************************************
   2:Generated_Source\PSoC5/PWM_SERVO_PM.c **** * File Name: PWM_SERVO_PM.c
   3:Generated_Source\PSoC5/PWM_SERVO_PM.c **** * Version 3.30
   4:Generated_Source\PSoC5/PWM_SERVO_PM.c **** *
   5:Generated_Source\PSoC5/PWM_SERVO_PM.c **** * Description:
   6:Generated_Source\PSoC5/PWM_SERVO_PM.c **** *  This file provides the power management source code to API for the
   7:Generated_Source\PSoC5/PWM_SERVO_PM.c **** *  PWM.
   8:Generated_Source\PSoC5/PWM_SERVO_PM.c **** *
   9:Generated_Source\PSoC5/PWM_SERVO_PM.c **** * Note:
  10:Generated_Source\PSoC5/PWM_SERVO_PM.c **** *
  11:Generated_Source\PSoC5/PWM_SERVO_PM.c **** ********************************************************************************
  12:Generated_Source\PSoC5/PWM_SERVO_PM.c **** * Copyright 2008-2014, Cypress Semiconductor Corporation.  All rights reserved.
  13:Generated_Source\PSoC5/PWM_SERVO_PM.c **** * You may use this file only in accordance with the license, terms, conditions,
  14:Generated_Source\PSoC5/PWM_SERVO_PM.c **** * disclaimers, and limitations in the end user license agreement accompanying
ARM GAS  C:\Users\rens_\AppData\Local\Temp\ccYtZJYB.s 			page 2


  15:Generated_Source\PSoC5/PWM_SERVO_PM.c **** * the software package with which this file was provided.
  16:Generated_Source\PSoC5/PWM_SERVO_PM.c **** *******************************************************************************/
  17:Generated_Source\PSoC5/PWM_SERVO_PM.c **** 
  18:Generated_Source\PSoC5/PWM_SERVO_PM.c **** #include "PWM_SERVO.h"
  19:Generated_Source\PSoC5/PWM_SERVO_PM.c **** 
  20:Generated_Source\PSoC5/PWM_SERVO_PM.c **** static PWM_SERVO_backupStruct PWM_SERVO_backup;
  21:Generated_Source\PSoC5/PWM_SERVO_PM.c **** 
  22:Generated_Source\PSoC5/PWM_SERVO_PM.c **** 
  23:Generated_Source\PSoC5/PWM_SERVO_PM.c **** /*******************************************************************************
  24:Generated_Source\PSoC5/PWM_SERVO_PM.c **** * Function Name: PWM_SERVO_SaveConfig
  25:Generated_Source\PSoC5/PWM_SERVO_PM.c **** ********************************************************************************
  26:Generated_Source\PSoC5/PWM_SERVO_PM.c **** *
  27:Generated_Source\PSoC5/PWM_SERVO_PM.c **** * Summary:
  28:Generated_Source\PSoC5/PWM_SERVO_PM.c **** *  Saves the current user configuration of the component.
  29:Generated_Source\PSoC5/PWM_SERVO_PM.c **** *
  30:Generated_Source\PSoC5/PWM_SERVO_PM.c **** * Parameters:
  31:Generated_Source\PSoC5/PWM_SERVO_PM.c **** *  None
  32:Generated_Source\PSoC5/PWM_SERVO_PM.c **** *
  33:Generated_Source\PSoC5/PWM_SERVO_PM.c **** * Return:
  34:Generated_Source\PSoC5/PWM_SERVO_PM.c **** *  None
  35:Generated_Source\PSoC5/PWM_SERVO_PM.c **** *
  36:Generated_Source\PSoC5/PWM_SERVO_PM.c **** * Global variables:
  37:Generated_Source\PSoC5/PWM_SERVO_PM.c **** *  PWM_SERVO_backup:  Variables of this global structure are modified to
  38:Generated_Source\PSoC5/PWM_SERVO_PM.c **** *  store the values of non retention configuration registers when Sleep() API is
  39:Generated_Source\PSoC5/PWM_SERVO_PM.c **** *  called.
  40:Generated_Source\PSoC5/PWM_SERVO_PM.c **** *
  41:Generated_Source\PSoC5/PWM_SERVO_PM.c **** *******************************************************************************/
  42:Generated_Source\PSoC5/PWM_SERVO_PM.c **** void PWM_SERVO_SaveConfig(void) 
  43:Generated_Source\PSoC5/PWM_SERVO_PM.c **** {
  44:Generated_Source\PSoC5/PWM_SERVO_PM.c **** 
  45:Generated_Source\PSoC5/PWM_SERVO_PM.c ****     #if(!PWM_SERVO_UsingFixedFunction)
  46:Generated_Source\PSoC5/PWM_SERVO_PM.c ****         #if(!PWM_SERVO_PWMModeIsCenterAligned)
  47:Generated_Source\PSoC5/PWM_SERVO_PM.c ****             PWM_SERVO_backup.PWMPeriod = PWM_SERVO_ReadPeriod();
  48:Generated_Source\PSoC5/PWM_SERVO_PM.c ****         #endif /* (!PWM_SERVO_PWMModeIsCenterAligned) */
  49:Generated_Source\PSoC5/PWM_SERVO_PM.c ****         PWM_SERVO_backup.PWMUdb = PWM_SERVO_ReadCounter();
  50:Generated_Source\PSoC5/PWM_SERVO_PM.c ****         #if (PWM_SERVO_UseStatus)
  51:Generated_Source\PSoC5/PWM_SERVO_PM.c ****             PWM_SERVO_backup.InterruptMaskValue = PWM_SERVO_STATUS_MASK;
  52:Generated_Source\PSoC5/PWM_SERVO_PM.c ****         #endif /* (PWM_SERVO_UseStatus) */
  53:Generated_Source\PSoC5/PWM_SERVO_PM.c **** 
  54:Generated_Source\PSoC5/PWM_SERVO_PM.c ****         #if(PWM_SERVO_DeadBandMode == PWM_SERVO__B_PWM__DBM_256_CLOCKS || \
  55:Generated_Source\PSoC5/PWM_SERVO_PM.c ****             PWM_SERVO_DeadBandMode == PWM_SERVO__B_PWM__DBM_2_4_CLOCKS)
  56:Generated_Source\PSoC5/PWM_SERVO_PM.c ****             PWM_SERVO_backup.PWMdeadBandValue = PWM_SERVO_ReadDeadTime();
  57:Generated_Source\PSoC5/PWM_SERVO_PM.c ****         #endif /*  deadband count is either 2-4 clocks or 256 clocks */
  58:Generated_Source\PSoC5/PWM_SERVO_PM.c **** 
  59:Generated_Source\PSoC5/PWM_SERVO_PM.c ****         #if(PWM_SERVO_KillModeMinTime)
  60:Generated_Source\PSoC5/PWM_SERVO_PM.c ****              PWM_SERVO_backup.PWMKillCounterPeriod = PWM_SERVO_ReadKillTime();
  61:Generated_Source\PSoC5/PWM_SERVO_PM.c ****         #endif /* (PWM_SERVO_KillModeMinTime) */
  62:Generated_Source\PSoC5/PWM_SERVO_PM.c **** 
  63:Generated_Source\PSoC5/PWM_SERVO_PM.c ****         #if(PWM_SERVO_UseControl)
  64:Generated_Source\PSoC5/PWM_SERVO_PM.c ****             PWM_SERVO_backup.PWMControlRegister = PWM_SERVO_ReadControlRegister();
  65:Generated_Source\PSoC5/PWM_SERVO_PM.c ****         #endif /* (PWM_SERVO_UseControl) */
  66:Generated_Source\PSoC5/PWM_SERVO_PM.c ****     #endif  /* (!PWM_SERVO_UsingFixedFunction) */
  67:Generated_Source\PSoC5/PWM_SERVO_PM.c **** }
  68:Generated_Source\PSoC5/PWM_SERVO_PM.c **** 
  69:Generated_Source\PSoC5/PWM_SERVO_PM.c **** 
  70:Generated_Source\PSoC5/PWM_SERVO_PM.c **** /*******************************************************************************
  71:Generated_Source\PSoC5/PWM_SERVO_PM.c **** * Function Name: PWM_SERVO_RestoreConfig
ARM GAS  C:\Users\rens_\AppData\Local\Temp\ccYtZJYB.s 			page 3


  72:Generated_Source\PSoC5/PWM_SERVO_PM.c **** ********************************************************************************
  73:Generated_Source\PSoC5/PWM_SERVO_PM.c **** *
  74:Generated_Source\PSoC5/PWM_SERVO_PM.c **** * Summary:
  75:Generated_Source\PSoC5/PWM_SERVO_PM.c **** *  Restores the current user configuration of the component.
  76:Generated_Source\PSoC5/PWM_SERVO_PM.c **** *
  77:Generated_Source\PSoC5/PWM_SERVO_PM.c **** * Parameters:
  78:Generated_Source\PSoC5/PWM_SERVO_PM.c **** *  None
  79:Generated_Source\PSoC5/PWM_SERVO_PM.c **** *
  80:Generated_Source\PSoC5/PWM_SERVO_PM.c **** * Return:
  81:Generated_Source\PSoC5/PWM_SERVO_PM.c **** *  None
  82:Generated_Source\PSoC5/PWM_SERVO_PM.c **** *
  83:Generated_Source\PSoC5/PWM_SERVO_PM.c **** * Global variables:
  84:Generated_Source\PSoC5/PWM_SERVO_PM.c **** *  PWM_SERVO_backup:  Variables of this global structure are used to
  85:Generated_Source\PSoC5/PWM_SERVO_PM.c **** *  restore the values of non retention registers on wakeup from sleep mode.
  86:Generated_Source\PSoC5/PWM_SERVO_PM.c **** *
  87:Generated_Source\PSoC5/PWM_SERVO_PM.c **** *******************************************************************************/
  88:Generated_Source\PSoC5/PWM_SERVO_PM.c **** void PWM_SERVO_RestoreConfig(void) 
  89:Generated_Source\PSoC5/PWM_SERVO_PM.c **** {
  44              		.loc 1 89 0
  45              		.cfi_startproc
  46              		@ args = 0, pretend = 0, frame = 0
  47              		@ frame_needed = 0, uses_anonymous_args = 0
  48              		@ link register save eliminated.
  49 0000 7047     		bx	lr
  50              		.cfi_endproc
  51              	.LFE1:
  52              		.size	PWM_SERVO_RestoreConfig, .-PWM_SERVO_RestoreConfig
  53              		.section	.text.PWM_SERVO_Sleep,"ax",%progbits
  54              		.align	1
  55              		.global	PWM_SERVO_Sleep
  56              		.thumb
  57              		.thumb_func
  58              		.type	PWM_SERVO_Sleep, %function
  59              	PWM_SERVO_Sleep:
  60              	.LFB2:
  90:Generated_Source\PSoC5/PWM_SERVO_PM.c ****         #if(!PWM_SERVO_UsingFixedFunction)
  91:Generated_Source\PSoC5/PWM_SERVO_PM.c ****             #if(!PWM_SERVO_PWMModeIsCenterAligned)
  92:Generated_Source\PSoC5/PWM_SERVO_PM.c ****                 PWM_SERVO_WritePeriod(PWM_SERVO_backup.PWMPeriod);
  93:Generated_Source\PSoC5/PWM_SERVO_PM.c ****             #endif /* (!PWM_SERVO_PWMModeIsCenterAligned) */
  94:Generated_Source\PSoC5/PWM_SERVO_PM.c **** 
  95:Generated_Source\PSoC5/PWM_SERVO_PM.c ****             PWM_SERVO_WriteCounter(PWM_SERVO_backup.PWMUdb);
  96:Generated_Source\PSoC5/PWM_SERVO_PM.c **** 
  97:Generated_Source\PSoC5/PWM_SERVO_PM.c ****             #if (PWM_SERVO_UseStatus)
  98:Generated_Source\PSoC5/PWM_SERVO_PM.c ****                 PWM_SERVO_STATUS_MASK = PWM_SERVO_backup.InterruptMaskValue;
  99:Generated_Source\PSoC5/PWM_SERVO_PM.c ****             #endif /* (PWM_SERVO_UseStatus) */
 100:Generated_Source\PSoC5/PWM_SERVO_PM.c **** 
 101:Generated_Source\PSoC5/PWM_SERVO_PM.c ****             #if(PWM_SERVO_DeadBandMode == PWM_SERVO__B_PWM__DBM_256_CLOCKS || \
 102:Generated_Source\PSoC5/PWM_SERVO_PM.c ****                 PWM_SERVO_DeadBandMode == PWM_SERVO__B_PWM__DBM_2_4_CLOCKS)
 103:Generated_Source\PSoC5/PWM_SERVO_PM.c ****                 PWM_SERVO_WriteDeadTime(PWM_SERVO_backup.PWMdeadBandValue);
 104:Generated_Source\PSoC5/PWM_SERVO_PM.c ****             #endif /* deadband count is either 2-4 clocks or 256 clocks */
 105:Generated_Source\PSoC5/PWM_SERVO_PM.c **** 
 106:Generated_Source\PSoC5/PWM_SERVO_PM.c ****             #if(PWM_SERVO_KillModeMinTime)
 107:Generated_Source\PSoC5/PWM_SERVO_PM.c ****                 PWM_SERVO_WriteKillTime(PWM_SERVO_backup.PWMKillCounterPeriod);
 108:Generated_Source\PSoC5/PWM_SERVO_PM.c ****             #endif /* (PWM_SERVO_KillModeMinTime) */
 109:Generated_Source\PSoC5/PWM_SERVO_PM.c **** 
 110:Generated_Source\PSoC5/PWM_SERVO_PM.c ****             #if(PWM_SERVO_UseControl)
 111:Generated_Source\PSoC5/PWM_SERVO_PM.c ****                 PWM_SERVO_WriteControlRegister(PWM_SERVO_backup.PWMControlRegister);
ARM GAS  C:\Users\rens_\AppData\Local\Temp\ccYtZJYB.s 			page 4


 112:Generated_Source\PSoC5/PWM_SERVO_PM.c ****             #endif /* (PWM_SERVO_UseControl) */
 113:Generated_Source\PSoC5/PWM_SERVO_PM.c ****         #endif  /* (!PWM_SERVO_UsingFixedFunction) */
 114:Generated_Source\PSoC5/PWM_SERVO_PM.c ****     }
 115:Generated_Source\PSoC5/PWM_SERVO_PM.c **** 
 116:Generated_Source\PSoC5/PWM_SERVO_PM.c **** 
 117:Generated_Source\PSoC5/PWM_SERVO_PM.c **** /*******************************************************************************
 118:Generated_Source\PSoC5/PWM_SERVO_PM.c **** * Function Name: PWM_SERVO_Sleep
 119:Generated_Source\PSoC5/PWM_SERVO_PM.c **** ********************************************************************************
 120:Generated_Source\PSoC5/PWM_SERVO_PM.c **** *
 121:Generated_Source\PSoC5/PWM_SERVO_PM.c **** * Summary:
 122:Generated_Source\PSoC5/PWM_SERVO_PM.c **** *  Disables block's operation and saves the user configuration. Should be called
 123:Generated_Source\PSoC5/PWM_SERVO_PM.c **** *  just prior to entering sleep.
 124:Generated_Source\PSoC5/PWM_SERVO_PM.c **** *
 125:Generated_Source\PSoC5/PWM_SERVO_PM.c **** * Parameters:
 126:Generated_Source\PSoC5/PWM_SERVO_PM.c **** *  None
 127:Generated_Source\PSoC5/PWM_SERVO_PM.c **** *
 128:Generated_Source\PSoC5/PWM_SERVO_PM.c **** * Return:
 129:Generated_Source\PSoC5/PWM_SERVO_PM.c **** *  None
 130:Generated_Source\PSoC5/PWM_SERVO_PM.c **** *
 131:Generated_Source\PSoC5/PWM_SERVO_PM.c **** * Global variables:
 132:Generated_Source\PSoC5/PWM_SERVO_PM.c **** *  PWM_SERVO_backup.PWMEnableState:  Is modified depending on the enable
 133:Generated_Source\PSoC5/PWM_SERVO_PM.c **** *  state of the block before entering sleep mode.
 134:Generated_Source\PSoC5/PWM_SERVO_PM.c **** *
 135:Generated_Source\PSoC5/PWM_SERVO_PM.c **** *******************************************************************************/
 136:Generated_Source\PSoC5/PWM_SERVO_PM.c **** void PWM_SERVO_Sleep(void) 
 137:Generated_Source\PSoC5/PWM_SERVO_PM.c **** {
  61              		.loc 1 137 0
  62              		.cfi_startproc
  63              		@ args = 0, pretend = 0, frame = 0
  64              		@ frame_needed = 0, uses_anonymous_args = 0
  65              		@ link register save eliminated.
 138:Generated_Source\PSoC5/PWM_SERVO_PM.c ****     #if(PWM_SERVO_UseControl)
 139:Generated_Source\PSoC5/PWM_SERVO_PM.c ****         if(PWM_SERVO_CTRL_ENABLE == (PWM_SERVO_CONTROL & PWM_SERVO_CTRL_ENABLE))
  66              		.loc 1 139 0
  67 0000 044B     		ldr	r3, .L6
  68 0002 054A     		ldr	r2, .L6+4
  69 0004 1B78     		ldrb	r3, [r3]	@ zero_extendqisi2
  70 0006 13F00103 		ands	r3, r3, #1
 140:Generated_Source\PSoC5/PWM_SERVO_PM.c ****         {
 141:Generated_Source\PSoC5/PWM_SERVO_PM.c ****             /*Component is enabled */
 142:Generated_Source\PSoC5/PWM_SERVO_PM.c ****             PWM_SERVO_backup.PWMEnableState = 1u;
  71              		.loc 1 142 0
  72 000a 18BF     		it	ne
  73 000c 0123     		movne	r3, #1
 143:Generated_Source\PSoC5/PWM_SERVO_PM.c ****         }
 144:Generated_Source\PSoC5/PWM_SERVO_PM.c ****         else
 145:Generated_Source\PSoC5/PWM_SERVO_PM.c ****         {
 146:Generated_Source\PSoC5/PWM_SERVO_PM.c ****             /* Component is disabled */
 147:Generated_Source\PSoC5/PWM_SERVO_PM.c ****             PWM_SERVO_backup.PWMEnableState = 0u;
  74              		.loc 1 147 0
  75 000e 1370     		strb	r3, [r2]
 148:Generated_Source\PSoC5/PWM_SERVO_PM.c ****         }
 149:Generated_Source\PSoC5/PWM_SERVO_PM.c ****     #endif /* (PWM_SERVO_UseControl) */
 150:Generated_Source\PSoC5/PWM_SERVO_PM.c **** 
 151:Generated_Source\PSoC5/PWM_SERVO_PM.c ****     /* Stop component */
 152:Generated_Source\PSoC5/PWM_SERVO_PM.c ****     PWM_SERVO_Stop();
  76              		.loc 1 152 0
ARM GAS  C:\Users\rens_\AppData\Local\Temp\ccYtZJYB.s 			page 5


  77 0010 FFF7FEBF 		b	PWM_SERVO_Stop
  78              	.LVL0:
  79              	.L7:
  80              		.align	2
  81              	.L6:
  82 0014 004F0040 		.word	1073762048
  83 0018 00000000 		.word	.LANCHOR0
  84              		.cfi_endproc
  85              	.LFE2:
  86              		.size	PWM_SERVO_Sleep, .-PWM_SERVO_Sleep
  87              		.section	.text.PWM_SERVO_Wakeup,"ax",%progbits
  88              		.align	1
  89              		.global	PWM_SERVO_Wakeup
  90              		.thumb
  91              		.thumb_func
  92              		.type	PWM_SERVO_Wakeup, %function
  93              	PWM_SERVO_Wakeup:
  94              	.LFB3:
 153:Generated_Source\PSoC5/PWM_SERVO_PM.c **** 
 154:Generated_Source\PSoC5/PWM_SERVO_PM.c ****     /* Save registers configuration */
 155:Generated_Source\PSoC5/PWM_SERVO_PM.c ****     PWM_SERVO_SaveConfig();
 156:Generated_Source\PSoC5/PWM_SERVO_PM.c **** }
 157:Generated_Source\PSoC5/PWM_SERVO_PM.c **** 
 158:Generated_Source\PSoC5/PWM_SERVO_PM.c **** 
 159:Generated_Source\PSoC5/PWM_SERVO_PM.c **** /*******************************************************************************
 160:Generated_Source\PSoC5/PWM_SERVO_PM.c **** * Function Name: PWM_SERVO_Wakeup
 161:Generated_Source\PSoC5/PWM_SERVO_PM.c **** ********************************************************************************
 162:Generated_Source\PSoC5/PWM_SERVO_PM.c **** *
 163:Generated_Source\PSoC5/PWM_SERVO_PM.c **** * Summary:
 164:Generated_Source\PSoC5/PWM_SERVO_PM.c **** *  Restores and enables the user configuration. Should be called just after
 165:Generated_Source\PSoC5/PWM_SERVO_PM.c **** *  awaking from sleep.
 166:Generated_Source\PSoC5/PWM_SERVO_PM.c **** *
 167:Generated_Source\PSoC5/PWM_SERVO_PM.c **** * Parameters:
 168:Generated_Source\PSoC5/PWM_SERVO_PM.c **** *  None
 169:Generated_Source\PSoC5/PWM_SERVO_PM.c **** *
 170:Generated_Source\PSoC5/PWM_SERVO_PM.c **** * Return:
 171:Generated_Source\PSoC5/PWM_SERVO_PM.c **** *  None
 172:Generated_Source\PSoC5/PWM_SERVO_PM.c **** *
 173:Generated_Source\PSoC5/PWM_SERVO_PM.c **** * Global variables:
 174:Generated_Source\PSoC5/PWM_SERVO_PM.c **** *  PWM_SERVO_backup.pwmEnable:  Is used to restore the enable state of
 175:Generated_Source\PSoC5/PWM_SERVO_PM.c **** *  block on wakeup from sleep mode.
 176:Generated_Source\PSoC5/PWM_SERVO_PM.c **** *
 177:Generated_Source\PSoC5/PWM_SERVO_PM.c **** *******************************************************************************/
 178:Generated_Source\PSoC5/PWM_SERVO_PM.c **** void PWM_SERVO_Wakeup(void) 
 179:Generated_Source\PSoC5/PWM_SERVO_PM.c **** {
  95              		.loc 1 179 0
  96              		.cfi_startproc
  97              		@ args = 0, pretend = 0, frame = 0
  98              		@ frame_needed = 0, uses_anonymous_args = 0
  99              		@ link register save eliminated.
 180:Generated_Source\PSoC5/PWM_SERVO_PM.c ****      /* Restore registers values */
 181:Generated_Source\PSoC5/PWM_SERVO_PM.c ****     PWM_SERVO_RestoreConfig();
 182:Generated_Source\PSoC5/PWM_SERVO_PM.c **** 
 183:Generated_Source\PSoC5/PWM_SERVO_PM.c ****     if(PWM_SERVO_backup.PWMEnableState != 0u)
 100              		.loc 1 183 0
 101 0000 024B     		ldr	r3, .L11
 102 0002 1B78     		ldrb	r3, [r3]	@ zero_extendqisi2
ARM GAS  C:\Users\rens_\AppData\Local\Temp\ccYtZJYB.s 			page 6


 103 0004 0BB1     		cbz	r3, .L8
 184:Generated_Source\PSoC5/PWM_SERVO_PM.c ****     {
 185:Generated_Source\PSoC5/PWM_SERVO_PM.c ****         /* Enable component's operation */
 186:Generated_Source\PSoC5/PWM_SERVO_PM.c ****         PWM_SERVO_Enable();
 104              		.loc 1 186 0
 105 0006 FFF7FEBF 		b	PWM_SERVO_Enable
 106              	.LVL1:
 107              	.L8:
 108 000a 7047     		bx	lr
 109              	.L12:
 110              		.align	2
 111              	.L11:
 112 000c 00000000 		.word	.LANCHOR0
 113              		.cfi_endproc
 114              	.LFE3:
 115              		.size	PWM_SERVO_Wakeup, .-PWM_SERVO_Wakeup
 116              		.bss
 117              		.set	.LANCHOR0,. + 0
 118              		.type	PWM_SERVO_backup, %object
 119              		.size	PWM_SERVO_backup, 1
 120              	PWM_SERVO_backup:
 121 0000 00       		.space	1
 122              		.text
 123              	.Letext0:
 124              		.file 2 "Generated_Source\\PSoC5\\cytypes.h"
 125              		.file 3 "Generated_Source\\PSoC5\\PWM_SERVO.h"