ARM GAS  C:\Users\ALEXAN~1\AppData\Local\Temp\ccADJWFR.s 			page 1


   1              		.syntax unified
   2              		.cpu cortex-m3
   3              		.fpu softvfp
   4              		.eabi_attribute 20, 1
   5              		.eabi_attribute 21, 1
   6              		.eabi_attribute 23, 3
   7              		.eabi_attribute 24, 1
   8              		.eabi_attribute 25, 1
   9              		.eabi_attribute 26, 1
  10              		.eabi_attribute 30, 4
  11              		.eabi_attribute 34, 1
  12              		.eabi_attribute 18, 4
  13              		.thumb
  14              		.syntax unified
  15              		.file	"PWM_H_BRIDGE.c"
  16              		.text
  17              	.Ltext0:
  18              		.cfi_sections	.debug_frame
  19              		.section	.text.PWM_H_BRIDGE_Enable,"ax",%progbits
  20              		.align	1
  21              		.global	PWM_H_BRIDGE_Enable
  22              		.thumb
  23              		.thumb_func
  24              		.type	PWM_H_BRIDGE_Enable, %function
  25              	PWM_H_BRIDGE_Enable:
  26              	.LFB2:
  27              		.file 1 "Generated_Source\\PSoC5\\PWM_H_BRIDGE.c"
   1:Generated_Source\PSoC5/PWM_H_BRIDGE.c **** /*******************************************************************************
   2:Generated_Source\PSoC5/PWM_H_BRIDGE.c **** * File Name: PWM_H_BRIDGE.c
   3:Generated_Source\PSoC5/PWM_H_BRIDGE.c **** * Version 3.30
   4:Generated_Source\PSoC5/PWM_H_BRIDGE.c **** *
   5:Generated_Source\PSoC5/PWM_H_BRIDGE.c **** * Description:
   6:Generated_Source\PSoC5/PWM_H_BRIDGE.c **** *  The PWM User Module consist of an 8 or 16-bit counter with two 8 or 16-bit
   7:Generated_Source\PSoC5/PWM_H_BRIDGE.c **** *  comparitors. Each instance of this user module is capable of generating
   8:Generated_Source\PSoC5/PWM_H_BRIDGE.c **** *  two PWM outputs with the same period. The pulse width is selectable between
   9:Generated_Source\PSoC5/PWM_H_BRIDGE.c **** *  1 and 255/65535. The period is selectable between 2 and 255/65536 clocks.
  10:Generated_Source\PSoC5/PWM_H_BRIDGE.c **** *  The compare value output may be configured to be active when the present
  11:Generated_Source\PSoC5/PWM_H_BRIDGE.c **** *  counter is less than or less than/equal to the compare value.
  12:Generated_Source\PSoC5/PWM_H_BRIDGE.c **** *  A terminal count output is also provided. It generates a pulse one clock
  13:Generated_Source\PSoC5/PWM_H_BRIDGE.c **** *  width wide when the counter is equal to zero.
  14:Generated_Source\PSoC5/PWM_H_BRIDGE.c **** *
  15:Generated_Source\PSoC5/PWM_H_BRIDGE.c **** * Note:
  16:Generated_Source\PSoC5/PWM_H_BRIDGE.c **** *
  17:Generated_Source\PSoC5/PWM_H_BRIDGE.c **** *******************************************************************************
  18:Generated_Source\PSoC5/PWM_H_BRIDGE.c **** * Copyright 2008-2014, Cypress Semiconductor Corporation.  All rights reserved.
  19:Generated_Source\PSoC5/PWM_H_BRIDGE.c **** * You may use this file only in accordance with the license, terms, conditions,
  20:Generated_Source\PSoC5/PWM_H_BRIDGE.c **** * disclaimers, and limitations in the end user license agreement accompanying
  21:Generated_Source\PSoC5/PWM_H_BRIDGE.c **** * the software package with which this file was provided.
  22:Generated_Source\PSoC5/PWM_H_BRIDGE.c **** ********************************************************************************/
  23:Generated_Source\PSoC5/PWM_H_BRIDGE.c **** 
  24:Generated_Source\PSoC5/PWM_H_BRIDGE.c **** #include "PWM_H_BRIDGE.h"
  25:Generated_Source\PSoC5/PWM_H_BRIDGE.c **** 
  26:Generated_Source\PSoC5/PWM_H_BRIDGE.c **** /* Error message for removed <resource> through optimization */
  27:Generated_Source\PSoC5/PWM_H_BRIDGE.c **** #ifdef PWM_H_BRIDGE_PWMUDB_genblk1_ctrlreg__REMOVED
  28:Generated_Source\PSoC5/PWM_H_BRIDGE.c ****     #error PWM_v3_30 detected with a constant 0 for the enable or \
  29:Generated_Source\PSoC5/PWM_H_BRIDGE.c ****          constant 1 for reset. This will prevent the component from operating.
  30:Generated_Source\PSoC5/PWM_H_BRIDGE.c **** #endif /* PWM_H_BRIDGE_PWMUDB_genblk1_ctrlreg__REMOVED */
ARM GAS  C:\Users\ALEXAN~1\AppData\Local\Temp\ccADJWFR.s 			page 2


  31:Generated_Source\PSoC5/PWM_H_BRIDGE.c **** 
  32:Generated_Source\PSoC5/PWM_H_BRIDGE.c **** uint8 PWM_H_BRIDGE_initVar = 0u;
  33:Generated_Source\PSoC5/PWM_H_BRIDGE.c **** 
  34:Generated_Source\PSoC5/PWM_H_BRIDGE.c **** 
  35:Generated_Source\PSoC5/PWM_H_BRIDGE.c **** /*******************************************************************************
  36:Generated_Source\PSoC5/PWM_H_BRIDGE.c **** * Function Name: PWM_H_BRIDGE_Start
  37:Generated_Source\PSoC5/PWM_H_BRIDGE.c **** ********************************************************************************
  38:Generated_Source\PSoC5/PWM_H_BRIDGE.c **** *
  39:Generated_Source\PSoC5/PWM_H_BRIDGE.c **** * Summary:
  40:Generated_Source\PSoC5/PWM_H_BRIDGE.c **** *  The start function initializes the pwm with the default values, the
  41:Generated_Source\PSoC5/PWM_H_BRIDGE.c **** *  enables the counter to begin counting.  It does not enable interrupts,
  42:Generated_Source\PSoC5/PWM_H_BRIDGE.c **** *  the EnableInt command should be called if interrupt generation is required.
  43:Generated_Source\PSoC5/PWM_H_BRIDGE.c **** *
  44:Generated_Source\PSoC5/PWM_H_BRIDGE.c **** * Parameters:
  45:Generated_Source\PSoC5/PWM_H_BRIDGE.c **** *  None
  46:Generated_Source\PSoC5/PWM_H_BRIDGE.c **** *
  47:Generated_Source\PSoC5/PWM_H_BRIDGE.c **** * Return:
  48:Generated_Source\PSoC5/PWM_H_BRIDGE.c **** *  None
  49:Generated_Source\PSoC5/PWM_H_BRIDGE.c **** *
  50:Generated_Source\PSoC5/PWM_H_BRIDGE.c **** * Global variables:
  51:Generated_Source\PSoC5/PWM_H_BRIDGE.c **** *  PWM_H_BRIDGE_initVar: Is modified when this function is called for the
  52:Generated_Source\PSoC5/PWM_H_BRIDGE.c **** *   first time. Is used to ensure that initialization happens only once.
  53:Generated_Source\PSoC5/PWM_H_BRIDGE.c **** *
  54:Generated_Source\PSoC5/PWM_H_BRIDGE.c **** *******************************************************************************/
  55:Generated_Source\PSoC5/PWM_H_BRIDGE.c **** void PWM_H_BRIDGE_Start(void) 
  56:Generated_Source\PSoC5/PWM_H_BRIDGE.c **** {
  57:Generated_Source\PSoC5/PWM_H_BRIDGE.c ****     /* If not Initialized then initialize all required hardware and software */
  58:Generated_Source\PSoC5/PWM_H_BRIDGE.c ****     if(PWM_H_BRIDGE_initVar == 0u)
  59:Generated_Source\PSoC5/PWM_H_BRIDGE.c ****     {
  60:Generated_Source\PSoC5/PWM_H_BRIDGE.c ****         PWM_H_BRIDGE_Init();
  61:Generated_Source\PSoC5/PWM_H_BRIDGE.c ****         PWM_H_BRIDGE_initVar = 1u;
  62:Generated_Source\PSoC5/PWM_H_BRIDGE.c ****     }
  63:Generated_Source\PSoC5/PWM_H_BRIDGE.c ****     PWM_H_BRIDGE_Enable();
  64:Generated_Source\PSoC5/PWM_H_BRIDGE.c **** 
  65:Generated_Source\PSoC5/PWM_H_BRIDGE.c **** }
  66:Generated_Source\PSoC5/PWM_H_BRIDGE.c **** 
  67:Generated_Source\PSoC5/PWM_H_BRIDGE.c **** 
  68:Generated_Source\PSoC5/PWM_H_BRIDGE.c **** /*******************************************************************************
  69:Generated_Source\PSoC5/PWM_H_BRIDGE.c **** * Function Name: PWM_H_BRIDGE_Init
  70:Generated_Source\PSoC5/PWM_H_BRIDGE.c **** ********************************************************************************
  71:Generated_Source\PSoC5/PWM_H_BRIDGE.c **** *
  72:Generated_Source\PSoC5/PWM_H_BRIDGE.c **** * Summary:
  73:Generated_Source\PSoC5/PWM_H_BRIDGE.c **** *  Initialize component's parameters to the parameters set by user in the
  74:Generated_Source\PSoC5/PWM_H_BRIDGE.c **** *  customizer of the component placed onto schematic. Usually called in
  75:Generated_Source\PSoC5/PWM_H_BRIDGE.c **** *  PWM_H_BRIDGE_Start().
  76:Generated_Source\PSoC5/PWM_H_BRIDGE.c **** *
  77:Generated_Source\PSoC5/PWM_H_BRIDGE.c **** * Parameters:
  78:Generated_Source\PSoC5/PWM_H_BRIDGE.c **** *  None
  79:Generated_Source\PSoC5/PWM_H_BRIDGE.c **** *
  80:Generated_Source\PSoC5/PWM_H_BRIDGE.c **** * Return:
  81:Generated_Source\PSoC5/PWM_H_BRIDGE.c **** *  None
  82:Generated_Source\PSoC5/PWM_H_BRIDGE.c **** *
  83:Generated_Source\PSoC5/PWM_H_BRIDGE.c **** *******************************************************************************/
  84:Generated_Source\PSoC5/PWM_H_BRIDGE.c **** void PWM_H_BRIDGE_Init(void) 
  85:Generated_Source\PSoC5/PWM_H_BRIDGE.c **** {
  86:Generated_Source\PSoC5/PWM_H_BRIDGE.c ****     #if (PWM_H_BRIDGE_UsingFixedFunction || PWM_H_BRIDGE_UseControl)
  87:Generated_Source\PSoC5/PWM_H_BRIDGE.c ****         uint8 ctrl;
ARM GAS  C:\Users\ALEXAN~1\AppData\Local\Temp\ccADJWFR.s 			page 3


  88:Generated_Source\PSoC5/PWM_H_BRIDGE.c ****     #endif /* (PWM_H_BRIDGE_UsingFixedFunction || PWM_H_BRIDGE_UseControl) */
  89:Generated_Source\PSoC5/PWM_H_BRIDGE.c **** 
  90:Generated_Source\PSoC5/PWM_H_BRIDGE.c ****     #if(!PWM_H_BRIDGE_UsingFixedFunction)
  91:Generated_Source\PSoC5/PWM_H_BRIDGE.c ****         #if(PWM_H_BRIDGE_UseStatus)
  92:Generated_Source\PSoC5/PWM_H_BRIDGE.c ****             /* Interrupt State Backup for Critical Region*/
  93:Generated_Source\PSoC5/PWM_H_BRIDGE.c ****             uint8 PWM_H_BRIDGE_interruptState;
  94:Generated_Source\PSoC5/PWM_H_BRIDGE.c ****         #endif /* (PWM_H_BRIDGE_UseStatus) */
  95:Generated_Source\PSoC5/PWM_H_BRIDGE.c ****     #endif /* (!PWM_H_BRIDGE_UsingFixedFunction) */
  96:Generated_Source\PSoC5/PWM_H_BRIDGE.c **** 
  97:Generated_Source\PSoC5/PWM_H_BRIDGE.c ****     #if (PWM_H_BRIDGE_UsingFixedFunction)
  98:Generated_Source\PSoC5/PWM_H_BRIDGE.c ****         /* You are allowed to write the compare value (FF only) */
  99:Generated_Source\PSoC5/PWM_H_BRIDGE.c ****         PWM_H_BRIDGE_CONTROL |= PWM_H_BRIDGE_CFG0_MODE;
 100:Generated_Source\PSoC5/PWM_H_BRIDGE.c ****         #if (PWM_H_BRIDGE_DeadBand2_4)
 101:Generated_Source\PSoC5/PWM_H_BRIDGE.c ****             PWM_H_BRIDGE_CONTROL |= PWM_H_BRIDGE_CFG0_DB;
 102:Generated_Source\PSoC5/PWM_H_BRIDGE.c ****         #endif /* (PWM_H_BRIDGE_DeadBand2_4) */
 103:Generated_Source\PSoC5/PWM_H_BRIDGE.c **** 
 104:Generated_Source\PSoC5/PWM_H_BRIDGE.c ****         ctrl = PWM_H_BRIDGE_CONTROL3 & ((uint8 )(~PWM_H_BRIDGE_CTRL_CMPMODE1_MASK));
 105:Generated_Source\PSoC5/PWM_H_BRIDGE.c ****         PWM_H_BRIDGE_CONTROL3 = ctrl | PWM_H_BRIDGE_DEFAULT_COMPARE1_MODE;
 106:Generated_Source\PSoC5/PWM_H_BRIDGE.c **** 
 107:Generated_Source\PSoC5/PWM_H_BRIDGE.c ****          /* Clear and Set SYNCTC and SYNCCMP bits of RT1 register */
 108:Generated_Source\PSoC5/PWM_H_BRIDGE.c ****         PWM_H_BRIDGE_RT1 &= ((uint8)(~PWM_H_BRIDGE_RT1_MASK));
 109:Generated_Source\PSoC5/PWM_H_BRIDGE.c ****         PWM_H_BRIDGE_RT1 |= PWM_H_BRIDGE_SYNC;
 110:Generated_Source\PSoC5/PWM_H_BRIDGE.c **** 
 111:Generated_Source\PSoC5/PWM_H_BRIDGE.c ****         /*Enable DSI Sync all all inputs of the PWM*/
 112:Generated_Source\PSoC5/PWM_H_BRIDGE.c ****         PWM_H_BRIDGE_RT1 &= ((uint8)(~PWM_H_BRIDGE_SYNCDSI_MASK));
 113:Generated_Source\PSoC5/PWM_H_BRIDGE.c ****         PWM_H_BRIDGE_RT1 |= PWM_H_BRIDGE_SYNCDSI_EN;
 114:Generated_Source\PSoC5/PWM_H_BRIDGE.c **** 
 115:Generated_Source\PSoC5/PWM_H_BRIDGE.c ****     #elif (PWM_H_BRIDGE_UseControl)
 116:Generated_Source\PSoC5/PWM_H_BRIDGE.c ****         /* Set the default compare mode defined in the parameter */
 117:Generated_Source\PSoC5/PWM_H_BRIDGE.c ****         ctrl = PWM_H_BRIDGE_CONTROL & ((uint8)(~PWM_H_BRIDGE_CTRL_CMPMODE2_MASK)) &
 118:Generated_Source\PSoC5/PWM_H_BRIDGE.c ****                 ((uint8)(~PWM_H_BRIDGE_CTRL_CMPMODE1_MASK));
 119:Generated_Source\PSoC5/PWM_H_BRIDGE.c ****         PWM_H_BRIDGE_CONTROL = ctrl | PWM_H_BRIDGE_DEFAULT_COMPARE2_MODE |
 120:Generated_Source\PSoC5/PWM_H_BRIDGE.c ****                                    PWM_H_BRIDGE_DEFAULT_COMPARE1_MODE;
 121:Generated_Source\PSoC5/PWM_H_BRIDGE.c ****     #endif /* (PWM_H_BRIDGE_UsingFixedFunction) */
 122:Generated_Source\PSoC5/PWM_H_BRIDGE.c **** 
 123:Generated_Source\PSoC5/PWM_H_BRIDGE.c ****     #if (!PWM_H_BRIDGE_UsingFixedFunction)
 124:Generated_Source\PSoC5/PWM_H_BRIDGE.c ****         #if (PWM_H_BRIDGE_Resolution == 8)
 125:Generated_Source\PSoC5/PWM_H_BRIDGE.c ****             /* Set FIFO 0 to 1 byte register for period*/
 126:Generated_Source\PSoC5/PWM_H_BRIDGE.c ****             PWM_H_BRIDGE_AUX_CONTROLDP0 |= (PWM_H_BRIDGE_AUX_CTRL_FIFO0_CLR);
 127:Generated_Source\PSoC5/PWM_H_BRIDGE.c ****         #else /* (PWM_H_BRIDGE_Resolution == 16)*/
 128:Generated_Source\PSoC5/PWM_H_BRIDGE.c ****             /* Set FIFO 0 to 1 byte register for period */
 129:Generated_Source\PSoC5/PWM_H_BRIDGE.c ****             PWM_H_BRIDGE_AUX_CONTROLDP0 |= (PWM_H_BRIDGE_AUX_CTRL_FIFO0_CLR);
 130:Generated_Source\PSoC5/PWM_H_BRIDGE.c ****             PWM_H_BRIDGE_AUX_CONTROLDP1 |= (PWM_H_BRIDGE_AUX_CTRL_FIFO0_CLR);
 131:Generated_Source\PSoC5/PWM_H_BRIDGE.c ****         #endif /* (PWM_H_BRIDGE_Resolution == 8) */
 132:Generated_Source\PSoC5/PWM_H_BRIDGE.c **** 
 133:Generated_Source\PSoC5/PWM_H_BRIDGE.c ****         PWM_H_BRIDGE_WriteCounter(PWM_H_BRIDGE_INIT_PERIOD_VALUE);
 134:Generated_Source\PSoC5/PWM_H_BRIDGE.c ****     #endif /* (!PWM_H_BRIDGE_UsingFixedFunction) */
 135:Generated_Source\PSoC5/PWM_H_BRIDGE.c **** 
 136:Generated_Source\PSoC5/PWM_H_BRIDGE.c ****     PWM_H_BRIDGE_WritePeriod(PWM_H_BRIDGE_INIT_PERIOD_VALUE);
 137:Generated_Source\PSoC5/PWM_H_BRIDGE.c **** 
 138:Generated_Source\PSoC5/PWM_H_BRIDGE.c ****         #if (PWM_H_BRIDGE_UseOneCompareMode)
 139:Generated_Source\PSoC5/PWM_H_BRIDGE.c ****             PWM_H_BRIDGE_WriteCompare(PWM_H_BRIDGE_INIT_COMPARE_VALUE1);
 140:Generated_Source\PSoC5/PWM_H_BRIDGE.c ****         #else
 141:Generated_Source\PSoC5/PWM_H_BRIDGE.c ****             PWM_H_BRIDGE_WriteCompare1(PWM_H_BRIDGE_INIT_COMPARE_VALUE1);
 142:Generated_Source\PSoC5/PWM_H_BRIDGE.c ****             PWM_H_BRIDGE_WriteCompare2(PWM_H_BRIDGE_INIT_COMPARE_VALUE2);
 143:Generated_Source\PSoC5/PWM_H_BRIDGE.c ****         #endif /* (PWM_H_BRIDGE_UseOneCompareMode) */
 144:Generated_Source\PSoC5/PWM_H_BRIDGE.c **** 
ARM GAS  C:\Users\ALEXAN~1\AppData\Local\Temp\ccADJWFR.s 			page 4


 145:Generated_Source\PSoC5/PWM_H_BRIDGE.c ****         #if (PWM_H_BRIDGE_KillModeMinTime)
 146:Generated_Source\PSoC5/PWM_H_BRIDGE.c ****             PWM_H_BRIDGE_WriteKillTime(PWM_H_BRIDGE_MinimumKillTime);
 147:Generated_Source\PSoC5/PWM_H_BRIDGE.c ****         #endif /* (PWM_H_BRIDGE_KillModeMinTime) */
 148:Generated_Source\PSoC5/PWM_H_BRIDGE.c **** 
 149:Generated_Source\PSoC5/PWM_H_BRIDGE.c ****         #if (PWM_H_BRIDGE_DeadBandUsed)
 150:Generated_Source\PSoC5/PWM_H_BRIDGE.c ****             PWM_H_BRIDGE_WriteDeadTime(PWM_H_BRIDGE_INIT_DEAD_TIME);
 151:Generated_Source\PSoC5/PWM_H_BRIDGE.c ****         #endif /* (PWM_H_BRIDGE_DeadBandUsed) */
 152:Generated_Source\PSoC5/PWM_H_BRIDGE.c **** 
 153:Generated_Source\PSoC5/PWM_H_BRIDGE.c ****     #if (PWM_H_BRIDGE_UseStatus || PWM_H_BRIDGE_UsingFixedFunction)
 154:Generated_Source\PSoC5/PWM_H_BRIDGE.c ****         PWM_H_BRIDGE_SetInterruptMode(PWM_H_BRIDGE_INIT_INTERRUPTS_MODE);
 155:Generated_Source\PSoC5/PWM_H_BRIDGE.c ****     #endif /* (PWM_H_BRIDGE_UseStatus || PWM_H_BRIDGE_UsingFixedFunction) */
 156:Generated_Source\PSoC5/PWM_H_BRIDGE.c **** 
 157:Generated_Source\PSoC5/PWM_H_BRIDGE.c ****     #if (PWM_H_BRIDGE_UsingFixedFunction)
 158:Generated_Source\PSoC5/PWM_H_BRIDGE.c ****         /* Globally Enable the Fixed Function Block chosen */
 159:Generated_Source\PSoC5/PWM_H_BRIDGE.c ****         PWM_H_BRIDGE_GLOBAL_ENABLE |= PWM_H_BRIDGE_BLOCK_EN_MASK;
 160:Generated_Source\PSoC5/PWM_H_BRIDGE.c ****         /* Set the Interrupt source to come from the status register */
 161:Generated_Source\PSoC5/PWM_H_BRIDGE.c ****         PWM_H_BRIDGE_CONTROL2 |= PWM_H_BRIDGE_CTRL2_IRQ_SEL;
 162:Generated_Source\PSoC5/PWM_H_BRIDGE.c ****     #else
 163:Generated_Source\PSoC5/PWM_H_BRIDGE.c ****         #if(PWM_H_BRIDGE_UseStatus)
 164:Generated_Source\PSoC5/PWM_H_BRIDGE.c **** 
 165:Generated_Source\PSoC5/PWM_H_BRIDGE.c ****             /* CyEnterCriticalRegion and CyExitCriticalRegion are used to mark following region cri
 166:Generated_Source\PSoC5/PWM_H_BRIDGE.c ****             /* Enter Critical Region*/
 167:Generated_Source\PSoC5/PWM_H_BRIDGE.c ****             PWM_H_BRIDGE_interruptState = CyEnterCriticalSection();
 168:Generated_Source\PSoC5/PWM_H_BRIDGE.c ****             /* Use the interrupt output of the status register for IRQ output */
 169:Generated_Source\PSoC5/PWM_H_BRIDGE.c ****             PWM_H_BRIDGE_STATUS_AUX_CTRL |= PWM_H_BRIDGE_STATUS_ACTL_INT_EN_MASK;
 170:Generated_Source\PSoC5/PWM_H_BRIDGE.c **** 
 171:Generated_Source\PSoC5/PWM_H_BRIDGE.c ****              /* Exit Critical Region*/
 172:Generated_Source\PSoC5/PWM_H_BRIDGE.c ****             CyExitCriticalSection(PWM_H_BRIDGE_interruptState);
 173:Generated_Source\PSoC5/PWM_H_BRIDGE.c **** 
 174:Generated_Source\PSoC5/PWM_H_BRIDGE.c ****             /* Clear the FIFO to enable the PWM_H_BRIDGE_STATUS_FIFOFULL
 175:Generated_Source\PSoC5/PWM_H_BRIDGE.c ****                    bit to be set on FIFO full. */
 176:Generated_Source\PSoC5/PWM_H_BRIDGE.c ****             PWM_H_BRIDGE_ClearFIFO();
 177:Generated_Source\PSoC5/PWM_H_BRIDGE.c ****         #endif /* (PWM_H_BRIDGE_UseStatus) */
 178:Generated_Source\PSoC5/PWM_H_BRIDGE.c ****     #endif /* (PWM_H_BRIDGE_UsingFixedFunction) */
 179:Generated_Source\PSoC5/PWM_H_BRIDGE.c **** }
 180:Generated_Source\PSoC5/PWM_H_BRIDGE.c **** 
 181:Generated_Source\PSoC5/PWM_H_BRIDGE.c **** 
 182:Generated_Source\PSoC5/PWM_H_BRIDGE.c **** /*******************************************************************************
 183:Generated_Source\PSoC5/PWM_H_BRIDGE.c **** * Function Name: PWM_H_BRIDGE_Enable
 184:Generated_Source\PSoC5/PWM_H_BRIDGE.c **** ********************************************************************************
 185:Generated_Source\PSoC5/PWM_H_BRIDGE.c **** *
 186:Generated_Source\PSoC5/PWM_H_BRIDGE.c **** * Summary:
 187:Generated_Source\PSoC5/PWM_H_BRIDGE.c **** *  Enables the PWM block operation
 188:Generated_Source\PSoC5/PWM_H_BRIDGE.c **** *
 189:Generated_Source\PSoC5/PWM_H_BRIDGE.c **** * Parameters:
 190:Generated_Source\PSoC5/PWM_H_BRIDGE.c **** *  None
 191:Generated_Source\PSoC5/PWM_H_BRIDGE.c **** *
 192:Generated_Source\PSoC5/PWM_H_BRIDGE.c **** * Return:
 193:Generated_Source\PSoC5/PWM_H_BRIDGE.c **** *  None
 194:Generated_Source\PSoC5/PWM_H_BRIDGE.c **** *
 195:Generated_Source\PSoC5/PWM_H_BRIDGE.c **** * Side Effects:
 196:Generated_Source\PSoC5/PWM_H_BRIDGE.c **** *  This works only if software enable mode is chosen
 197:Generated_Source\PSoC5/PWM_H_BRIDGE.c **** *
 198:Generated_Source\PSoC5/PWM_H_BRIDGE.c **** *******************************************************************************/
 199:Generated_Source\PSoC5/PWM_H_BRIDGE.c **** void PWM_H_BRIDGE_Enable(void) 
 200:Generated_Source\PSoC5/PWM_H_BRIDGE.c **** {
  28              		.loc 1 200 0
ARM GAS  C:\Users\ALEXAN~1\AppData\Local\Temp\ccADJWFR.s 			page 5


  29              		.cfi_startproc
  30              		@ args = 0, pretend = 0, frame = 0
  31              		@ frame_needed = 0, uses_anonymous_args = 0
  32              		@ link register save eliminated.
 201:Generated_Source\PSoC5/PWM_H_BRIDGE.c ****     /* Globally Enable the Fixed Function Block chosen */
 202:Generated_Source\PSoC5/PWM_H_BRIDGE.c ****     #if (PWM_H_BRIDGE_UsingFixedFunction)
 203:Generated_Source\PSoC5/PWM_H_BRIDGE.c ****         PWM_H_BRIDGE_GLOBAL_ENABLE |= PWM_H_BRIDGE_BLOCK_EN_MASK;
 204:Generated_Source\PSoC5/PWM_H_BRIDGE.c ****         PWM_H_BRIDGE_GLOBAL_STBY_ENABLE |= PWM_H_BRIDGE_BLOCK_STBY_EN_MASK;
 205:Generated_Source\PSoC5/PWM_H_BRIDGE.c ****     #endif /* (PWM_H_BRIDGE_UsingFixedFunction) */
 206:Generated_Source\PSoC5/PWM_H_BRIDGE.c **** 
 207:Generated_Source\PSoC5/PWM_H_BRIDGE.c ****     /* Enable the PWM from the control register  */
 208:Generated_Source\PSoC5/PWM_H_BRIDGE.c ****     #if (PWM_H_BRIDGE_UseControl || PWM_H_BRIDGE_UsingFixedFunction)
 209:Generated_Source\PSoC5/PWM_H_BRIDGE.c ****         PWM_H_BRIDGE_CONTROL |= PWM_H_BRIDGE_CTRL_ENABLE;
  33              		.loc 1 209 0
  34 0000 024A     		ldr	r2, .L2
  35 0002 1378     		ldrb	r3, [r2]	@ zero_extendqisi2
  36 0004 43F08003 		orr	r3, r3, #128
  37 0008 1370     		strb	r3, [r2]
  38 000a 7047     		bx	lr
  39              	.L3:
  40              		.align	2
  41              	.L2:
  42 000c 7A640040 		.word	1073767546
  43              		.cfi_endproc
  44              	.LFE2:
  45              		.size	PWM_H_BRIDGE_Enable, .-PWM_H_BRIDGE_Enable
  46              		.section	.text.PWM_H_BRIDGE_Stop,"ax",%progbits
  47              		.align	1
  48              		.global	PWM_H_BRIDGE_Stop
  49              		.thumb
  50              		.thumb_func
  51              		.type	PWM_H_BRIDGE_Stop, %function
  52              	PWM_H_BRIDGE_Stop:
  53              	.LFB3:
 210:Generated_Source\PSoC5/PWM_H_BRIDGE.c ****     #endif /* (PWM_H_BRIDGE_UseControl || PWM_H_BRIDGE_UsingFixedFunction) */
 211:Generated_Source\PSoC5/PWM_H_BRIDGE.c **** }
 212:Generated_Source\PSoC5/PWM_H_BRIDGE.c **** 
 213:Generated_Source\PSoC5/PWM_H_BRIDGE.c **** 
 214:Generated_Source\PSoC5/PWM_H_BRIDGE.c **** /*******************************************************************************
 215:Generated_Source\PSoC5/PWM_H_BRIDGE.c **** * Function Name: PWM_H_BRIDGE_Stop
 216:Generated_Source\PSoC5/PWM_H_BRIDGE.c **** ********************************************************************************
 217:Generated_Source\PSoC5/PWM_H_BRIDGE.c **** *
 218:Generated_Source\PSoC5/PWM_H_BRIDGE.c **** * Summary:
 219:Generated_Source\PSoC5/PWM_H_BRIDGE.c **** *  The stop function halts the PWM, but does not change any modes or disable
 220:Generated_Source\PSoC5/PWM_H_BRIDGE.c **** *  interrupts.
 221:Generated_Source\PSoC5/PWM_H_BRIDGE.c **** *
 222:Generated_Source\PSoC5/PWM_H_BRIDGE.c **** * Parameters:
 223:Generated_Source\PSoC5/PWM_H_BRIDGE.c **** *  None
 224:Generated_Source\PSoC5/PWM_H_BRIDGE.c **** *
 225:Generated_Source\PSoC5/PWM_H_BRIDGE.c **** * Return:
 226:Generated_Source\PSoC5/PWM_H_BRIDGE.c **** *  None
 227:Generated_Source\PSoC5/PWM_H_BRIDGE.c **** *
 228:Generated_Source\PSoC5/PWM_H_BRIDGE.c **** * Side Effects:
 229:Generated_Source\PSoC5/PWM_H_BRIDGE.c **** *  If the Enable mode is set to Hardware only then this function
 230:Generated_Source\PSoC5/PWM_H_BRIDGE.c **** *  has no effect on the operation of the PWM
 231:Generated_Source\PSoC5/PWM_H_BRIDGE.c **** *
 232:Generated_Source\PSoC5/PWM_H_BRIDGE.c **** *******************************************************************************/
ARM GAS  C:\Users\ALEXAN~1\AppData\Local\Temp\ccADJWFR.s 			page 6


 233:Generated_Source\PSoC5/PWM_H_BRIDGE.c **** void PWM_H_BRIDGE_Stop(void) 
 234:Generated_Source\PSoC5/PWM_H_BRIDGE.c **** {
  54              		.loc 1 234 0
  55              		.cfi_startproc
  56              		@ args = 0, pretend = 0, frame = 0
  57              		@ frame_needed = 0, uses_anonymous_args = 0
  58              		@ link register save eliminated.
 235:Generated_Source\PSoC5/PWM_H_BRIDGE.c ****     #if (PWM_H_BRIDGE_UseControl || PWM_H_BRIDGE_UsingFixedFunction)
 236:Generated_Source\PSoC5/PWM_H_BRIDGE.c ****         PWM_H_BRIDGE_CONTROL &= ((uint8)(~PWM_H_BRIDGE_CTRL_ENABLE));
  59              		.loc 1 236 0
  60 0000 024A     		ldr	r2, .L5
  61 0002 1378     		ldrb	r3, [r2]	@ zero_extendqisi2
  62 0004 03F07F03 		and	r3, r3, #127
  63 0008 1370     		strb	r3, [r2]
  64 000a 7047     		bx	lr
  65              	.L6:
  66              		.align	2
  67              	.L5:
  68 000c 7A640040 		.word	1073767546
  69              		.cfi_endproc
  70              	.LFE3:
  71              		.size	PWM_H_BRIDGE_Stop, .-PWM_H_BRIDGE_Stop
  72              		.section	.text.PWM_H_BRIDGE_WriteCounter,"ax",%progbits
  73              		.align	1
  74              		.global	PWM_H_BRIDGE_WriteCounter
  75              		.thumb
  76              		.thumb_func
  77              		.type	PWM_H_BRIDGE_WriteCounter, %function
  78              	PWM_H_BRIDGE_WriteCounter:
  79              	.LFB4:
 237:Generated_Source\PSoC5/PWM_H_BRIDGE.c ****     #endif /* (PWM_H_BRIDGE_UseControl || PWM_H_BRIDGE_UsingFixedFunction) */
 238:Generated_Source\PSoC5/PWM_H_BRIDGE.c **** 
 239:Generated_Source\PSoC5/PWM_H_BRIDGE.c ****     /* Globally disable the Fixed Function Block chosen */
 240:Generated_Source\PSoC5/PWM_H_BRIDGE.c ****     #if (PWM_H_BRIDGE_UsingFixedFunction)
 241:Generated_Source\PSoC5/PWM_H_BRIDGE.c ****         PWM_H_BRIDGE_GLOBAL_ENABLE &= ((uint8)(~PWM_H_BRIDGE_BLOCK_EN_MASK));
 242:Generated_Source\PSoC5/PWM_H_BRIDGE.c ****         PWM_H_BRIDGE_GLOBAL_STBY_ENABLE &= ((uint8)(~PWM_H_BRIDGE_BLOCK_STBY_EN_MASK));
 243:Generated_Source\PSoC5/PWM_H_BRIDGE.c ****     #endif /* (PWM_H_BRIDGE_UsingFixedFunction) */
 244:Generated_Source\PSoC5/PWM_H_BRIDGE.c **** }
 245:Generated_Source\PSoC5/PWM_H_BRIDGE.c **** 
 246:Generated_Source\PSoC5/PWM_H_BRIDGE.c **** #if (PWM_H_BRIDGE_UseOneCompareMode)
 247:Generated_Source\PSoC5/PWM_H_BRIDGE.c ****     #if (PWM_H_BRIDGE_CompareMode1SW)
 248:Generated_Source\PSoC5/PWM_H_BRIDGE.c **** 
 249:Generated_Source\PSoC5/PWM_H_BRIDGE.c **** 
 250:Generated_Source\PSoC5/PWM_H_BRIDGE.c ****         /*******************************************************************************
 251:Generated_Source\PSoC5/PWM_H_BRIDGE.c ****         * Function Name: PWM_H_BRIDGE_SetCompareMode
 252:Generated_Source\PSoC5/PWM_H_BRIDGE.c ****         ********************************************************************************
 253:Generated_Source\PSoC5/PWM_H_BRIDGE.c ****         *
 254:Generated_Source\PSoC5/PWM_H_BRIDGE.c ****         * Summary:
 255:Generated_Source\PSoC5/PWM_H_BRIDGE.c ****         *  This function writes the Compare Mode for the pwm output when in Dither mode,
 256:Generated_Source\PSoC5/PWM_H_BRIDGE.c ****         *  Center Align Mode or One Output Mode.
 257:Generated_Source\PSoC5/PWM_H_BRIDGE.c ****         *
 258:Generated_Source\PSoC5/PWM_H_BRIDGE.c ****         * Parameters:
 259:Generated_Source\PSoC5/PWM_H_BRIDGE.c ****         *  comparemode:  The new compare mode for the PWM output. Use the compare types
 260:Generated_Source\PSoC5/PWM_H_BRIDGE.c ****         *                defined in the H file as input arguments.
 261:Generated_Source\PSoC5/PWM_H_BRIDGE.c ****         *
 262:Generated_Source\PSoC5/PWM_H_BRIDGE.c ****         * Return:
 263:Generated_Source\PSoC5/PWM_H_BRIDGE.c ****         *  None
ARM GAS  C:\Users\ALEXAN~1\AppData\Local\Temp\ccADJWFR.s 			page 7


 264:Generated_Source\PSoC5/PWM_H_BRIDGE.c ****         *
 265:Generated_Source\PSoC5/PWM_H_BRIDGE.c ****         *******************************************************************************/
 266:Generated_Source\PSoC5/PWM_H_BRIDGE.c ****         void PWM_H_BRIDGE_SetCompareMode(uint8 comparemode) 
 267:Generated_Source\PSoC5/PWM_H_BRIDGE.c ****         {
 268:Generated_Source\PSoC5/PWM_H_BRIDGE.c ****             #if(PWM_H_BRIDGE_UsingFixedFunction)
 269:Generated_Source\PSoC5/PWM_H_BRIDGE.c **** 
 270:Generated_Source\PSoC5/PWM_H_BRIDGE.c ****                 #if(0 != PWM_H_BRIDGE_CTRL_CMPMODE1_SHIFT)
 271:Generated_Source\PSoC5/PWM_H_BRIDGE.c ****                     uint8 comparemodemasked = ((uint8)((uint8)comparemode << PWM_H_BRIDGE_CTRL_CMPM
 272:Generated_Source\PSoC5/PWM_H_BRIDGE.c ****                 #else
 273:Generated_Source\PSoC5/PWM_H_BRIDGE.c ****                     uint8 comparemodemasked = comparemode;
 274:Generated_Source\PSoC5/PWM_H_BRIDGE.c ****                 #endif /* (0 != PWM_H_BRIDGE_CTRL_CMPMODE1_SHIFT) */
 275:Generated_Source\PSoC5/PWM_H_BRIDGE.c **** 
 276:Generated_Source\PSoC5/PWM_H_BRIDGE.c ****                 PWM_H_BRIDGE_CONTROL3 &= ((uint8)(~PWM_H_BRIDGE_CTRL_CMPMODE1_MASK)); /*Clear Exist
 277:Generated_Source\PSoC5/PWM_H_BRIDGE.c ****                 PWM_H_BRIDGE_CONTROL3 |= comparemodemasked;
 278:Generated_Source\PSoC5/PWM_H_BRIDGE.c **** 
 279:Generated_Source\PSoC5/PWM_H_BRIDGE.c ****             #elif (PWM_H_BRIDGE_UseControl)
 280:Generated_Source\PSoC5/PWM_H_BRIDGE.c **** 
 281:Generated_Source\PSoC5/PWM_H_BRIDGE.c ****                 #if(0 != PWM_H_BRIDGE_CTRL_CMPMODE1_SHIFT)
 282:Generated_Source\PSoC5/PWM_H_BRIDGE.c ****                     uint8 comparemode1masked = ((uint8)((uint8)comparemode << PWM_H_BRIDGE_CTRL_CMP
 283:Generated_Source\PSoC5/PWM_H_BRIDGE.c ****                                                 PWM_H_BRIDGE_CTRL_CMPMODE1_MASK;
 284:Generated_Source\PSoC5/PWM_H_BRIDGE.c ****                 #else
 285:Generated_Source\PSoC5/PWM_H_BRIDGE.c ****                     uint8 comparemode1masked = comparemode & PWM_H_BRIDGE_CTRL_CMPMODE1_MASK;
 286:Generated_Source\PSoC5/PWM_H_BRIDGE.c ****                 #endif /* (0 != PWM_H_BRIDGE_CTRL_CMPMODE1_SHIFT) */
 287:Generated_Source\PSoC5/PWM_H_BRIDGE.c **** 
 288:Generated_Source\PSoC5/PWM_H_BRIDGE.c ****                 #if(0 != PWM_H_BRIDGE_CTRL_CMPMODE2_SHIFT)
 289:Generated_Source\PSoC5/PWM_H_BRIDGE.c ****                     uint8 comparemode2masked = ((uint8)((uint8)comparemode << PWM_H_BRIDGE_CTRL_CMP
 290:Generated_Source\PSoC5/PWM_H_BRIDGE.c ****                                                PWM_H_BRIDGE_CTRL_CMPMODE2_MASK;
 291:Generated_Source\PSoC5/PWM_H_BRIDGE.c ****                 #else
 292:Generated_Source\PSoC5/PWM_H_BRIDGE.c ****                     uint8 comparemode2masked = comparemode & PWM_H_BRIDGE_CTRL_CMPMODE2_MASK;
 293:Generated_Source\PSoC5/PWM_H_BRIDGE.c ****                 #endif /* (0 != PWM_H_BRIDGE_CTRL_CMPMODE2_SHIFT) */
 294:Generated_Source\PSoC5/PWM_H_BRIDGE.c **** 
 295:Generated_Source\PSoC5/PWM_H_BRIDGE.c ****                 /*Clear existing mode */
 296:Generated_Source\PSoC5/PWM_H_BRIDGE.c ****                 PWM_H_BRIDGE_CONTROL &= ((uint8)(~(PWM_H_BRIDGE_CTRL_CMPMODE1_MASK |
 297:Generated_Source\PSoC5/PWM_H_BRIDGE.c ****                                             PWM_H_BRIDGE_CTRL_CMPMODE2_MASK)));
 298:Generated_Source\PSoC5/PWM_H_BRIDGE.c ****                 PWM_H_BRIDGE_CONTROL |= (comparemode1masked | comparemode2masked);
 299:Generated_Source\PSoC5/PWM_H_BRIDGE.c **** 
 300:Generated_Source\PSoC5/PWM_H_BRIDGE.c ****             #else
 301:Generated_Source\PSoC5/PWM_H_BRIDGE.c ****                 uint8 temp = comparemode;
 302:Generated_Source\PSoC5/PWM_H_BRIDGE.c ****             #endif /* (PWM_H_BRIDGE_UsingFixedFunction) */
 303:Generated_Source\PSoC5/PWM_H_BRIDGE.c ****         }
 304:Generated_Source\PSoC5/PWM_H_BRIDGE.c ****     #endif /* PWM_H_BRIDGE_CompareMode1SW */
 305:Generated_Source\PSoC5/PWM_H_BRIDGE.c **** 
 306:Generated_Source\PSoC5/PWM_H_BRIDGE.c **** #else /* UseOneCompareMode */
 307:Generated_Source\PSoC5/PWM_H_BRIDGE.c **** 
 308:Generated_Source\PSoC5/PWM_H_BRIDGE.c ****     #if (PWM_H_BRIDGE_CompareMode1SW)
 309:Generated_Source\PSoC5/PWM_H_BRIDGE.c **** 
 310:Generated_Source\PSoC5/PWM_H_BRIDGE.c **** 
 311:Generated_Source\PSoC5/PWM_H_BRIDGE.c ****         /*******************************************************************************
 312:Generated_Source\PSoC5/PWM_H_BRIDGE.c ****         * Function Name: PWM_H_BRIDGE_SetCompareMode1
 313:Generated_Source\PSoC5/PWM_H_BRIDGE.c ****         ********************************************************************************
 314:Generated_Source\PSoC5/PWM_H_BRIDGE.c ****         *
 315:Generated_Source\PSoC5/PWM_H_BRIDGE.c ****         * Summary:
 316:Generated_Source\PSoC5/PWM_H_BRIDGE.c ****         *  This function writes the Compare Mode for the pwm or pwm1 output
 317:Generated_Source\PSoC5/PWM_H_BRIDGE.c ****         *
 318:Generated_Source\PSoC5/PWM_H_BRIDGE.c ****         * Parameters:
 319:Generated_Source\PSoC5/PWM_H_BRIDGE.c ****         *  comparemode:  The new compare mode for the PWM output. Use the compare types
 320:Generated_Source\PSoC5/PWM_H_BRIDGE.c ****         *                defined in the H file as input arguments.
ARM GAS  C:\Users\ALEXAN~1\AppData\Local\Temp\ccADJWFR.s 			page 8


 321:Generated_Source\PSoC5/PWM_H_BRIDGE.c ****         *
 322:Generated_Source\PSoC5/PWM_H_BRIDGE.c ****         * Return:
 323:Generated_Source\PSoC5/PWM_H_BRIDGE.c ****         *  None
 324:Generated_Source\PSoC5/PWM_H_BRIDGE.c ****         *
 325:Generated_Source\PSoC5/PWM_H_BRIDGE.c ****         *******************************************************************************/
 326:Generated_Source\PSoC5/PWM_H_BRIDGE.c ****         void PWM_H_BRIDGE_SetCompareMode1(uint8 comparemode) 
 327:Generated_Source\PSoC5/PWM_H_BRIDGE.c ****         {
 328:Generated_Source\PSoC5/PWM_H_BRIDGE.c ****             #if(0 != PWM_H_BRIDGE_CTRL_CMPMODE1_SHIFT)
 329:Generated_Source\PSoC5/PWM_H_BRIDGE.c ****                 uint8 comparemodemasked = ((uint8)((uint8)comparemode << PWM_H_BRIDGE_CTRL_CMPMODE1
 330:Generated_Source\PSoC5/PWM_H_BRIDGE.c ****                                            PWM_H_BRIDGE_CTRL_CMPMODE1_MASK;
 331:Generated_Source\PSoC5/PWM_H_BRIDGE.c ****             #else
 332:Generated_Source\PSoC5/PWM_H_BRIDGE.c ****                 uint8 comparemodemasked = comparemode & PWM_H_BRIDGE_CTRL_CMPMODE1_MASK;
 333:Generated_Source\PSoC5/PWM_H_BRIDGE.c ****             #endif /* (0 != PWM_H_BRIDGE_CTRL_CMPMODE1_SHIFT) */
 334:Generated_Source\PSoC5/PWM_H_BRIDGE.c **** 
 335:Generated_Source\PSoC5/PWM_H_BRIDGE.c ****             #if (PWM_H_BRIDGE_UseControl)
 336:Generated_Source\PSoC5/PWM_H_BRIDGE.c ****                 PWM_H_BRIDGE_CONTROL &= ((uint8)(~PWM_H_BRIDGE_CTRL_CMPMODE1_MASK)); /*Clear existi
 337:Generated_Source\PSoC5/PWM_H_BRIDGE.c ****                 PWM_H_BRIDGE_CONTROL |= comparemodemasked;
 338:Generated_Source\PSoC5/PWM_H_BRIDGE.c ****             #endif /* (PWM_H_BRIDGE_UseControl) */
 339:Generated_Source\PSoC5/PWM_H_BRIDGE.c ****         }
 340:Generated_Source\PSoC5/PWM_H_BRIDGE.c ****     #endif /* PWM_H_BRIDGE_CompareMode1SW */
 341:Generated_Source\PSoC5/PWM_H_BRIDGE.c **** 
 342:Generated_Source\PSoC5/PWM_H_BRIDGE.c **** #if (PWM_H_BRIDGE_CompareMode2SW)
 343:Generated_Source\PSoC5/PWM_H_BRIDGE.c **** 
 344:Generated_Source\PSoC5/PWM_H_BRIDGE.c **** 
 345:Generated_Source\PSoC5/PWM_H_BRIDGE.c ****     /*******************************************************************************
 346:Generated_Source\PSoC5/PWM_H_BRIDGE.c ****     * Function Name: PWM_H_BRIDGE_SetCompareMode2
 347:Generated_Source\PSoC5/PWM_H_BRIDGE.c ****     ********************************************************************************
 348:Generated_Source\PSoC5/PWM_H_BRIDGE.c ****     *
 349:Generated_Source\PSoC5/PWM_H_BRIDGE.c ****     * Summary:
 350:Generated_Source\PSoC5/PWM_H_BRIDGE.c ****     *  This function writes the Compare Mode for the pwm or pwm2 output
 351:Generated_Source\PSoC5/PWM_H_BRIDGE.c ****     *
 352:Generated_Source\PSoC5/PWM_H_BRIDGE.c ****     * Parameters:
 353:Generated_Source\PSoC5/PWM_H_BRIDGE.c ****     *  comparemode:  The new compare mode for the PWM output. Use the compare types
 354:Generated_Source\PSoC5/PWM_H_BRIDGE.c ****     *                defined in the H file as input arguments.
 355:Generated_Source\PSoC5/PWM_H_BRIDGE.c ****     *
 356:Generated_Source\PSoC5/PWM_H_BRIDGE.c ****     * Return:
 357:Generated_Source\PSoC5/PWM_H_BRIDGE.c ****     *  None
 358:Generated_Source\PSoC5/PWM_H_BRIDGE.c ****     *
 359:Generated_Source\PSoC5/PWM_H_BRIDGE.c ****     *******************************************************************************/
 360:Generated_Source\PSoC5/PWM_H_BRIDGE.c ****     void PWM_H_BRIDGE_SetCompareMode2(uint8 comparemode) 
 361:Generated_Source\PSoC5/PWM_H_BRIDGE.c ****     {
 362:Generated_Source\PSoC5/PWM_H_BRIDGE.c **** 
 363:Generated_Source\PSoC5/PWM_H_BRIDGE.c ****         #if(0 != PWM_H_BRIDGE_CTRL_CMPMODE2_SHIFT)
 364:Generated_Source\PSoC5/PWM_H_BRIDGE.c ****             uint8 comparemodemasked = ((uint8)((uint8)comparemode << PWM_H_BRIDGE_CTRL_CMPMODE2_SHI
 365:Generated_Source\PSoC5/PWM_H_BRIDGE.c ****                                                  PWM_H_BRIDGE_CTRL_CMPMODE2_MASK;
 366:Generated_Source\PSoC5/PWM_H_BRIDGE.c ****         #else
 367:Generated_Source\PSoC5/PWM_H_BRIDGE.c ****             uint8 comparemodemasked = comparemode & PWM_H_BRIDGE_CTRL_CMPMODE2_MASK;
 368:Generated_Source\PSoC5/PWM_H_BRIDGE.c ****         #endif /* (0 != PWM_H_BRIDGE_CTRL_CMPMODE2_SHIFT) */
 369:Generated_Source\PSoC5/PWM_H_BRIDGE.c **** 
 370:Generated_Source\PSoC5/PWM_H_BRIDGE.c ****         #if (PWM_H_BRIDGE_UseControl)
 371:Generated_Source\PSoC5/PWM_H_BRIDGE.c ****             PWM_H_BRIDGE_CONTROL &= ((uint8)(~PWM_H_BRIDGE_CTRL_CMPMODE2_MASK)); /*Clear existing m
 372:Generated_Source\PSoC5/PWM_H_BRIDGE.c ****             PWM_H_BRIDGE_CONTROL |= comparemodemasked;
 373:Generated_Source\PSoC5/PWM_H_BRIDGE.c ****         #endif /* (PWM_H_BRIDGE_UseControl) */
 374:Generated_Source\PSoC5/PWM_H_BRIDGE.c ****     }
 375:Generated_Source\PSoC5/PWM_H_BRIDGE.c ****     #endif /*PWM_H_BRIDGE_CompareMode2SW */
 376:Generated_Source\PSoC5/PWM_H_BRIDGE.c **** 
 377:Generated_Source\PSoC5/PWM_H_BRIDGE.c **** #endif /* UseOneCompareMode */
ARM GAS  C:\Users\ALEXAN~1\AppData\Local\Temp\ccADJWFR.s 			page 9


 378:Generated_Source\PSoC5/PWM_H_BRIDGE.c **** 
 379:Generated_Source\PSoC5/PWM_H_BRIDGE.c **** 
 380:Generated_Source\PSoC5/PWM_H_BRIDGE.c **** #if (!PWM_H_BRIDGE_UsingFixedFunction)
 381:Generated_Source\PSoC5/PWM_H_BRIDGE.c **** 
 382:Generated_Source\PSoC5/PWM_H_BRIDGE.c **** 
 383:Generated_Source\PSoC5/PWM_H_BRIDGE.c ****     /*******************************************************************************
 384:Generated_Source\PSoC5/PWM_H_BRIDGE.c ****     * Function Name: PWM_H_BRIDGE_WriteCounter
 385:Generated_Source\PSoC5/PWM_H_BRIDGE.c ****     ********************************************************************************
 386:Generated_Source\PSoC5/PWM_H_BRIDGE.c ****     *
 387:Generated_Source\PSoC5/PWM_H_BRIDGE.c ****     * Summary:
 388:Generated_Source\PSoC5/PWM_H_BRIDGE.c ****     *  Writes a new counter value directly to the counter register. This will be
 389:Generated_Source\PSoC5/PWM_H_BRIDGE.c ****     *  implemented for that currently running period and only that period. This API
 390:Generated_Source\PSoC5/PWM_H_BRIDGE.c ****     *  is valid only for UDB implementation and not available for fixed function
 391:Generated_Source\PSoC5/PWM_H_BRIDGE.c ****     *  PWM implementation.
 392:Generated_Source\PSoC5/PWM_H_BRIDGE.c ****     *
 393:Generated_Source\PSoC5/PWM_H_BRIDGE.c ****     * Parameters:
 394:Generated_Source\PSoC5/PWM_H_BRIDGE.c ****     *  counter:  The period new period counter value.
 395:Generated_Source\PSoC5/PWM_H_BRIDGE.c ****     *
 396:Generated_Source\PSoC5/PWM_H_BRIDGE.c ****     * Return:
 397:Generated_Source\PSoC5/PWM_H_BRIDGE.c ****     *  None
 398:Generated_Source\PSoC5/PWM_H_BRIDGE.c ****     *
 399:Generated_Source\PSoC5/PWM_H_BRIDGE.c ****     * Side Effects:
 400:Generated_Source\PSoC5/PWM_H_BRIDGE.c ****     *  The PWM Period will be reloaded when a counter value will be a zero
 401:Generated_Source\PSoC5/PWM_H_BRIDGE.c ****     *
 402:Generated_Source\PSoC5/PWM_H_BRIDGE.c ****     *******************************************************************************/
 403:Generated_Source\PSoC5/PWM_H_BRIDGE.c ****     void PWM_H_BRIDGE_WriteCounter(uint8 counter) \
 404:Generated_Source\PSoC5/PWM_H_BRIDGE.c ****                                        
 405:Generated_Source\PSoC5/PWM_H_BRIDGE.c ****     {
  80              		.loc 1 405 0
  81              		.cfi_startproc
  82              		@ args = 0, pretend = 0, frame = 0
  83              		@ frame_needed = 0, uses_anonymous_args = 0
  84              		@ link register save eliminated.
  85              	.LVL0:
 406:Generated_Source\PSoC5/PWM_H_BRIDGE.c ****         CY_SET_REG8(PWM_H_BRIDGE_COUNTER_LSB_PTR, counter);
  86              		.loc 1 406 0
  87 0000 014B     		ldr	r3, .L8
  88 0002 1870     		strb	r0, [r3]
  89 0004 7047     		bx	lr
  90              	.L9:
  91 0006 00BF     		.align	2
  92              	.L8:
  93 0008 09640040 		.word	1073767433
  94              		.cfi_endproc
  95              	.LFE4:
  96              		.size	PWM_H_BRIDGE_WriteCounter, .-PWM_H_BRIDGE_WriteCounter
  97              		.section	.text.PWM_H_BRIDGE_ReadCounter,"ax",%progbits
  98              		.align	1
  99              		.global	PWM_H_BRIDGE_ReadCounter
 100              		.thumb
 101              		.thumb_func
 102              		.type	PWM_H_BRIDGE_ReadCounter, %function
 103              	PWM_H_BRIDGE_ReadCounter:
 104              	.LFB5:
 407:Generated_Source\PSoC5/PWM_H_BRIDGE.c ****     }
 408:Generated_Source\PSoC5/PWM_H_BRIDGE.c **** 
 409:Generated_Source\PSoC5/PWM_H_BRIDGE.c **** 
ARM GAS  C:\Users\ALEXAN~1\AppData\Local\Temp\ccADJWFR.s 			page 10


 410:Generated_Source\PSoC5/PWM_H_BRIDGE.c ****     /*******************************************************************************
 411:Generated_Source\PSoC5/PWM_H_BRIDGE.c ****     * Function Name: PWM_H_BRIDGE_ReadCounter
 412:Generated_Source\PSoC5/PWM_H_BRIDGE.c ****     ********************************************************************************
 413:Generated_Source\PSoC5/PWM_H_BRIDGE.c ****     *
 414:Generated_Source\PSoC5/PWM_H_BRIDGE.c ****     * Summary:
 415:Generated_Source\PSoC5/PWM_H_BRIDGE.c ****     *  This function returns the current value of the counter.  It doesn't matter
 416:Generated_Source\PSoC5/PWM_H_BRIDGE.c ****     *  if the counter is enabled or running.
 417:Generated_Source\PSoC5/PWM_H_BRIDGE.c ****     *
 418:Generated_Source\PSoC5/PWM_H_BRIDGE.c ****     * Parameters:
 419:Generated_Source\PSoC5/PWM_H_BRIDGE.c ****     *  None
 420:Generated_Source\PSoC5/PWM_H_BRIDGE.c ****     *
 421:Generated_Source\PSoC5/PWM_H_BRIDGE.c ****     * Return:
 422:Generated_Source\PSoC5/PWM_H_BRIDGE.c ****     *  The current value of the counter.
 423:Generated_Source\PSoC5/PWM_H_BRIDGE.c ****     *
 424:Generated_Source\PSoC5/PWM_H_BRIDGE.c ****     *******************************************************************************/
 425:Generated_Source\PSoC5/PWM_H_BRIDGE.c ****     uint8 PWM_H_BRIDGE_ReadCounter(void) 
 426:Generated_Source\PSoC5/PWM_H_BRIDGE.c ****     {
 105              		.loc 1 426 0
 106              		.cfi_startproc
 107              		@ args = 0, pretend = 0, frame = 0
 108              		@ frame_needed = 0, uses_anonymous_args = 0
 109              		@ link register save eliminated.
 427:Generated_Source\PSoC5/PWM_H_BRIDGE.c ****         /* Force capture by reading Accumulator */
 428:Generated_Source\PSoC5/PWM_H_BRIDGE.c ****         /* Must first do a software capture to be able to read the counter */
 429:Generated_Source\PSoC5/PWM_H_BRIDGE.c ****         /* It is up to the user code to make sure there isn't already captured data in the FIFO */
 430:Generated_Source\PSoC5/PWM_H_BRIDGE.c ****           (void)CY_GET_REG8(PWM_H_BRIDGE_COUNTERCAP_LSB_PTR_8BIT);
 110              		.loc 1 430 0
 111 0000 024B     		ldr	r3, .L11
 112 0002 1B78     		ldrb	r3, [r3]	@ zero_extendqisi2
 431:Generated_Source\PSoC5/PWM_H_BRIDGE.c **** 
 432:Generated_Source\PSoC5/PWM_H_BRIDGE.c ****         /* Read the data from the FIFO */
 433:Generated_Source\PSoC5/PWM_H_BRIDGE.c ****         return (CY_GET_REG8(PWM_H_BRIDGE_CAPTURE_LSB_PTR));
 113              		.loc 1 433 0
 114 0004 024B     		ldr	r3, .L11+4
 115 0006 1878     		ldrb	r0, [r3]	@ zero_extendqisi2
 434:Generated_Source\PSoC5/PWM_H_BRIDGE.c ****     }
 116              		.loc 1 434 0
 117 0008 7047     		bx	lr
 118              	.L12:
 119 000a 00BF     		.align	2
 120              	.L11:
 121 000c 19640040 		.word	1073767449
 122 0010 59640040 		.word	1073767513
 123              		.cfi_endproc
 124              	.LFE5:
 125              		.size	PWM_H_BRIDGE_ReadCounter, .-PWM_H_BRIDGE_ReadCounter
 126              		.section	.text.PWM_H_BRIDGE_ClearFIFO,"ax",%progbits
 127              		.align	1
 128              		.global	PWM_H_BRIDGE_ClearFIFO
 129              		.thumb
 130              		.thumb_func
 131              		.type	PWM_H_BRIDGE_ClearFIFO, %function
 132              	PWM_H_BRIDGE_ClearFIFO:
 133              	.LFB6:
 435:Generated_Source\PSoC5/PWM_H_BRIDGE.c **** 
 436:Generated_Source\PSoC5/PWM_H_BRIDGE.c ****     #if (PWM_H_BRIDGE_UseStatus)
 437:Generated_Source\PSoC5/PWM_H_BRIDGE.c **** 
ARM GAS  C:\Users\ALEXAN~1\AppData\Local\Temp\ccADJWFR.s 			page 11


 438:Generated_Source\PSoC5/PWM_H_BRIDGE.c **** 
 439:Generated_Source\PSoC5/PWM_H_BRIDGE.c ****         /*******************************************************************************
 440:Generated_Source\PSoC5/PWM_H_BRIDGE.c ****         * Function Name: PWM_H_BRIDGE_ClearFIFO
 441:Generated_Source\PSoC5/PWM_H_BRIDGE.c ****         ********************************************************************************
 442:Generated_Source\PSoC5/PWM_H_BRIDGE.c ****         *
 443:Generated_Source\PSoC5/PWM_H_BRIDGE.c ****         * Summary:
 444:Generated_Source\PSoC5/PWM_H_BRIDGE.c ****         *  This function clears all capture data from the capture FIFO
 445:Generated_Source\PSoC5/PWM_H_BRIDGE.c ****         *
 446:Generated_Source\PSoC5/PWM_H_BRIDGE.c ****         * Parameters:
 447:Generated_Source\PSoC5/PWM_H_BRIDGE.c ****         *  None
 448:Generated_Source\PSoC5/PWM_H_BRIDGE.c ****         *
 449:Generated_Source\PSoC5/PWM_H_BRIDGE.c ****         * Return:
 450:Generated_Source\PSoC5/PWM_H_BRIDGE.c ****         *  None
 451:Generated_Source\PSoC5/PWM_H_BRIDGE.c ****         *
 452:Generated_Source\PSoC5/PWM_H_BRIDGE.c ****         *******************************************************************************/
 453:Generated_Source\PSoC5/PWM_H_BRIDGE.c ****         void PWM_H_BRIDGE_ClearFIFO(void) 
 454:Generated_Source\PSoC5/PWM_H_BRIDGE.c ****         {
 134              		.loc 1 454 0
 135              		.cfi_startproc
 136              		@ args = 0, pretend = 0, frame = 0
 137              		@ frame_needed = 0, uses_anonymous_args = 0
 138              		@ link register save eliminated.
 139              	.LBB16:
 140              	.LBB17:
 455:Generated_Source\PSoC5/PWM_H_BRIDGE.c ****             while(0u != (PWM_H_BRIDGE_ReadStatusRegister() & PWM_H_BRIDGE_STATUS_FIFONEMPTY))
 456:Generated_Source\PSoC5/PWM_H_BRIDGE.c ****             {
 457:Generated_Source\PSoC5/PWM_H_BRIDGE.c ****                 (void)PWM_H_BRIDGE_ReadCapture();
 458:Generated_Source\PSoC5/PWM_H_BRIDGE.c ****             }
 459:Generated_Source\PSoC5/PWM_H_BRIDGE.c ****         }
 460:Generated_Source\PSoC5/PWM_H_BRIDGE.c **** 
 461:Generated_Source\PSoC5/PWM_H_BRIDGE.c ****     #endif /* PWM_H_BRIDGE_UseStatus */
 462:Generated_Source\PSoC5/PWM_H_BRIDGE.c **** 
 463:Generated_Source\PSoC5/PWM_H_BRIDGE.c **** #endif /* !PWM_H_BRIDGE_UsingFixedFunction */
 464:Generated_Source\PSoC5/PWM_H_BRIDGE.c **** 
 465:Generated_Source\PSoC5/PWM_H_BRIDGE.c **** 
 466:Generated_Source\PSoC5/PWM_H_BRIDGE.c **** /*******************************************************************************
 467:Generated_Source\PSoC5/PWM_H_BRIDGE.c **** * Function Name: PWM_H_BRIDGE_WritePeriod
 468:Generated_Source\PSoC5/PWM_H_BRIDGE.c **** ********************************************************************************
 469:Generated_Source\PSoC5/PWM_H_BRIDGE.c **** *
 470:Generated_Source\PSoC5/PWM_H_BRIDGE.c **** * Summary:
 471:Generated_Source\PSoC5/PWM_H_BRIDGE.c **** *  This function is used to change the period of the counter.  The new period
 472:Generated_Source\PSoC5/PWM_H_BRIDGE.c **** *  will be loaded the next time terminal count is detected.
 473:Generated_Source\PSoC5/PWM_H_BRIDGE.c **** *
 474:Generated_Source\PSoC5/PWM_H_BRIDGE.c **** * Parameters:
 475:Generated_Source\PSoC5/PWM_H_BRIDGE.c **** *  period:  Period value. May be between 1 and (2^Resolution)-1.  A value of 0
 476:Generated_Source\PSoC5/PWM_H_BRIDGE.c **** *           will result in the counter remaining at zero.
 477:Generated_Source\PSoC5/PWM_H_BRIDGE.c **** *
 478:Generated_Source\PSoC5/PWM_H_BRIDGE.c **** * Return:
 479:Generated_Source\PSoC5/PWM_H_BRIDGE.c **** *  None
 480:Generated_Source\PSoC5/PWM_H_BRIDGE.c **** *
 481:Generated_Source\PSoC5/PWM_H_BRIDGE.c **** *******************************************************************************/
 482:Generated_Source\PSoC5/PWM_H_BRIDGE.c **** void PWM_H_BRIDGE_WritePeriod(uint8 period) 
 483:Generated_Source\PSoC5/PWM_H_BRIDGE.c **** {
 484:Generated_Source\PSoC5/PWM_H_BRIDGE.c ****     #if(PWM_H_BRIDGE_UsingFixedFunction)
 485:Generated_Source\PSoC5/PWM_H_BRIDGE.c ****         CY_SET_REG16(PWM_H_BRIDGE_PERIOD_LSB_PTR, (uint16)period);
 486:Generated_Source\PSoC5/PWM_H_BRIDGE.c ****     #else
 487:Generated_Source\PSoC5/PWM_H_BRIDGE.c ****         CY_SET_REG8(PWM_H_BRIDGE_PERIOD_LSB_PTR, period);
ARM GAS  C:\Users\ALEXAN~1\AppData\Local\Temp\ccADJWFR.s 			page 12


 488:Generated_Source\PSoC5/PWM_H_BRIDGE.c ****     #endif /* (PWM_H_BRIDGE_UsingFixedFunction) */
 489:Generated_Source\PSoC5/PWM_H_BRIDGE.c **** }
 490:Generated_Source\PSoC5/PWM_H_BRIDGE.c **** 
 491:Generated_Source\PSoC5/PWM_H_BRIDGE.c **** #if (PWM_H_BRIDGE_UseOneCompareMode)
 492:Generated_Source\PSoC5/PWM_H_BRIDGE.c **** 
 493:Generated_Source\PSoC5/PWM_H_BRIDGE.c **** 
 494:Generated_Source\PSoC5/PWM_H_BRIDGE.c ****     /*******************************************************************************
 495:Generated_Source\PSoC5/PWM_H_BRIDGE.c ****     * Function Name: PWM_H_BRIDGE_WriteCompare
 496:Generated_Source\PSoC5/PWM_H_BRIDGE.c ****     ********************************************************************************
 497:Generated_Source\PSoC5/PWM_H_BRIDGE.c ****     *
 498:Generated_Source\PSoC5/PWM_H_BRIDGE.c ****     * Summary:
 499:Generated_Source\PSoC5/PWM_H_BRIDGE.c ****     *  This funtion is used to change the compare1 value when the PWM is in Dither
 500:Generated_Source\PSoC5/PWM_H_BRIDGE.c ****     *  mode. The compare output will reflect the new value on the next UDB clock.
 501:Generated_Source\PSoC5/PWM_H_BRIDGE.c ****     *  The compare output will be driven high when the present counter value is
 502:Generated_Source\PSoC5/PWM_H_BRIDGE.c ****     *  compared to the compare value based on the compare mode defined in
 503:Generated_Source\PSoC5/PWM_H_BRIDGE.c ****     *  Dither Mode.
 504:Generated_Source\PSoC5/PWM_H_BRIDGE.c ****     *
 505:Generated_Source\PSoC5/PWM_H_BRIDGE.c ****     * Parameters:
 506:Generated_Source\PSoC5/PWM_H_BRIDGE.c ****     *  compare:  New compare value.
 507:Generated_Source\PSoC5/PWM_H_BRIDGE.c ****     *
 508:Generated_Source\PSoC5/PWM_H_BRIDGE.c ****     * Return:
 509:Generated_Source\PSoC5/PWM_H_BRIDGE.c ****     *  None
 510:Generated_Source\PSoC5/PWM_H_BRIDGE.c ****     *
 511:Generated_Source\PSoC5/PWM_H_BRIDGE.c ****     * Side Effects:
 512:Generated_Source\PSoC5/PWM_H_BRIDGE.c ****     *  This function is only available if the PWM mode parameter is set to
 513:Generated_Source\PSoC5/PWM_H_BRIDGE.c ****     *  Dither Mode, Center Aligned Mode or One Output Mode
 514:Generated_Source\PSoC5/PWM_H_BRIDGE.c ****     *
 515:Generated_Source\PSoC5/PWM_H_BRIDGE.c ****     *******************************************************************************/
 516:Generated_Source\PSoC5/PWM_H_BRIDGE.c ****     void PWM_H_BRIDGE_WriteCompare(uint8 compare) \
 517:Generated_Source\PSoC5/PWM_H_BRIDGE.c ****                                        
 518:Generated_Source\PSoC5/PWM_H_BRIDGE.c ****     {
 519:Generated_Source\PSoC5/PWM_H_BRIDGE.c ****         #if(PWM_H_BRIDGE_UsingFixedFunction)
 520:Generated_Source\PSoC5/PWM_H_BRIDGE.c ****             CY_SET_REG16(PWM_H_BRIDGE_COMPARE1_LSB_PTR, (uint16)compare);
 521:Generated_Source\PSoC5/PWM_H_BRIDGE.c ****         #else
 522:Generated_Source\PSoC5/PWM_H_BRIDGE.c ****             CY_SET_REG8(PWM_H_BRIDGE_COMPARE1_LSB_PTR, compare);
 523:Generated_Source\PSoC5/PWM_H_BRIDGE.c ****         #endif /* (PWM_H_BRIDGE_UsingFixedFunction) */
 524:Generated_Source\PSoC5/PWM_H_BRIDGE.c **** 
 525:Generated_Source\PSoC5/PWM_H_BRIDGE.c ****         #if (PWM_H_BRIDGE_PWMMode == PWM_H_BRIDGE__B_PWM__DITHER)
 526:Generated_Source\PSoC5/PWM_H_BRIDGE.c ****             #if(PWM_H_BRIDGE_UsingFixedFunction)
 527:Generated_Source\PSoC5/PWM_H_BRIDGE.c ****                 CY_SET_REG16(PWM_H_BRIDGE_COMPARE2_LSB_PTR, (uint16)(compare + 1u));
 528:Generated_Source\PSoC5/PWM_H_BRIDGE.c ****             #else
 529:Generated_Source\PSoC5/PWM_H_BRIDGE.c ****                 CY_SET_REG8(PWM_H_BRIDGE_COMPARE2_LSB_PTR, (compare + 1u));
 530:Generated_Source\PSoC5/PWM_H_BRIDGE.c ****             #endif /* (PWM_H_BRIDGE_UsingFixedFunction) */
 531:Generated_Source\PSoC5/PWM_H_BRIDGE.c ****         #endif /* (PWM_H_BRIDGE_PWMMode == PWM_H_BRIDGE__B_PWM__DITHER) */
 532:Generated_Source\PSoC5/PWM_H_BRIDGE.c ****     }
 533:Generated_Source\PSoC5/PWM_H_BRIDGE.c **** 
 534:Generated_Source\PSoC5/PWM_H_BRIDGE.c **** 
 535:Generated_Source\PSoC5/PWM_H_BRIDGE.c **** #else
 536:Generated_Source\PSoC5/PWM_H_BRIDGE.c **** 
 537:Generated_Source\PSoC5/PWM_H_BRIDGE.c **** 
 538:Generated_Source\PSoC5/PWM_H_BRIDGE.c ****     /*******************************************************************************
 539:Generated_Source\PSoC5/PWM_H_BRIDGE.c ****     * Function Name: PWM_H_BRIDGE_WriteCompare1
 540:Generated_Source\PSoC5/PWM_H_BRIDGE.c ****     ********************************************************************************
 541:Generated_Source\PSoC5/PWM_H_BRIDGE.c ****     *
 542:Generated_Source\PSoC5/PWM_H_BRIDGE.c ****     * Summary:
 543:Generated_Source\PSoC5/PWM_H_BRIDGE.c ****     *  This funtion is used to change the compare1 value.  The compare output will
 544:Generated_Source\PSoC5/PWM_H_BRIDGE.c ****     *  reflect the new value on the next UDB clock.  The compare output will be
ARM GAS  C:\Users\ALEXAN~1\AppData\Local\Temp\ccADJWFR.s 			page 13


 545:Generated_Source\PSoC5/PWM_H_BRIDGE.c ****     *  driven high when the present counter value is less than or less than or
 546:Generated_Source\PSoC5/PWM_H_BRIDGE.c ****     *  equal to the compare register, depending on the mode.
 547:Generated_Source\PSoC5/PWM_H_BRIDGE.c ****     *
 548:Generated_Source\PSoC5/PWM_H_BRIDGE.c ****     * Parameters:
 549:Generated_Source\PSoC5/PWM_H_BRIDGE.c ****     *  compare:  New compare value.
 550:Generated_Source\PSoC5/PWM_H_BRIDGE.c ****     *
 551:Generated_Source\PSoC5/PWM_H_BRIDGE.c ****     * Return:
 552:Generated_Source\PSoC5/PWM_H_BRIDGE.c ****     *  None
 553:Generated_Source\PSoC5/PWM_H_BRIDGE.c ****     *
 554:Generated_Source\PSoC5/PWM_H_BRIDGE.c ****     *******************************************************************************/
 555:Generated_Source\PSoC5/PWM_H_BRIDGE.c ****     void PWM_H_BRIDGE_WriteCompare1(uint8 compare) \
 556:Generated_Source\PSoC5/PWM_H_BRIDGE.c ****                                         
 557:Generated_Source\PSoC5/PWM_H_BRIDGE.c ****     {
 558:Generated_Source\PSoC5/PWM_H_BRIDGE.c ****         #if(PWM_H_BRIDGE_UsingFixedFunction)
 559:Generated_Source\PSoC5/PWM_H_BRIDGE.c ****             CY_SET_REG16(PWM_H_BRIDGE_COMPARE1_LSB_PTR, (uint16)compare);
 560:Generated_Source\PSoC5/PWM_H_BRIDGE.c ****         #else
 561:Generated_Source\PSoC5/PWM_H_BRIDGE.c ****             CY_SET_REG8(PWM_H_BRIDGE_COMPARE1_LSB_PTR, compare);
 562:Generated_Source\PSoC5/PWM_H_BRIDGE.c ****         #endif /* (PWM_H_BRIDGE_UsingFixedFunction) */
 563:Generated_Source\PSoC5/PWM_H_BRIDGE.c ****     }
 564:Generated_Source\PSoC5/PWM_H_BRIDGE.c **** 
 565:Generated_Source\PSoC5/PWM_H_BRIDGE.c **** 
 566:Generated_Source\PSoC5/PWM_H_BRIDGE.c ****     /*******************************************************************************
 567:Generated_Source\PSoC5/PWM_H_BRIDGE.c ****     * Function Name: PWM_H_BRIDGE_WriteCompare2
 568:Generated_Source\PSoC5/PWM_H_BRIDGE.c ****     ********************************************************************************
 569:Generated_Source\PSoC5/PWM_H_BRIDGE.c ****     *
 570:Generated_Source\PSoC5/PWM_H_BRIDGE.c ****     * Summary:
 571:Generated_Source\PSoC5/PWM_H_BRIDGE.c ****     *  This funtion is used to change the compare value, for compare1 output.
 572:Generated_Source\PSoC5/PWM_H_BRIDGE.c ****     *  The compare output will reflect the new value on the next UDB clock.
 573:Generated_Source\PSoC5/PWM_H_BRIDGE.c ****     *  The compare output will be driven high when the present counter value is
 574:Generated_Source\PSoC5/PWM_H_BRIDGE.c ****     *  less than or less than or equal to the compare register, depending on the
 575:Generated_Source\PSoC5/PWM_H_BRIDGE.c ****     *  mode.
 576:Generated_Source\PSoC5/PWM_H_BRIDGE.c ****     *
 577:Generated_Source\PSoC5/PWM_H_BRIDGE.c ****     * Parameters:
 578:Generated_Source\PSoC5/PWM_H_BRIDGE.c ****     *  compare:  New compare value.
 579:Generated_Source\PSoC5/PWM_H_BRIDGE.c ****     *
 580:Generated_Source\PSoC5/PWM_H_BRIDGE.c ****     * Return:
 581:Generated_Source\PSoC5/PWM_H_BRIDGE.c ****     *  None
 582:Generated_Source\PSoC5/PWM_H_BRIDGE.c ****     *
 583:Generated_Source\PSoC5/PWM_H_BRIDGE.c ****     *******************************************************************************/
 584:Generated_Source\PSoC5/PWM_H_BRIDGE.c ****     void PWM_H_BRIDGE_WriteCompare2(uint8 compare) \
 585:Generated_Source\PSoC5/PWM_H_BRIDGE.c ****                                         
 586:Generated_Source\PSoC5/PWM_H_BRIDGE.c ****     {
 587:Generated_Source\PSoC5/PWM_H_BRIDGE.c ****         #if(PWM_H_BRIDGE_UsingFixedFunction)
 588:Generated_Source\PSoC5/PWM_H_BRIDGE.c ****             CY_SET_REG16(PWM_H_BRIDGE_COMPARE2_LSB_PTR, compare);
 589:Generated_Source\PSoC5/PWM_H_BRIDGE.c ****         #else
 590:Generated_Source\PSoC5/PWM_H_BRIDGE.c ****             CY_SET_REG8(PWM_H_BRIDGE_COMPARE2_LSB_PTR, compare);
 591:Generated_Source\PSoC5/PWM_H_BRIDGE.c ****         #endif /* (PWM_H_BRIDGE_UsingFixedFunction) */
 592:Generated_Source\PSoC5/PWM_H_BRIDGE.c ****     }
 593:Generated_Source\PSoC5/PWM_H_BRIDGE.c **** #endif /* UseOneCompareMode */
 594:Generated_Source\PSoC5/PWM_H_BRIDGE.c **** 
 595:Generated_Source\PSoC5/PWM_H_BRIDGE.c **** #if (PWM_H_BRIDGE_DeadBandUsed)
 596:Generated_Source\PSoC5/PWM_H_BRIDGE.c **** 
 597:Generated_Source\PSoC5/PWM_H_BRIDGE.c **** 
 598:Generated_Source\PSoC5/PWM_H_BRIDGE.c ****     /*******************************************************************************
 599:Generated_Source\PSoC5/PWM_H_BRIDGE.c ****     * Function Name: PWM_H_BRIDGE_WriteDeadTime
 600:Generated_Source\PSoC5/PWM_H_BRIDGE.c ****     ********************************************************************************
 601:Generated_Source\PSoC5/PWM_H_BRIDGE.c ****     *
ARM GAS  C:\Users\ALEXAN~1\AppData\Local\Temp\ccADJWFR.s 			page 14


 602:Generated_Source\PSoC5/PWM_H_BRIDGE.c ****     * Summary:
 603:Generated_Source\PSoC5/PWM_H_BRIDGE.c ****     *  This function writes the dead-band counts to the corresponding register
 604:Generated_Source\PSoC5/PWM_H_BRIDGE.c ****     *
 605:Generated_Source\PSoC5/PWM_H_BRIDGE.c ****     * Parameters:
 606:Generated_Source\PSoC5/PWM_H_BRIDGE.c ****     *  deadtime:  Number of counts for dead time
 607:Generated_Source\PSoC5/PWM_H_BRIDGE.c ****     *
 608:Generated_Source\PSoC5/PWM_H_BRIDGE.c ****     * Return:
 609:Generated_Source\PSoC5/PWM_H_BRIDGE.c ****     *  None
 610:Generated_Source\PSoC5/PWM_H_BRIDGE.c ****     *
 611:Generated_Source\PSoC5/PWM_H_BRIDGE.c ****     *******************************************************************************/
 612:Generated_Source\PSoC5/PWM_H_BRIDGE.c ****     void PWM_H_BRIDGE_WriteDeadTime(uint8 deadtime) 
 613:Generated_Source\PSoC5/PWM_H_BRIDGE.c ****     {
 614:Generated_Source\PSoC5/PWM_H_BRIDGE.c ****         /* If using the Dead Band 1-255 mode then just write the register */
 615:Generated_Source\PSoC5/PWM_H_BRIDGE.c ****         #if(!PWM_H_BRIDGE_DeadBand2_4)
 616:Generated_Source\PSoC5/PWM_H_BRIDGE.c ****             CY_SET_REG8(PWM_H_BRIDGE_DEADBAND_COUNT_PTR, deadtime);
 617:Generated_Source\PSoC5/PWM_H_BRIDGE.c ****         #else
 618:Generated_Source\PSoC5/PWM_H_BRIDGE.c ****             /* Otherwise the data has to be masked and offset */
 619:Generated_Source\PSoC5/PWM_H_BRIDGE.c ****             /* Clear existing data */
 620:Generated_Source\PSoC5/PWM_H_BRIDGE.c ****             PWM_H_BRIDGE_DEADBAND_COUNT &= ((uint8)(~PWM_H_BRIDGE_DEADBAND_COUNT_MASK));
 621:Generated_Source\PSoC5/PWM_H_BRIDGE.c **** 
 622:Generated_Source\PSoC5/PWM_H_BRIDGE.c ****             /* Set new dead time */
 623:Generated_Source\PSoC5/PWM_H_BRIDGE.c ****             #if(PWM_H_BRIDGE_DEADBAND_COUNT_SHIFT)
 624:Generated_Source\PSoC5/PWM_H_BRIDGE.c ****                 PWM_H_BRIDGE_DEADBAND_COUNT |= ((uint8)((uint8)deadtime << PWM_H_BRIDGE_DEADBAND_CO
 625:Generated_Source\PSoC5/PWM_H_BRIDGE.c ****                                                     PWM_H_BRIDGE_DEADBAND_COUNT_MASK;
 626:Generated_Source\PSoC5/PWM_H_BRIDGE.c ****             #else
 627:Generated_Source\PSoC5/PWM_H_BRIDGE.c ****                 PWM_H_BRIDGE_DEADBAND_COUNT |= deadtime & PWM_H_BRIDGE_DEADBAND_COUNT_MASK;
 628:Generated_Source\PSoC5/PWM_H_BRIDGE.c ****             #endif /* (PWM_H_BRIDGE_DEADBAND_COUNT_SHIFT) */
 629:Generated_Source\PSoC5/PWM_H_BRIDGE.c **** 
 630:Generated_Source\PSoC5/PWM_H_BRIDGE.c ****         #endif /* (!PWM_H_BRIDGE_DeadBand2_4) */
 631:Generated_Source\PSoC5/PWM_H_BRIDGE.c ****     }
 632:Generated_Source\PSoC5/PWM_H_BRIDGE.c **** 
 633:Generated_Source\PSoC5/PWM_H_BRIDGE.c **** 
 634:Generated_Source\PSoC5/PWM_H_BRIDGE.c ****     /*******************************************************************************
 635:Generated_Source\PSoC5/PWM_H_BRIDGE.c ****     * Function Name: PWM_H_BRIDGE_ReadDeadTime
 636:Generated_Source\PSoC5/PWM_H_BRIDGE.c ****     ********************************************************************************
 637:Generated_Source\PSoC5/PWM_H_BRIDGE.c ****     *
 638:Generated_Source\PSoC5/PWM_H_BRIDGE.c ****     * Summary:
 639:Generated_Source\PSoC5/PWM_H_BRIDGE.c ****     *  This function reads the dead-band counts from the corresponding register
 640:Generated_Source\PSoC5/PWM_H_BRIDGE.c ****     *
 641:Generated_Source\PSoC5/PWM_H_BRIDGE.c ****     * Parameters:
 642:Generated_Source\PSoC5/PWM_H_BRIDGE.c ****     *  None
 643:Generated_Source\PSoC5/PWM_H_BRIDGE.c ****     *
 644:Generated_Source\PSoC5/PWM_H_BRIDGE.c ****     * Return:
 645:Generated_Source\PSoC5/PWM_H_BRIDGE.c ****     *  Dead Band Counts
 646:Generated_Source\PSoC5/PWM_H_BRIDGE.c ****     *
 647:Generated_Source\PSoC5/PWM_H_BRIDGE.c ****     *******************************************************************************/
 648:Generated_Source\PSoC5/PWM_H_BRIDGE.c ****     uint8 PWM_H_BRIDGE_ReadDeadTime(void) 
 649:Generated_Source\PSoC5/PWM_H_BRIDGE.c ****     {
 650:Generated_Source\PSoC5/PWM_H_BRIDGE.c ****         /* If using the Dead Band 1-255 mode then just read the register */
 651:Generated_Source\PSoC5/PWM_H_BRIDGE.c ****         #if(!PWM_H_BRIDGE_DeadBand2_4)
 652:Generated_Source\PSoC5/PWM_H_BRIDGE.c ****             return (CY_GET_REG8(PWM_H_BRIDGE_DEADBAND_COUNT_PTR));
 653:Generated_Source\PSoC5/PWM_H_BRIDGE.c ****         #else
 654:Generated_Source\PSoC5/PWM_H_BRIDGE.c **** 
 655:Generated_Source\PSoC5/PWM_H_BRIDGE.c ****             /* Otherwise the data has to be masked and offset */
 656:Generated_Source\PSoC5/PWM_H_BRIDGE.c ****             #if(PWM_H_BRIDGE_DEADBAND_COUNT_SHIFT)
 657:Generated_Source\PSoC5/PWM_H_BRIDGE.c ****                 return ((uint8)(((uint8)(PWM_H_BRIDGE_DEADBAND_COUNT & PWM_H_BRIDGE_DEADBAND_COUNT_
 658:Generated_Source\PSoC5/PWM_H_BRIDGE.c ****                                                                            PWM_H_BRIDGE_DEADBAND_CO
ARM GAS  C:\Users\ALEXAN~1\AppData\Local\Temp\ccADJWFR.s 			page 15


 659:Generated_Source\PSoC5/PWM_H_BRIDGE.c ****             #else
 660:Generated_Source\PSoC5/PWM_H_BRIDGE.c ****                 return (PWM_H_BRIDGE_DEADBAND_COUNT & PWM_H_BRIDGE_DEADBAND_COUNT_MASK);
 661:Generated_Source\PSoC5/PWM_H_BRIDGE.c ****             #endif /* (PWM_H_BRIDGE_DEADBAND_COUNT_SHIFT) */
 662:Generated_Source\PSoC5/PWM_H_BRIDGE.c ****         #endif /* (!PWM_H_BRIDGE_DeadBand2_4) */
 663:Generated_Source\PSoC5/PWM_H_BRIDGE.c ****     }
 664:Generated_Source\PSoC5/PWM_H_BRIDGE.c **** #endif /* DeadBandUsed */
 665:Generated_Source\PSoC5/PWM_H_BRIDGE.c **** 
 666:Generated_Source\PSoC5/PWM_H_BRIDGE.c **** #if (PWM_H_BRIDGE_UseStatus || PWM_H_BRIDGE_UsingFixedFunction)
 667:Generated_Source\PSoC5/PWM_H_BRIDGE.c **** 
 668:Generated_Source\PSoC5/PWM_H_BRIDGE.c **** 
 669:Generated_Source\PSoC5/PWM_H_BRIDGE.c ****     /*******************************************************************************
 670:Generated_Source\PSoC5/PWM_H_BRIDGE.c ****     * Function Name: PWM_H_BRIDGE_SetInterruptMode
 671:Generated_Source\PSoC5/PWM_H_BRIDGE.c ****     ********************************************************************************
 672:Generated_Source\PSoC5/PWM_H_BRIDGE.c ****     *
 673:Generated_Source\PSoC5/PWM_H_BRIDGE.c ****     * Summary:
 674:Generated_Source\PSoC5/PWM_H_BRIDGE.c ****     *  This function configures the interrupts mask control of theinterrupt
 675:Generated_Source\PSoC5/PWM_H_BRIDGE.c ****     *  source status register.
 676:Generated_Source\PSoC5/PWM_H_BRIDGE.c ****     *
 677:Generated_Source\PSoC5/PWM_H_BRIDGE.c ****     * Parameters:
 678:Generated_Source\PSoC5/PWM_H_BRIDGE.c ****     *  uint8 interruptMode: Bit field containing the interrupt sources enabled
 679:Generated_Source\PSoC5/PWM_H_BRIDGE.c ****     *
 680:Generated_Source\PSoC5/PWM_H_BRIDGE.c ****     * Return:
 681:Generated_Source\PSoC5/PWM_H_BRIDGE.c ****     *  None
 682:Generated_Source\PSoC5/PWM_H_BRIDGE.c ****     *
 683:Generated_Source\PSoC5/PWM_H_BRIDGE.c ****     *******************************************************************************/
 684:Generated_Source\PSoC5/PWM_H_BRIDGE.c ****     void PWM_H_BRIDGE_SetInterruptMode(uint8 interruptMode) 
 685:Generated_Source\PSoC5/PWM_H_BRIDGE.c ****     {
 686:Generated_Source\PSoC5/PWM_H_BRIDGE.c ****         CY_SET_REG8(PWM_H_BRIDGE_STATUS_MASK_PTR, interruptMode);
 687:Generated_Source\PSoC5/PWM_H_BRIDGE.c ****     }
 688:Generated_Source\PSoC5/PWM_H_BRIDGE.c **** 
 689:Generated_Source\PSoC5/PWM_H_BRIDGE.c **** 
 690:Generated_Source\PSoC5/PWM_H_BRIDGE.c ****     /*******************************************************************************
 691:Generated_Source\PSoC5/PWM_H_BRIDGE.c ****     * Function Name: PWM_H_BRIDGE_ReadStatusRegister
 692:Generated_Source\PSoC5/PWM_H_BRIDGE.c ****     ********************************************************************************
 693:Generated_Source\PSoC5/PWM_H_BRIDGE.c ****     *
 694:Generated_Source\PSoC5/PWM_H_BRIDGE.c ****     * Summary:
 695:Generated_Source\PSoC5/PWM_H_BRIDGE.c ****     *  This function returns the current state of the status register.
 696:Generated_Source\PSoC5/PWM_H_BRIDGE.c ****     *
 697:Generated_Source\PSoC5/PWM_H_BRIDGE.c ****     * Parameters:
 698:Generated_Source\PSoC5/PWM_H_BRIDGE.c ****     *  None
 699:Generated_Source\PSoC5/PWM_H_BRIDGE.c ****     *
 700:Generated_Source\PSoC5/PWM_H_BRIDGE.c ****     * Return:
 701:Generated_Source\PSoC5/PWM_H_BRIDGE.c ****     *  uint8 : Current status register value. The status register bits are:
 702:Generated_Source\PSoC5/PWM_H_BRIDGE.c ****     *  [7:6] : Unused(0)
 703:Generated_Source\PSoC5/PWM_H_BRIDGE.c ****     *  [5]   : Kill event output
 704:Generated_Source\PSoC5/PWM_H_BRIDGE.c ****     *  [4]   : FIFO not empty
 705:Generated_Source\PSoC5/PWM_H_BRIDGE.c ****     *  [3]   : FIFO full
 706:Generated_Source\PSoC5/PWM_H_BRIDGE.c ****     *  [2]   : Terminal count
 707:Generated_Source\PSoC5/PWM_H_BRIDGE.c ****     *  [1]   : Compare output 2
 708:Generated_Source\PSoC5/PWM_H_BRIDGE.c ****     *  [0]   : Compare output 1
 709:Generated_Source\PSoC5/PWM_H_BRIDGE.c ****     *
 710:Generated_Source\PSoC5/PWM_H_BRIDGE.c ****     *******************************************************************************/
 711:Generated_Source\PSoC5/PWM_H_BRIDGE.c ****     uint8 PWM_H_BRIDGE_ReadStatusRegister(void) 
 712:Generated_Source\PSoC5/PWM_H_BRIDGE.c ****     {
 713:Generated_Source\PSoC5/PWM_H_BRIDGE.c ****         return (CY_GET_REG8(PWM_H_BRIDGE_STATUS_PTR));
 141              		.loc 1 713 0
 142 0000 034A     		ldr	r2, .L18
ARM GAS  C:\Users\ALEXAN~1\AppData\Local\Temp\ccADJWFR.s 			page 16


 143              	.LBE17:
 144              	.LBE16:
 145              	.LBB19:
 146              	.LBB20:
 714:Generated_Source\PSoC5/PWM_H_BRIDGE.c ****     }
 715:Generated_Source\PSoC5/PWM_H_BRIDGE.c **** 
 716:Generated_Source\PSoC5/PWM_H_BRIDGE.c **** #endif /* (PWM_H_BRIDGE_UseStatus || PWM_H_BRIDGE_UsingFixedFunction) */
 717:Generated_Source\PSoC5/PWM_H_BRIDGE.c **** 
 718:Generated_Source\PSoC5/PWM_H_BRIDGE.c **** 
 719:Generated_Source\PSoC5/PWM_H_BRIDGE.c **** #if (PWM_H_BRIDGE_UseControl)
 720:Generated_Source\PSoC5/PWM_H_BRIDGE.c **** 
 721:Generated_Source\PSoC5/PWM_H_BRIDGE.c **** 
 722:Generated_Source\PSoC5/PWM_H_BRIDGE.c ****     /*******************************************************************************
 723:Generated_Source\PSoC5/PWM_H_BRIDGE.c ****     * Function Name: PWM_H_BRIDGE_ReadControlRegister
 724:Generated_Source\PSoC5/PWM_H_BRIDGE.c ****     ********************************************************************************
 725:Generated_Source\PSoC5/PWM_H_BRIDGE.c ****     *
 726:Generated_Source\PSoC5/PWM_H_BRIDGE.c ****     * Summary:
 727:Generated_Source\PSoC5/PWM_H_BRIDGE.c ****     *  Returns the current state of the control register. This API is available
 728:Generated_Source\PSoC5/PWM_H_BRIDGE.c ****     *  only if the control register is not removed.
 729:Generated_Source\PSoC5/PWM_H_BRIDGE.c ****     *
 730:Generated_Source\PSoC5/PWM_H_BRIDGE.c ****     * Parameters:
 731:Generated_Source\PSoC5/PWM_H_BRIDGE.c ****     *  None
 732:Generated_Source\PSoC5/PWM_H_BRIDGE.c ****     *
 733:Generated_Source\PSoC5/PWM_H_BRIDGE.c ****     * Return:
 734:Generated_Source\PSoC5/PWM_H_BRIDGE.c ****     *  uint8 : Current control register value
 735:Generated_Source\PSoC5/PWM_H_BRIDGE.c ****     *
 736:Generated_Source\PSoC5/PWM_H_BRIDGE.c ****     *******************************************************************************/
 737:Generated_Source\PSoC5/PWM_H_BRIDGE.c ****     uint8 PWM_H_BRIDGE_ReadControlRegister(void) 
 738:Generated_Source\PSoC5/PWM_H_BRIDGE.c ****     {
 739:Generated_Source\PSoC5/PWM_H_BRIDGE.c ****         uint8 result;
 740:Generated_Source\PSoC5/PWM_H_BRIDGE.c **** 
 741:Generated_Source\PSoC5/PWM_H_BRIDGE.c ****         result = CY_GET_REG8(PWM_H_BRIDGE_CONTROL_PTR);
 742:Generated_Source\PSoC5/PWM_H_BRIDGE.c ****         return (result);
 743:Generated_Source\PSoC5/PWM_H_BRIDGE.c ****     }
 744:Generated_Source\PSoC5/PWM_H_BRIDGE.c **** 
 745:Generated_Source\PSoC5/PWM_H_BRIDGE.c **** 
 746:Generated_Source\PSoC5/PWM_H_BRIDGE.c ****     /*******************************************************************************
 747:Generated_Source\PSoC5/PWM_H_BRIDGE.c ****     * Function Name: PWM_H_BRIDGE_WriteControlRegister
 748:Generated_Source\PSoC5/PWM_H_BRIDGE.c ****     ********************************************************************************
 749:Generated_Source\PSoC5/PWM_H_BRIDGE.c ****     *
 750:Generated_Source\PSoC5/PWM_H_BRIDGE.c ****     * Summary:
 751:Generated_Source\PSoC5/PWM_H_BRIDGE.c ****     *  Sets the bit field of the control register. This API is available only if
 752:Generated_Source\PSoC5/PWM_H_BRIDGE.c ****     *  the control register is not removed.
 753:Generated_Source\PSoC5/PWM_H_BRIDGE.c ****     *
 754:Generated_Source\PSoC5/PWM_H_BRIDGE.c ****     * Parameters:
 755:Generated_Source\PSoC5/PWM_H_BRIDGE.c ****     *  uint8 control: Control register bit field, The status register bits are:
 756:Generated_Source\PSoC5/PWM_H_BRIDGE.c ****     *  [7]   : PWM Enable
 757:Generated_Source\PSoC5/PWM_H_BRIDGE.c ****     *  [6]   : Reset
 758:Generated_Source\PSoC5/PWM_H_BRIDGE.c ****     *  [5:3] : Compare Mode2
 759:Generated_Source\PSoC5/PWM_H_BRIDGE.c ****     *  [2:0] : Compare Mode2
 760:Generated_Source\PSoC5/PWM_H_BRIDGE.c ****     *
 761:Generated_Source\PSoC5/PWM_H_BRIDGE.c ****     * Return:
 762:Generated_Source\PSoC5/PWM_H_BRIDGE.c ****     *  None
 763:Generated_Source\PSoC5/PWM_H_BRIDGE.c ****     *
 764:Generated_Source\PSoC5/PWM_H_BRIDGE.c ****     *******************************************************************************/
 765:Generated_Source\PSoC5/PWM_H_BRIDGE.c ****     void PWM_H_BRIDGE_WriteControlRegister(uint8 control) 
 766:Generated_Source\PSoC5/PWM_H_BRIDGE.c ****     {
ARM GAS  C:\Users\ALEXAN~1\AppData\Local\Temp\ccADJWFR.s 			page 17


 767:Generated_Source\PSoC5/PWM_H_BRIDGE.c ****         CY_SET_REG8(PWM_H_BRIDGE_CONTROL_PTR, control);
 768:Generated_Source\PSoC5/PWM_H_BRIDGE.c ****     }
 769:Generated_Source\PSoC5/PWM_H_BRIDGE.c **** 
 770:Generated_Source\PSoC5/PWM_H_BRIDGE.c **** #endif /* (PWM_H_BRIDGE_UseControl) */
 771:Generated_Source\PSoC5/PWM_H_BRIDGE.c **** 
 772:Generated_Source\PSoC5/PWM_H_BRIDGE.c **** 
 773:Generated_Source\PSoC5/PWM_H_BRIDGE.c **** #if (!PWM_H_BRIDGE_UsingFixedFunction)
 774:Generated_Source\PSoC5/PWM_H_BRIDGE.c **** 
 775:Generated_Source\PSoC5/PWM_H_BRIDGE.c **** 
 776:Generated_Source\PSoC5/PWM_H_BRIDGE.c ****     /*******************************************************************************
 777:Generated_Source\PSoC5/PWM_H_BRIDGE.c ****     * Function Name: PWM_H_BRIDGE_ReadCapture
 778:Generated_Source\PSoC5/PWM_H_BRIDGE.c ****     ********************************************************************************
 779:Generated_Source\PSoC5/PWM_H_BRIDGE.c ****     *
 780:Generated_Source\PSoC5/PWM_H_BRIDGE.c ****     * Summary:
 781:Generated_Source\PSoC5/PWM_H_BRIDGE.c ****     *  Reads the capture value from the capture FIFO.
 782:Generated_Source\PSoC5/PWM_H_BRIDGE.c ****     *
 783:Generated_Source\PSoC5/PWM_H_BRIDGE.c ****     * Parameters:
 784:Generated_Source\PSoC5/PWM_H_BRIDGE.c ****     *  None
 785:Generated_Source\PSoC5/PWM_H_BRIDGE.c ****     *
 786:Generated_Source\PSoC5/PWM_H_BRIDGE.c ****     * Return:
 787:Generated_Source\PSoC5/PWM_H_BRIDGE.c ****     *  uint8/uint16: The current capture value
 788:Generated_Source\PSoC5/PWM_H_BRIDGE.c ****     *
 789:Generated_Source\PSoC5/PWM_H_BRIDGE.c ****     *******************************************************************************/
 790:Generated_Source\PSoC5/PWM_H_BRIDGE.c ****     uint8 PWM_H_BRIDGE_ReadCapture(void) 
 791:Generated_Source\PSoC5/PWM_H_BRIDGE.c ****     {
 792:Generated_Source\PSoC5/PWM_H_BRIDGE.c ****         return (CY_GET_REG8(PWM_H_BRIDGE_CAPTURE_LSB_PTR));
 147              		.loc 1 792 0
 148 0002 0449     		ldr	r1, .L18+4
 149              	.L14:
 150              	.LBE20:
 151              	.LBE19:
 152              	.LBB22:
 153              	.LBB18:
 713:Generated_Source\PSoC5/PWM_H_BRIDGE.c ****     }
 154              		.loc 1 713 0
 155 0004 1378     		ldrb	r3, [r2]	@ zero_extendqisi2
 156              	.LBE18:
 157              	.LBE22:
 455:Generated_Source\PSoC5/PWM_H_BRIDGE.c ****             while(0u != (PWM_H_BRIDGE_ReadStatusRegister() & PWM_H_BRIDGE_STATUS_FIFONEMPTY))
 158              		.loc 1 455 0
 159 0006 DB06     		lsls	r3, r3, #27
 160 0008 01D5     		bpl	.L17
 161              	.LBB23:
 162              	.LBB21:
 163              		.loc 1 792 0
 164 000a 0B78     		ldrb	r3, [r1]	@ zero_extendqisi2
 165 000c FAE7     		b	.L14
 166              	.L17:
 167              	.LBE21:
 168              	.LBE23:
 459:Generated_Source\PSoC5/PWM_H_BRIDGE.c **** 
 169              		.loc 1 459 0
 170 000e 7047     		bx	lr
 171              	.L19:
 172              		.align	2
 173              	.L18:
 174 0010 6A640040 		.word	1073767530
ARM GAS  C:\Users\ALEXAN~1\AppData\Local\Temp\ccADJWFR.s 			page 18


 175 0014 59640040 		.word	1073767513
 176              		.cfi_endproc
 177              	.LFE6:
 178              		.size	PWM_H_BRIDGE_ClearFIFO, .-PWM_H_BRIDGE_ClearFIFO
 179              		.section	.text.PWM_H_BRIDGE_Init,"ax",%progbits
 180              		.align	1
 181              		.global	PWM_H_BRIDGE_Init
 182              		.thumb
 183              		.thumb_func
 184              		.type	PWM_H_BRIDGE_Init, %function
 185              	PWM_H_BRIDGE_Init:
 186              	.LFB1:
  85:Generated_Source\PSoC5/PWM_H_BRIDGE.c ****     #if (PWM_H_BRIDGE_UsingFixedFunction || PWM_H_BRIDGE_UseControl)
 187              		.loc 1 85 0
 188              		.cfi_startproc
 189              		@ args = 0, pretend = 0, frame = 0
 190              		@ frame_needed = 0, uses_anonymous_args = 0
 191 0000 08B5     		push	{r3, lr}
 192              		.cfi_def_cfa_offset 8
 193              		.cfi_offset 3, -8
 194              		.cfi_offset 14, -4
 117:Generated_Source\PSoC5/PWM_H_BRIDGE.c ****                 ((uint8)(~PWM_H_BRIDGE_CTRL_CMPMODE1_MASK));
 195              		.loc 1 117 0
 196 0002 114A     		ldr	r2, .L21
 197 0004 1378     		ldrb	r3, [r2]	@ zero_extendqisi2
 198              	.LVL1:
 119:Generated_Source\PSoC5/PWM_H_BRIDGE.c ****                                    PWM_H_BRIDGE_DEFAULT_COMPARE1_MODE;
 199              		.loc 1 119 0
 200 0006 03F0C003 		and	r3, r3, #192
 201              	.LVL2:
 202 000a 43F00903 		orr	r3, r3, #9
 203 000e 1370     		strb	r3, [r2]
 126:Generated_Source\PSoC5/PWM_H_BRIDGE.c ****         #else /* (PWM_H_BRIDGE_Resolution == 16)*/
 204              		.loc 1 126 0
 205 0010 D37F     		ldrb	r3, [r2, #31]	@ zero_extendqisi2
 206 0012 43F00103 		orr	r3, r3, #1
 207 0016 D377     		strb	r3, [r2, #31]
 208              	.LVL3:
 209              	.LBB24:
 210              	.LBB25:
 406:Generated_Source\PSoC5/PWM_H_BRIDGE.c ****     }
 211              		.loc 1 406 0
 212 0018 FF23     		movs	r3, #255
 213 001a 02F8713C 		strb	r3, [r2, #-113]
 214              	.LVL4:
 215              	.LBE25:
 216              	.LBE24:
 217              	.LBB26:
 218              	.LBB27:
 487:Generated_Source\PSoC5/PWM_H_BRIDGE.c ****     #endif /* (PWM_H_BRIDGE_UsingFixedFunction) */
 219              		.loc 1 487 0
 220 001e 02F8313C 		strb	r3, [r2, #-49]
 221              	.LVL5:
 222              	.LBE27:
 223              	.LBE26:
 224              	.LBB28:
 225              	.LBB29:
ARM GAS  C:\Users\ALEXAN~1\AppData\Local\Temp\ccADJWFR.s 			page 19


 561:Generated_Source\PSoC5/PWM_H_BRIDGE.c ****         #endif /* (PWM_H_BRIDGE_UsingFixedFunction) */
 226              		.loc 1 561 0
 227 0022 0023     		movs	r3, #0
 228 0024 02F8513C 		strb	r3, [r2, #-81]
 229              	.LVL6:
 230              	.LBE29:
 231              	.LBE28:
 232              	.LBB30:
 233              	.LBB31:
 590:Generated_Source\PSoC5/PWM_H_BRIDGE.c ****         #endif /* (PWM_H_BRIDGE_UsingFixedFunction) */
 234              		.loc 1 590 0
 235 0028 02F8413C 		strb	r3, [r2, #-65]
 236              	.LVL7:
 237              	.LBE31:
 238              	.LBE30:
 239              	.LBB32:
 240              	.LBB33:
 686:Generated_Source\PSoC5/PWM_H_BRIDGE.c ****     }
 241              		.loc 1 686 0
 242 002c 1374     		strb	r3, [r2, #16]
 243              	.LVL8:
 244              	.LBE33:
 245              	.LBE32:
 167:Generated_Source\PSoC5/PWM_H_BRIDGE.c ****             /* Use the interrupt output of the status register for IRQ output */
 246              		.loc 1 167 0
 247 002e FFF7FEFF 		bl	CyEnterCriticalSection
 248              	.LVL9:
 169:Generated_Source\PSoC5/PWM_H_BRIDGE.c **** 
 249              		.loc 1 169 0
 250 0032 064A     		ldr	r2, .L21+4
 251 0034 1378     		ldrb	r3, [r2]	@ zero_extendqisi2
 252 0036 43F01003 		orr	r3, r3, #16
 253 003a 1370     		strb	r3, [r2]
 172:Generated_Source\PSoC5/PWM_H_BRIDGE.c **** 
 254              		.loc 1 172 0
 255 003c FFF7FEFF 		bl	CyExitCriticalSection
 256              	.LVL10:
 179:Generated_Source\PSoC5/PWM_H_BRIDGE.c **** 
 257              		.loc 1 179 0
 258 0040 BDE80840 		pop	{r3, lr}
 259              		.cfi_restore 14
 260              		.cfi_restore 3
 261              		.cfi_def_cfa_offset 0
 176:Generated_Source\PSoC5/PWM_H_BRIDGE.c ****         #endif /* (PWM_H_BRIDGE_UseStatus) */
 262              		.loc 1 176 0
 263 0044 FFF7FEBF 		b	PWM_H_BRIDGE_ClearFIFO
 264              	.LVL11:
 265              	.L22:
 266              		.align	2
 267              	.L21:
 268 0048 7A640040 		.word	1073767546
 269 004c 9A640040 		.word	1073767578
 270              		.cfi_endproc
 271              	.LFE1:
 272              		.size	PWM_H_BRIDGE_Init, .-PWM_H_BRIDGE_Init
 273              		.section	.text.PWM_H_BRIDGE_Start,"ax",%progbits
 274              		.align	1
ARM GAS  C:\Users\ALEXAN~1\AppData\Local\Temp\ccADJWFR.s 			page 20


 275              		.global	PWM_H_BRIDGE_Start
 276              		.thumb
 277              		.thumb_func
 278              		.type	PWM_H_BRIDGE_Start, %function
 279              	PWM_H_BRIDGE_Start:
 280              	.LFB0:
  56:Generated_Source\PSoC5/PWM_H_BRIDGE.c ****     /* If not Initialized then initialize all required hardware and software */
 281              		.loc 1 56 0
 282              		.cfi_startproc
 283              		@ args = 0, pretend = 0, frame = 0
 284              		@ frame_needed = 0, uses_anonymous_args = 0
 285 0000 10B5     		push	{r4, lr}
 286              		.cfi_def_cfa_offset 8
 287              		.cfi_offset 4, -8
 288              		.cfi_offset 14, -4
  58:Generated_Source\PSoC5/PWM_H_BRIDGE.c ****     {
 289              		.loc 1 58 0
 290 0002 054C     		ldr	r4, .L25
 291 0004 2378     		ldrb	r3, [r4]	@ zero_extendqisi2
 292 0006 1BB9     		cbnz	r3, .L24
  60:Generated_Source\PSoC5/PWM_H_BRIDGE.c ****         PWM_H_BRIDGE_initVar = 1u;
 293              		.loc 1 60 0
 294 0008 FFF7FEFF 		bl	PWM_H_BRIDGE_Init
 295              	.LVL12:
  61:Generated_Source\PSoC5/PWM_H_BRIDGE.c ****     }
 296              		.loc 1 61 0
 297 000c 0123     		movs	r3, #1
 298 000e 2370     		strb	r3, [r4]
 299              	.L24:
  65:Generated_Source\PSoC5/PWM_H_BRIDGE.c **** 
 300              		.loc 1 65 0
 301 0010 BDE81040 		pop	{r4, lr}
 302              		.cfi_restore 14
 303              		.cfi_restore 4
 304              		.cfi_def_cfa_offset 0
  63:Generated_Source\PSoC5/PWM_H_BRIDGE.c **** 
 305              		.loc 1 63 0
 306 0014 FFF7FEBF 		b	PWM_H_BRIDGE_Enable
 307              	.LVL13:
 308              	.L26:
 309              		.align	2
 310              	.L25:
 311 0018 00000000 		.word	.LANCHOR0
 312              		.cfi_endproc
 313              	.LFE0:
 314              		.size	PWM_H_BRIDGE_Start, .-PWM_H_BRIDGE_Start
 315              		.section	.text.PWM_H_BRIDGE_WritePeriod,"ax",%progbits
 316              		.align	1
 317              		.global	PWM_H_BRIDGE_WritePeriod
 318              		.thumb
 319              		.thumb_func
 320              		.type	PWM_H_BRIDGE_WritePeriod, %function
 321              	PWM_H_BRIDGE_WritePeriod:
 322              	.LFB7:
 483:Generated_Source\PSoC5/PWM_H_BRIDGE.c ****     #if(PWM_H_BRIDGE_UsingFixedFunction)
 323              		.loc 1 483 0
 324              		.cfi_startproc
ARM GAS  C:\Users\ALEXAN~1\AppData\Local\Temp\ccADJWFR.s 			page 21


 325              		@ args = 0, pretend = 0, frame = 0
 326              		@ frame_needed = 0, uses_anonymous_args = 0
 327              		@ link register save eliminated.
 328              	.LVL14:
 487:Generated_Source\PSoC5/PWM_H_BRIDGE.c ****     #endif /* (PWM_H_BRIDGE_UsingFixedFunction) */
 329              		.loc 1 487 0
 330 0000 014B     		ldr	r3, .L28
 331 0002 1870     		strb	r0, [r3]
 332 0004 7047     		bx	lr
 333              	.L29:
 334 0006 00BF     		.align	2
 335              	.L28:
 336 0008 49640040 		.word	1073767497
 337              		.cfi_endproc
 338              	.LFE7:
 339              		.size	PWM_H_BRIDGE_WritePeriod, .-PWM_H_BRIDGE_WritePeriod
 340              		.section	.text.PWM_H_BRIDGE_WriteCompare1,"ax",%progbits
 341              		.align	1
 342              		.global	PWM_H_BRIDGE_WriteCompare1
 343              		.thumb
 344              		.thumb_func
 345              		.type	PWM_H_BRIDGE_WriteCompare1, %function
 346              	PWM_H_BRIDGE_WriteCompare1:
 347              	.LFB8:
 557:Generated_Source\PSoC5/PWM_H_BRIDGE.c ****         #if(PWM_H_BRIDGE_UsingFixedFunction)
 348              		.loc 1 557 0
 349              		.cfi_startproc
 350              		@ args = 0, pretend = 0, frame = 0
 351              		@ frame_needed = 0, uses_anonymous_args = 0
 352              		@ link register save eliminated.
 353              	.LVL15:
 561:Generated_Source\PSoC5/PWM_H_BRIDGE.c ****         #endif /* (PWM_H_BRIDGE_UsingFixedFunction) */
 354              		.loc 1 561 0
 355 0000 014B     		ldr	r3, .L31
 356 0002 1870     		strb	r0, [r3]
 357 0004 7047     		bx	lr
 358              	.L32:
 359 0006 00BF     		.align	2
 360              	.L31:
 361 0008 29640040 		.word	1073767465
 362              		.cfi_endproc
 363              	.LFE8:
 364              		.size	PWM_H_BRIDGE_WriteCompare1, .-PWM_H_BRIDGE_WriteCompare1
 365              		.section	.text.PWM_H_BRIDGE_WriteCompare2,"ax",%progbits
 366              		.align	1
 367              		.global	PWM_H_BRIDGE_WriteCompare2
 368              		.thumb
 369              		.thumb_func
 370              		.type	PWM_H_BRIDGE_WriteCompare2, %function
 371              	PWM_H_BRIDGE_WriteCompare2:
 372              	.LFB9:
 586:Generated_Source\PSoC5/PWM_H_BRIDGE.c ****         #if(PWM_H_BRIDGE_UsingFixedFunction)
 373              		.loc 1 586 0
 374              		.cfi_startproc
 375              		@ args = 0, pretend = 0, frame = 0
 376              		@ frame_needed = 0, uses_anonymous_args = 0
 377              		@ link register save eliminated.
ARM GAS  C:\Users\ALEXAN~1\AppData\Local\Temp\ccADJWFR.s 			page 22


 378              	.LVL16:
 590:Generated_Source\PSoC5/PWM_H_BRIDGE.c ****         #endif /* (PWM_H_BRIDGE_UsingFixedFunction) */
 379              		.loc 1 590 0
 380 0000 014B     		ldr	r3, .L34
 381 0002 1870     		strb	r0, [r3]
 382 0004 7047     		bx	lr
 383              	.L35:
 384 0006 00BF     		.align	2
 385              	.L34:
 386 0008 39640040 		.word	1073767481
 387              		.cfi_endproc
 388              	.LFE9:
 389              		.size	PWM_H_BRIDGE_WriteCompare2, .-PWM_H_BRIDGE_WriteCompare2
 390              		.section	.text.PWM_H_BRIDGE_SetInterruptMode,"ax",%progbits
 391              		.align	1
 392              		.global	PWM_H_BRIDGE_SetInterruptMode
 393              		.thumb
 394              		.thumb_func
 395              		.type	PWM_H_BRIDGE_SetInterruptMode, %function
 396              	PWM_H_BRIDGE_SetInterruptMode:
 397              	.LFB10:
 685:Generated_Source\PSoC5/PWM_H_BRIDGE.c ****         CY_SET_REG8(PWM_H_BRIDGE_STATUS_MASK_PTR, interruptMode);
 398              		.loc 1 685 0
 399              		.cfi_startproc
 400              		@ args = 0, pretend = 0, frame = 0
 401              		@ frame_needed = 0, uses_anonymous_args = 0
 402              		@ link register save eliminated.
 403              	.LVL17:
 686:Generated_Source\PSoC5/PWM_H_BRIDGE.c ****     }
 404              		.loc 1 686 0
 405 0000 014B     		ldr	r3, .L37
 406 0002 1870     		strb	r0, [r3]
 407 0004 7047     		bx	lr
 408              	.L38:
 409 0006 00BF     		.align	2
 410              	.L37:
 411 0008 8A640040 		.word	1073767562
 412              		.cfi_endproc
 413              	.LFE10:
 414              		.size	PWM_H_BRIDGE_SetInterruptMode, .-PWM_H_BRIDGE_SetInterruptMode
 415              		.section	.text.PWM_H_BRIDGE_ReadStatusRegister,"ax",%progbits
 416              		.align	1
 417              		.global	PWM_H_BRIDGE_ReadStatusRegister
 418              		.thumb
 419              		.thumb_func
 420              		.type	PWM_H_BRIDGE_ReadStatusRegister, %function
 421              	PWM_H_BRIDGE_ReadStatusRegister:
 422              	.LFB11:
 712:Generated_Source\PSoC5/PWM_H_BRIDGE.c ****         return (CY_GET_REG8(PWM_H_BRIDGE_STATUS_PTR));
 423              		.loc 1 712 0
 424              		.cfi_startproc
 425              		@ args = 0, pretend = 0, frame = 0
 426              		@ frame_needed = 0, uses_anonymous_args = 0
 427              		@ link register save eliminated.
 713:Generated_Source\PSoC5/PWM_H_BRIDGE.c ****     }
 428              		.loc 1 713 0
 429 0000 014B     		ldr	r3, .L40
ARM GAS  C:\Users\ALEXAN~1\AppData\Local\Temp\ccADJWFR.s 			page 23


 430 0002 1878     		ldrb	r0, [r3]	@ zero_extendqisi2
 714:Generated_Source\PSoC5/PWM_H_BRIDGE.c **** 
 431              		.loc 1 714 0
 432 0004 7047     		bx	lr
 433              	.L41:
 434 0006 00BF     		.align	2
 435              	.L40:
 436 0008 6A640040 		.word	1073767530
 437              		.cfi_endproc
 438              	.LFE11:
 439              		.size	PWM_H_BRIDGE_ReadStatusRegister, .-PWM_H_BRIDGE_ReadStatusRegister
 440              		.section	.text.PWM_H_BRIDGE_ReadControlRegister,"ax",%progbits
 441              		.align	1
 442              		.global	PWM_H_BRIDGE_ReadControlRegister
 443              		.thumb
 444              		.thumb_func
 445              		.type	PWM_H_BRIDGE_ReadControlRegister, %function
 446              	PWM_H_BRIDGE_ReadControlRegister:
 447              	.LFB12:
 738:Generated_Source\PSoC5/PWM_H_BRIDGE.c ****         uint8 result;
 448              		.loc 1 738 0
 449              		.cfi_startproc
 450              		@ args = 0, pretend = 0, frame = 0
 451              		@ frame_needed = 0, uses_anonymous_args = 0
 452              		@ link register save eliminated.
 741:Generated_Source\PSoC5/PWM_H_BRIDGE.c ****         return (result);
 453              		.loc 1 741 0
 454 0000 014B     		ldr	r3, .L43
 455 0002 1878     		ldrb	r0, [r3]	@ zero_extendqisi2
 456              	.LVL18:
 743:Generated_Source\PSoC5/PWM_H_BRIDGE.c **** 
 457              		.loc 1 743 0
 458 0004 7047     		bx	lr
 459              	.L44:
 460 0006 00BF     		.align	2
 461              	.L43:
 462 0008 7A640040 		.word	1073767546
 463              		.cfi_endproc
 464              	.LFE12:
 465              		.size	PWM_H_BRIDGE_ReadControlRegister, .-PWM_H_BRIDGE_ReadControlRegister
 466              		.section	.text.PWM_H_BRIDGE_WriteControlRegister,"ax",%progbits
 467              		.align	1
 468              		.global	PWM_H_BRIDGE_WriteControlRegister
 469              		.thumb
 470              		.thumb_func
 471              		.type	PWM_H_BRIDGE_WriteControlRegister, %function
 472              	PWM_H_BRIDGE_WriteControlRegister:
 473              	.LFB13:
 766:Generated_Source\PSoC5/PWM_H_BRIDGE.c ****         CY_SET_REG8(PWM_H_BRIDGE_CONTROL_PTR, control);
 474              		.loc 1 766 0
 475              		.cfi_startproc
 476              		@ args = 0, pretend = 0, frame = 0
 477              		@ frame_needed = 0, uses_anonymous_args = 0
 478              		@ link register save eliminated.
 479              	.LVL19:
 767:Generated_Source\PSoC5/PWM_H_BRIDGE.c ****     }
 480              		.loc 1 767 0
ARM GAS  C:\Users\ALEXAN~1\AppData\Local\Temp\ccADJWFR.s 			page 24


 481 0000 014B     		ldr	r3, .L46
 482 0002 1870     		strb	r0, [r3]
 483 0004 7047     		bx	lr
 484              	.L47:
 485 0006 00BF     		.align	2
 486              	.L46:
 487 0008 7A640040 		.word	1073767546
 488              		.cfi_endproc
 489              	.LFE13:
 490              		.size	PWM_H_BRIDGE_WriteControlRegister, .-PWM_H_BRIDGE_WriteControlRegister
 491              		.section	.text.PWM_H_BRIDGE_ReadCapture,"ax",%progbits
 492              		.align	1
 493              		.global	PWM_H_BRIDGE_ReadCapture
 494              		.thumb
 495              		.thumb_func
 496              		.type	PWM_H_BRIDGE_ReadCapture, %function
 497              	PWM_H_BRIDGE_ReadCapture:
 498              	.LFB14:
 791:Generated_Source\PSoC5/PWM_H_BRIDGE.c ****         return (CY_GET_REG8(PWM_H_BRIDGE_CAPTURE_LSB_PTR));
 499              		.loc 1 791 0
 500              		.cfi_startproc
 501              		@ args = 0, pretend = 0, frame = 0
 502              		@ frame_needed = 0, uses_anonymous_args = 0
 503              		@ link register save eliminated.
 504              		.loc 1 792 0
 505 0000 014B     		ldr	r3, .L49
 506 0002 1878     		ldrb	r0, [r3]	@ zero_extendqisi2
 793:Generated_Source\PSoC5/PWM_H_BRIDGE.c ****     }
 507              		.loc 1 793 0
 508 0004 7047     		bx	lr
 509              	.L50:
 510 0006 00BF     		.align	2
 511              	.L49:
 512 0008 59640040 		.word	1073767513
 513              		.cfi_endproc
 514              	.LFE14:
 515              		.size	PWM_H_BRIDGE_ReadCapture, .-PWM_H_BRIDGE_ReadCapture
 516              		.section	.text.PWM_H_BRIDGE_ReadCompare1,"ax",%progbits
 517              		.align	1
 518              		.global	PWM_H_BRIDGE_ReadCompare1
 519              		.thumb
 520              		.thumb_func
 521              		.type	PWM_H_BRIDGE_ReadCompare1, %function
 522              	PWM_H_BRIDGE_ReadCompare1:
 523              	.LFB15:
 794:Generated_Source\PSoC5/PWM_H_BRIDGE.c **** 
 795:Generated_Source\PSoC5/PWM_H_BRIDGE.c **** #endif /* (!PWM_H_BRIDGE_UsingFixedFunction) */
 796:Generated_Source\PSoC5/PWM_H_BRIDGE.c **** 
 797:Generated_Source\PSoC5/PWM_H_BRIDGE.c **** 
 798:Generated_Source\PSoC5/PWM_H_BRIDGE.c **** #if (PWM_H_BRIDGE_UseOneCompareMode)
 799:Generated_Source\PSoC5/PWM_H_BRIDGE.c **** 
 800:Generated_Source\PSoC5/PWM_H_BRIDGE.c **** 
 801:Generated_Source\PSoC5/PWM_H_BRIDGE.c ****     /*******************************************************************************
 802:Generated_Source\PSoC5/PWM_H_BRIDGE.c ****     * Function Name: PWM_H_BRIDGE_ReadCompare
 803:Generated_Source\PSoC5/PWM_H_BRIDGE.c ****     ********************************************************************************
 804:Generated_Source\PSoC5/PWM_H_BRIDGE.c ****     *
 805:Generated_Source\PSoC5/PWM_H_BRIDGE.c ****     * Summary:
ARM GAS  C:\Users\ALEXAN~1\AppData\Local\Temp\ccADJWFR.s 			page 25


 806:Generated_Source\PSoC5/PWM_H_BRIDGE.c ****     *  Reads the compare value for the compare output when the PWM Mode parameter is
 807:Generated_Source\PSoC5/PWM_H_BRIDGE.c ****     *  set to Dither mode, Center Aligned mode, or One Output mode.
 808:Generated_Source\PSoC5/PWM_H_BRIDGE.c ****     *
 809:Generated_Source\PSoC5/PWM_H_BRIDGE.c ****     * Parameters:
 810:Generated_Source\PSoC5/PWM_H_BRIDGE.c ****     *  None
 811:Generated_Source\PSoC5/PWM_H_BRIDGE.c ****     *
 812:Generated_Source\PSoC5/PWM_H_BRIDGE.c ****     * Return:
 813:Generated_Source\PSoC5/PWM_H_BRIDGE.c ****     *  uint8/uint16: Current compare value
 814:Generated_Source\PSoC5/PWM_H_BRIDGE.c ****     *
 815:Generated_Source\PSoC5/PWM_H_BRIDGE.c ****     *******************************************************************************/
 816:Generated_Source\PSoC5/PWM_H_BRIDGE.c ****     uint8 PWM_H_BRIDGE_ReadCompare(void) 
 817:Generated_Source\PSoC5/PWM_H_BRIDGE.c ****     {
 818:Generated_Source\PSoC5/PWM_H_BRIDGE.c ****         #if(PWM_H_BRIDGE_UsingFixedFunction)
 819:Generated_Source\PSoC5/PWM_H_BRIDGE.c ****             return ((uint8)CY_GET_REG16(PWM_H_BRIDGE_COMPARE1_LSB_PTR));
 820:Generated_Source\PSoC5/PWM_H_BRIDGE.c ****         #else
 821:Generated_Source\PSoC5/PWM_H_BRIDGE.c ****             return (CY_GET_REG8(PWM_H_BRIDGE_COMPARE1_LSB_PTR));
 822:Generated_Source\PSoC5/PWM_H_BRIDGE.c ****         #endif /* (PWM_H_BRIDGE_UsingFixedFunction) */
 823:Generated_Source\PSoC5/PWM_H_BRIDGE.c ****     }
 824:Generated_Source\PSoC5/PWM_H_BRIDGE.c **** 
 825:Generated_Source\PSoC5/PWM_H_BRIDGE.c **** #else
 826:Generated_Source\PSoC5/PWM_H_BRIDGE.c **** 
 827:Generated_Source\PSoC5/PWM_H_BRIDGE.c **** 
 828:Generated_Source\PSoC5/PWM_H_BRIDGE.c ****     /*******************************************************************************
 829:Generated_Source\PSoC5/PWM_H_BRIDGE.c ****     * Function Name: PWM_H_BRIDGE_ReadCompare1
 830:Generated_Source\PSoC5/PWM_H_BRIDGE.c ****     ********************************************************************************
 831:Generated_Source\PSoC5/PWM_H_BRIDGE.c ****     *
 832:Generated_Source\PSoC5/PWM_H_BRIDGE.c ****     * Summary:
 833:Generated_Source\PSoC5/PWM_H_BRIDGE.c ****     *  Reads the compare value for the compare1 output.
 834:Generated_Source\PSoC5/PWM_H_BRIDGE.c ****     *
 835:Generated_Source\PSoC5/PWM_H_BRIDGE.c ****     * Parameters:
 836:Generated_Source\PSoC5/PWM_H_BRIDGE.c ****     *  None
 837:Generated_Source\PSoC5/PWM_H_BRIDGE.c ****     *
 838:Generated_Source\PSoC5/PWM_H_BRIDGE.c ****     * Return:
 839:Generated_Source\PSoC5/PWM_H_BRIDGE.c ****     *  uint8/uint16: Current compare value.
 840:Generated_Source\PSoC5/PWM_H_BRIDGE.c ****     *
 841:Generated_Source\PSoC5/PWM_H_BRIDGE.c ****     *******************************************************************************/
 842:Generated_Source\PSoC5/PWM_H_BRIDGE.c ****     uint8 PWM_H_BRIDGE_ReadCompare1(void) 
 843:Generated_Source\PSoC5/PWM_H_BRIDGE.c ****     {
 524              		.loc 1 843 0
 525              		.cfi_startproc
 526              		@ args = 0, pretend = 0, frame = 0
 527              		@ frame_needed = 0, uses_anonymous_args = 0
 528              		@ link register save eliminated.
 844:Generated_Source\PSoC5/PWM_H_BRIDGE.c ****         return (CY_GET_REG8(PWM_H_BRIDGE_COMPARE1_LSB_PTR));
 529              		.loc 1 844 0
 530 0000 014B     		ldr	r3, .L52
 531 0002 1878     		ldrb	r0, [r3]	@ zero_extendqisi2
 845:Generated_Source\PSoC5/PWM_H_BRIDGE.c ****     }
 532              		.loc 1 845 0
 533 0004 7047     		bx	lr
 534              	.L53:
 535 0006 00BF     		.align	2
 536              	.L52:
 537 0008 29640040 		.word	1073767465
 538              		.cfi_endproc
 539              	.LFE15:
 540              		.size	PWM_H_BRIDGE_ReadCompare1, .-PWM_H_BRIDGE_ReadCompare1
ARM GAS  C:\Users\ALEXAN~1\AppData\Local\Temp\ccADJWFR.s 			page 26


 541              		.section	.text.PWM_H_BRIDGE_ReadCompare2,"ax",%progbits
 542              		.align	1
 543              		.global	PWM_H_BRIDGE_ReadCompare2
 544              		.thumb
 545              		.thumb_func
 546              		.type	PWM_H_BRIDGE_ReadCompare2, %function
 547              	PWM_H_BRIDGE_ReadCompare2:
 548              	.LFB16:
 846:Generated_Source\PSoC5/PWM_H_BRIDGE.c **** 
 847:Generated_Source\PSoC5/PWM_H_BRIDGE.c **** 
 848:Generated_Source\PSoC5/PWM_H_BRIDGE.c ****     /*******************************************************************************
 849:Generated_Source\PSoC5/PWM_H_BRIDGE.c ****     * Function Name: PWM_H_BRIDGE_ReadCompare2
 850:Generated_Source\PSoC5/PWM_H_BRIDGE.c ****     ********************************************************************************
 851:Generated_Source\PSoC5/PWM_H_BRIDGE.c ****     *
 852:Generated_Source\PSoC5/PWM_H_BRIDGE.c ****     * Summary:
 853:Generated_Source\PSoC5/PWM_H_BRIDGE.c ****     *  Reads the compare value for the compare2 output.
 854:Generated_Source\PSoC5/PWM_H_BRIDGE.c ****     *
 855:Generated_Source\PSoC5/PWM_H_BRIDGE.c ****     * Parameters:
 856:Generated_Source\PSoC5/PWM_H_BRIDGE.c ****     *  None
 857:Generated_Source\PSoC5/PWM_H_BRIDGE.c ****     *
 858:Generated_Source\PSoC5/PWM_H_BRIDGE.c ****     * Return:
 859:Generated_Source\PSoC5/PWM_H_BRIDGE.c ****     *  uint8/uint16: Current compare value.
 860:Generated_Source\PSoC5/PWM_H_BRIDGE.c ****     *
 861:Generated_Source\PSoC5/PWM_H_BRIDGE.c ****     *******************************************************************************/
 862:Generated_Source\PSoC5/PWM_H_BRIDGE.c ****     uint8 PWM_H_BRIDGE_ReadCompare2(void) 
 863:Generated_Source\PSoC5/PWM_H_BRIDGE.c ****     {
 549              		.loc 1 863 0
 550              		.cfi_startproc
 551              		@ args = 0, pretend = 0, frame = 0
 552              		@ frame_needed = 0, uses_anonymous_args = 0
 553              		@ link register save eliminated.
 864:Generated_Source\PSoC5/PWM_H_BRIDGE.c ****         return (CY_GET_REG8(PWM_H_BRIDGE_COMPARE2_LSB_PTR));
 554              		.loc 1 864 0
 555 0000 014B     		ldr	r3, .L55
 556 0002 1878     		ldrb	r0, [r3]	@ zero_extendqisi2
 865:Generated_Source\PSoC5/PWM_H_BRIDGE.c ****     }
 557              		.loc 1 865 0
 558 0004 7047     		bx	lr
 559              	.L56:
 560 0006 00BF     		.align	2
 561              	.L55:
 562 0008 39640040 		.word	1073767481
 563              		.cfi_endproc
 564              	.LFE16:
 565              		.size	PWM_H_BRIDGE_ReadCompare2, .-PWM_H_BRIDGE_ReadCompare2
 566              		.section	.text.PWM_H_BRIDGE_ReadPeriod,"ax",%progbits
 567              		.align	1
 568              		.global	PWM_H_BRIDGE_ReadPeriod
 569              		.thumb
 570              		.thumb_func
 571              		.type	PWM_H_BRIDGE_ReadPeriod, %function
 572              	PWM_H_BRIDGE_ReadPeriod:
 573              	.LFB17:
 866:Generated_Source\PSoC5/PWM_H_BRIDGE.c **** 
 867:Generated_Source\PSoC5/PWM_H_BRIDGE.c **** #endif /* (PWM_H_BRIDGE_UseOneCompareMode) */
 868:Generated_Source\PSoC5/PWM_H_BRIDGE.c **** 
 869:Generated_Source\PSoC5/PWM_H_BRIDGE.c **** 
ARM GAS  C:\Users\ALEXAN~1\AppData\Local\Temp\ccADJWFR.s 			page 27


 870:Generated_Source\PSoC5/PWM_H_BRIDGE.c **** /*******************************************************************************
 871:Generated_Source\PSoC5/PWM_H_BRIDGE.c **** * Function Name: PWM_H_BRIDGE_ReadPeriod
 872:Generated_Source\PSoC5/PWM_H_BRIDGE.c **** ********************************************************************************
 873:Generated_Source\PSoC5/PWM_H_BRIDGE.c **** *
 874:Generated_Source\PSoC5/PWM_H_BRIDGE.c **** * Summary:
 875:Generated_Source\PSoC5/PWM_H_BRIDGE.c **** *  Reads the period value used by the PWM hardware.
 876:Generated_Source\PSoC5/PWM_H_BRIDGE.c **** *
 877:Generated_Source\PSoC5/PWM_H_BRIDGE.c **** * Parameters:
 878:Generated_Source\PSoC5/PWM_H_BRIDGE.c **** *  None
 879:Generated_Source\PSoC5/PWM_H_BRIDGE.c **** *
 880:Generated_Source\PSoC5/PWM_H_BRIDGE.c **** * Return:
 881:Generated_Source\PSoC5/PWM_H_BRIDGE.c **** *  uint8/16: Period value
 882:Generated_Source\PSoC5/PWM_H_BRIDGE.c **** *
 883:Generated_Source\PSoC5/PWM_H_BRIDGE.c **** *******************************************************************************/
 884:Generated_Source\PSoC5/PWM_H_BRIDGE.c **** uint8 PWM_H_BRIDGE_ReadPeriod(void) 
 885:Generated_Source\PSoC5/PWM_H_BRIDGE.c **** {
 574              		.loc 1 885 0
 575              		.cfi_startproc
 576              		@ args = 0, pretend = 0, frame = 0
 577              		@ frame_needed = 0, uses_anonymous_args = 0
 578              		@ link register save eliminated.
 886:Generated_Source\PSoC5/PWM_H_BRIDGE.c ****     #if(PWM_H_BRIDGE_UsingFixedFunction)
 887:Generated_Source\PSoC5/PWM_H_BRIDGE.c ****         return ((uint8)CY_GET_REG16(PWM_H_BRIDGE_PERIOD_LSB_PTR));
 888:Generated_Source\PSoC5/PWM_H_BRIDGE.c ****     #else
 889:Generated_Source\PSoC5/PWM_H_BRIDGE.c ****         return (CY_GET_REG8(PWM_H_BRIDGE_PERIOD_LSB_PTR));
 579              		.loc 1 889 0
 580 0000 014B     		ldr	r3, .L58
 581 0002 1878     		ldrb	r0, [r3]	@ zero_extendqisi2
 890:Generated_Source\PSoC5/PWM_H_BRIDGE.c ****     #endif /* (PWM_H_BRIDGE_UsingFixedFunction) */
 891:Generated_Source\PSoC5/PWM_H_BRIDGE.c **** }
 582              		.loc 1 891 0
 583 0004 7047     		bx	lr
 584              	.L59:
 585 0006 00BF     		.align	2
 586              	.L58:
 587 0008 49640040 		.word	1073767497
 588              		.cfi_endproc
 589              	.LFE17:
 590              		.size	PWM_H_BRIDGE_ReadPeriod, .-PWM_H_BRIDGE_ReadPeriod
 591              		.global	PWM_H_BRIDGE_initVar
 592              		.bss
 593              		.set	.LANCHOR0,. + 0
 594              		.type	PWM_H_BRIDGE_initVar, %object
 595              		.size	PWM_H_BRIDGE_initVar, 1
 596              	PWM_H_BRIDGE_initVar:
 597 0000 00       		.space	1
 598              		.text
 599              	.Letext0:
 600              		.file 2 "Generated_Source\\PSoC5\\cytypes.h"
 601              		.file 3 "Generated_Source\\PSoC5\\CyLib.h"