ARM GAS  C:\Users\ALEXAN~1\AppData\Local\Temp\ccmsaZAL.s 			page 1


   1              		.syntax unified
   2              		.cpu cortex-m3
   3              		.fpu softvfp
   4              		.eabi_attribute 20, 1
   5              		.eabi_attribute 21, 1
   6              		.eabi_attribute 23, 3
   7              		.eabi_attribute 24, 1
   8              		.eabi_attribute 25, 1
   9              		.eabi_attribute 26, 1
  10              		.eabi_attribute 30, 4
  11              		.eabi_attribute 34, 1
  12              		.eabi_attribute 18, 4
  13              		.thumb
  14              		.syntax unified
  15              		.file	"SPI.c"
  16              		.text
  17              	.Ltext0:
  18              		.cfi_sections	.debug_frame
  19              		.section	.text.SPI_Enable,"ax",%progbits
  20              		.align	1
  21              		.global	SPI_Enable
  22              		.thumb
  23              		.thumb_func
  24              		.type	SPI_Enable, %function
  25              	SPI_Enable:
  26              	.LFB1:
  27              		.file 1 "Generated_Source\\PSoC5\\SPI.c"
   1:Generated_Source\PSoC5/SPI.c **** /*******************************************************************************
   2:Generated_Source\PSoC5/SPI.c **** * File Name: SPI.c
   3:Generated_Source\PSoC5/SPI.c **** * Version 2.50
   4:Generated_Source\PSoC5/SPI.c **** *
   5:Generated_Source\PSoC5/SPI.c **** * Description:
   6:Generated_Source\PSoC5/SPI.c **** *  This file provides all API functionality of the SPI Master component.
   7:Generated_Source\PSoC5/SPI.c **** *
   8:Generated_Source\PSoC5/SPI.c **** * Note:
   9:Generated_Source\PSoC5/SPI.c **** *  None.
  10:Generated_Source\PSoC5/SPI.c **** *
  11:Generated_Source\PSoC5/SPI.c **** ********************************************************************************
  12:Generated_Source\PSoC5/SPI.c **** * Copyright 2008-2015, Cypress Semiconductor Corporation.  All rights reserved.
  13:Generated_Source\PSoC5/SPI.c **** * You may use this file only in accordance with the license, terms, conditions,
  14:Generated_Source\PSoC5/SPI.c **** * disclaimers, and limitations in the end user license agreement accompanying
  15:Generated_Source\PSoC5/SPI.c **** * the software package with which this file was provided.
  16:Generated_Source\PSoC5/SPI.c **** *******************************************************************************/
  17:Generated_Source\PSoC5/SPI.c **** 
  18:Generated_Source\PSoC5/SPI.c **** #include "SPI_PVT.h"
  19:Generated_Source\PSoC5/SPI.c **** 
  20:Generated_Source\PSoC5/SPI.c **** #if(SPI_TX_SOFTWARE_BUF_ENABLED)
  21:Generated_Source\PSoC5/SPI.c ****     volatile uint8 SPI_txBuffer[SPI_TX_BUFFER_SIZE];
  22:Generated_Source\PSoC5/SPI.c ****     volatile uint8 SPI_txBufferFull;
  23:Generated_Source\PSoC5/SPI.c ****     volatile uint8 SPI_txBufferRead;
  24:Generated_Source\PSoC5/SPI.c ****     volatile uint8 SPI_txBufferWrite;
  25:Generated_Source\PSoC5/SPI.c **** #endif /* (SPI_TX_SOFTWARE_BUF_ENABLED) */
  26:Generated_Source\PSoC5/SPI.c **** 
  27:Generated_Source\PSoC5/SPI.c **** #if(SPI_RX_SOFTWARE_BUF_ENABLED)
  28:Generated_Source\PSoC5/SPI.c ****     volatile uint8 SPI_rxBuffer[SPI_RX_BUFFER_SIZE];
  29:Generated_Source\PSoC5/SPI.c ****     volatile uint8 SPI_rxBufferFull;
  30:Generated_Source\PSoC5/SPI.c ****     volatile uint8 SPI_rxBufferRead;
ARM GAS  C:\Users\ALEXAN~1\AppData\Local\Temp\ccmsaZAL.s 			page 2


  31:Generated_Source\PSoC5/SPI.c ****     volatile uint8 SPI_rxBufferWrite;
  32:Generated_Source\PSoC5/SPI.c **** #endif /* (SPI_RX_SOFTWARE_BUF_ENABLED) */
  33:Generated_Source\PSoC5/SPI.c **** 
  34:Generated_Source\PSoC5/SPI.c **** uint8 SPI_initVar = 0u;
  35:Generated_Source\PSoC5/SPI.c **** 
  36:Generated_Source\PSoC5/SPI.c **** volatile uint8 SPI_swStatusTx;
  37:Generated_Source\PSoC5/SPI.c **** volatile uint8 SPI_swStatusRx;
  38:Generated_Source\PSoC5/SPI.c **** 
  39:Generated_Source\PSoC5/SPI.c **** 
  40:Generated_Source\PSoC5/SPI.c **** /*******************************************************************************
  41:Generated_Source\PSoC5/SPI.c **** * Function Name: SPI_Init
  42:Generated_Source\PSoC5/SPI.c **** ********************************************************************************
  43:Generated_Source\PSoC5/SPI.c **** *
  44:Generated_Source\PSoC5/SPI.c **** * Summary:
  45:Generated_Source\PSoC5/SPI.c **** *  Inits/Restores default SPIM configuration provided with customizer.
  46:Generated_Source\PSoC5/SPI.c **** *
  47:Generated_Source\PSoC5/SPI.c **** * Parameters:
  48:Generated_Source\PSoC5/SPI.c **** *  None.
  49:Generated_Source\PSoC5/SPI.c **** *
  50:Generated_Source\PSoC5/SPI.c **** * Return:
  51:Generated_Source\PSoC5/SPI.c **** *  None.
  52:Generated_Source\PSoC5/SPI.c **** *
  53:Generated_Source\PSoC5/SPI.c **** * Side Effects:
  54:Generated_Source\PSoC5/SPI.c **** *  When this function is called it initializes all of the necessary parameters
  55:Generated_Source\PSoC5/SPI.c **** *  for execution. i.e. setting the initial interrupt mask, configuring the
  56:Generated_Source\PSoC5/SPI.c **** *  interrupt service routine, configuring the bit-counter parameters and
  57:Generated_Source\PSoC5/SPI.c **** *  clearing the FIFO and Status Register.
  58:Generated_Source\PSoC5/SPI.c **** *
  59:Generated_Source\PSoC5/SPI.c **** * Reentrant:
  60:Generated_Source\PSoC5/SPI.c **** *  No.
  61:Generated_Source\PSoC5/SPI.c **** *
  62:Generated_Source\PSoC5/SPI.c **** *******************************************************************************/
  63:Generated_Source\PSoC5/SPI.c **** void SPI_Init(void) 
  64:Generated_Source\PSoC5/SPI.c **** {
  65:Generated_Source\PSoC5/SPI.c ****     /* Initialize the Bit counter */
  66:Generated_Source\PSoC5/SPI.c ****     SPI_COUNTER_PERIOD_REG = SPI_BITCTR_INIT;
  67:Generated_Source\PSoC5/SPI.c **** 
  68:Generated_Source\PSoC5/SPI.c ****     /* Init TX ISR  */
  69:Generated_Source\PSoC5/SPI.c ****     #if(0u != SPI_INTERNAL_TX_INT_ENABLED)
  70:Generated_Source\PSoC5/SPI.c ****         CyIntDisable         (SPI_TX_ISR_NUMBER);
  71:Generated_Source\PSoC5/SPI.c ****         CyIntSetPriority     (SPI_TX_ISR_NUMBER,  SPI_TX_ISR_PRIORITY);
  72:Generated_Source\PSoC5/SPI.c ****         (void) CyIntSetVector(SPI_TX_ISR_NUMBER, &SPI_TX_ISR);
  73:Generated_Source\PSoC5/SPI.c ****     #endif /* (0u != SPI_INTERNAL_TX_INT_ENABLED) */
  74:Generated_Source\PSoC5/SPI.c **** 
  75:Generated_Source\PSoC5/SPI.c ****     /* Init RX ISR  */
  76:Generated_Source\PSoC5/SPI.c ****     #if(0u != SPI_INTERNAL_RX_INT_ENABLED)
  77:Generated_Source\PSoC5/SPI.c ****         CyIntDisable         (SPI_RX_ISR_NUMBER);
  78:Generated_Source\PSoC5/SPI.c ****         CyIntSetPriority     (SPI_RX_ISR_NUMBER,  SPI_RX_ISR_PRIORITY);
  79:Generated_Source\PSoC5/SPI.c ****         (void) CyIntSetVector(SPI_RX_ISR_NUMBER, &SPI_RX_ISR);
  80:Generated_Source\PSoC5/SPI.c ****     #endif /* (0u != SPI_INTERNAL_RX_INT_ENABLED) */
  81:Generated_Source\PSoC5/SPI.c **** 
  82:Generated_Source\PSoC5/SPI.c ****     /* Clear any stray data from the RX and TX FIFO */
  83:Generated_Source\PSoC5/SPI.c ****     SPI_ClearFIFO();
  84:Generated_Source\PSoC5/SPI.c **** 
  85:Generated_Source\PSoC5/SPI.c ****     #if(SPI_RX_SOFTWARE_BUF_ENABLED)
  86:Generated_Source\PSoC5/SPI.c ****         SPI_rxBufferFull  = 0u;
  87:Generated_Source\PSoC5/SPI.c ****         SPI_rxBufferRead  = 0u;
ARM GAS  C:\Users\ALEXAN~1\AppData\Local\Temp\ccmsaZAL.s 			page 3


  88:Generated_Source\PSoC5/SPI.c ****         SPI_rxBufferWrite = 0u;
  89:Generated_Source\PSoC5/SPI.c ****     #endif /* (SPI_RX_SOFTWARE_BUF_ENABLED) */
  90:Generated_Source\PSoC5/SPI.c **** 
  91:Generated_Source\PSoC5/SPI.c ****     #if(SPI_TX_SOFTWARE_BUF_ENABLED)
  92:Generated_Source\PSoC5/SPI.c ****         SPI_txBufferFull  = 0u;
  93:Generated_Source\PSoC5/SPI.c ****         SPI_txBufferRead  = 0u;
  94:Generated_Source\PSoC5/SPI.c ****         SPI_txBufferWrite = 0u;
  95:Generated_Source\PSoC5/SPI.c ****     #endif /* (SPI_TX_SOFTWARE_BUF_ENABLED) */
  96:Generated_Source\PSoC5/SPI.c **** 
  97:Generated_Source\PSoC5/SPI.c ****     (void) SPI_ReadTxStatus(); /* Clear Tx status and swStatusTx */
  98:Generated_Source\PSoC5/SPI.c ****     (void) SPI_ReadRxStatus(); /* Clear Rx status and swStatusRx */
  99:Generated_Source\PSoC5/SPI.c **** 
 100:Generated_Source\PSoC5/SPI.c ****     /* Configure TX and RX interrupt mask */
 101:Generated_Source\PSoC5/SPI.c ****     SPI_TX_STATUS_MASK_REG = SPI_TX_INIT_INTERRUPTS_MASK;
 102:Generated_Source\PSoC5/SPI.c ****     SPI_RX_STATUS_MASK_REG = SPI_RX_INIT_INTERRUPTS_MASK;
 103:Generated_Source\PSoC5/SPI.c **** }
 104:Generated_Source\PSoC5/SPI.c **** 
 105:Generated_Source\PSoC5/SPI.c **** 
 106:Generated_Source\PSoC5/SPI.c **** /*******************************************************************************
 107:Generated_Source\PSoC5/SPI.c **** * Function Name: SPI_Enable
 108:Generated_Source\PSoC5/SPI.c **** ********************************************************************************
 109:Generated_Source\PSoC5/SPI.c **** *
 110:Generated_Source\PSoC5/SPI.c **** * Summary:
 111:Generated_Source\PSoC5/SPI.c **** *  Enable SPIM component.
 112:Generated_Source\PSoC5/SPI.c **** *
 113:Generated_Source\PSoC5/SPI.c **** * Parameters:
 114:Generated_Source\PSoC5/SPI.c **** *  None.
 115:Generated_Source\PSoC5/SPI.c **** *
 116:Generated_Source\PSoC5/SPI.c **** * Return:
 117:Generated_Source\PSoC5/SPI.c **** *  None.
 118:Generated_Source\PSoC5/SPI.c **** *
 119:Generated_Source\PSoC5/SPI.c **** *******************************************************************************/
 120:Generated_Source\PSoC5/SPI.c **** void SPI_Enable(void) 
 121:Generated_Source\PSoC5/SPI.c **** {
  28              		.loc 1 121 0
  29              		.cfi_startproc
  30              		@ args = 0, pretend = 0, frame = 0
  31              		@ frame_needed = 0, uses_anonymous_args = 0
  32 0000 08B5     		push	{r3, lr}
  33              		.cfi_def_cfa_offset 8
  34              		.cfi_offset 3, -8
  35              		.cfi_offset 14, -4
 122:Generated_Source\PSoC5/SPI.c ****     uint8 enableInterrupts;
 123:Generated_Source\PSoC5/SPI.c **** 
 124:Generated_Source\PSoC5/SPI.c ****     enableInterrupts = CyEnterCriticalSection();
  36              		.loc 1 124 0
  37 0002 FFF7FEFF 		bl	CyEnterCriticalSection
  38              	.LVL0:
 125:Generated_Source\PSoC5/SPI.c ****     SPI_COUNTER_CONTROL_REG |= SPI_CNTR_ENABLE;
  39              		.loc 1 125 0
  40 0006 0A4A     		ldr	r2, .L2
  41 0008 1378     		ldrb	r3, [r2]	@ zero_extendqisi2
  42 000a 43F02003 		orr	r3, r3, #32
  43 000e 1370     		strb	r3, [r2]
 126:Generated_Source\PSoC5/SPI.c ****     SPI_TX_STATUS_ACTL_REG  |= SPI_INT_ENABLE;
  44              		.loc 1 126 0
  45 0010 92F80431 		ldrb	r3, [r2, #260]	@ zero_extendqisi2
ARM GAS  C:\Users\ALEXAN~1\AppData\Local\Temp\ccmsaZAL.s 			page 4


  46 0014 43F01003 		orr	r3, r3, #16
  47 0018 82F80431 		strb	r3, [r2, #260]
 127:Generated_Source\PSoC5/SPI.c ****     SPI_RX_STATUS_ACTL_REG  |= SPI_INT_ENABLE;
  48              		.loc 1 127 0
  49 001c D379     		ldrb	r3, [r2, #7]	@ zero_extendqisi2
  50 001e 43F01003 		orr	r3, r3, #16
  51 0022 D371     		strb	r3, [r2, #7]
 128:Generated_Source\PSoC5/SPI.c ****     CyExitCriticalSection(enableInterrupts);
  52              		.loc 1 128 0
  53 0024 FFF7FEFF 		bl	CyExitCriticalSection
  54              	.LVL1:
 129:Generated_Source\PSoC5/SPI.c **** 
 130:Generated_Source\PSoC5/SPI.c ****     #if(0u != SPI_INTERNAL_CLOCK)
 131:Generated_Source\PSoC5/SPI.c ****         SPI_IntClock_Enable();
 132:Generated_Source\PSoC5/SPI.c ****     #endif /* (0u != SPI_INTERNAL_CLOCK) */
 133:Generated_Source\PSoC5/SPI.c **** 
 134:Generated_Source\PSoC5/SPI.c ****     SPI_EnableTxInt();
 135:Generated_Source\PSoC5/SPI.c ****     SPI_EnableRxInt();
 136:Generated_Source\PSoC5/SPI.c **** }
  55              		.loc 1 136 0
  56 0028 BDE80840 		pop	{r3, lr}
  57              		.cfi_restore 14
  58              		.cfi_restore 3
  59              		.cfi_def_cfa_offset 0
 131:Generated_Source\PSoC5/SPI.c ****     #endif /* (0u != SPI_INTERNAL_CLOCK) */
  60              		.loc 1 131 0
  61 002c FFF7FEBF 		b	SPI_IntClock_Start
  62              	.LVL2:
  63              	.L3:
  64              		.align	2
  65              	.L2:
  66 0030 94640040 		.word	1073767572
  67              		.cfi_endproc
  68              	.LFE1:
  69              		.size	SPI_Enable, .-SPI_Enable
  70              		.section	.text.SPI_Stop,"ax",%progbits
  71              		.align	1
  72              		.global	SPI_Stop
  73              		.thumb
  74              		.thumb_func
  75              		.type	SPI_Stop, %function
  76              	SPI_Stop:
  77              	.LFB3:
 137:Generated_Source\PSoC5/SPI.c **** 
 138:Generated_Source\PSoC5/SPI.c **** 
 139:Generated_Source\PSoC5/SPI.c **** /*******************************************************************************
 140:Generated_Source\PSoC5/SPI.c **** * Function Name: SPI_Start
 141:Generated_Source\PSoC5/SPI.c **** ********************************************************************************
 142:Generated_Source\PSoC5/SPI.c **** *
 143:Generated_Source\PSoC5/SPI.c **** * Summary:
 144:Generated_Source\PSoC5/SPI.c **** *  Initialize and Enable the SPI Master component.
 145:Generated_Source\PSoC5/SPI.c **** *
 146:Generated_Source\PSoC5/SPI.c **** * Parameters:
 147:Generated_Source\PSoC5/SPI.c **** *  None.
 148:Generated_Source\PSoC5/SPI.c **** *
 149:Generated_Source\PSoC5/SPI.c **** * Return:
 150:Generated_Source\PSoC5/SPI.c **** *  None.
ARM GAS  C:\Users\ALEXAN~1\AppData\Local\Temp\ccmsaZAL.s 			page 5


 151:Generated_Source\PSoC5/SPI.c **** *
 152:Generated_Source\PSoC5/SPI.c **** * Global variables:
 153:Generated_Source\PSoC5/SPI.c **** *  SPI_initVar - used to check initial configuration, modified on
 154:Generated_Source\PSoC5/SPI.c **** *  first function call.
 155:Generated_Source\PSoC5/SPI.c **** *
 156:Generated_Source\PSoC5/SPI.c **** * Theory:
 157:Generated_Source\PSoC5/SPI.c **** *  Enable the clock input to enable operation.
 158:Generated_Source\PSoC5/SPI.c **** *
 159:Generated_Source\PSoC5/SPI.c **** * Reentrant:
 160:Generated_Source\PSoC5/SPI.c **** *  No.
 161:Generated_Source\PSoC5/SPI.c **** *
 162:Generated_Source\PSoC5/SPI.c **** *******************************************************************************/
 163:Generated_Source\PSoC5/SPI.c **** void SPI_Start(void) 
 164:Generated_Source\PSoC5/SPI.c **** {
 165:Generated_Source\PSoC5/SPI.c ****     if(0u == SPI_initVar)
 166:Generated_Source\PSoC5/SPI.c ****     {
 167:Generated_Source\PSoC5/SPI.c ****         SPI_Init();
 168:Generated_Source\PSoC5/SPI.c ****         SPI_initVar = 1u;
 169:Generated_Source\PSoC5/SPI.c ****     }
 170:Generated_Source\PSoC5/SPI.c **** 
 171:Generated_Source\PSoC5/SPI.c ****     SPI_Enable();
 172:Generated_Source\PSoC5/SPI.c **** }
 173:Generated_Source\PSoC5/SPI.c **** 
 174:Generated_Source\PSoC5/SPI.c **** 
 175:Generated_Source\PSoC5/SPI.c **** /*******************************************************************************
 176:Generated_Source\PSoC5/SPI.c **** * Function Name: SPI_Stop
 177:Generated_Source\PSoC5/SPI.c **** ********************************************************************************
 178:Generated_Source\PSoC5/SPI.c **** *
 179:Generated_Source\PSoC5/SPI.c **** * Summary:
 180:Generated_Source\PSoC5/SPI.c **** *  Disable the SPI Master component.
 181:Generated_Source\PSoC5/SPI.c **** *
 182:Generated_Source\PSoC5/SPI.c **** * Parameters:
 183:Generated_Source\PSoC5/SPI.c **** *  None.
 184:Generated_Source\PSoC5/SPI.c **** *
 185:Generated_Source\PSoC5/SPI.c **** * Return:
 186:Generated_Source\PSoC5/SPI.c **** *  None.
 187:Generated_Source\PSoC5/SPI.c **** *
 188:Generated_Source\PSoC5/SPI.c **** * Theory:
 189:Generated_Source\PSoC5/SPI.c **** *  Disable the clock input to enable operation.
 190:Generated_Source\PSoC5/SPI.c **** *
 191:Generated_Source\PSoC5/SPI.c **** *******************************************************************************/
 192:Generated_Source\PSoC5/SPI.c **** void SPI_Stop(void) 
 193:Generated_Source\PSoC5/SPI.c **** {
  78              		.loc 1 193 0
  79              		.cfi_startproc
  80              		@ args = 0, pretend = 0, frame = 0
  81              		@ frame_needed = 0, uses_anonymous_args = 0
  82 0000 08B5     		push	{r3, lr}
  83              		.cfi_def_cfa_offset 8
  84              		.cfi_offset 3, -8
  85              		.cfi_offset 14, -4
 194:Generated_Source\PSoC5/SPI.c ****     uint8 enableInterrupts;
 195:Generated_Source\PSoC5/SPI.c **** 
 196:Generated_Source\PSoC5/SPI.c ****     enableInterrupts = CyEnterCriticalSection();
  86              		.loc 1 196 0
  87 0002 FFF7FEFF 		bl	CyEnterCriticalSection
  88              	.LVL3:
ARM GAS  C:\Users\ALEXAN~1\AppData\Local\Temp\ccmsaZAL.s 			page 6


 197:Generated_Source\PSoC5/SPI.c ****     SPI_TX_STATUS_ACTL_REG &= ((uint8) ~SPI_INT_ENABLE);
  89              		.loc 1 197 0
  90 0006 084A     		ldr	r2, .L5
  91 0008 1378     		ldrb	r3, [r2]	@ zero_extendqisi2
  92 000a 03F0EF03 		and	r3, r3, #239
  93 000e 1370     		strb	r3, [r2]
 198:Generated_Source\PSoC5/SPI.c ****     SPI_RX_STATUS_ACTL_REG &= ((uint8) ~SPI_INT_ENABLE);
  94              		.loc 1 198 0
  95 0010 12F8FD3C 		ldrb	r3, [r2, #-253]	@ zero_extendqisi2
  96 0014 03F0EF03 		and	r3, r3, #239
  97 0018 02F8FD3C 		strb	r3, [r2, #-253]
 199:Generated_Source\PSoC5/SPI.c ****     CyExitCriticalSection(enableInterrupts);
  98              		.loc 1 199 0
  99 001c FFF7FEFF 		bl	CyExitCriticalSection
 100              	.LVL4:
 200:Generated_Source\PSoC5/SPI.c **** 
 201:Generated_Source\PSoC5/SPI.c ****     #if(0u != SPI_INTERNAL_CLOCK)
 202:Generated_Source\PSoC5/SPI.c ****         SPI_IntClock_Disable();
 203:Generated_Source\PSoC5/SPI.c ****     #endif /* (0u != SPI_INTERNAL_CLOCK) */
 204:Generated_Source\PSoC5/SPI.c **** 
 205:Generated_Source\PSoC5/SPI.c ****     SPI_DisableTxInt();
 206:Generated_Source\PSoC5/SPI.c ****     SPI_DisableRxInt();
 207:Generated_Source\PSoC5/SPI.c **** }
 101              		.loc 1 207 0
 102 0020 BDE80840 		pop	{r3, lr}
 103              		.cfi_restore 14
 104              		.cfi_restore 3
 105              		.cfi_def_cfa_offset 0
 202:Generated_Source\PSoC5/SPI.c ****     #endif /* (0u != SPI_INTERNAL_CLOCK) */
 106              		.loc 1 202 0
 107 0024 FFF7FEBF 		b	SPI_IntClock_Stop
 108              	.LVL5:
 109              	.L6:
 110              		.align	2
 111              	.L5:
 112 0028 98650040 		.word	1073767832
 113              		.cfi_endproc
 114              	.LFE3:
 115              		.size	SPI_Stop, .-SPI_Stop
 116              		.section	.text.SPI_EnableTxInt,"ax",%progbits
 117              		.align	1
 118              		.global	SPI_EnableTxInt
 119              		.thumb
 120              		.thumb_func
 121              		.type	SPI_EnableTxInt, %function
 122              	SPI_EnableTxInt:
 123              	.LFB33:
 124              		.cfi_startproc
 125              		@ args = 0, pretend = 0, frame = 0
 126              		@ frame_needed = 0, uses_anonymous_args = 0
 127              		@ link register save eliminated.
 128 0000 7047     		bx	lr
 129              		.cfi_endproc
 130              	.LFE33:
 131              		.size	SPI_EnableTxInt, .-SPI_EnableTxInt
 132              		.section	.text.SPI_EnableRxInt,"ax",%progbits
 133              		.align	1
ARM GAS  C:\Users\ALEXAN~1\AppData\Local\Temp\ccmsaZAL.s 			page 7


 134              		.global	SPI_EnableRxInt
 135              		.thumb
 136              		.thumb_func
 137              		.type	SPI_EnableRxInt, %function
 138              	SPI_EnableRxInt:
 139              	.LFB31:
 140              		.cfi_startproc
 141              		@ args = 0, pretend = 0, frame = 0
 142              		@ frame_needed = 0, uses_anonymous_args = 0
 143              		@ link register save eliminated.
 144 0000 7047     		bx	lr
 145              		.cfi_endproc
 146              	.LFE31:
 147              		.size	SPI_EnableRxInt, .-SPI_EnableRxInt
 148              		.section	.text.SPI_DisableTxInt,"ax",%progbits
 149              		.align	1
 150              		.global	SPI_DisableTxInt
 151              		.thumb
 152              		.thumb_func
 153              		.type	SPI_DisableTxInt, %function
 154              	SPI_DisableTxInt:
 155              	.LFB29:
 156              		.cfi_startproc
 157              		@ args = 0, pretend = 0, frame = 0
 158              		@ frame_needed = 0, uses_anonymous_args = 0
 159              		@ link register save eliminated.
 160 0000 7047     		bx	lr
 161              		.cfi_endproc
 162              	.LFE29:
 163              		.size	SPI_DisableTxInt, .-SPI_DisableTxInt
 164              		.section	.text.SPI_DisableRxInt,"ax",%progbits
 165              		.align	1
 166              		.global	SPI_DisableRxInt
 167              		.thumb
 168              		.thumb_func
 169              		.type	SPI_DisableRxInt, %function
 170              	SPI_DisableRxInt:
 171              	.LFB27:
 172              		.cfi_startproc
 173              		@ args = 0, pretend = 0, frame = 0
 174              		@ frame_needed = 0, uses_anonymous_args = 0
 175              		@ link register save eliminated.
 176 0000 7047     		bx	lr
 177              		.cfi_endproc
 178              	.LFE27:
 179              		.size	SPI_DisableRxInt, .-SPI_DisableRxInt
 180              		.section	.text.SPI_SetTxInterruptMode,"ax",%progbits
 181              		.align	1
 182              		.global	SPI_SetTxInterruptMode
 183              		.thumb
 184              		.thumb_func
 185              		.type	SPI_SetTxInterruptMode, %function
 186              	SPI_SetTxInterruptMode:
 187              	.LFB8:
 208:Generated_Source\PSoC5/SPI.c **** 
 209:Generated_Source\PSoC5/SPI.c **** 
 210:Generated_Source\PSoC5/SPI.c **** /*******************************************************************************
ARM GAS  C:\Users\ALEXAN~1\AppData\Local\Temp\ccmsaZAL.s 			page 8


 211:Generated_Source\PSoC5/SPI.c **** * Function Name: SPI_EnableTxInt
 212:Generated_Source\PSoC5/SPI.c **** ********************************************************************************
 213:Generated_Source\PSoC5/SPI.c **** *
 214:Generated_Source\PSoC5/SPI.c **** * Summary:
 215:Generated_Source\PSoC5/SPI.c **** *  Enable internal Tx interrupt generation.
 216:Generated_Source\PSoC5/SPI.c **** *
 217:Generated_Source\PSoC5/SPI.c **** * Parameters:
 218:Generated_Source\PSoC5/SPI.c **** *  None.
 219:Generated_Source\PSoC5/SPI.c **** *
 220:Generated_Source\PSoC5/SPI.c **** * Return:
 221:Generated_Source\PSoC5/SPI.c **** *  None.
 222:Generated_Source\PSoC5/SPI.c **** *
 223:Generated_Source\PSoC5/SPI.c **** * Theory:
 224:Generated_Source\PSoC5/SPI.c **** *  Enable the internal Tx interrupt output -or- the interrupt component itself.
 225:Generated_Source\PSoC5/SPI.c **** *
 226:Generated_Source\PSoC5/SPI.c **** *******************************************************************************/
 227:Generated_Source\PSoC5/SPI.c **** void SPI_EnableTxInt(void) 
 228:Generated_Source\PSoC5/SPI.c **** {
 229:Generated_Source\PSoC5/SPI.c ****     #if(0u != SPI_INTERNAL_TX_INT_ENABLED)
 230:Generated_Source\PSoC5/SPI.c ****         CyIntEnable(SPI_TX_ISR_NUMBER);
 231:Generated_Source\PSoC5/SPI.c ****     #endif /* (0u != SPI_INTERNAL_TX_INT_ENABLED) */
 232:Generated_Source\PSoC5/SPI.c **** }
 233:Generated_Source\PSoC5/SPI.c **** 
 234:Generated_Source\PSoC5/SPI.c **** 
 235:Generated_Source\PSoC5/SPI.c **** /*******************************************************************************
 236:Generated_Source\PSoC5/SPI.c **** * Function Name: SPI_EnableRxInt
 237:Generated_Source\PSoC5/SPI.c **** ********************************************************************************
 238:Generated_Source\PSoC5/SPI.c **** *
 239:Generated_Source\PSoC5/SPI.c **** * Summary:
 240:Generated_Source\PSoC5/SPI.c **** *  Enable internal Rx interrupt generation.
 241:Generated_Source\PSoC5/SPI.c **** *
 242:Generated_Source\PSoC5/SPI.c **** * Parameters:
 243:Generated_Source\PSoC5/SPI.c **** *  None.
 244:Generated_Source\PSoC5/SPI.c **** *
 245:Generated_Source\PSoC5/SPI.c **** * Return:
 246:Generated_Source\PSoC5/SPI.c **** *  None.
 247:Generated_Source\PSoC5/SPI.c **** *
 248:Generated_Source\PSoC5/SPI.c **** * Theory:
 249:Generated_Source\PSoC5/SPI.c **** *  Enable the internal Rx interrupt output -or- the interrupt component itself.
 250:Generated_Source\PSoC5/SPI.c **** *
 251:Generated_Source\PSoC5/SPI.c **** *******************************************************************************/
 252:Generated_Source\PSoC5/SPI.c **** void SPI_EnableRxInt(void) 
 253:Generated_Source\PSoC5/SPI.c **** {
 254:Generated_Source\PSoC5/SPI.c ****     #if(0u != SPI_INTERNAL_RX_INT_ENABLED)
 255:Generated_Source\PSoC5/SPI.c ****         CyIntEnable(SPI_RX_ISR_NUMBER);
 256:Generated_Source\PSoC5/SPI.c ****     #endif /* (0u != SPI_INTERNAL_RX_INT_ENABLED) */
 257:Generated_Source\PSoC5/SPI.c **** }
 258:Generated_Source\PSoC5/SPI.c **** 
 259:Generated_Source\PSoC5/SPI.c **** 
 260:Generated_Source\PSoC5/SPI.c **** /*******************************************************************************
 261:Generated_Source\PSoC5/SPI.c **** * Function Name: SPI_DisableTxInt
 262:Generated_Source\PSoC5/SPI.c **** ********************************************************************************
 263:Generated_Source\PSoC5/SPI.c **** *
 264:Generated_Source\PSoC5/SPI.c **** * Summary:
 265:Generated_Source\PSoC5/SPI.c **** *  Disable internal Tx interrupt generation.
 266:Generated_Source\PSoC5/SPI.c **** *
 267:Generated_Source\PSoC5/SPI.c **** * Parameters:
ARM GAS  C:\Users\ALEXAN~1\AppData\Local\Temp\ccmsaZAL.s 			page 9


 268:Generated_Source\PSoC5/SPI.c **** *  None.
 269:Generated_Source\PSoC5/SPI.c **** *
 270:Generated_Source\PSoC5/SPI.c **** * Return:
 271:Generated_Source\PSoC5/SPI.c **** *  None.
 272:Generated_Source\PSoC5/SPI.c **** *
 273:Generated_Source\PSoC5/SPI.c **** * Theory:
 274:Generated_Source\PSoC5/SPI.c **** *  Disable the internal Tx interrupt output -or- the interrupt component itself.
 275:Generated_Source\PSoC5/SPI.c **** *
 276:Generated_Source\PSoC5/SPI.c **** *******************************************************************************/
 277:Generated_Source\PSoC5/SPI.c **** void SPI_DisableTxInt(void) 
 278:Generated_Source\PSoC5/SPI.c **** {
 279:Generated_Source\PSoC5/SPI.c ****     #if(0u != SPI_INTERNAL_TX_INT_ENABLED)
 280:Generated_Source\PSoC5/SPI.c ****         CyIntDisable(SPI_TX_ISR_NUMBER);
 281:Generated_Source\PSoC5/SPI.c ****     #endif /* (0u != SPI_INTERNAL_TX_INT_ENABLED) */
 282:Generated_Source\PSoC5/SPI.c **** }
 283:Generated_Source\PSoC5/SPI.c **** 
 284:Generated_Source\PSoC5/SPI.c **** 
 285:Generated_Source\PSoC5/SPI.c **** /*******************************************************************************
 286:Generated_Source\PSoC5/SPI.c **** * Function Name: SPI_DisableRxInt
 287:Generated_Source\PSoC5/SPI.c **** ********************************************************************************
 288:Generated_Source\PSoC5/SPI.c **** *
 289:Generated_Source\PSoC5/SPI.c **** * Summary:
 290:Generated_Source\PSoC5/SPI.c **** *  Disable internal Rx interrupt generation.
 291:Generated_Source\PSoC5/SPI.c **** *
 292:Generated_Source\PSoC5/SPI.c **** * Parameters:
 293:Generated_Source\PSoC5/SPI.c **** *  None.
 294:Generated_Source\PSoC5/SPI.c **** *
 295:Generated_Source\PSoC5/SPI.c **** * Return:
 296:Generated_Source\PSoC5/SPI.c **** *  None.
 297:Generated_Source\PSoC5/SPI.c **** *
 298:Generated_Source\PSoC5/SPI.c **** * Theory:
 299:Generated_Source\PSoC5/SPI.c **** *  Disable the internal Rx interrupt output -or- the interrupt component itself.
 300:Generated_Source\PSoC5/SPI.c **** *
 301:Generated_Source\PSoC5/SPI.c **** *******************************************************************************/
 302:Generated_Source\PSoC5/SPI.c **** void SPI_DisableRxInt(void) 
 303:Generated_Source\PSoC5/SPI.c **** {
 304:Generated_Source\PSoC5/SPI.c ****     #if(0u != SPI_INTERNAL_RX_INT_ENABLED)
 305:Generated_Source\PSoC5/SPI.c ****         CyIntDisable(SPI_RX_ISR_NUMBER);
 306:Generated_Source\PSoC5/SPI.c ****     #endif /* (0u != SPI_INTERNAL_RX_INT_ENABLED) */
 307:Generated_Source\PSoC5/SPI.c **** }
 308:Generated_Source\PSoC5/SPI.c **** 
 309:Generated_Source\PSoC5/SPI.c **** 
 310:Generated_Source\PSoC5/SPI.c **** /*******************************************************************************
 311:Generated_Source\PSoC5/SPI.c **** * Function Name: SPI_SetTxInterruptMode
 312:Generated_Source\PSoC5/SPI.c **** ********************************************************************************
 313:Generated_Source\PSoC5/SPI.c **** *
 314:Generated_Source\PSoC5/SPI.c **** * Summary:
 315:Generated_Source\PSoC5/SPI.c **** *  Configure which status bits trigger an interrupt event.
 316:Generated_Source\PSoC5/SPI.c **** *
 317:Generated_Source\PSoC5/SPI.c **** * Parameters:
 318:Generated_Source\PSoC5/SPI.c **** *  intSrc: An or'd combination of the desired status bit masks (defined in the
 319:Generated_Source\PSoC5/SPI.c **** *  header file).
 320:Generated_Source\PSoC5/SPI.c **** *
 321:Generated_Source\PSoC5/SPI.c **** * Return:
 322:Generated_Source\PSoC5/SPI.c **** *  None.
 323:Generated_Source\PSoC5/SPI.c **** *
 324:Generated_Source\PSoC5/SPI.c **** * Theory:
ARM GAS  C:\Users\ALEXAN~1\AppData\Local\Temp\ccmsaZAL.s 			page 10


 325:Generated_Source\PSoC5/SPI.c **** *  Enables the output of specific status bits to the interrupt controller.
 326:Generated_Source\PSoC5/SPI.c **** *
 327:Generated_Source\PSoC5/SPI.c **** *******************************************************************************/
 328:Generated_Source\PSoC5/SPI.c **** void SPI_SetTxInterruptMode(uint8 intSrc) 
 329:Generated_Source\PSoC5/SPI.c **** {
 188              		.loc 1 329 0
 189              		.cfi_startproc
 190              		@ args = 0, pretend = 0, frame = 0
 191              		@ frame_needed = 0, uses_anonymous_args = 0
 192              		@ link register save eliminated.
 193              	.LVL6:
 330:Generated_Source\PSoC5/SPI.c ****     SPI_TX_STATUS_MASK_REG = intSrc;
 194              		.loc 1 330 0
 195 0000 014B     		ldr	r3, .L12
 196 0002 1870     		strb	r0, [r3]
 197 0004 7047     		bx	lr
 198              	.L13:
 199 0006 00BF     		.align	2
 200              	.L12:
 201 0008 88650040 		.word	1073767816
 202              		.cfi_endproc
 203              	.LFE8:
 204              		.size	SPI_SetTxInterruptMode, .-SPI_SetTxInterruptMode
 205              		.section	.text.SPI_SetRxInterruptMode,"ax",%progbits
 206              		.align	1
 207              		.global	SPI_SetRxInterruptMode
 208              		.thumb
 209              		.thumb_func
 210              		.type	SPI_SetRxInterruptMode, %function
 211              	SPI_SetRxInterruptMode:
 212              	.LFB9:
 331:Generated_Source\PSoC5/SPI.c **** }
 332:Generated_Source\PSoC5/SPI.c **** 
 333:Generated_Source\PSoC5/SPI.c **** 
 334:Generated_Source\PSoC5/SPI.c **** /*******************************************************************************
 335:Generated_Source\PSoC5/SPI.c **** * Function Name: SPI_SetRxInterruptMode
 336:Generated_Source\PSoC5/SPI.c **** ********************************************************************************
 337:Generated_Source\PSoC5/SPI.c **** *
 338:Generated_Source\PSoC5/SPI.c **** * Summary:
 339:Generated_Source\PSoC5/SPI.c **** *  Configure which status bits trigger an interrupt event.
 340:Generated_Source\PSoC5/SPI.c **** *
 341:Generated_Source\PSoC5/SPI.c **** * Parameters:
 342:Generated_Source\PSoC5/SPI.c **** *  intSrc: An or'd combination of the desired status bit masks (defined in the
 343:Generated_Source\PSoC5/SPI.c **** *  header file).
 344:Generated_Source\PSoC5/SPI.c **** *
 345:Generated_Source\PSoC5/SPI.c **** * Return:
 346:Generated_Source\PSoC5/SPI.c **** *  None.
 347:Generated_Source\PSoC5/SPI.c **** *
 348:Generated_Source\PSoC5/SPI.c **** * Theory:
 349:Generated_Source\PSoC5/SPI.c **** *  Enables the output of specific status bits to the interrupt controller.
 350:Generated_Source\PSoC5/SPI.c **** *
 351:Generated_Source\PSoC5/SPI.c **** *******************************************************************************/
 352:Generated_Source\PSoC5/SPI.c **** void SPI_SetRxInterruptMode(uint8 intSrc) 
 353:Generated_Source\PSoC5/SPI.c **** {
 213              		.loc 1 353 0
 214              		.cfi_startproc
 215              		@ args = 0, pretend = 0, frame = 0
ARM GAS  C:\Users\ALEXAN~1\AppData\Local\Temp\ccmsaZAL.s 			page 11


 216              		@ frame_needed = 0, uses_anonymous_args = 0
 217              		@ link register save eliminated.
 218              	.LVL7:
 354:Generated_Source\PSoC5/SPI.c ****     SPI_RX_STATUS_MASK_REG  = intSrc;
 219              		.loc 1 354 0
 220 0000 014B     		ldr	r3, .L15
 221 0002 1870     		strb	r0, [r3]
 222 0004 7047     		bx	lr
 223              	.L16:
 224 0006 00BF     		.align	2
 225              	.L15:
 226 0008 8B640040 		.word	1073767563
 227              		.cfi_endproc
 228              	.LFE9:
 229              		.size	SPI_SetRxInterruptMode, .-SPI_SetRxInterruptMode
 230              		.section	.text.SPI_ReadTxStatus,"ax",%progbits
 231              		.align	1
 232              		.global	SPI_ReadTxStatus
 233              		.thumb
 234              		.thumb_func
 235              		.type	SPI_ReadTxStatus, %function
 236              	SPI_ReadTxStatus:
 237              	.LFB10:
 355:Generated_Source\PSoC5/SPI.c **** }
 356:Generated_Source\PSoC5/SPI.c **** 
 357:Generated_Source\PSoC5/SPI.c **** 
 358:Generated_Source\PSoC5/SPI.c **** /*******************************************************************************
 359:Generated_Source\PSoC5/SPI.c **** * Function Name: SPI_ReadTxStatus
 360:Generated_Source\PSoC5/SPI.c **** ********************************************************************************
 361:Generated_Source\PSoC5/SPI.c **** *
 362:Generated_Source\PSoC5/SPI.c **** * Summary:
 363:Generated_Source\PSoC5/SPI.c **** *  Read the Tx status register for the component.
 364:Generated_Source\PSoC5/SPI.c **** *
 365:Generated_Source\PSoC5/SPI.c **** * Parameters:
 366:Generated_Source\PSoC5/SPI.c **** *  None.
 367:Generated_Source\PSoC5/SPI.c **** *
 368:Generated_Source\PSoC5/SPI.c **** * Return:
 369:Generated_Source\PSoC5/SPI.c **** *  Contents of the Tx status register.
 370:Generated_Source\PSoC5/SPI.c **** *
 371:Generated_Source\PSoC5/SPI.c **** * Global variables:
 372:Generated_Source\PSoC5/SPI.c **** *  SPI_swStatusTx - used to store in software status register,
 373:Generated_Source\PSoC5/SPI.c **** *  modified every function call - resets to zero.
 374:Generated_Source\PSoC5/SPI.c **** *
 375:Generated_Source\PSoC5/SPI.c **** * Theory:
 376:Generated_Source\PSoC5/SPI.c **** *  Allows the user and the API to read the Tx status register for error
 377:Generated_Source\PSoC5/SPI.c **** *  detection and flow control.
 378:Generated_Source\PSoC5/SPI.c **** *
 379:Generated_Source\PSoC5/SPI.c **** * Side Effects:
 380:Generated_Source\PSoC5/SPI.c **** *  Clear Tx status register of the component.
 381:Generated_Source\PSoC5/SPI.c **** *
 382:Generated_Source\PSoC5/SPI.c **** * Reentrant:
 383:Generated_Source\PSoC5/SPI.c **** *  No.
 384:Generated_Source\PSoC5/SPI.c **** *
 385:Generated_Source\PSoC5/SPI.c **** *******************************************************************************/
 386:Generated_Source\PSoC5/SPI.c **** uint8 SPI_ReadTxStatus(void) 
 387:Generated_Source\PSoC5/SPI.c **** {
 238              		.loc 1 387 0
ARM GAS  C:\Users\ALEXAN~1\AppData\Local\Temp\ccmsaZAL.s 			page 12


 239              		.cfi_startproc
 240              		@ args = 0, pretend = 0, frame = 0
 241              		@ frame_needed = 0, uses_anonymous_args = 0
 242              		@ link register save eliminated.
 388:Generated_Source\PSoC5/SPI.c ****     uint8 tmpStatus;
 389:Generated_Source\PSoC5/SPI.c **** 
 390:Generated_Source\PSoC5/SPI.c ****     #if(SPI_TX_SOFTWARE_BUF_ENABLED)
 391:Generated_Source\PSoC5/SPI.c ****         /* Disable TX interrupt to protect global veriables */
 392:Generated_Source\PSoC5/SPI.c ****         SPI_DisableTxInt();
 393:Generated_Source\PSoC5/SPI.c **** 
 394:Generated_Source\PSoC5/SPI.c ****         tmpStatus = SPI_GET_STATUS_TX(SPI_swStatusTx);
 395:Generated_Source\PSoC5/SPI.c ****         SPI_swStatusTx = 0u;
 396:Generated_Source\PSoC5/SPI.c **** 
 397:Generated_Source\PSoC5/SPI.c ****         SPI_EnableTxInt();
 398:Generated_Source\PSoC5/SPI.c **** 
 399:Generated_Source\PSoC5/SPI.c ****     #else
 400:Generated_Source\PSoC5/SPI.c **** 
 401:Generated_Source\PSoC5/SPI.c ****         tmpStatus = SPI_TX_STATUS_REG;
 243              		.loc 1 401 0
 244 0000 014B     		ldr	r3, .L18
 245 0002 1878     		ldrb	r0, [r3]	@ zero_extendqisi2
 246              	.LVL8:
 402:Generated_Source\PSoC5/SPI.c **** 
 403:Generated_Source\PSoC5/SPI.c ****     #endif /* (SPI_TX_SOFTWARE_BUF_ENABLED) */
 404:Generated_Source\PSoC5/SPI.c **** 
 405:Generated_Source\PSoC5/SPI.c ****     return(tmpStatus);
 406:Generated_Source\PSoC5/SPI.c **** }
 247              		.loc 1 406 0
 248 0004 7047     		bx	lr
 249              	.L19:
 250 0006 00BF     		.align	2
 251              	.L18:
 252 0008 68650040 		.word	1073767784
 253              		.cfi_endproc
 254              	.LFE10:
 255              		.size	SPI_ReadTxStatus, .-SPI_ReadTxStatus
 256              		.section	.text.SPI_ReadRxStatus,"ax",%progbits
 257              		.align	1
 258              		.global	SPI_ReadRxStatus
 259              		.thumb
 260              		.thumb_func
 261              		.type	SPI_ReadRxStatus, %function
 262              	SPI_ReadRxStatus:
 263              	.LFB11:
 407:Generated_Source\PSoC5/SPI.c **** 
 408:Generated_Source\PSoC5/SPI.c **** 
 409:Generated_Source\PSoC5/SPI.c **** /*******************************************************************************
 410:Generated_Source\PSoC5/SPI.c **** * Function Name: SPI_ReadRxStatus
 411:Generated_Source\PSoC5/SPI.c **** ********************************************************************************
 412:Generated_Source\PSoC5/SPI.c **** *
 413:Generated_Source\PSoC5/SPI.c **** * Summary:
 414:Generated_Source\PSoC5/SPI.c **** *  Read the Rx status register for the component.
 415:Generated_Source\PSoC5/SPI.c **** *
 416:Generated_Source\PSoC5/SPI.c **** * Parameters:
 417:Generated_Source\PSoC5/SPI.c **** *  None.
 418:Generated_Source\PSoC5/SPI.c **** *
 419:Generated_Source\PSoC5/SPI.c **** * Return:
ARM GAS  C:\Users\ALEXAN~1\AppData\Local\Temp\ccmsaZAL.s 			page 13


 420:Generated_Source\PSoC5/SPI.c **** *  Contents of the Rx status register.
 421:Generated_Source\PSoC5/SPI.c **** *
 422:Generated_Source\PSoC5/SPI.c **** * Global variables:
 423:Generated_Source\PSoC5/SPI.c **** *  SPI_swStatusRx - used to store in software Rx status register,
 424:Generated_Source\PSoC5/SPI.c **** *  modified every function call - resets to zero.
 425:Generated_Source\PSoC5/SPI.c **** *
 426:Generated_Source\PSoC5/SPI.c **** * Theory:
 427:Generated_Source\PSoC5/SPI.c **** *  Allows the user and the API to read the Rx status register for error
 428:Generated_Source\PSoC5/SPI.c **** *  detection and flow control.
 429:Generated_Source\PSoC5/SPI.c **** *
 430:Generated_Source\PSoC5/SPI.c **** * Side Effects:
 431:Generated_Source\PSoC5/SPI.c **** *  Clear Rx status register of the component.
 432:Generated_Source\PSoC5/SPI.c **** *
 433:Generated_Source\PSoC5/SPI.c **** * Reentrant:
 434:Generated_Source\PSoC5/SPI.c **** *  No.
 435:Generated_Source\PSoC5/SPI.c **** *
 436:Generated_Source\PSoC5/SPI.c **** *******************************************************************************/
 437:Generated_Source\PSoC5/SPI.c **** uint8 SPI_ReadRxStatus(void) 
 438:Generated_Source\PSoC5/SPI.c **** {
 264              		.loc 1 438 0
 265              		.cfi_startproc
 266              		@ args = 0, pretend = 0, frame = 0
 267              		@ frame_needed = 0, uses_anonymous_args = 0
 268              		@ link register save eliminated.
 439:Generated_Source\PSoC5/SPI.c ****     uint8 tmpStatus;
 440:Generated_Source\PSoC5/SPI.c **** 
 441:Generated_Source\PSoC5/SPI.c ****     #if(SPI_RX_SOFTWARE_BUF_ENABLED)
 442:Generated_Source\PSoC5/SPI.c ****         /* Disable RX interrupt to protect global veriables */
 443:Generated_Source\PSoC5/SPI.c ****         SPI_DisableRxInt();
 444:Generated_Source\PSoC5/SPI.c **** 
 445:Generated_Source\PSoC5/SPI.c ****         tmpStatus = SPI_GET_STATUS_RX(SPI_swStatusRx);
 446:Generated_Source\PSoC5/SPI.c ****         SPI_swStatusRx = 0u;
 447:Generated_Source\PSoC5/SPI.c **** 
 448:Generated_Source\PSoC5/SPI.c ****         SPI_EnableRxInt();
 449:Generated_Source\PSoC5/SPI.c **** 
 450:Generated_Source\PSoC5/SPI.c ****     #else
 451:Generated_Source\PSoC5/SPI.c **** 
 452:Generated_Source\PSoC5/SPI.c ****         tmpStatus = SPI_RX_STATUS_REG;
 269              		.loc 1 452 0
 270 0000 014B     		ldr	r3, .L21
 271 0002 1878     		ldrb	r0, [r3]	@ zero_extendqisi2
 272              	.LVL9:
 453:Generated_Source\PSoC5/SPI.c **** 
 454:Generated_Source\PSoC5/SPI.c ****     #endif /* (SPI_RX_SOFTWARE_BUF_ENABLED) */
 455:Generated_Source\PSoC5/SPI.c **** 
 456:Generated_Source\PSoC5/SPI.c ****     return(tmpStatus);
 457:Generated_Source\PSoC5/SPI.c **** }
 273              		.loc 1 457 0
 274 0004 7047     		bx	lr
 275              	.L22:
 276 0006 00BF     		.align	2
 277              	.L21:
 278 0008 6B640040 		.word	1073767531
 279              		.cfi_endproc
 280              	.LFE11:
 281              		.size	SPI_ReadRxStatus, .-SPI_ReadRxStatus
 282              		.section	.text.SPI_WriteTxData,"ax",%progbits
ARM GAS  C:\Users\ALEXAN~1\AppData\Local\Temp\ccmsaZAL.s 			page 14


 283              		.align	1
 284              		.global	SPI_WriteTxData
 285              		.thumb
 286              		.thumb_func
 287              		.type	SPI_WriteTxData, %function
 288              	SPI_WriteTxData:
 289              	.LFB12:
 458:Generated_Source\PSoC5/SPI.c **** 
 459:Generated_Source\PSoC5/SPI.c **** 
 460:Generated_Source\PSoC5/SPI.c **** /*******************************************************************************
 461:Generated_Source\PSoC5/SPI.c **** * Function Name: SPI_WriteTxData
 462:Generated_Source\PSoC5/SPI.c **** ********************************************************************************
 463:Generated_Source\PSoC5/SPI.c **** *
 464:Generated_Source\PSoC5/SPI.c **** * Summary:
 465:Generated_Source\PSoC5/SPI.c **** *  Write a byte of data to be sent across the SPI.
 466:Generated_Source\PSoC5/SPI.c **** *
 467:Generated_Source\PSoC5/SPI.c **** * Parameters:
 468:Generated_Source\PSoC5/SPI.c **** *  txDataByte: The data value to send across the SPI.
 469:Generated_Source\PSoC5/SPI.c **** *
 470:Generated_Source\PSoC5/SPI.c **** * Return:
 471:Generated_Source\PSoC5/SPI.c **** *  None.
 472:Generated_Source\PSoC5/SPI.c **** *
 473:Generated_Source\PSoC5/SPI.c **** * Global variables:
 474:Generated_Source\PSoC5/SPI.c **** *  SPI_txBufferWrite - used for the account of the bytes which
 475:Generated_Source\PSoC5/SPI.c **** *  have been written down in the TX software buffer, modified every function
 476:Generated_Source\PSoC5/SPI.c **** *  call if TX Software Buffer is used.
 477:Generated_Source\PSoC5/SPI.c **** *  SPI_txBufferRead - used for the account of the bytes which
 478:Generated_Source\PSoC5/SPI.c **** *  have been read from the TX software buffer.
 479:Generated_Source\PSoC5/SPI.c **** *  SPI_txBuffer[SPI_TX_BUFFER_SIZE] - used to store
 480:Generated_Source\PSoC5/SPI.c **** *  data to sending, modified every function call if TX Software Buffer is used.
 481:Generated_Source\PSoC5/SPI.c **** *
 482:Generated_Source\PSoC5/SPI.c **** * Theory:
 483:Generated_Source\PSoC5/SPI.c **** *  Allows the user to transmit any byte of data in a single transfer.
 484:Generated_Source\PSoC5/SPI.c **** *
 485:Generated_Source\PSoC5/SPI.c **** * Side Effects:
 486:Generated_Source\PSoC5/SPI.c **** *  If this function is called again before the previous byte is finished then
 487:Generated_Source\PSoC5/SPI.c **** *  the next byte will be appended to the transfer with no time between
 488:Generated_Source\PSoC5/SPI.c **** *  the byte transfers. Clear Tx status register of the component.
 489:Generated_Source\PSoC5/SPI.c **** *
 490:Generated_Source\PSoC5/SPI.c **** * Reentrant:
 491:Generated_Source\PSoC5/SPI.c **** *  No.
 492:Generated_Source\PSoC5/SPI.c **** *
 493:Generated_Source\PSoC5/SPI.c **** *******************************************************************************/
 494:Generated_Source\PSoC5/SPI.c **** void SPI_WriteTxData(uint8 txData) 
 495:Generated_Source\PSoC5/SPI.c **** {
 290              		.loc 1 495 0
 291              		.cfi_startproc
 292              		@ args = 0, pretend = 0, frame = 0
 293              		@ frame_needed = 0, uses_anonymous_args = 0
 294              		@ link register save eliminated.
 295              	.LVL10:
 496:Generated_Source\PSoC5/SPI.c ****     #if(SPI_TX_SOFTWARE_BUF_ENABLED)
 497:Generated_Source\PSoC5/SPI.c **** 
 498:Generated_Source\PSoC5/SPI.c ****         uint8 tempStatus;
 499:Generated_Source\PSoC5/SPI.c ****         uint8 tmpTxBufferRead;
 500:Generated_Source\PSoC5/SPI.c **** 
 501:Generated_Source\PSoC5/SPI.c ****         /* Block if TX buffer is FULL: don't overwrite */
ARM GAS  C:\Users\ALEXAN~1\AppData\Local\Temp\ccmsaZAL.s 			page 15


 502:Generated_Source\PSoC5/SPI.c ****         do
 503:Generated_Source\PSoC5/SPI.c ****         {
 504:Generated_Source\PSoC5/SPI.c ****             tmpTxBufferRead = SPI_txBufferRead;
 505:Generated_Source\PSoC5/SPI.c ****             if(0u == tmpTxBufferRead)
 506:Generated_Source\PSoC5/SPI.c ****             {
 507:Generated_Source\PSoC5/SPI.c ****                 tmpTxBufferRead = (SPI_TX_BUFFER_SIZE - 1u);
 508:Generated_Source\PSoC5/SPI.c ****             }
 509:Generated_Source\PSoC5/SPI.c ****             else
 510:Generated_Source\PSoC5/SPI.c ****             {
 511:Generated_Source\PSoC5/SPI.c ****                 tmpTxBufferRead--;
 512:Generated_Source\PSoC5/SPI.c ****             }
 513:Generated_Source\PSoC5/SPI.c **** 
 514:Generated_Source\PSoC5/SPI.c ****         }while(tmpTxBufferRead == SPI_txBufferWrite);
 515:Generated_Source\PSoC5/SPI.c **** 
 516:Generated_Source\PSoC5/SPI.c ****         /* Disable TX interrupt to protect global veriables */
 517:Generated_Source\PSoC5/SPI.c ****         SPI_DisableTxInt();
 518:Generated_Source\PSoC5/SPI.c **** 
 519:Generated_Source\PSoC5/SPI.c ****         tempStatus = SPI_GET_STATUS_TX(SPI_swStatusTx);
 520:Generated_Source\PSoC5/SPI.c ****         SPI_swStatusTx = tempStatus;
 521:Generated_Source\PSoC5/SPI.c **** 
 522:Generated_Source\PSoC5/SPI.c **** 
 523:Generated_Source\PSoC5/SPI.c ****         if((SPI_txBufferRead == SPI_txBufferWrite) &&
 524:Generated_Source\PSoC5/SPI.c ****            (0u != (SPI_swStatusTx & SPI_STS_TX_FIFO_NOT_FULL)))
 525:Generated_Source\PSoC5/SPI.c ****         {
 526:Generated_Source\PSoC5/SPI.c ****             /* Put data element into the TX FIFO */
 527:Generated_Source\PSoC5/SPI.c ****             CY_SET_REG8(SPI_TXDATA_PTR, txData);
 528:Generated_Source\PSoC5/SPI.c ****         }
 529:Generated_Source\PSoC5/SPI.c ****         else
 530:Generated_Source\PSoC5/SPI.c ****         {
 531:Generated_Source\PSoC5/SPI.c ****             /* Add to the TX software buffer */
 532:Generated_Source\PSoC5/SPI.c ****             SPI_txBufferWrite++;
 533:Generated_Source\PSoC5/SPI.c ****             if(SPI_txBufferWrite >= SPI_TX_BUFFER_SIZE)
 534:Generated_Source\PSoC5/SPI.c ****             {
 535:Generated_Source\PSoC5/SPI.c ****                 SPI_txBufferWrite = 0u;
 536:Generated_Source\PSoC5/SPI.c ****             }
 537:Generated_Source\PSoC5/SPI.c **** 
 538:Generated_Source\PSoC5/SPI.c ****             if(SPI_txBufferWrite == SPI_txBufferRead)
 539:Generated_Source\PSoC5/SPI.c ****             {
 540:Generated_Source\PSoC5/SPI.c ****                 SPI_txBufferRead++;
 541:Generated_Source\PSoC5/SPI.c ****                 if(SPI_txBufferRead >= SPI_TX_BUFFER_SIZE)
 542:Generated_Source\PSoC5/SPI.c ****                 {
 543:Generated_Source\PSoC5/SPI.c ****                     SPI_txBufferRead = 0u;
 544:Generated_Source\PSoC5/SPI.c ****                 }
 545:Generated_Source\PSoC5/SPI.c ****                 SPI_txBufferFull = 1u;
 546:Generated_Source\PSoC5/SPI.c ****             }
 547:Generated_Source\PSoC5/SPI.c **** 
 548:Generated_Source\PSoC5/SPI.c ****             SPI_txBuffer[SPI_txBufferWrite] = txData;
 549:Generated_Source\PSoC5/SPI.c **** 
 550:Generated_Source\PSoC5/SPI.c ****             SPI_TX_STATUS_MASK_REG |= SPI_STS_TX_FIFO_NOT_FULL;
 551:Generated_Source\PSoC5/SPI.c ****         }
 552:Generated_Source\PSoC5/SPI.c **** 
 553:Generated_Source\PSoC5/SPI.c ****         SPI_EnableTxInt();
 554:Generated_Source\PSoC5/SPI.c **** 
 555:Generated_Source\PSoC5/SPI.c ****     #else
 556:Generated_Source\PSoC5/SPI.c ****         /* Wait until TX FIFO has a place */
 557:Generated_Source\PSoC5/SPI.c ****         while(0u == (SPI_TX_STATUS_REG & SPI_STS_TX_FIFO_NOT_FULL))
 296              		.loc 1 557 0
ARM GAS  C:\Users\ALEXAN~1\AppData\Local\Temp\ccmsaZAL.s 			page 16


 297 0000 034A     		ldr	r2, .L28
 298              	.L24:
 299              		.loc 1 557 0 is_stmt 0 discriminator 1
 300 0002 1378     		ldrb	r3, [r2]	@ zero_extendqisi2
 301 0004 5B07     		lsls	r3, r3, #29
 302 0006 FCD5     		bpl	.L24
 558:Generated_Source\PSoC5/SPI.c ****         {
 559:Generated_Source\PSoC5/SPI.c ****         }
 560:Generated_Source\PSoC5/SPI.c **** 
 561:Generated_Source\PSoC5/SPI.c ****         /* Put data element into the TX FIFO */
 562:Generated_Source\PSoC5/SPI.c ****         CY_SET_REG8(SPI_TXDATA_PTR, txData);
 303              		.loc 1 562 0 is_stmt 1
 304 0008 024B     		ldr	r3, .L28+4
 305 000a 1870     		strb	r0, [r3]
 306 000c 7047     		bx	lr
 307              	.L29:
 308 000e 00BF     		.align	2
 309              	.L28:
 310 0010 68650040 		.word	1073767784
 311 0014 44640040 		.word	1073767492
 312              		.cfi_endproc
 313              	.LFE12:
 314              		.size	SPI_WriteTxData, .-SPI_WriteTxData
 315              		.section	.text.SPI_ReadRxData,"ax",%progbits
 316              		.align	1
 317              		.global	SPI_ReadRxData
 318              		.thumb
 319              		.thumb_func
 320              		.type	SPI_ReadRxData, %function
 321              	SPI_ReadRxData:
 322              	.LFB13:
 563:Generated_Source\PSoC5/SPI.c **** 
 564:Generated_Source\PSoC5/SPI.c ****     #endif /* (SPI_TX_SOFTWARE_BUF_ENABLED) */
 565:Generated_Source\PSoC5/SPI.c **** }
 566:Generated_Source\PSoC5/SPI.c **** 
 567:Generated_Source\PSoC5/SPI.c **** 
 568:Generated_Source\PSoC5/SPI.c **** /*******************************************************************************
 569:Generated_Source\PSoC5/SPI.c **** * Function Name: SPI_ReadRxData
 570:Generated_Source\PSoC5/SPI.c **** ********************************************************************************
 571:Generated_Source\PSoC5/SPI.c **** *
 572:Generated_Source\PSoC5/SPI.c **** * Summary:
 573:Generated_Source\PSoC5/SPI.c **** *  Read the next byte of data received across the SPI.
 574:Generated_Source\PSoC5/SPI.c **** *
 575:Generated_Source\PSoC5/SPI.c **** * Parameters:
 576:Generated_Source\PSoC5/SPI.c **** *  None.
 577:Generated_Source\PSoC5/SPI.c **** *
 578:Generated_Source\PSoC5/SPI.c **** * Return:
 579:Generated_Source\PSoC5/SPI.c **** *  The next byte of data read from the FIFO.
 580:Generated_Source\PSoC5/SPI.c **** *
 581:Generated_Source\PSoC5/SPI.c **** * Global variables:
 582:Generated_Source\PSoC5/SPI.c **** *  SPI_rxBufferWrite - used for the account of the bytes which
 583:Generated_Source\PSoC5/SPI.c **** *  have been written down in the RX software buffer.
 584:Generated_Source\PSoC5/SPI.c **** *  SPI_rxBufferRead - used for the account of the bytes which
 585:Generated_Source\PSoC5/SPI.c **** *  have been read from the RX software buffer, modified every function
 586:Generated_Source\PSoC5/SPI.c **** *  call if RX Software Buffer is used.
 587:Generated_Source\PSoC5/SPI.c **** *  SPI_rxBuffer[SPI_RX_BUFFER_SIZE] - used to store
 588:Generated_Source\PSoC5/SPI.c **** *  received data.
ARM GAS  C:\Users\ALEXAN~1\AppData\Local\Temp\ccmsaZAL.s 			page 17


 589:Generated_Source\PSoC5/SPI.c **** *
 590:Generated_Source\PSoC5/SPI.c **** * Theory:
 591:Generated_Source\PSoC5/SPI.c **** *  Allows the user to read a byte of data received.
 592:Generated_Source\PSoC5/SPI.c **** *
 593:Generated_Source\PSoC5/SPI.c **** * Side Effects:
 594:Generated_Source\PSoC5/SPI.c **** *  Will return invalid data if the FIFO is empty. The user should Call
 595:Generated_Source\PSoC5/SPI.c **** *  GetRxBufferSize() and if it returns a non-zero value then it is safe to call
 596:Generated_Source\PSoC5/SPI.c **** *  ReadByte() function.
 597:Generated_Source\PSoC5/SPI.c **** *
 598:Generated_Source\PSoC5/SPI.c **** * Reentrant:
 599:Generated_Source\PSoC5/SPI.c **** *  No.
 600:Generated_Source\PSoC5/SPI.c **** *
 601:Generated_Source\PSoC5/SPI.c **** *******************************************************************************/
 602:Generated_Source\PSoC5/SPI.c **** uint8 SPI_ReadRxData(void) 
 603:Generated_Source\PSoC5/SPI.c **** {
 323              		.loc 1 603 0
 324              		.cfi_startproc
 325              		@ args = 0, pretend = 0, frame = 0
 326              		@ frame_needed = 0, uses_anonymous_args = 0
 327              		@ link register save eliminated.
 604:Generated_Source\PSoC5/SPI.c ****     uint8 rxData;
 605:Generated_Source\PSoC5/SPI.c **** 
 606:Generated_Source\PSoC5/SPI.c ****     #if(SPI_RX_SOFTWARE_BUF_ENABLED)
 607:Generated_Source\PSoC5/SPI.c **** 
 608:Generated_Source\PSoC5/SPI.c ****         /* Disable RX interrupt to protect global veriables */
 609:Generated_Source\PSoC5/SPI.c ****         SPI_DisableRxInt();
 610:Generated_Source\PSoC5/SPI.c **** 
 611:Generated_Source\PSoC5/SPI.c ****         if(SPI_rxBufferRead != SPI_rxBufferWrite)
 612:Generated_Source\PSoC5/SPI.c ****         {
 613:Generated_Source\PSoC5/SPI.c ****             if(0u == SPI_rxBufferFull)
 614:Generated_Source\PSoC5/SPI.c ****             {
 615:Generated_Source\PSoC5/SPI.c ****                 SPI_rxBufferRead++;
 616:Generated_Source\PSoC5/SPI.c ****                 if(SPI_rxBufferRead >= SPI_RX_BUFFER_SIZE)
 617:Generated_Source\PSoC5/SPI.c ****                 {
 618:Generated_Source\PSoC5/SPI.c ****                     SPI_rxBufferRead = 0u;
 619:Generated_Source\PSoC5/SPI.c ****                 }
 620:Generated_Source\PSoC5/SPI.c ****             }
 621:Generated_Source\PSoC5/SPI.c ****             else
 622:Generated_Source\PSoC5/SPI.c ****             {
 623:Generated_Source\PSoC5/SPI.c ****                 SPI_rxBufferFull = 0u;
 624:Generated_Source\PSoC5/SPI.c ****             }
 625:Generated_Source\PSoC5/SPI.c ****         }
 626:Generated_Source\PSoC5/SPI.c **** 
 627:Generated_Source\PSoC5/SPI.c ****         rxData = SPI_rxBuffer[SPI_rxBufferRead];
 628:Generated_Source\PSoC5/SPI.c **** 
 629:Generated_Source\PSoC5/SPI.c ****         SPI_EnableRxInt();
 630:Generated_Source\PSoC5/SPI.c **** 
 631:Generated_Source\PSoC5/SPI.c ****     #else
 632:Generated_Source\PSoC5/SPI.c **** 
 633:Generated_Source\PSoC5/SPI.c ****         rxData = CY_GET_REG8(SPI_RXDATA_PTR);
 328              		.loc 1 633 0
 329 0000 014B     		ldr	r3, .L31
 330 0002 1878     		ldrb	r0, [r3]	@ zero_extendqisi2
 331              	.LVL11:
 634:Generated_Source\PSoC5/SPI.c **** 
 635:Generated_Source\PSoC5/SPI.c ****     #endif /* (SPI_RX_SOFTWARE_BUF_ENABLED) */
 636:Generated_Source\PSoC5/SPI.c **** 
ARM GAS  C:\Users\ALEXAN~1\AppData\Local\Temp\ccmsaZAL.s 			page 18


 637:Generated_Source\PSoC5/SPI.c ****     return(rxData);
 638:Generated_Source\PSoC5/SPI.c **** }
 332              		.loc 1 638 0
 333 0004 7047     		bx	lr
 334              	.L32:
 335 0006 00BF     		.align	2
 336              	.L31:
 337 0008 54640040 		.word	1073767508
 338              		.cfi_endproc
 339              	.LFE13:
 340              		.size	SPI_ReadRxData, .-SPI_ReadRxData
 341              		.section	.text.SPI_GetRxBufferSize,"ax",%progbits
 342              		.align	1
 343              		.global	SPI_GetRxBufferSize
 344              		.thumb
 345              		.thumb_func
 346              		.type	SPI_GetRxBufferSize, %function
 347              	SPI_GetRxBufferSize:
 348              	.LFB14:
 639:Generated_Source\PSoC5/SPI.c **** 
 640:Generated_Source\PSoC5/SPI.c **** 
 641:Generated_Source\PSoC5/SPI.c **** /*******************************************************************************
 642:Generated_Source\PSoC5/SPI.c **** * Function Name: SPI_GetRxBufferSize
 643:Generated_Source\PSoC5/SPI.c **** ********************************************************************************
 644:Generated_Source\PSoC5/SPI.c **** *
 645:Generated_Source\PSoC5/SPI.c **** * Summary:
 646:Generated_Source\PSoC5/SPI.c **** *  Returns the number of bytes/words of data currently held in the RX buffer.
 647:Generated_Source\PSoC5/SPI.c **** *  If RX Software Buffer not used then function return 0 if FIFO empty or 1 if
 648:Generated_Source\PSoC5/SPI.c **** *  FIFO not empty. In another case function return size of RX Software Buffer.
 649:Generated_Source\PSoC5/SPI.c **** *
 650:Generated_Source\PSoC5/SPI.c **** * Parameters:
 651:Generated_Source\PSoC5/SPI.c **** *  None.
 652:Generated_Source\PSoC5/SPI.c **** *
 653:Generated_Source\PSoC5/SPI.c **** * Return:
 654:Generated_Source\PSoC5/SPI.c **** *  Integer count of the number of bytes/words in the RX buffer.
 655:Generated_Source\PSoC5/SPI.c **** *
 656:Generated_Source\PSoC5/SPI.c **** * Global variables:
 657:Generated_Source\PSoC5/SPI.c **** *  SPI_rxBufferWrite - used for the account of the bytes which
 658:Generated_Source\PSoC5/SPI.c **** *  have been written down in the RX software buffer.
 659:Generated_Source\PSoC5/SPI.c **** *  SPI_rxBufferRead - used for the account of the bytes which
 660:Generated_Source\PSoC5/SPI.c **** *  have been read from the RX software buffer.
 661:Generated_Source\PSoC5/SPI.c **** *
 662:Generated_Source\PSoC5/SPI.c **** * Side Effects:
 663:Generated_Source\PSoC5/SPI.c **** *  Clear status register of the component.
 664:Generated_Source\PSoC5/SPI.c **** *
 665:Generated_Source\PSoC5/SPI.c **** *******************************************************************************/
 666:Generated_Source\PSoC5/SPI.c **** uint8 SPI_GetRxBufferSize(void) 
 667:Generated_Source\PSoC5/SPI.c **** {
 349              		.loc 1 667 0
 350              		.cfi_startproc
 351              		@ args = 0, pretend = 0, frame = 0
 352              		@ frame_needed = 0, uses_anonymous_args = 0
 353              		@ link register save eliminated.
 668:Generated_Source\PSoC5/SPI.c ****     uint8 size;
 669:Generated_Source\PSoC5/SPI.c **** 
 670:Generated_Source\PSoC5/SPI.c ****     #if(SPI_RX_SOFTWARE_BUF_ENABLED)
 671:Generated_Source\PSoC5/SPI.c **** 
ARM GAS  C:\Users\ALEXAN~1\AppData\Local\Temp\ccmsaZAL.s 			page 19


 672:Generated_Source\PSoC5/SPI.c ****         /* Disable RX interrupt to protect global veriables */
 673:Generated_Source\PSoC5/SPI.c ****         SPI_DisableRxInt();
 674:Generated_Source\PSoC5/SPI.c **** 
 675:Generated_Source\PSoC5/SPI.c ****         if(SPI_rxBufferRead == SPI_rxBufferWrite)
 676:Generated_Source\PSoC5/SPI.c ****         {
 677:Generated_Source\PSoC5/SPI.c ****             size = 0u;
 678:Generated_Source\PSoC5/SPI.c ****         }
 679:Generated_Source\PSoC5/SPI.c ****         else if(SPI_rxBufferRead < SPI_rxBufferWrite)
 680:Generated_Source\PSoC5/SPI.c ****         {
 681:Generated_Source\PSoC5/SPI.c ****             size = (SPI_rxBufferWrite - SPI_rxBufferRead);
 682:Generated_Source\PSoC5/SPI.c ****         }
 683:Generated_Source\PSoC5/SPI.c ****         else
 684:Generated_Source\PSoC5/SPI.c ****         {
 685:Generated_Source\PSoC5/SPI.c ****             size = (SPI_RX_BUFFER_SIZE - SPI_rxBufferRead) + SPI_rxBufferWrite;
 686:Generated_Source\PSoC5/SPI.c ****         }
 687:Generated_Source\PSoC5/SPI.c **** 
 688:Generated_Source\PSoC5/SPI.c ****         SPI_EnableRxInt();
 689:Generated_Source\PSoC5/SPI.c **** 
 690:Generated_Source\PSoC5/SPI.c ****     #else
 691:Generated_Source\PSoC5/SPI.c **** 
 692:Generated_Source\PSoC5/SPI.c ****         /* We can only know if there is data in the RX FIFO */
 693:Generated_Source\PSoC5/SPI.c ****         size = (0u != (SPI_RX_STATUS_REG & SPI_STS_RX_FIFO_NOT_EMPTY)) ? 1u : 0u;
 354              		.loc 1 693 0
 355 0000 024B     		ldr	r3, .L34
 356 0002 1878     		ldrb	r0, [r3]	@ zero_extendqisi2
 357              	.LVL12:
 694:Generated_Source\PSoC5/SPI.c **** 
 695:Generated_Source\PSoC5/SPI.c ****     #endif /* (SPI_TX_SOFTWARE_BUF_ENABLED) */
 696:Generated_Source\PSoC5/SPI.c **** 
 697:Generated_Source\PSoC5/SPI.c ****     return(size);
 698:Generated_Source\PSoC5/SPI.c **** }
 358              		.loc 1 698 0
 359 0004 C0F34010 		ubfx	r0, r0, #5, #1
 360              	.LVL13:
 361 0008 7047     		bx	lr
 362              	.L35:
 363 000a 00BF     		.align	2
 364              	.L34:
 365 000c 6B640040 		.word	1073767531
 366              		.cfi_endproc
 367              	.LFE14:
 368              		.size	SPI_GetRxBufferSize, .-SPI_GetRxBufferSize
 369              		.section	.text.SPI_GetTxBufferSize,"ax",%progbits
 370              		.align	1
 371              		.global	SPI_GetTxBufferSize
 372              		.thumb
 373              		.thumb_func
 374              		.type	SPI_GetTxBufferSize, %function
 375              	SPI_GetTxBufferSize:
 376              	.LFB15:
 699:Generated_Source\PSoC5/SPI.c **** 
 700:Generated_Source\PSoC5/SPI.c **** 
 701:Generated_Source\PSoC5/SPI.c **** /*******************************************************************************
 702:Generated_Source\PSoC5/SPI.c **** * Function Name: SPI_GetTxBufferSize
 703:Generated_Source\PSoC5/SPI.c **** ********************************************************************************
 704:Generated_Source\PSoC5/SPI.c **** *
 705:Generated_Source\PSoC5/SPI.c **** * Summary:
ARM GAS  C:\Users\ALEXAN~1\AppData\Local\Temp\ccmsaZAL.s 			page 20


 706:Generated_Source\PSoC5/SPI.c **** *  Returns the number of bytes/words of data currently held in the TX buffer.
 707:Generated_Source\PSoC5/SPI.c **** *  If TX Software Buffer not used then function return 0 - if FIFO empty, 1 - if
 708:Generated_Source\PSoC5/SPI.c **** *  FIFO not full, 4 - if FIFO full. In another case function return size of TX
 709:Generated_Source\PSoC5/SPI.c **** *  Software Buffer.
 710:Generated_Source\PSoC5/SPI.c **** *
 711:Generated_Source\PSoC5/SPI.c **** * Parameters:
 712:Generated_Source\PSoC5/SPI.c **** *  None.
 713:Generated_Source\PSoC5/SPI.c **** *
 714:Generated_Source\PSoC5/SPI.c **** * Return:
 715:Generated_Source\PSoC5/SPI.c **** *  Integer count of the number of bytes/words in the TX buffer.
 716:Generated_Source\PSoC5/SPI.c **** *
 717:Generated_Source\PSoC5/SPI.c **** * Global variables:
 718:Generated_Source\PSoC5/SPI.c **** *  SPI_txBufferWrite - used for the account of the bytes which
 719:Generated_Source\PSoC5/SPI.c **** *  have been written down in the TX software buffer.
 720:Generated_Source\PSoC5/SPI.c **** *  SPI_txBufferRead - used for the account of the bytes which
 721:Generated_Source\PSoC5/SPI.c **** *  have been read from the TX software buffer.
 722:Generated_Source\PSoC5/SPI.c **** *
 723:Generated_Source\PSoC5/SPI.c **** * Side Effects:
 724:Generated_Source\PSoC5/SPI.c **** *  Clear status register of the component.
 725:Generated_Source\PSoC5/SPI.c **** *
 726:Generated_Source\PSoC5/SPI.c **** *******************************************************************************/
 727:Generated_Source\PSoC5/SPI.c **** uint8  SPI_GetTxBufferSize(void) 
 728:Generated_Source\PSoC5/SPI.c **** {
 377              		.loc 1 728 0
 378              		.cfi_startproc
 379              		@ args = 0, pretend = 0, frame = 0
 380              		@ frame_needed = 0, uses_anonymous_args = 0
 381              		@ link register save eliminated.
 729:Generated_Source\PSoC5/SPI.c ****     uint8 size;
 730:Generated_Source\PSoC5/SPI.c **** 
 731:Generated_Source\PSoC5/SPI.c ****     #if(SPI_TX_SOFTWARE_BUF_ENABLED)
 732:Generated_Source\PSoC5/SPI.c ****         /* Disable TX interrupt to protect global veriables */
 733:Generated_Source\PSoC5/SPI.c ****         SPI_DisableTxInt();
 734:Generated_Source\PSoC5/SPI.c **** 
 735:Generated_Source\PSoC5/SPI.c ****         if(SPI_txBufferRead == SPI_txBufferWrite)
 736:Generated_Source\PSoC5/SPI.c ****         {
 737:Generated_Source\PSoC5/SPI.c ****             size = 0u;
 738:Generated_Source\PSoC5/SPI.c ****         }
 739:Generated_Source\PSoC5/SPI.c ****         else if(SPI_txBufferRead < SPI_txBufferWrite)
 740:Generated_Source\PSoC5/SPI.c ****         {
 741:Generated_Source\PSoC5/SPI.c ****             size = (SPI_txBufferWrite - SPI_txBufferRead);
 742:Generated_Source\PSoC5/SPI.c ****         }
 743:Generated_Source\PSoC5/SPI.c ****         else
 744:Generated_Source\PSoC5/SPI.c ****         {
 745:Generated_Source\PSoC5/SPI.c ****             size = (SPI_TX_BUFFER_SIZE - SPI_txBufferRead) + SPI_txBufferWrite;
 746:Generated_Source\PSoC5/SPI.c ****         }
 747:Generated_Source\PSoC5/SPI.c **** 
 748:Generated_Source\PSoC5/SPI.c ****         SPI_EnableTxInt();
 749:Generated_Source\PSoC5/SPI.c **** 
 750:Generated_Source\PSoC5/SPI.c ****     #else
 751:Generated_Source\PSoC5/SPI.c **** 
 752:Generated_Source\PSoC5/SPI.c ****         size = SPI_TX_STATUS_REG;
 382              		.loc 1 752 0
 383 0000 064B     		ldr	r3, .L40
 384 0002 1B78     		ldrb	r3, [r3]	@ zero_extendqisi2
 385 0004 DBB2     		uxtb	r3, r3
 386              	.LVL14:
ARM GAS  C:\Users\ALEXAN~1\AppData\Local\Temp\ccmsaZAL.s 			page 21


 753:Generated_Source\PSoC5/SPI.c **** 
 754:Generated_Source\PSoC5/SPI.c ****         if(0u != (size & SPI_STS_TX_FIFO_EMPTY))
 387              		.loc 1 754 0
 388 0006 9A07     		lsls	r2, r3, #30
 389 0008 05D4     		bmi	.L38
 755:Generated_Source\PSoC5/SPI.c ****         {
 756:Generated_Source\PSoC5/SPI.c ****             size = 0u;
 757:Generated_Source\PSoC5/SPI.c ****         }
 758:Generated_Source\PSoC5/SPI.c ****         else if(0u != (size & SPI_STS_TX_FIFO_NOT_FULL))
 390              		.loc 1 758 0
 391 000a 13F0040F 		tst	r3, #4
 759:Generated_Source\PSoC5/SPI.c ****         {
 760:Generated_Source\PSoC5/SPI.c ****             size = 1u;
 761:Generated_Source\PSoC5/SPI.c ****         }
 762:Generated_Source\PSoC5/SPI.c ****         else
 763:Generated_Source\PSoC5/SPI.c ****         {
 764:Generated_Source\PSoC5/SPI.c ****             size = SPI_FIFO_SIZE;
 392              		.loc 1 764 0
 393 000e 14BF     		ite	ne
 394 0010 0120     		movne	r0, #1
 395 0012 0420     		moveq	r0, #4
 396 0014 7047     		bx	lr
 397              	.L38:
 756:Generated_Source\PSoC5/SPI.c ****         }
 398              		.loc 1 756 0
 399 0016 0020     		movs	r0, #0
 400              	.LVL15:
 765:Generated_Source\PSoC5/SPI.c ****         }
 766:Generated_Source\PSoC5/SPI.c **** 
 767:Generated_Source\PSoC5/SPI.c ****     #endif /* (SPI_TX_SOFTWARE_BUF_ENABLED) */
 768:Generated_Source\PSoC5/SPI.c **** 
 769:Generated_Source\PSoC5/SPI.c ****     return(size);
 770:Generated_Source\PSoC5/SPI.c **** }
 401              		.loc 1 770 0
 402 0018 7047     		bx	lr
 403              	.L41:
 404 001a 00BF     		.align	2
 405              	.L40:
 406 001c 68650040 		.word	1073767784
 407              		.cfi_endproc
 408              	.LFE15:
 409              		.size	SPI_GetTxBufferSize, .-SPI_GetTxBufferSize
 410              		.section	.text.SPI_ClearRxBuffer,"ax",%progbits
 411              		.align	1
 412              		.global	SPI_ClearRxBuffer
 413              		.thumb
 414              		.thumb_func
 415              		.type	SPI_ClearRxBuffer, %function
 416              	SPI_ClearRxBuffer:
 417              	.LFB16:
 771:Generated_Source\PSoC5/SPI.c **** 
 772:Generated_Source\PSoC5/SPI.c **** 
 773:Generated_Source\PSoC5/SPI.c **** /*******************************************************************************
 774:Generated_Source\PSoC5/SPI.c **** * Function Name: SPI_ClearRxBuffer
 775:Generated_Source\PSoC5/SPI.c **** ********************************************************************************
 776:Generated_Source\PSoC5/SPI.c **** *
 777:Generated_Source\PSoC5/SPI.c **** * Summary:
ARM GAS  C:\Users\ALEXAN~1\AppData\Local\Temp\ccmsaZAL.s 			page 22


 778:Generated_Source\PSoC5/SPI.c **** *  Clear the RX RAM buffer by setting the read and write pointers both to zero.
 779:Generated_Source\PSoC5/SPI.c **** *
 780:Generated_Source\PSoC5/SPI.c **** * Parameters:
 781:Generated_Source\PSoC5/SPI.c **** *  None.
 782:Generated_Source\PSoC5/SPI.c **** *
 783:Generated_Source\PSoC5/SPI.c **** * Return:
 784:Generated_Source\PSoC5/SPI.c **** *  None.
 785:Generated_Source\PSoC5/SPI.c **** *
 786:Generated_Source\PSoC5/SPI.c **** * Global variables:
 787:Generated_Source\PSoC5/SPI.c **** *  SPI_rxBufferWrite - used for the account of the bytes which
 788:Generated_Source\PSoC5/SPI.c **** *  have been written down in the RX software buffer, modified every function
 789:Generated_Source\PSoC5/SPI.c **** *  call - resets to zero.
 790:Generated_Source\PSoC5/SPI.c **** *  SPI_rxBufferRead - used for the account of the bytes which
 791:Generated_Source\PSoC5/SPI.c **** *  have been read from the RX software buffer, modified every function call -
 792:Generated_Source\PSoC5/SPI.c **** *  resets to zero.
 793:Generated_Source\PSoC5/SPI.c **** *
 794:Generated_Source\PSoC5/SPI.c **** * Theory:
 795:Generated_Source\PSoC5/SPI.c **** *  Setting the pointers to zero makes the system believe there is no data to
 796:Generated_Source\PSoC5/SPI.c **** *  read and writing will resume at address 0 overwriting any data that may have
 797:Generated_Source\PSoC5/SPI.c **** *  remained in the RAM.
 798:Generated_Source\PSoC5/SPI.c **** *
 799:Generated_Source\PSoC5/SPI.c **** * Side Effects:
 800:Generated_Source\PSoC5/SPI.c **** *  Any received data not read from the RAM buffer will be lost when overwritten.
 801:Generated_Source\PSoC5/SPI.c **** *
 802:Generated_Source\PSoC5/SPI.c **** * Reentrant:
 803:Generated_Source\PSoC5/SPI.c **** *  No.
 804:Generated_Source\PSoC5/SPI.c **** *
 805:Generated_Source\PSoC5/SPI.c **** *******************************************************************************/
 806:Generated_Source\PSoC5/SPI.c **** void SPI_ClearRxBuffer(void) 
 807:Generated_Source\PSoC5/SPI.c **** {
 418              		.loc 1 807 0
 419              		.cfi_startproc
 420              		@ args = 0, pretend = 0, frame = 0
 421              		@ frame_needed = 0, uses_anonymous_args = 0
 422              		@ link register save eliminated.
 808:Generated_Source\PSoC5/SPI.c ****     /* Clear Hardware RX FIFO */
 809:Generated_Source\PSoC5/SPI.c ****     while(0u !=(SPI_RX_STATUS_REG & SPI_STS_RX_FIFO_NOT_EMPTY))
 423              		.loc 1 809 0
 424 0000 034A     		ldr	r2, .L46
 810:Generated_Source\PSoC5/SPI.c ****     {
 811:Generated_Source\PSoC5/SPI.c ****         (void) CY_GET_REG8(SPI_RXDATA_PTR);
 425              		.loc 1 811 0
 426 0002 0449     		ldr	r1, .L46+4
 427              	.L43:
 809:Generated_Source\PSoC5/SPI.c ****     {
 428              		.loc 1 809 0
 429 0004 1378     		ldrb	r3, [r2]	@ zero_extendqisi2
 430 0006 9B06     		lsls	r3, r3, #26
 431 0008 01D5     		bpl	.L45
 432              		.loc 1 811 0
 433 000a 0B78     		ldrb	r3, [r1]	@ zero_extendqisi2
 434 000c FAE7     		b	.L43
 435              	.L45:
 812:Generated_Source\PSoC5/SPI.c ****     }
 813:Generated_Source\PSoC5/SPI.c **** 
 814:Generated_Source\PSoC5/SPI.c ****     #if(SPI_RX_SOFTWARE_BUF_ENABLED)
 815:Generated_Source\PSoC5/SPI.c ****         /* Disable RX interrupt to protect global veriables */
ARM GAS  C:\Users\ALEXAN~1\AppData\Local\Temp\ccmsaZAL.s 			page 23


 816:Generated_Source\PSoC5/SPI.c ****         SPI_DisableRxInt();
 817:Generated_Source\PSoC5/SPI.c **** 
 818:Generated_Source\PSoC5/SPI.c ****         SPI_rxBufferFull  = 0u;
 819:Generated_Source\PSoC5/SPI.c ****         SPI_rxBufferRead  = 0u;
 820:Generated_Source\PSoC5/SPI.c ****         SPI_rxBufferWrite = 0u;
 821:Generated_Source\PSoC5/SPI.c **** 
 822:Generated_Source\PSoC5/SPI.c ****         SPI_EnableRxInt();
 823:Generated_Source\PSoC5/SPI.c ****     #endif /* (SPI_RX_SOFTWARE_BUF_ENABLED) */
 824:Generated_Source\PSoC5/SPI.c **** }
 436              		.loc 1 824 0
 437 000e 7047     		bx	lr
 438              	.L47:
 439              		.align	2
 440              	.L46:
 441 0010 6B640040 		.word	1073767531
 442 0014 54640040 		.word	1073767508
 443              		.cfi_endproc
 444              	.LFE16:
 445              		.size	SPI_ClearRxBuffer, .-SPI_ClearRxBuffer
 446              		.section	.text.SPI_ClearTxBuffer,"ax",%progbits
 447              		.align	1
 448              		.global	SPI_ClearTxBuffer
 449              		.thumb
 450              		.thumb_func
 451              		.type	SPI_ClearTxBuffer, %function
 452              	SPI_ClearTxBuffer:
 453              	.LFB17:
 825:Generated_Source\PSoC5/SPI.c **** 
 826:Generated_Source\PSoC5/SPI.c **** 
 827:Generated_Source\PSoC5/SPI.c **** /*******************************************************************************
 828:Generated_Source\PSoC5/SPI.c **** * Function Name: SPI_ClearTxBuffer
 829:Generated_Source\PSoC5/SPI.c **** ********************************************************************************
 830:Generated_Source\PSoC5/SPI.c **** *
 831:Generated_Source\PSoC5/SPI.c **** * Summary:
 832:Generated_Source\PSoC5/SPI.c **** *  Clear the TX RAM buffer by setting the read and write pointers both to zero.
 833:Generated_Source\PSoC5/SPI.c **** *
 834:Generated_Source\PSoC5/SPI.c **** * Parameters:
 835:Generated_Source\PSoC5/SPI.c **** *  None.
 836:Generated_Source\PSoC5/SPI.c **** *
 837:Generated_Source\PSoC5/SPI.c **** * Return:
 838:Generated_Source\PSoC5/SPI.c **** *  None.
 839:Generated_Source\PSoC5/SPI.c **** *
 840:Generated_Source\PSoC5/SPI.c **** * Global variables:
 841:Generated_Source\PSoC5/SPI.c **** *  SPI_txBufferWrite - used for the account of the bytes which
 842:Generated_Source\PSoC5/SPI.c **** *  have been written down in the TX software buffer, modified every function
 843:Generated_Source\PSoC5/SPI.c **** *  call - resets to zero.
 844:Generated_Source\PSoC5/SPI.c **** *  SPI_txBufferRead - used for the account of the bytes which
 845:Generated_Source\PSoC5/SPI.c **** *  have been read from the TX software buffer, modified every function call -
 846:Generated_Source\PSoC5/SPI.c **** *  resets to zero.
 847:Generated_Source\PSoC5/SPI.c **** *
 848:Generated_Source\PSoC5/SPI.c **** * Theory:
 849:Generated_Source\PSoC5/SPI.c **** *  Setting the pointers to zero makes the system believe there is no data to
 850:Generated_Source\PSoC5/SPI.c **** *  read and writing will resume at address 0 overwriting any data that may have
 851:Generated_Source\PSoC5/SPI.c **** *  remained in the RAM.
 852:Generated_Source\PSoC5/SPI.c **** *
 853:Generated_Source\PSoC5/SPI.c **** * Side Effects:
 854:Generated_Source\PSoC5/SPI.c **** *  Any data not yet transmitted from the RAM buffer will be lost when
ARM GAS  C:\Users\ALEXAN~1\AppData\Local\Temp\ccmsaZAL.s 			page 24


 855:Generated_Source\PSoC5/SPI.c **** *  overwritten.
 856:Generated_Source\PSoC5/SPI.c **** *
 857:Generated_Source\PSoC5/SPI.c **** * Reentrant:
 858:Generated_Source\PSoC5/SPI.c **** *  No.
 859:Generated_Source\PSoC5/SPI.c **** *
 860:Generated_Source\PSoC5/SPI.c **** *******************************************************************************/
 861:Generated_Source\PSoC5/SPI.c **** void SPI_ClearTxBuffer(void) 
 862:Generated_Source\PSoC5/SPI.c **** {
 454              		.loc 1 862 0
 455              		.cfi_startproc
 456              		@ args = 0, pretend = 0, frame = 0
 457              		@ frame_needed = 0, uses_anonymous_args = 0
 458 0000 08B5     		push	{r3, lr}
 459              		.cfi_def_cfa_offset 8
 460              		.cfi_offset 3, -8
 461              		.cfi_offset 14, -4
 863:Generated_Source\PSoC5/SPI.c ****     uint8 enableInterrupts;
 864:Generated_Source\PSoC5/SPI.c **** 
 865:Generated_Source\PSoC5/SPI.c ****     enableInterrupts = CyEnterCriticalSection();
 462              		.loc 1 865 0
 463 0002 FFF7FEFF 		bl	CyEnterCriticalSection
 464              	.LVL16:
 866:Generated_Source\PSoC5/SPI.c ****     /* Clear TX FIFO */
 867:Generated_Source\PSoC5/SPI.c ****     SPI_AUX_CONTROL_DP0_REG |= ((uint8)  SPI_TX_FIFO_CLR);
 465              		.loc 1 867 0
 466 0006 064B     		ldr	r3, .L49
 467 0008 1A78     		ldrb	r2, [r3]	@ zero_extendqisi2
 468 000a 42F00102 		orr	r2, r2, #1
 469 000e 1A70     		strb	r2, [r3]
 868:Generated_Source\PSoC5/SPI.c ****     SPI_AUX_CONTROL_DP0_REG &= ((uint8) ~SPI_TX_FIFO_CLR);
 470              		.loc 1 868 0
 471 0010 1A78     		ldrb	r2, [r3]	@ zero_extendqisi2
 472 0012 02F0FE02 		and	r2, r2, #254
 473 0016 1A70     		strb	r2, [r3]
 869:Generated_Source\PSoC5/SPI.c **** 
 870:Generated_Source\PSoC5/SPI.c ****     #if(SPI_USE_SECOND_DATAPATH)
 871:Generated_Source\PSoC5/SPI.c ****         /* Clear TX FIFO for 2nd Datapath */
 872:Generated_Source\PSoC5/SPI.c ****         SPI_AUX_CONTROL_DP1_REG |= ((uint8)  SPI_TX_FIFO_CLR);
 873:Generated_Source\PSoC5/SPI.c ****         SPI_AUX_CONTROL_DP1_REG &= ((uint8) ~SPI_TX_FIFO_CLR);
 874:Generated_Source\PSoC5/SPI.c ****     #endif /* (SPI_USE_SECOND_DATAPATH) */
 875:Generated_Source\PSoC5/SPI.c ****     CyExitCriticalSection(enableInterrupts);
 876:Generated_Source\PSoC5/SPI.c **** 
 877:Generated_Source\PSoC5/SPI.c ****     #if(SPI_TX_SOFTWARE_BUF_ENABLED)
 878:Generated_Source\PSoC5/SPI.c ****         /* Disable TX interrupt to protect global veriables */
 879:Generated_Source\PSoC5/SPI.c ****         SPI_DisableTxInt();
 880:Generated_Source\PSoC5/SPI.c **** 
 881:Generated_Source\PSoC5/SPI.c ****         SPI_txBufferFull  = 0u;
 882:Generated_Source\PSoC5/SPI.c ****         SPI_txBufferRead  = 0u;
 883:Generated_Source\PSoC5/SPI.c ****         SPI_txBufferWrite = 0u;
 884:Generated_Source\PSoC5/SPI.c **** 
 885:Generated_Source\PSoC5/SPI.c ****         /* Buffer is EMPTY: disable TX FIFO NOT FULL interrupt */
 886:Generated_Source\PSoC5/SPI.c ****         SPI_TX_STATUS_MASK_REG &= ((uint8) ~SPI_STS_TX_FIFO_NOT_FULL);
 887:Generated_Source\PSoC5/SPI.c **** 
 888:Generated_Source\PSoC5/SPI.c ****         SPI_EnableTxInt();
 889:Generated_Source\PSoC5/SPI.c ****     #endif /* (SPI_TX_SOFTWARE_BUF_ENABLED) */
 890:Generated_Source\PSoC5/SPI.c **** }
 474              		.loc 1 890 0
ARM GAS  C:\Users\ALEXAN~1\AppData\Local\Temp\ccmsaZAL.s 			page 25


 475 0018 BDE80840 		pop	{r3, lr}
 476              		.cfi_restore 14
 477              		.cfi_restore 3
 478              		.cfi_def_cfa_offset 0
 875:Generated_Source\PSoC5/SPI.c **** 
 479              		.loc 1 875 0
 480 001c FFF7FEBF 		b	CyExitCriticalSection
 481              	.LVL17:
 482              	.L50:
 483              		.align	2
 484              	.L49:
 485 0020 94640040 		.word	1073767572
 486              		.cfi_endproc
 487              	.LFE17:
 488              		.size	SPI_ClearTxBuffer, .-SPI_ClearTxBuffer
 489              		.section	.text.SPI_PutArray,"ax",%progbits
 490              		.align	1
 491              		.global	SPI_PutArray
 492              		.thumb
 493              		.thumb_func
 494              		.type	SPI_PutArray, %function
 495              	SPI_PutArray:
 496              	.LFB18:
 891:Generated_Source\PSoC5/SPI.c **** 
 892:Generated_Source\PSoC5/SPI.c **** 
 893:Generated_Source\PSoC5/SPI.c **** #if(0u != SPI_BIDIRECTIONAL_MODE)
 894:Generated_Source\PSoC5/SPI.c ****     /*******************************************************************************
 895:Generated_Source\PSoC5/SPI.c ****     * Function Name: SPI_TxEnable
 896:Generated_Source\PSoC5/SPI.c ****     ********************************************************************************
 897:Generated_Source\PSoC5/SPI.c ****     *
 898:Generated_Source\PSoC5/SPI.c ****     * Summary:
 899:Generated_Source\PSoC5/SPI.c ****     *  If the SPI master is configured to use a single bi-directional pin then this
 900:Generated_Source\PSoC5/SPI.c ****     *  will set the bi-directional pin to transmit.
 901:Generated_Source\PSoC5/SPI.c ****     *
 902:Generated_Source\PSoC5/SPI.c ****     * Parameters:
 903:Generated_Source\PSoC5/SPI.c ****     *  None.
 904:Generated_Source\PSoC5/SPI.c ****     *
 905:Generated_Source\PSoC5/SPI.c ****     * Return:
 906:Generated_Source\PSoC5/SPI.c ****     *  None.
 907:Generated_Source\PSoC5/SPI.c ****     *
 908:Generated_Source\PSoC5/SPI.c ****     *******************************************************************************/
 909:Generated_Source\PSoC5/SPI.c ****     void SPI_TxEnable(void) 
 910:Generated_Source\PSoC5/SPI.c ****     {
 911:Generated_Source\PSoC5/SPI.c ****         SPI_CONTROL_REG |= SPI_CTRL_TX_SIGNAL_EN;
 912:Generated_Source\PSoC5/SPI.c ****     }
 913:Generated_Source\PSoC5/SPI.c **** 
 914:Generated_Source\PSoC5/SPI.c **** 
 915:Generated_Source\PSoC5/SPI.c ****     /*******************************************************************************
 916:Generated_Source\PSoC5/SPI.c ****     * Function Name: SPI_TxDisable
 917:Generated_Source\PSoC5/SPI.c ****     ********************************************************************************
 918:Generated_Source\PSoC5/SPI.c ****     *
 919:Generated_Source\PSoC5/SPI.c ****     * Summary:
 920:Generated_Source\PSoC5/SPI.c ****     *  If the SPI master is configured to use a single bi-directional pin then this
 921:Generated_Source\PSoC5/SPI.c ****     *  will set the bi-directional pin to receive.
 922:Generated_Source\PSoC5/SPI.c ****     *
 923:Generated_Source\PSoC5/SPI.c ****     * Parameters:
 924:Generated_Source\PSoC5/SPI.c ****     *  None.
ARM GAS  C:\Users\ALEXAN~1\AppData\Local\Temp\ccmsaZAL.s 			page 26


 925:Generated_Source\PSoC5/SPI.c ****     *
 926:Generated_Source\PSoC5/SPI.c ****     * Return:
 927:Generated_Source\PSoC5/SPI.c ****     *  None.
 928:Generated_Source\PSoC5/SPI.c ****     *
 929:Generated_Source\PSoC5/SPI.c ****     *******************************************************************************/
 930:Generated_Source\PSoC5/SPI.c ****     void SPI_TxDisable(void) 
 931:Generated_Source\PSoC5/SPI.c ****     {
 932:Generated_Source\PSoC5/SPI.c ****         SPI_CONTROL_REG &= ((uint8) ~SPI_CTRL_TX_SIGNAL_EN);
 933:Generated_Source\PSoC5/SPI.c ****     }
 934:Generated_Source\PSoC5/SPI.c **** 
 935:Generated_Source\PSoC5/SPI.c **** #endif /* (0u != SPI_BIDIRECTIONAL_MODE) */
 936:Generated_Source\PSoC5/SPI.c **** 
 937:Generated_Source\PSoC5/SPI.c **** 
 938:Generated_Source\PSoC5/SPI.c **** /*******************************************************************************
 939:Generated_Source\PSoC5/SPI.c **** * Function Name: SPI_PutArray
 940:Generated_Source\PSoC5/SPI.c **** ********************************************************************************
 941:Generated_Source\PSoC5/SPI.c **** *
 942:Generated_Source\PSoC5/SPI.c **** * Summary:
 943:Generated_Source\PSoC5/SPI.c **** *  Write available data from ROM/RAM to the TX buffer while space is available
 944:Generated_Source\PSoC5/SPI.c **** *  in the TX buffer. Keep trying until all data is passed to the TX buffer.
 945:Generated_Source\PSoC5/SPI.c **** *
 946:Generated_Source\PSoC5/SPI.c **** * Parameters:
 947:Generated_Source\PSoC5/SPI.c **** *  *buffer: Pointer to the location in RAM containing the data to send
 948:Generated_Source\PSoC5/SPI.c **** *  byteCount: The number of bytes to move to the transmit buffer.
 949:Generated_Source\PSoC5/SPI.c **** *
 950:Generated_Source\PSoC5/SPI.c **** * Return:
 951:Generated_Source\PSoC5/SPI.c **** *  None.
 952:Generated_Source\PSoC5/SPI.c **** *
 953:Generated_Source\PSoC5/SPI.c **** * Side Effects:
 954:Generated_Source\PSoC5/SPI.c **** *  Will stay in this routine until all data has been sent.  May get locked in
 955:Generated_Source\PSoC5/SPI.c **** *  this loop if data is not being initiated by the master if there is not
 956:Generated_Source\PSoC5/SPI.c **** *  enough room in the TX FIFO.
 957:Generated_Source\PSoC5/SPI.c **** *
 958:Generated_Source\PSoC5/SPI.c **** * Reentrant:
 959:Generated_Source\PSoC5/SPI.c **** *  No.
 960:Generated_Source\PSoC5/SPI.c **** *
 961:Generated_Source\PSoC5/SPI.c **** *******************************************************************************/
 962:Generated_Source\PSoC5/SPI.c **** void SPI_PutArray(const uint8 buffer[], uint8 byteCount)
 963:Generated_Source\PSoC5/SPI.c ****                                                                           
 964:Generated_Source\PSoC5/SPI.c **** {
 497              		.loc 1 964 0
 498              		.cfi_startproc
 499              		@ args = 0, pretend = 0, frame = 0
 500              		@ frame_needed = 0, uses_anonymous_args = 0
 501              	.LVL18:
 502 0000 10B5     		push	{r4, lr}
 503              		.cfi_def_cfa_offset 8
 504              		.cfi_offset 4, -8
 505              		.cfi_offset 14, -4
 506 0002 441E     		subs	r4, r0, #1
 507              	.LVL19:
 508              	.L52:
 965:Generated_Source\PSoC5/SPI.c ****     uint8 bufIndex;
 966:Generated_Source\PSoC5/SPI.c **** 
 967:Generated_Source\PSoC5/SPI.c ****     bufIndex = 0u;
 968:Generated_Source\PSoC5/SPI.c **** 
 969:Generated_Source\PSoC5/SPI.c ****     while(byteCount > 0u)
ARM GAS  C:\Users\ALEXAN~1\AppData\Local\Temp\ccmsaZAL.s 			page 27


 509              		.loc 1 969 0
 510 0004 31B1     		cbz	r1, .L54
 970:Generated_Source\PSoC5/SPI.c ****     {
 971:Generated_Source\PSoC5/SPI.c ****         SPI_WriteTxData(buffer[bufIndex]);
 511              		.loc 1 971 0
 512 0006 14F8010F 		ldrb	r0, [r4, #1]!	@ zero_extendqisi2
 513              	.LVL20:
 514 000a FFF7FEFF 		bl	SPI_WriteTxData
 515              	.LVL21:
 972:Generated_Source\PSoC5/SPI.c ****         bufIndex++;
 973:Generated_Source\PSoC5/SPI.c ****         byteCount--;
 516              		.loc 1 973 0
 517 000e 0139     		subs	r1, r1, #1
 518 0010 C9B2     		uxtb	r1, r1
 519              	.LVL22:
 520 0012 F7E7     		b	.L52
 521              	.L54:
 974:Generated_Source\PSoC5/SPI.c ****     }
 975:Generated_Source\PSoC5/SPI.c **** }
 522              		.loc 1 975 0
 523 0014 10BD     		pop	{r4, pc}
 524              		.cfi_endproc
 525              	.LFE18:
 526              		.size	SPI_PutArray, .-SPI_PutArray
 527              		.section	.text.SPI_ClearFIFO,"ax",%progbits
 528              		.align	1
 529              		.global	SPI_ClearFIFO
 530              		.thumb
 531              		.thumb_func
 532              		.type	SPI_ClearFIFO, %function
 533              	SPI_ClearFIFO:
 534              	.LFB19:
 976:Generated_Source\PSoC5/SPI.c **** 
 977:Generated_Source\PSoC5/SPI.c **** 
 978:Generated_Source\PSoC5/SPI.c **** /*******************************************************************************
 979:Generated_Source\PSoC5/SPI.c **** * Function Name: SPI_ClearFIFO
 980:Generated_Source\PSoC5/SPI.c **** ********************************************************************************
 981:Generated_Source\PSoC5/SPI.c **** *
 982:Generated_Source\PSoC5/SPI.c **** * Summary:
 983:Generated_Source\PSoC5/SPI.c **** *  Clear the RX and TX FIFO's of all data for a fresh start.
 984:Generated_Source\PSoC5/SPI.c **** *
 985:Generated_Source\PSoC5/SPI.c **** * Parameters:
 986:Generated_Source\PSoC5/SPI.c **** *  None.
 987:Generated_Source\PSoC5/SPI.c **** *
 988:Generated_Source\PSoC5/SPI.c **** * Return:
 989:Generated_Source\PSoC5/SPI.c **** *  None.
 990:Generated_Source\PSoC5/SPI.c **** *
 991:Generated_Source\PSoC5/SPI.c **** * Side Effects:
 992:Generated_Source\PSoC5/SPI.c **** *  Clear status register of the component.
 993:Generated_Source\PSoC5/SPI.c **** *
 994:Generated_Source\PSoC5/SPI.c **** *******************************************************************************/
 995:Generated_Source\PSoC5/SPI.c **** void SPI_ClearFIFO(void) 
 996:Generated_Source\PSoC5/SPI.c **** {
 535              		.loc 1 996 0
 536              		.cfi_startproc
 537              		@ args = 0, pretend = 0, frame = 0
 538              		@ frame_needed = 0, uses_anonymous_args = 0
ARM GAS  C:\Users\ALEXAN~1\AppData\Local\Temp\ccmsaZAL.s 			page 28


 539 0000 08B5     		push	{r3, lr}
 540              		.cfi_def_cfa_offset 8
 541              		.cfi_offset 3, -8
 542              		.cfi_offset 14, -4
 997:Generated_Source\PSoC5/SPI.c ****     uint8 enableInterrupts;
 998:Generated_Source\PSoC5/SPI.c **** 
 999:Generated_Source\PSoC5/SPI.c ****     /* Clear Hardware RX FIFO */
1000:Generated_Source\PSoC5/SPI.c ****     while(0u !=(SPI_RX_STATUS_REG & SPI_STS_RX_FIFO_NOT_EMPTY))
 543              		.loc 1 1000 0
 544 0002 0B4A     		ldr	r2, .L59
1001:Generated_Source\PSoC5/SPI.c ****     {
1002:Generated_Source\PSoC5/SPI.c ****         (void) CY_GET_REG8(SPI_RXDATA_PTR);
 545              		.loc 1 1002 0
 546 0004 0B49     		ldr	r1, .L59+4
 547              	.L56:
1000:Generated_Source\PSoC5/SPI.c ****     {
 548              		.loc 1 1000 0
 549 0006 1378     		ldrb	r3, [r2]	@ zero_extendqisi2
 550 0008 9B06     		lsls	r3, r3, #26
 551 000a 01D5     		bpl	.L58
 552              		.loc 1 1002 0
 553 000c 0B78     		ldrb	r3, [r1]	@ zero_extendqisi2
 554 000e FAE7     		b	.L56
 555              	.L58:
1003:Generated_Source\PSoC5/SPI.c ****     }
1004:Generated_Source\PSoC5/SPI.c **** 
1005:Generated_Source\PSoC5/SPI.c ****     enableInterrupts = CyEnterCriticalSection();
 556              		.loc 1 1005 0
 557 0010 FFF7FEFF 		bl	CyEnterCriticalSection
 558              	.LVL23:
1006:Generated_Source\PSoC5/SPI.c ****     /* Clear TX FIFO */
1007:Generated_Source\PSoC5/SPI.c ****     SPI_AUX_CONTROL_DP0_REG |= ((uint8)  SPI_TX_FIFO_CLR);
 559              		.loc 1 1007 0
 560 0014 084B     		ldr	r3, .L59+8
 561 0016 1A78     		ldrb	r2, [r3]	@ zero_extendqisi2
 562 0018 42F00102 		orr	r2, r2, #1
 563 001c 1A70     		strb	r2, [r3]
1008:Generated_Source\PSoC5/SPI.c ****     SPI_AUX_CONTROL_DP0_REG &= ((uint8) ~SPI_TX_FIFO_CLR);
 564              		.loc 1 1008 0
 565 001e 1A78     		ldrb	r2, [r3]	@ zero_extendqisi2
 566 0020 02F0FE02 		and	r2, r2, #254
 567 0024 1A70     		strb	r2, [r3]
1009:Generated_Source\PSoC5/SPI.c **** 
1010:Generated_Source\PSoC5/SPI.c ****     #if(SPI_USE_SECOND_DATAPATH)
1011:Generated_Source\PSoC5/SPI.c ****         /* Clear TX FIFO for 2nd Datapath */
1012:Generated_Source\PSoC5/SPI.c ****         SPI_AUX_CONTROL_DP1_REG |= ((uint8)  SPI_TX_FIFO_CLR);
1013:Generated_Source\PSoC5/SPI.c ****         SPI_AUX_CONTROL_DP1_REG &= ((uint8) ~SPI_TX_FIFO_CLR);
1014:Generated_Source\PSoC5/SPI.c ****     #endif /* (SPI_USE_SECOND_DATAPATH) */
1015:Generated_Source\PSoC5/SPI.c ****     CyExitCriticalSection(enableInterrupts);
1016:Generated_Source\PSoC5/SPI.c **** }
 568              		.loc 1 1016 0
 569 0026 BDE80840 		pop	{r3, lr}
 570              		.cfi_restore 14
 571              		.cfi_restore 3
 572              		.cfi_def_cfa_offset 0
1015:Generated_Source\PSoC5/SPI.c **** }
 573              		.loc 1 1015 0
ARM GAS  C:\Users\ALEXAN~1\AppData\Local\Temp\ccmsaZAL.s 			page 29


 574 002a FFF7FEBF 		b	CyExitCriticalSection
 575              	.LVL24:
 576              	.L60:
 577 002e 00BF     		.align	2
 578              	.L59:
 579 0030 6B640040 		.word	1073767531
 580 0034 54640040 		.word	1073767508
 581 0038 94640040 		.word	1073767572
 582              		.cfi_endproc
 583              	.LFE19:
 584              		.size	SPI_ClearFIFO, .-SPI_ClearFIFO
 585              		.section	.text.SPI_Init,"ax",%progbits
 586              		.align	1
 587              		.global	SPI_Init
 588              		.thumb
 589              		.thumb_func
 590              		.type	SPI_Init, %function
 591              	SPI_Init:
 592              	.LFB0:
  64:Generated_Source\PSoC5/SPI.c ****     /* Initialize the Bit counter */
 593              		.loc 1 64 0
 594              		.cfi_startproc
 595              		@ args = 0, pretend = 0, frame = 0
 596              		@ frame_needed = 0, uses_anonymous_args = 0
 597 0000 08B5     		push	{r3, lr}
 598              		.cfi_def_cfa_offset 8
 599              		.cfi_offset 3, -8
 600              		.cfi_offset 14, -4
  66:Generated_Source\PSoC5/SPI.c **** 
 601              		.loc 1 66 0
 602 0002 074B     		ldr	r3, .L62
 603 0004 0F22     		movs	r2, #15
 604 0006 1A70     		strb	r2, [r3]
  83:Generated_Source\PSoC5/SPI.c **** 
 605              		.loc 1 83 0
 606 0008 FFF7FEFF 		bl	SPI_ClearFIFO
 607              	.LVL25:
 608              	.LBB22:
 609              	.LBB23:
 401:Generated_Source\PSoC5/SPI.c **** 
 610              		.loc 1 401 0
 611 000c 054B     		ldr	r3, .L62+4
 612              	.LBE23:
 613              	.LBE22:
 101:Generated_Source\PSoC5/SPI.c ****     SPI_RX_STATUS_MASK_REG = SPI_RX_INIT_INTERRUPTS_MASK;
 614              		.loc 1 101 0
 615 000e 064A     		ldr	r2, .L62+8
 616              	.LBB25:
 617              	.LBB24:
 401:Generated_Source\PSoC5/SPI.c **** 
 618              		.loc 1 401 0
 619 0010 1B78     		ldrb	r3, [r3]	@ zero_extendqisi2
 620              	.LBE24:
 621              	.LBE25:
 622              	.LBB26:
 623              	.LBB27:
 452:Generated_Source\PSoC5/SPI.c **** 
ARM GAS  C:\Users\ALEXAN~1\AppData\Local\Temp\ccmsaZAL.s 			page 30


 624              		.loc 1 452 0
 625 0012 064B     		ldr	r3, .L62+12
 626 0014 1B78     		ldrb	r3, [r3]	@ zero_extendqisi2
 627              	.LBE27:
 628              	.LBE26:
 101:Generated_Source\PSoC5/SPI.c ****     SPI_RX_STATUS_MASK_REG = SPI_RX_INIT_INTERRUPTS_MASK;
 629              		.loc 1 101 0
 630 0016 0023     		movs	r3, #0
 631 0018 1370     		strb	r3, [r2]
 102:Generated_Source\PSoC5/SPI.c **** }
 632              		.loc 1 102 0
 633 001a 02F8FD3C 		strb	r3, [r2, #-253]
 634 001e 08BD     		pop	{r3, pc}
 635              	.L63:
 636              		.align	2
 637              	.L62:
 638 0020 84640040 		.word	1073767556
 639 0024 68650040 		.word	1073767784
 640 0028 88650040 		.word	1073767816
 641 002c 6B640040 		.word	1073767531
 642              		.cfi_endproc
 643              	.LFE0:
 644              		.size	SPI_Init, .-SPI_Init
 645              		.section	.text.SPI_Start,"ax",%progbits
 646              		.align	1
 647              		.global	SPI_Start
 648              		.thumb
 649              		.thumb_func
 650              		.type	SPI_Start, %function
 651              	SPI_Start:
 652              	.LFB2:
 164:Generated_Source\PSoC5/SPI.c ****     if(0u == SPI_initVar)
 653              		.loc 1 164 0
 654              		.cfi_startproc
 655              		@ args = 0, pretend = 0, frame = 0
 656              		@ frame_needed = 0, uses_anonymous_args = 0
 657 0000 10B5     		push	{r4, lr}
 658              		.cfi_def_cfa_offset 8
 659              		.cfi_offset 4, -8
 660              		.cfi_offset 14, -4
 165:Generated_Source\PSoC5/SPI.c ****     {
 661              		.loc 1 165 0
 662 0002 054C     		ldr	r4, .L66
 663 0004 2378     		ldrb	r3, [r4]	@ zero_extendqisi2
 664 0006 1BB9     		cbnz	r3, .L65
 167:Generated_Source\PSoC5/SPI.c ****         SPI_initVar = 1u;
 665              		.loc 1 167 0
 666 0008 FFF7FEFF 		bl	SPI_Init
 667              	.LVL26:
 168:Generated_Source\PSoC5/SPI.c ****     }
 668              		.loc 1 168 0
 669 000c 0123     		movs	r3, #1
 670 000e 2370     		strb	r3, [r4]
 671              	.L65:
 172:Generated_Source\PSoC5/SPI.c **** 
 672              		.loc 1 172 0
 673 0010 BDE81040 		pop	{r4, lr}
ARM GAS  C:\Users\ALEXAN~1\AppData\Local\Temp\ccmsaZAL.s 			page 31


 674              		.cfi_restore 14
 675              		.cfi_restore 4
 676              		.cfi_def_cfa_offset 0
 171:Generated_Source\PSoC5/SPI.c **** }
 677              		.loc 1 171 0
 678 0014 FFF7FEBF 		b	SPI_Enable
 679              	.LVL27:
 680              	.L67:
 681              		.align	2
 682              	.L66:
 683 0018 00000000 		.word	.LANCHOR0
 684              		.cfi_endproc
 685              	.LFE2:
 686              		.size	SPI_Start, .-SPI_Start
 687              		.section	.text.SPI_EnableInt,"ax",%progbits
 688              		.align	1
 689              		.global	SPI_EnableInt
 690              		.thumb
 691              		.thumb_func
 692              		.type	SPI_EnableInt, %function
 693              	SPI_EnableInt:
 694              	.LFB25:
 695              		.cfi_startproc
 696              		@ args = 0, pretend = 0, frame = 0
 697              		@ frame_needed = 0, uses_anonymous_args = 0
 698              		@ link register save eliminated.
 699 0000 7047     		bx	lr
 700              		.cfi_endproc
 701              	.LFE25:
 702              		.size	SPI_EnableInt, .-SPI_EnableInt
 703              		.section	.text.SPI_DisableInt,"ax",%progbits
 704              		.align	1
 705              		.global	SPI_DisableInt
 706              		.thumb
 707              		.thumb_func
 708              		.type	SPI_DisableInt, %function
 709              	SPI_DisableInt:
 710              	.LFB21:
1017:Generated_Source\PSoC5/SPI.c **** 
1018:Generated_Source\PSoC5/SPI.c **** 
1019:Generated_Source\PSoC5/SPI.c **** /* Following functions are for version Compatibility, they are obsolete.
1020:Generated_Source\PSoC5/SPI.c **** *  Please do not use it in new projects.
1021:Generated_Source\PSoC5/SPI.c **** */
1022:Generated_Source\PSoC5/SPI.c **** 
1023:Generated_Source\PSoC5/SPI.c **** 
1024:Generated_Source\PSoC5/SPI.c **** /*******************************************************************************
1025:Generated_Source\PSoC5/SPI.c **** * Function Name: SPI_EnableInt
1026:Generated_Source\PSoC5/SPI.c **** ********************************************************************************
1027:Generated_Source\PSoC5/SPI.c **** *
1028:Generated_Source\PSoC5/SPI.c **** * Summary:
1029:Generated_Source\PSoC5/SPI.c **** *  Enable internal interrupt generation.
1030:Generated_Source\PSoC5/SPI.c **** *
1031:Generated_Source\PSoC5/SPI.c **** * Parameters:
1032:Generated_Source\PSoC5/SPI.c **** *  None.
1033:Generated_Source\PSoC5/SPI.c **** *
1034:Generated_Source\PSoC5/SPI.c **** * Return:
1035:Generated_Source\PSoC5/SPI.c **** *  None.
ARM GAS  C:\Users\ALEXAN~1\AppData\Local\Temp\ccmsaZAL.s 			page 32


1036:Generated_Source\PSoC5/SPI.c **** *
1037:Generated_Source\PSoC5/SPI.c **** * Theory:
1038:Generated_Source\PSoC5/SPI.c **** *  Enable the internal interrupt output -or- the interrupt component itself.
1039:Generated_Source\PSoC5/SPI.c **** *
1040:Generated_Source\PSoC5/SPI.c **** *******************************************************************************/
1041:Generated_Source\PSoC5/SPI.c **** void SPI_EnableInt(void) 
1042:Generated_Source\PSoC5/SPI.c **** {
1043:Generated_Source\PSoC5/SPI.c ****     SPI_EnableRxInt();
1044:Generated_Source\PSoC5/SPI.c ****     SPI_EnableTxInt();
1045:Generated_Source\PSoC5/SPI.c **** }
1046:Generated_Source\PSoC5/SPI.c **** 
1047:Generated_Source\PSoC5/SPI.c **** 
1048:Generated_Source\PSoC5/SPI.c **** /*******************************************************************************
1049:Generated_Source\PSoC5/SPI.c **** * Function Name: SPI_DisableInt
1050:Generated_Source\PSoC5/SPI.c **** ********************************************************************************
1051:Generated_Source\PSoC5/SPI.c **** *
1052:Generated_Source\PSoC5/SPI.c **** * Summary:
1053:Generated_Source\PSoC5/SPI.c **** *  Disable internal interrupt generation.
1054:Generated_Source\PSoC5/SPI.c **** *
1055:Generated_Source\PSoC5/SPI.c **** * Parameters:
1056:Generated_Source\PSoC5/SPI.c **** *  None.
1057:Generated_Source\PSoC5/SPI.c **** *
1058:Generated_Source\PSoC5/SPI.c **** * Return:
1059:Generated_Source\PSoC5/SPI.c **** *  None.
1060:Generated_Source\PSoC5/SPI.c **** *
1061:Generated_Source\PSoC5/SPI.c **** * Theory:
1062:Generated_Source\PSoC5/SPI.c **** *  Disable the internal interrupt output -or- the interrupt component itself.
1063:Generated_Source\PSoC5/SPI.c **** *
1064:Generated_Source\PSoC5/SPI.c **** *******************************************************************************/
1065:Generated_Source\PSoC5/SPI.c **** void SPI_DisableInt(void) 
1066:Generated_Source\PSoC5/SPI.c **** {
 711              		.loc 1 1066 0
 712              		.cfi_startproc
 713              		@ args = 0, pretend = 0, frame = 0
 714              		@ frame_needed = 0, uses_anonymous_args = 0
 715              		@ link register save eliminated.
 716 0000 7047     		bx	lr
 717              		.cfi_endproc
 718              	.LFE21:
 719              		.size	SPI_DisableInt, .-SPI_DisableInt
 720              		.section	.text.SPI_SetInterruptMode,"ax",%progbits
 721              		.align	1
 722              		.global	SPI_SetInterruptMode
 723              		.thumb
 724              		.thumb_func
 725              		.type	SPI_SetInterruptMode, %function
 726              	SPI_SetInterruptMode:
 727              	.LFB22:
1067:Generated_Source\PSoC5/SPI.c ****     SPI_DisableTxInt();
1068:Generated_Source\PSoC5/SPI.c ****     SPI_DisableRxInt();
1069:Generated_Source\PSoC5/SPI.c **** }
1070:Generated_Source\PSoC5/SPI.c **** 
1071:Generated_Source\PSoC5/SPI.c **** 
1072:Generated_Source\PSoC5/SPI.c **** /*******************************************************************************
1073:Generated_Source\PSoC5/SPI.c **** * Function Name: SPI_SetInterruptMode
1074:Generated_Source\PSoC5/SPI.c **** ********************************************************************************
1075:Generated_Source\PSoC5/SPI.c **** *
ARM GAS  C:\Users\ALEXAN~1\AppData\Local\Temp\ccmsaZAL.s 			page 33


1076:Generated_Source\PSoC5/SPI.c **** * Summary:
1077:Generated_Source\PSoC5/SPI.c **** *  Configure which status bits trigger an interrupt event.
1078:Generated_Source\PSoC5/SPI.c **** *
1079:Generated_Source\PSoC5/SPI.c **** * Parameters:
1080:Generated_Source\PSoC5/SPI.c **** *  intSrc: An or'd combination of the desired status bit masks (defined in the
1081:Generated_Source\PSoC5/SPI.c **** *  header file).
1082:Generated_Source\PSoC5/SPI.c **** *
1083:Generated_Source\PSoC5/SPI.c **** * Return:
1084:Generated_Source\PSoC5/SPI.c **** *  None.
1085:Generated_Source\PSoC5/SPI.c **** *
1086:Generated_Source\PSoC5/SPI.c **** * Theory:
1087:Generated_Source\PSoC5/SPI.c **** *  Enables the output of specific status bits to the interrupt controller.
1088:Generated_Source\PSoC5/SPI.c **** *
1089:Generated_Source\PSoC5/SPI.c **** *******************************************************************************/
1090:Generated_Source\PSoC5/SPI.c **** void SPI_SetInterruptMode(uint8 intSrc) 
1091:Generated_Source\PSoC5/SPI.c **** {
 728              		.loc 1 1091 0
 729              		.cfi_startproc
 730              		@ args = 0, pretend = 0, frame = 0
 731              		@ frame_needed = 0, uses_anonymous_args = 0
 732              		@ link register save eliminated.
 733              	.LVL28:
1092:Generated_Source\PSoC5/SPI.c ****     SPI_TX_STATUS_MASK_REG  = (intSrc & ((uint8) ~SPI_STS_SPI_IDLE));
 734              		.loc 1 1092 0
 735 0000 034B     		ldr	r3, .L71
 736 0002 00F0EF02 		and	r2, r0, #239
 737 0006 1A70     		strb	r2, [r3]
1093:Generated_Source\PSoC5/SPI.c ****     SPI_RX_STATUS_MASK_REG  =  intSrc;
 738              		.loc 1 1093 0
 739 0008 03F8FD0C 		strb	r0, [r3, #-253]
 740 000c 7047     		bx	lr
 741              	.L72:
 742 000e 00BF     		.align	2
 743              	.L71:
 744 0010 88650040 		.word	1073767816
 745              		.cfi_endproc
 746              	.LFE22:
 747              		.size	SPI_SetInterruptMode, .-SPI_SetInterruptMode
 748              		.section	.text.SPI_ReadStatus,"ax",%progbits
 749              		.align	1
 750              		.global	SPI_ReadStatus
 751              		.thumb
 752              		.thumb_func
 753              		.type	SPI_ReadStatus, %function
 754              	SPI_ReadStatus:
 755              	.LFB23:
1094:Generated_Source\PSoC5/SPI.c **** }
1095:Generated_Source\PSoC5/SPI.c **** 
1096:Generated_Source\PSoC5/SPI.c **** 
1097:Generated_Source\PSoC5/SPI.c **** /*******************************************************************************
1098:Generated_Source\PSoC5/SPI.c **** * Function Name: SPI_ReadStatus
1099:Generated_Source\PSoC5/SPI.c **** ********************************************************************************
1100:Generated_Source\PSoC5/SPI.c **** *
1101:Generated_Source\PSoC5/SPI.c **** * Summary:
1102:Generated_Source\PSoC5/SPI.c **** *  Read the status register for the component.
1103:Generated_Source\PSoC5/SPI.c **** *
1104:Generated_Source\PSoC5/SPI.c **** * Parameters:
ARM GAS  C:\Users\ALEXAN~1\AppData\Local\Temp\ccmsaZAL.s 			page 34


1105:Generated_Source\PSoC5/SPI.c **** *  None.
1106:Generated_Source\PSoC5/SPI.c **** *
1107:Generated_Source\PSoC5/SPI.c **** * Return:
1108:Generated_Source\PSoC5/SPI.c **** *  Contents of the status register.
1109:Generated_Source\PSoC5/SPI.c **** *
1110:Generated_Source\PSoC5/SPI.c **** * Global variables:
1111:Generated_Source\PSoC5/SPI.c **** *  SPI_swStatus - used to store in software status register,
1112:Generated_Source\PSoC5/SPI.c **** *  modified every function call - resets to zero.
1113:Generated_Source\PSoC5/SPI.c **** *
1114:Generated_Source\PSoC5/SPI.c **** * Theory:
1115:Generated_Source\PSoC5/SPI.c **** *  Allows the user and the API to read the status register for error detection
1116:Generated_Source\PSoC5/SPI.c **** *  and flow control.
1117:Generated_Source\PSoC5/SPI.c **** *
1118:Generated_Source\PSoC5/SPI.c **** * Side Effects:
1119:Generated_Source\PSoC5/SPI.c **** *  Clear status register of the component.
1120:Generated_Source\PSoC5/SPI.c **** *
1121:Generated_Source\PSoC5/SPI.c **** * Reentrant:
1122:Generated_Source\PSoC5/SPI.c **** *  No.
1123:Generated_Source\PSoC5/SPI.c **** *
1124:Generated_Source\PSoC5/SPI.c **** *******************************************************************************/
1125:Generated_Source\PSoC5/SPI.c **** uint8 SPI_ReadStatus(void) 
1126:Generated_Source\PSoC5/SPI.c **** {
 756              		.loc 1 1126 0
 757              		.cfi_startproc
 758              		@ args = 0, pretend = 0, frame = 0
 759              		@ frame_needed = 0, uses_anonymous_args = 0
 760              		@ link register save eliminated.
1127:Generated_Source\PSoC5/SPI.c ****     uint8 tmpStatus;
1128:Generated_Source\PSoC5/SPI.c **** 
1129:Generated_Source\PSoC5/SPI.c ****     #if(SPI_TX_SOFTWARE_BUF_ENABLED || SPI_RX_SOFTWARE_BUF_ENABLED)
1130:Generated_Source\PSoC5/SPI.c **** 
1131:Generated_Source\PSoC5/SPI.c ****         SPI_DisableInt();
1132:Generated_Source\PSoC5/SPI.c **** 
1133:Generated_Source\PSoC5/SPI.c ****         tmpStatus  = SPI_GET_STATUS_RX(SPI_swStatusRx);
1134:Generated_Source\PSoC5/SPI.c ****         tmpStatus |= SPI_GET_STATUS_TX(SPI_swStatusTx);
1135:Generated_Source\PSoC5/SPI.c ****         tmpStatus &= ((uint8) ~SPI_STS_SPI_IDLE);
1136:Generated_Source\PSoC5/SPI.c **** 
1137:Generated_Source\PSoC5/SPI.c ****         SPI_swStatusTx = 0u;
1138:Generated_Source\PSoC5/SPI.c ****         SPI_swStatusRx = 0u;
1139:Generated_Source\PSoC5/SPI.c **** 
1140:Generated_Source\PSoC5/SPI.c ****         SPI_EnableInt();
1141:Generated_Source\PSoC5/SPI.c **** 
1142:Generated_Source\PSoC5/SPI.c ****     #else
1143:Generated_Source\PSoC5/SPI.c **** 
1144:Generated_Source\PSoC5/SPI.c ****         tmpStatus  = SPI_RX_STATUS_REG;
 761              		.loc 1 1144 0
 762 0000 034B     		ldr	r3, .L74
 763 0002 1878     		ldrb	r0, [r3]	@ zero_extendqisi2
 764              	.LVL29:
1145:Generated_Source\PSoC5/SPI.c ****         tmpStatus |= SPI_TX_STATUS_REG;
 765              		.loc 1 1145 0
 766 0004 FD33     		adds	r3, r3, #253
 767 0006 1B78     		ldrb	r3, [r3]	@ zero_extendqisi2
 768 0008 1843     		orrs	r0, r0, r3
 769              	.LVL30:
1146:Generated_Source\PSoC5/SPI.c ****         tmpStatus &= ((uint8) ~SPI_STS_SPI_IDLE);
1147:Generated_Source\PSoC5/SPI.c **** 
ARM GAS  C:\Users\ALEXAN~1\AppData\Local\Temp\ccmsaZAL.s 			page 35


1148:Generated_Source\PSoC5/SPI.c ****     #endif /* (SPI_TX_SOFTWARE_BUF_ENABLED || SPI_RX_SOFTWARE_BUF_ENABLED) */
1149:Generated_Source\PSoC5/SPI.c **** 
1150:Generated_Source\PSoC5/SPI.c ****     return(tmpStatus);
1151:Generated_Source\PSoC5/SPI.c **** }
 770              		.loc 1 1151 0
 771 000a 00F0EF00 		and	r0, r0, #239
 772              	.LVL31:
 773 000e 7047     		bx	lr
 774              	.L75:
 775              		.align	2
 776              	.L74:
 777 0010 6B640040 		.word	1073767531
 778              		.cfi_endproc
 779              	.LFE23:
 780              		.size	SPI_ReadStatus, .-SPI_ReadStatus
 781              		.comm	SPI_swStatusRx,1,1
 782              		.comm	SPI_swStatusTx,1,1
 783              		.global	SPI_initVar
 784              		.bss
 785              		.set	.LANCHOR0,. + 0
 786              		.type	SPI_initVar, %object
 787              		.size	SPI_initVar, 1
 788              	SPI_initVar:
 789 0000 00       		.space	1
 790              		.text
 791              	.Letext0:
 792              		.file 2 "Generated_Source\\PSoC5\\cytypes.h"
 793              		.file 3 "Generated_Source\\PSoC5\\CyLib.h"
 794              		.file 4 "Generated_Source\\PSoC5\\SPI_IntClock.h"