ARM GAS  C:\Users\Krist\AppData\Local\Temp\ccPpBvBm.s 			page 1


   1              		.syntax unified
   2              		.cpu cortex-m3
   3              		.fpu softvfp
   4              		.eabi_attribute 20, 1
   5              		.eabi_attribute 21, 1
   6              		.eabi_attribute 23, 3
   7              		.eabi_attribute 24, 1
   8              		.eabi_attribute 25, 1
   9              		.eabi_attribute 26, 1
  10              		.eabi_attribute 30, 1
  11              		.eabi_attribute 34, 1
  12              		.eabi_attribute 18, 4
  13              		.thumb
  14              		.syntax unified
  15              		.file	"Peak_Detector_1.c"
  16              		.text
  17              	.Ltext0:
  18              		.cfi_sections	.debug_frame
  19              		.section	.text.Peak_Detector_1_Start,"ax",%progbits
  20              		.align	2
  21              		.global	Peak_Detector_1_Start
  22              		.thumb
  23              		.thumb_func
  24              		.type	Peak_Detector_1_Start, %function
  25              	Peak_Detector_1_Start:
  26              	.LFB0:
  27              		.file 1 "Generated_Source\\PSoC5\\Peak_Detector_1.c"
   1:Generated_Source\PSoC5/Peak_Detector_1.c **** /******************************************************************************
   2:Generated_Source\PSoC5/Peak_Detector_1.c **** * File Name: Peak_Detector_1.c
   3:Generated_Source\PSoC5/Peak_Detector_1.c **** * Version 1.0
   4:Generated_Source\PSoC5/Peak_Detector_1.c **** *
   5:Generated_Source\PSoC5/Peak_Detector_1.c **** *  Description:
   6:Generated_Source\PSoC5/Peak_Detector_1.c **** *   API for controlling the peak detector.
   7:Generated_Source\PSoC5/Peak_Detector_1.c **** *
   8:Generated_Source\PSoC5/Peak_Detector_1.c **** *
   9:Generated_Source\PSoC5/Peak_Detector_1.c **** ********************************************************************************
  10:Generated_Source\PSoC5/Peak_Detector_1.c **** * Copyright 2008-2010, Cypress Semiconductor Corporation.  All rights reserved.
  11:Generated_Source\PSoC5/Peak_Detector_1.c **** * You may use this file only in accordance with the license, terms, conditions, 
  12:Generated_Source\PSoC5/Peak_Detector_1.c **** * disclaimers, and limitations in the end user license agreement accompanying 
  13:Generated_Source\PSoC5/Peak_Detector_1.c **** * the software package with which this file was provided.
  14:Generated_Source\PSoC5/Peak_Detector_1.c **** ********************************************************************************/
  15:Generated_Source\PSoC5/Peak_Detector_1.c **** 
  16:Generated_Source\PSoC5/Peak_Detector_1.c **** #include <CYDEVICE.H>
  17:Generated_Source\PSoC5/Peak_Detector_1.c **** #include "Peak_Detector_1.h"
  18:Generated_Source\PSoC5/Peak_Detector_1.c **** #include "Peak_Detector_1_Comp_1.h"
  19:Generated_Source\PSoC5/Peak_Detector_1.c **** #include "Peak_Detector_1_Mixer_1.h"
  20:Generated_Source\PSoC5/Peak_Detector_1.c **** 
  21:Generated_Source\PSoC5/Peak_Detector_1.c **** 
  22:Generated_Source\PSoC5/Peak_Detector_1.c **** /*******************************************************************************
  23:Generated_Source\PSoC5/Peak_Detector_1.c **** * Function Name: Peak_Detector_1_Start
  24:Generated_Source\PSoC5/Peak_Detector_1.c **** ********************************************************************************
  25:Generated_Source\PSoC5/Peak_Detector_1.c **** * Summary:
  26:Generated_Source\PSoC5/Peak_Detector_1.c **** *   Enables the peak detector component.
  27:Generated_Source\PSoC5/Peak_Detector_1.c **** *
  28:Generated_Source\PSoC5/Peak_Detector_1.c **** *
  29:Generated_Source\PSoC5/Peak_Detector_1.c **** * Parameters:
  30:Generated_Source\PSoC5/Peak_Detector_1.c **** *   void.
ARM GAS  C:\Users\Krist\AppData\Local\Temp\ccPpBvBm.s 			page 2


  31:Generated_Source\PSoC5/Peak_Detector_1.c **** *
  32:Generated_Source\PSoC5/Peak_Detector_1.c **** * Return:
  33:Generated_Source\PSoC5/Peak_Detector_1.c **** *   void.
  34:Generated_Source\PSoC5/Peak_Detector_1.c **** *   
  35:Generated_Source\PSoC5/Peak_Detector_1.c **** *
  36:Generated_Source\PSoC5/Peak_Detector_1.c **** *******************************************************************************/
  37:Generated_Source\PSoC5/Peak_Detector_1.c **** void Peak_Detector_1_Start(void)
  38:Generated_Source\PSoC5/Peak_Detector_1.c **** {
  28              		.loc 1 38 0
  29              		.cfi_startproc
  30              		@ args = 0, pretend = 0, frame = 0
  31              		@ frame_needed = 0, uses_anonymous_args = 0
  32 0000 08B5     		push	{r3, lr}
  33              		.cfi_def_cfa_offset 8
  34              		.cfi_offset 3, -8
  35              		.cfi_offset 14, -4
  39:Generated_Source\PSoC5/Peak_Detector_1.c **** 	Peak_Detector_1_Mixer_1_Start();
  36              		.loc 1 39 0
  37 0002 FFF7FEFF 		bl	Peak_Detector_1_Mixer_1_Start
  38              	.LVL0:
  40:Generated_Source\PSoC5/Peak_Detector_1.c **** 	Peak_Detector_1_Comp_1_Start();
  39              		.loc 1 40 0
  40 0006 FFF7FEFF 		bl	Peak_Detector_1_Comp_1_Start
  41              	.LVL1:
  42 000a 08BD     		pop	{r3, pc}
  43              		.cfi_endproc
  44              	.LFE0:
  45              		.size	Peak_Detector_1_Start, .-Peak_Detector_1_Start
  46              		.section	.text.Peak_Detector_1_Stop,"ax",%progbits
  47              		.align	2
  48              		.global	Peak_Detector_1_Stop
  49              		.thumb
  50              		.thumb_func
  51              		.type	Peak_Detector_1_Stop, %function
  52              	Peak_Detector_1_Stop:
  53              	.LFB1:
  41:Generated_Source\PSoC5/Peak_Detector_1.c **** }
  42:Generated_Source\PSoC5/Peak_Detector_1.c **** 
  43:Generated_Source\PSoC5/Peak_Detector_1.c **** /*******************************************************************************
  44:Generated_Source\PSoC5/Peak_Detector_1.c **** * Function Name: Peak_Detector_1_Stop
  45:Generated_Source\PSoC5/Peak_Detector_1.c **** ********************************************************************************
  46:Generated_Source\PSoC5/Peak_Detector_1.c **** * Summary:
  47:Generated_Source\PSoC5/Peak_Detector_1.c **** *   Disables the peak detector component.
  48:Generated_Source\PSoC5/Peak_Detector_1.c **** *
  49:Generated_Source\PSoC5/Peak_Detector_1.c **** *
  50:Generated_Source\PSoC5/Peak_Detector_1.c **** * Parameters:
  51:Generated_Source\PSoC5/Peak_Detector_1.c **** *   void.
  52:Generated_Source\PSoC5/Peak_Detector_1.c **** *
  53:Generated_Source\PSoC5/Peak_Detector_1.c **** * Return:
  54:Generated_Source\PSoC5/Peak_Detector_1.c **** *   void.
  55:Generated_Source\PSoC5/Peak_Detector_1.c **** *   
  56:Generated_Source\PSoC5/Peak_Detector_1.c **** *
  57:Generated_Source\PSoC5/Peak_Detector_1.c **** *******************************************************************************/
  58:Generated_Source\PSoC5/Peak_Detector_1.c **** void Peak_Detector_1_Stop(void)
  59:Generated_Source\PSoC5/Peak_Detector_1.c **** {
  54              		.loc 1 59 0
  55              		.cfi_startproc
ARM GAS  C:\Users\Krist\AppData\Local\Temp\ccPpBvBm.s 			page 3


  56              		@ args = 0, pretend = 0, frame = 0
  57              		@ frame_needed = 0, uses_anonymous_args = 0
  58 0000 08B5     		push	{r3, lr}
  59              		.cfi_def_cfa_offset 8
  60              		.cfi_offset 3, -8
  61              		.cfi_offset 14, -4
  60:Generated_Source\PSoC5/Peak_Detector_1.c **** 	Peak_Detector_1_Mixer_1_Stop();
  62              		.loc 1 60 0
  63 0002 FFF7FEFF 		bl	Peak_Detector_1_Mixer_1_Stop
  64              	.LVL2:
  61:Generated_Source\PSoC5/Peak_Detector_1.c **** 	Peak_Detector_1_Comp_1_Stop();
  65              		.loc 1 61 0
  66 0006 FFF7FEFF 		bl	Peak_Detector_1_Comp_1_Stop
  67              	.LVL3:
  68 000a 08BD     		pop	{r3, pc}
  69              		.cfi_endproc
  70              	.LFE1:
  71              		.size	Peak_Detector_1_Stop, .-Peak_Detector_1_Stop
  72              		.text
  73              	.Letext0:
  74              		.file 2 "Generated_Source\\PSoC5\\Peak_Detector_1_Mixer_1.h"
  75              		.file 3 "Generated_Source\\PSoC5\\Peak_Detector_1_Comp_1.h"