ARM GAS  C:\Users\mikke\AppData\Local\Temp\ccBZWGNo.s 			page 1


   1              		.syntax unified
   2              		.cpu cortex-m3
   3              		.fpu softvfp
   4              		.eabi_attribute 20, 1
   5              		.eabi_attribute 21, 1
   6              		.eabi_attribute 23, 3
   7              		.eabi_attribute 24, 1
   8              		.eabi_attribute 25, 1
   9              		.eabi_attribute 26, 1
  10              		.eabi_attribute 30, 1
  11              		.eabi_attribute 34, 1
  12              		.eabi_attribute 18, 4
  13              		.thumb
  14              		.syntax unified
  15              		.file	"nRF24_HAL.c"
  16              		.text
  17              	.Ltext0:
  18              		.cfi_sections	.debug_frame
  19              		.section	.text.nRF24_ss_write,"ax",%progbits
  20              		.align	2
  21              		.global	nRF24_ss_write
  22              		.thumb
  23              		.thumb_func
  24              		.type	nRF24_ss_write, %function
  25              	nRF24_ss_write:
  26              	.LFB0:
  27              		.file 1 "Generated_Source\\PSoC5\\nRF24_HAL.c"
   1:Generated_Source\PSoC5/nRF24_HAL.c **** /****************************************************************************
   2:Generated_Source\PSoC5/nRF24_HAL.c **** * This file is part of the nRF24 Custom Component for PSoC Devices.
   3:Generated_Source\PSoC5/nRF24_HAL.c **** *
   4:Generated_Source\PSoC5/nRF24_HAL.c **** * Copyright (C) 2017 Carlos Diaz <carlos.santiago.diaz@gmail.com>
   5:Generated_Source\PSoC5/nRF24_HAL.c **** *
   6:Generated_Source\PSoC5/nRF24_HAL.c **** * Permission to use, copy, modify, and/or distribute this software for any
   7:Generated_Source\PSoC5/nRF24_HAL.c **** * purpose with or without fee is hereby granted, provided that the above
   8:Generated_Source\PSoC5/nRF24_HAL.c **** * copyright notice and this permission notice appear in all copies.
   9:Generated_Source\PSoC5/nRF24_HAL.c **** *
  10:Generated_Source\PSoC5/nRF24_HAL.c **** * THE SOFTWARE IS PROVIDED "AS IS" AND THE AUTHOR DISCLAIMS ALL WARRANTIES
  11:Generated_Source\PSoC5/nRF24_HAL.c **** * WITH REGARD TO THIS SOFTWARE INCLUDING ALL IMPLIED WARRANTIES OF
  12:Generated_Source\PSoC5/nRF24_HAL.c **** * MERCHANTABILITY AND FITNESS. IN NO EVENT SHALL THE AUTHOR BE LIABLE FOR
  13:Generated_Source\PSoC5/nRF24_HAL.c **** * ANY SPECIAL, DIRECT, INDIRECT, OR CONSEQUENTIAL DAMAGES OR ANY DAMAGES
  14:Generated_Source\PSoC5/nRF24_HAL.c **** * WHATSOEVER RESULTING FROM LOSS OF USE, DATA OR PROFITS, WHETHER IN AN
  15:Generated_Source\PSoC5/nRF24_HAL.c **** * ACTION OF CONTRACT, NEGLIGENCE OR OTHER TORTIOUS ACTION, ARISING OUT OF
  16:Generated_Source\PSoC5/nRF24_HAL.c **** * OR IN CONNECTION WITH THE USE OR PERFORMANCE OF THIS SOFTWARE.
  17:Generated_Source\PSoC5/nRF24_HAL.c **** ****************************************************************************/
  18:Generated_Source\PSoC5/nRF24_HAL.c **** 
  19:Generated_Source\PSoC5/nRF24_HAL.c **** /**
  20:Generated_Source\PSoC5/nRF24_HAL.c **** * @file nRF24_HAL.c
  21:Generated_Source\PSoC5/nRF24_HAL.c **** *
  22:Generated_Source\PSoC5/nRF24_HAL.c **** * @brief The nRF24 radio is controlled via SPI, this file have all the SPI
  23:Generated_Source\PSoC5/nRF24_HAL.c **** * communication between the PSoC and the nRF24 radio.
  24:Generated_Source\PSoC5/nRF24_HAL.c **** */
  25:Generated_Source\PSoC5/nRF24_HAL.c **** 
  26:Generated_Source\PSoC5/nRF24_HAL.c **** #include <stdint.h>
  27:Generated_Source\PSoC5/nRF24_HAL.c **** #include <string.h>
  28:Generated_Source\PSoC5/nRF24_HAL.c **** 
  29:Generated_Source\PSoC5/nRF24_HAL.c **** #include "nRF24_CONFIG.h"
  30:Generated_Source\PSoC5/nRF24_HAL.c **** #include "nRF24_HAL.h"
ARM GAS  C:\Users\mikke\AppData\Local\Temp\ccBZWGNo.s 			page 2


  31:Generated_Source\PSoC5/nRF24_HAL.c **** 
  32:Generated_Source\PSoC5/nRF24_HAL.c **** #if defined (_PSOC6)
  33:Generated_Source\PSoC5/nRF24_HAL.c **** # include "gpio/cy_gpio.h"
  34:Generated_Source\PSoC5/nRF24_HAL.c **** #else // (_PSOC_UDB) || (_PSOC4)
  35:Generated_Source\PSoC5/nRF24_HAL.c **** # if defined (_PSOC4_SCB)
  36:Generated_Source\PSoC5/nRF24_HAL.c **** #  include "SPI_SPI_UART.h" // may be no longer necessary
  37:Generated_Source\PSoC5/nRF24_HAL.c **** # endif
  38:Generated_Source\PSoC5/nRF24_HAL.c **** # include "CE.h"
  39:Generated_Source\PSoC5/nRF24_HAL.c **** # include "SS.h"
  40:Generated_Source\PSoC5/nRF24_HAL.c **** #endif
  41:Generated_Source\PSoC5/nRF24_HAL.c **** 
  42:Generated_Source\PSoC5/nRF24_HAL.c **** /* GPIO Control */
  43:Generated_Source\PSoC5/nRF24_HAL.c **** 
  44:Generated_Source\PSoC5/nRF24_HAL.c **** /**
  45:Generated_Source\PSoC5/nRF24_HAL.c ****  * GPIO control in PSoC6 and PSoC4/PSoC5LP is a little bit different,
  46:Generated_Source\PSoC5/nRF24_HAL.c ****  * so here we try to unify them.
  47:Generated_Source\PSoC5/nRF24_HAL.c ****  *
  48:Generated_Source\PSoC5/nRF24_HAL.c ****  * @param[in] nrf_gpio state 
  49:Generated_Source\PSoC5/nRF24_HAL.c ****  */
  50:Generated_Source\PSoC5/nRF24_HAL.c **** void nRF24_ss_write(nrf_gpio state)
  51:Generated_Source\PSoC5/nRF24_HAL.c **** {
  28              		.loc 1 51 0
  29              		.cfi_startproc
  30              		@ args = 0, pretend = 0, frame = 0
  31              		@ frame_needed = 0, uses_anonymous_args = 0
  32              	.LVL0:
  33 0000 08B5     		push	{r3, lr}
  34              		.cfi_def_cfa_offset 8
  35              		.cfi_offset 3, -8
  36              		.cfi_offset 14, -4
  52:Generated_Source\PSoC5/nRF24_HAL.c ****     if (GPIO_CLEAR == state) {
  37              		.loc 1 52 0
  38 0002 10B9     		cbnz	r0, .L2
  53:Generated_Source\PSoC5/nRF24_HAL.c **** #if defined (_PSOC6)
  54:Generated_Source\PSoC5/nRF24_HAL.c ****     Cy_GPIO_Clr(SS_PORT, SS_NUM);
  55:Generated_Source\PSoC5/nRF24_HAL.c **** #else // _PSoC4_SCB | _PSOC_UDB
  56:Generated_Source\PSoC5/nRF24_HAL.c ****     SS_Write(0);
  39              		.loc 1 56 0
  40 0004 FFF7FEFF 		bl	SS_Write
  41              	.LVL1:
  42 0008 08BD     		pop	{r3, pc}
  43              	.LVL2:
  44              	.L2:
  57:Generated_Source\PSoC5/nRF24_HAL.c **** #endif
  58:Generated_Source\PSoC5/nRF24_HAL.c ****     } else { // GPIO_SET
  59:Generated_Source\PSoC5/nRF24_HAL.c **** #if defined (_PSOC6)
  60:Generated_Source\PSoC5/nRF24_HAL.c ****     Cy_GPIO_Set(SS_PORT, SS_NUM);
  61:Generated_Source\PSoC5/nRF24_HAL.c **** #else // _PSoC4_SCB | _PSOC_UDB
  62:Generated_Source\PSoC5/nRF24_HAL.c ****     SS_Write(1);
  45              		.loc 1 62 0
  46 000a 0120     		movs	r0, #1
  47              	.LVL3:
  48 000c FFF7FEFF 		bl	SS_Write
  49              	.LVL4:
  50 0010 08BD     		pop	{r3, pc}
  51              		.cfi_endproc
  52              	.LFE0:
ARM GAS  C:\Users\mikke\AppData\Local\Temp\ccBZWGNo.s 			page 3


  53              		.size	nRF24_ss_write, .-nRF24_ss_write
  54 0012 00BF     		.section	.text.nRF24_ce_write,"ax",%progbits
  55              		.align	2
  56              		.global	nRF24_ce_write
  57              		.thumb
  58              		.thumb_func
  59              		.type	nRF24_ce_write, %function
  60              	nRF24_ce_write:
  61              	.LFB1:
  63:Generated_Source\PSoC5/nRF24_HAL.c **** #endif
  64:Generated_Source\PSoC5/nRF24_HAL.c ****     }
  65:Generated_Source\PSoC5/nRF24_HAL.c **** }
  66:Generated_Source\PSoC5/nRF24_HAL.c **** 
  67:Generated_Source\PSoC5/nRF24_HAL.c **** void nRF24_ce_write(nrf_gpio state)
  68:Generated_Source\PSoC5/nRF24_HAL.c **** {
  62              		.loc 1 68 0
  63              		.cfi_startproc
  64              		@ args = 0, pretend = 0, frame = 0
  65              		@ frame_needed = 0, uses_anonymous_args = 0
  66              	.LVL5:
  67 0000 08B5     		push	{r3, lr}
  68              		.cfi_def_cfa_offset 8
  69              		.cfi_offset 3, -8
  70              		.cfi_offset 14, -4
  69:Generated_Source\PSoC5/nRF24_HAL.c ****     if (GPIO_CLEAR == state) {
  71              		.loc 1 69 0
  72 0002 10B9     		cbnz	r0, .L6
  70:Generated_Source\PSoC5/nRF24_HAL.c **** #if defined (_PSOC6)
  71:Generated_Source\PSoC5/nRF24_HAL.c ****     Cy_GPIO_Clr(CE_PORT, CE_NUM);
  72:Generated_Source\PSoC5/nRF24_HAL.c **** #else // _PSoC4_SCB | _PSOC_UDB
  73:Generated_Source\PSoC5/nRF24_HAL.c ****     CE_Write(0);
  73              		.loc 1 73 0
  74 0004 FFF7FEFF 		bl	CE_Write
  75              	.LVL6:
  76 0008 08BD     		pop	{r3, pc}
  77              	.LVL7:
  78              	.L6:
  74:Generated_Source\PSoC5/nRF24_HAL.c **** #endif
  75:Generated_Source\PSoC5/nRF24_HAL.c ****     } else { // GPIO_SET
  76:Generated_Source\PSoC5/nRF24_HAL.c **** #if defined (_PSOC6)
  77:Generated_Source\PSoC5/nRF24_HAL.c ****     Cy_GPIO_Set(CE_PORT, CE_NUM);
  78:Generated_Source\PSoC5/nRF24_HAL.c **** #else // _PSoC4_SCB | _PSOC_UDB
  79:Generated_Source\PSoC5/nRF24_HAL.c ****     CE_Write(1);
  79              		.loc 1 79 0
  80 000a 0120     		movs	r0, #1
  81              	.LVL8:
  82 000c FFF7FEFF 		bl	CE_Write
  83              	.LVL9:
  84 0010 08BD     		pop	{r3, pc}
  85              		.cfi_endproc
  86              	.LFE1:
  87              		.size	nRF24_ce_write, .-nRF24_ce_write
  88 0012 00BF     		.section	.text.nRF24_spi_clear_fifo,"ax",%progbits
  89              		.align	2
  90              		.global	nRF24_spi_clear_fifo
  91              		.thumb
  92              		.thumb_func
ARM GAS  C:\Users\mikke\AppData\Local\Temp\ccBZWGNo.s 			page 4


  93              		.type	nRF24_spi_clear_fifo, %function
  94              	nRF24_spi_clear_fifo:
  95              	.LFB3:
  80:Generated_Source\PSoC5/nRF24_HAL.c **** #endif
  81:Generated_Source\PSoC5/nRF24_HAL.c ****     }
  82:Generated_Source\PSoC5/nRF24_HAL.c **** }
  83:Generated_Source\PSoC5/nRF24_HAL.c **** 
  84:Generated_Source\PSoC5/nRF24_HAL.c **** // xfer xfer_size bytes to the nrf24 radio and get back xfer_size bytes back
  85:Generated_Source\PSoC5/nRF24_HAL.c **** // from it.
  86:Generated_Source\PSoC5/nRF24_HAL.c **** // in[0] is always the NRF_COMMAND
  87:Generated_Source\PSoC5/nRF24_HAL.c **** // out[0] is always the STATUS_REGISTER
  88:Generated_Source\PSoC5/nRF24_HAL.c **** //
  89:Generated_Source\PSoC5/nRF24_HAL.c **** // Example of use:
  90:Generated_Source\PSoC5/nRF24_HAL.c **** // - To read the radio status register and save it in status_reg variable:
  91:Generated_Source\PSoC5/nRF24_HAL.c **** //
  92:Generated_Source\PSoC5/nRF24_HAL.c **** // uint8_t NRF_DUMMY = 0xFF;
  93:Generated_Source\PSoC5/nRF24_HAL.c **** // uint8_t status_reg = 0;
  94:Generated_Source\PSoC5/nRF24_HAL.c **** // nrf24_spi_xfer(&NRF_DUMMY, &status_reg, 1);
  95:Generated_Source\PSoC5/nRF24_HAL.c **** //
  96:Generated_Source\PSoC5/nRF24_HAL.c **** // TODO:
  97:Generated_Source\PSoC5/nRF24_HAL.c **** // This function will be the only way to transfer/get data from the radio,
  98:Generated_Source\PSoC5/nRF24_HAL.c **** // that way we can eliminate duplicated code on the NRF_HAL and NRF_COMMANDS
  99:Generated_Source\PSoC5/nRF24_HAL.c **** // files. Also that way we can ease the implementation of the custom spi_xfer
 100:Generated_Source\PSoC5/nRF24_HAL.c **** // function.
 101:Generated_Source\PSoC5/nRF24_HAL.c **** void nRF24_spi_xfer(const uint8_t *in, uint8_t *out, const size_t xfer_size)
 102:Generated_Source\PSoC5/nRF24_HAL.c **** {
 103:Generated_Source\PSoC5/nRF24_HAL.c ****     nRF24_spi_clear_fifo();
 104:Generated_Source\PSoC5/nRF24_HAL.c **** 
 105:Generated_Source\PSoC5/nRF24_HAL.c ****     nRF24_ss_write(GPIO_CLEAR);
 106:Generated_Source\PSoC5/nRF24_HAL.c **** 
 107:Generated_Source\PSoC5/nRF24_HAL.c **** #if defined (_PSOC6)
 108:Generated_Source\PSoC5/nRF24_HAL.c ****     for(size_t i = 0; i < xfer_size; i++){
 109:Generated_Source\PSoC5/nRF24_HAL.c ****         while(Cy_SCB_Write(SPI_HW, in[i]) == 0);
 110:Generated_Source\PSoC5/nRF24_HAL.c ****         while (Cy_SCB_GetNumInRxFifo(SPI_HW) == 0) {}
 111:Generated_Source\PSoC5/nRF24_HAL.c ****         out[i] = Cy_SCB_ReadRxFifo(SPI_HW);
 112:Generated_Source\PSoC5/nRF24_HAL.c ****     }
 113:Generated_Source\PSoC5/nRF24_HAL.c **** #elif defined (_PSOC4_SCB)
 114:Generated_Source\PSoC5/nRF24_HAL.c ****     for (size_t i = 0; i < xfer_size; i++) {
 115:Generated_Source\PSoC5/nRF24_HAL.c ****         SPI_SpiUartWriteTxData(in[i]);
 116:Generated_Source\PSoC5/nRF24_HAL.c ****         while (SPI_SpiUartGetRxBufferSize() == 0){}
 117:Generated_Source\PSoC5/nRF24_HAL.c ****         out[i] = SPI_SpiUartReadRxData();
 118:Generated_Source\PSoC5/nRF24_HAL.c ****     }
 119:Generated_Source\PSoC5/nRF24_HAL.c **** #elif defined (_PSOC_UDB)
 120:Generated_Source\PSoC5/nRF24_HAL.c ****     for (size_t i = 0; i < xfer_size; i++) {
 121:Generated_Source\PSoC5/nRF24_HAL.c ****         SPI_WriteTxData(in[i]);
 122:Generated_Source\PSoC5/nRF24_HAL.c ****         while (!(SPI_ReadTxStatus() & SPI_STS_BYTE_COMPLETE)) {
 123:Generated_Source\PSoC5/nRF24_HAL.c ****         }
 124:Generated_Source\PSoC5/nRF24_HAL.c ****         out[i] = SPI_ReadRxData();
 125:Generated_Source\PSoC5/nRF24_HAL.c ****     }
 126:Generated_Source\PSoC5/nRF24_HAL.c **** #else
 127:Generated_Source\PSoC5/nRF24_HAL.c ****     #error "Non valid PSoC device identified."
 128:Generated_Source\PSoC5/nRF24_HAL.c **** #endif
 129:Generated_Source\PSoC5/nRF24_HAL.c **** 
 130:Generated_Source\PSoC5/nRF24_HAL.c ****     nRF24_ss_write(GPIO_SET);
 131:Generated_Source\PSoC5/nRF24_HAL.c **** }
 132:Generated_Source\PSoC5/nRF24_HAL.c **** 
 133:Generated_Source\PSoC5/nRF24_HAL.c **** void nRF24_spi_clear_fifo(void)
ARM GAS  C:\Users\mikke\AppData\Local\Temp\ccBZWGNo.s 			page 5


 134:Generated_Source\PSoC5/nRF24_HAL.c **** {
  96              		.loc 1 134 0
  97              		.cfi_startproc
  98              		@ args = 0, pretend = 0, frame = 0
  99              		@ frame_needed = 0, uses_anonymous_args = 0
 100 0000 08B5     		push	{r3, lr}
 101              		.cfi_def_cfa_offset 8
 102              		.cfi_offset 3, -8
 103              		.cfi_offset 14, -4
 135:Generated_Source\PSoC5/nRF24_HAL.c **** #if defined (_PSOC6)
 136:Generated_Source\PSoC5/nRF24_HAL.c ****     Cy_SCB_ClearRxFifo(SPI_HW);
 137:Generated_Source\PSoC5/nRF24_HAL.c ****     Cy_SCB_ClearTxFifo(SPI_HW);
 138:Generated_Source\PSoC5/nRF24_HAL.c **** #elif defined (_PSOC4_SCB)
 139:Generated_Source\PSoC5/nRF24_HAL.c ****     SPI_SpiUartClearRxBuffer();
 140:Generated_Source\PSoC5/nRF24_HAL.c ****     SPI_SpiUartClearTxBuffer();
 141:Generated_Source\PSoC5/nRF24_HAL.c **** #elif defined (_PSOC_UDB)
 142:Generated_Source\PSoC5/nRF24_HAL.c ****     SPI_ClearFIFO();
 104              		.loc 1 142 0
 105 0002 FFF7FEFF 		bl	SPI_ClearFIFO
 106              	.LVL10:
 107 0006 08BD     		pop	{r3, pc}
 108              		.cfi_endproc
 109              	.LFE3:
 110              		.size	nRF24_spi_clear_fifo, .-nRF24_spi_clear_fifo
 111              		.section	.text.nRF24_spi_xfer,"ax",%progbits
 112              		.align	2
 113              		.global	nRF24_spi_xfer
 114              		.thumb
 115              		.thumb_func
 116              		.type	nRF24_spi_xfer, %function
 117              	nRF24_spi_xfer:
 118              	.LFB2:
 102:Generated_Source\PSoC5/nRF24_HAL.c ****     nRF24_spi_clear_fifo();
 119              		.loc 1 102 0
 120              		.cfi_startproc
 121              		@ args = 0, pretend = 0, frame = 0
 122              		@ frame_needed = 0, uses_anonymous_args = 0
 123              	.LVL11:
 124 0000 F8B5     		push	{r3, r4, r5, r6, r7, lr}
 125              		.cfi_def_cfa_offset 24
 126              		.cfi_offset 3, -24
 127              		.cfi_offset 4, -20
 128              		.cfi_offset 5, -16
 129              		.cfi_offset 6, -12
 130              		.cfi_offset 7, -8
 131              		.cfi_offset 14, -4
 132 0002 0746     		mov	r7, r0
 133 0004 0E46     		mov	r6, r1
 134 0006 1546     		mov	r5, r2
 103:Generated_Source\PSoC5/nRF24_HAL.c **** 
 135              		.loc 1 103 0
 136 0008 FFF7FEFF 		bl	nRF24_spi_clear_fifo
 137              	.LVL12:
 105:Generated_Source\PSoC5/nRF24_HAL.c **** 
 138              		.loc 1 105 0
 139 000c 0020     		movs	r0, #0
 140 000e FFF7FEFF 		bl	nRF24_ss_write
ARM GAS  C:\Users\mikke\AppData\Local\Temp\ccBZWGNo.s 			page 6


 141              	.LVL13:
 142              	.LBB2:
 120:Generated_Source\PSoC5/nRF24_HAL.c ****         SPI_WriteTxData(in[i]);
 143              		.loc 1 120 0
 144 0012 0024     		movs	r4, #0
 145 0014 0BE0     		b	.L12
 146              	.LVL14:
 147              	.L14:
 121:Generated_Source\PSoC5/nRF24_HAL.c ****         while (!(SPI_ReadTxStatus() & SPI_STS_BYTE_COMPLETE)) {
 148              		.loc 1 121 0
 149 0016 385D     		ldrb	r0, [r7, r4]	@ zero_extendqisi2
 150 0018 FFF7FEFF 		bl	SPI_WriteTxData
 151              	.LVL15:
 152              	.L13:
 122:Generated_Source\PSoC5/nRF24_HAL.c ****         }
 153              		.loc 1 122 0 discriminator 1
 154 001c FFF7FEFF 		bl	SPI_ReadTxStatus
 155              	.LVL16:
 156 0020 10F0080F 		tst	r0, #8
 157 0024 FAD0     		beq	.L13
 124:Generated_Source\PSoC5/nRF24_HAL.c ****     }
 158              		.loc 1 124 0 discriminator 2
 159 0026 FFF7FEFF 		bl	SPI_ReadRxData
 160              	.LVL17:
 161 002a 3055     		strb	r0, [r6, r4]
 120:Generated_Source\PSoC5/nRF24_HAL.c ****         SPI_WriteTxData(in[i]);
 162              		.loc 1 120 0 discriminator 2
 163 002c 0134     		adds	r4, r4, #1
 164              	.LVL18:
 165              	.L12:
 120:Generated_Source\PSoC5/nRF24_HAL.c ****         SPI_WriteTxData(in[i]);
 166              		.loc 1 120 0 is_stmt 0 discriminator 1
 167 002e AC42     		cmp	r4, r5
 168 0030 F1D3     		bcc	.L14
 169              	.LBE2:
 130:Generated_Source\PSoC5/nRF24_HAL.c **** }
 170              		.loc 1 130 0 is_stmt 1
 171 0032 0120     		movs	r0, #1
 172 0034 FFF7FEFF 		bl	nRF24_ss_write
 173              	.LVL19:
 174 0038 F8BD     		pop	{r3, r4, r5, r6, r7, pc}
 175              		.cfi_endproc
 176              	.LFE2:
 177              		.size	nRF24_spi_xfer, .-nRF24_spi_xfer
 178 003a 00BF     		.section	.text.nRF24_read_register,"ax",%progbits
 179              		.align	2
 180              		.global	nRF24_read_register
 181              		.thumb
 182              		.thumb_func
 183              		.type	nRF24_read_register, %function
 184              	nRF24_read_register:
 185              	.LFB4:
 143:Generated_Source\PSoC5/nRF24_HAL.c **** #else
 144:Generated_Source\PSoC5/nRF24_HAL.c ****     #error "Non valid PSoC device identified."
 145:Generated_Source\PSoC5/nRF24_HAL.c **** #endif
 146:Generated_Source\PSoC5/nRF24_HAL.c **** }
 147:Generated_Source\PSoC5/nRF24_HAL.c **** 
ARM GAS  C:\Users\mikke\AppData\Local\Temp\ccBZWGNo.s 			page 7


 148:Generated_Source\PSoC5/nRF24_HAL.c **** /**
 149:Generated_Source\PSoC5/nRF24_HAL.c ****  * Read the specified nRF24 register (1byte).
 150:Generated_Source\PSoC5/nRF24_HAL.c ****  * 
 151:Generated_Source\PSoC5/nRF24_HAL.c ****  * TODO: So here the microcontroller just need to write 2 uint8_t's
 152:Generated_Source\PSoC5/nRF24_HAL.c ****  * to the nrf24 radio and read the last stored uint8_t.
 153:Generated_Source\PSoC5/nRF24_HAL.c ****  *
 154:Generated_Source\PSoC5/nRF24_HAL.c ****  * @param const nrf_register reg: Register to be read.
 155:Generated_Source\PSoC5/nRF24_HAL.c ****  *
 156:Generated_Source\PSoC5/nRF24_HAL.c ****  * @return uint8_t: Content of the specified register.
 157:Generated_Source\PSoC5/nRF24_HAL.c ****  */
 158:Generated_Source\PSoC5/nRF24_HAL.c **** uint8_t nRF24_read_register(const nrf_register reg)
 159:Generated_Source\PSoC5/nRF24_HAL.c **** {
 186              		.loc 1 159 0
 187              		.cfi_startproc
 188              		@ args = 0, pretend = 0, frame = 8
 189              		@ frame_needed = 0, uses_anonymous_args = 0
 190              	.LVL20:
 191 0000 00B5     		push	{lr}
 192              		.cfi_def_cfa_offset 4
 193              		.cfi_offset 14, -4
 194 0002 83B0     		sub	sp, sp, #12
 195              		.cfi_def_cfa_offset 16
 160:Generated_Source\PSoC5/nRF24_HAL.c ****     const uint8_t _nrf_cmd[] = {
 196              		.loc 1 160 0
 197 0004 8DF80400 		strb	r0, [sp, #4]
 198 0008 FF23     		movs	r3, #255
 199 000a 8DF80530 		strb	r3, [sp, #5]
 161:Generated_Source\PSoC5/nRF24_HAL.c ****         NRF_CMD_R_REGISTER | reg, NRF_CMD_NOP
 162:Generated_Source\PSoC5/nRF24_HAL.c ****     };
 163:Generated_Source\PSoC5/nRF24_HAL.c ****     uint8_t _nrf_data[2] = {0};
 200              		.loc 1 163 0
 201 000e 02A9     		add	r1, sp, #8
 202 0010 0023     		movs	r3, #0
 203 0012 21F8083D 		strh	r3, [r1, #-8]!	@ movhi
 164:Generated_Source\PSoC5/nRF24_HAL.c ****     
 165:Generated_Source\PSoC5/nRF24_HAL.c ****     nRF24_spi_xfer(_nrf_cmd, _nrf_data, sizeof(_nrf_cmd) / sizeof(_nrf_cmd[0]));
 204              		.loc 1 165 0
 205 0016 0222     		movs	r2, #2
 206 0018 01A8     		add	r0, sp, #4
 207              	.LVL21:
 208 001a FFF7FEFF 		bl	nRF24_spi_xfer
 209              	.LVL22:
 166:Generated_Source\PSoC5/nRF24_HAL.c **** 
 167:Generated_Source\PSoC5/nRF24_HAL.c ****     return _nrf_data[1];
 168:Generated_Source\PSoC5/nRF24_HAL.c **** }
 210              		.loc 1 168 0
 211 001e 9DF80100 		ldrb	r0, [sp, #1]	@ zero_extendqisi2
 212 0022 03B0     		add	sp, sp, #12
 213              		.cfi_def_cfa_offset 4
 214              		@ sp needed
 215 0024 5DF804FB 		ldr	pc, [sp], #4
 216              		.cfi_endproc
 217              	.LFE4:
 218              		.size	nRF24_read_register, .-nRF24_read_register
 219              		.section	.text.nRF24_read_long_register,"ax",%progbits
 220              		.align	2
 221              		.global	nRF24_read_long_register
ARM GAS  C:\Users\mikke\AppData\Local\Temp\ccBZWGNo.s 			page 8


 222              		.thumb
 223              		.thumb_func
 224              		.type	nRF24_read_long_register, %function
 225              	nRF24_read_long_register:
 226              	.LFB5:
 169:Generated_Source\PSoC5/nRF24_HAL.c **** 
 170:Generated_Source\PSoC5/nRF24_HAL.c **** /**
 171:Generated_Source\PSoC5/nRF24_HAL.c ****  * Read the specified nRF24 register (bigger than 1 byte).
 172:Generated_Source\PSoC5/nRF24_HAL.c ****  *
 173:Generated_Source\PSoC5/nRF24_HAL.c ****  * @param const nrf_register reg: Register to be read.
 174:Generated_Source\PSoC5/nRF24_HAL.c ****  * @param uint8_t* data: Pointer to where the content of the register
 175:Generated_Source\PSoC5/nRF24_HAL.c ****  * will be stored.
 176:Generated_Source\PSoC5/nRF24_HAL.c ****  * @param size_t size: Size of the register and data.
 177:Generated_Source\PSoC5/nRF24_HAL.c ****  */
 178:Generated_Source\PSoC5/nRF24_HAL.c **** void nRF24_read_long_register(const nrf_register reg,
 179:Generated_Source\PSoC5/nRF24_HAL.c ****                                            uint8_t* data, const size_t size)
 180:Generated_Source\PSoC5/nRF24_HAL.c **** {
 227              		.loc 1 180 0
 228              		.cfi_startproc
 229              		@ args = 0, pretend = 0, frame = 0
 230              		@ frame_needed = 1, uses_anonymous_args = 0
 231              	.LVL23:
 232 0000 F8B5     		push	{r3, r4, r5, r6, r7, lr}
 233              		.cfi_def_cfa_offset 24
 234              		.cfi_offset 3, -24
 235              		.cfi_offset 4, -20
 236              		.cfi_offset 5, -16
 237              		.cfi_offset 6, -12
 238              		.cfi_offset 7, -8
 239              		.cfi_offset 14, -4
 240 0002 00AF     		add	r7, sp, #0
 241              		.cfi_def_cfa_register 7
 242 0004 0E46     		mov	r6, r1
 243 0006 1446     		mov	r4, r2
 181:Generated_Source\PSoC5/nRF24_HAL.c ****     uint8_t nrf_data[size + 1];
 244              		.loc 1 181 0
 245 0008 02F10803 		add	r3, r2, #8
 246 000c 23F00703 		bic	r3, r3, #7
 247 0010 ADEB030D 		sub	sp, sp, r3
 248 0014 6D46     		mov	r5, sp
 249              	.LVL24:
 182:Generated_Source\PSoC5/nRF24_HAL.c ****     uint8_t dummy[size + 1];
 250              		.loc 1 182 0
 251 0016 ADEB030D 		sub	sp, sp, r3
 252              	.LVL25:
 183:Generated_Source\PSoC5/nRF24_HAL.c ****     
 184:Generated_Source\PSoC5/nRF24_HAL.c ****     dummy[0] = NRF_CMD_R_REGISTER | reg;
 253              		.loc 1 184 0
 254 001a 8DF80000 		strb	r0, [sp]
 185:Generated_Source\PSoC5/nRF24_HAL.c **** 
 186:Generated_Source\PSoC5/nRF24_HAL.c ****     // Send the command and get the status
 187:Generated_Source\PSoC5/nRF24_HAL.c ****     nRF24_spi_xfer(dummy, nrf_data, sizeof(dummy));
 255              		.loc 1 187 0
 256 001e 0132     		adds	r2, r2, #1
 257              	.LVL26:
 258 0020 2946     		mov	r1, r5
 259              	.LVL27:
ARM GAS  C:\Users\mikke\AppData\Local\Temp\ccBZWGNo.s 			page 9


 260 0022 6846     		mov	r0, sp
 261              	.LVL28:
 262 0024 FFF7FEFF 		bl	nRF24_spi_xfer
 263              	.LVL29:
 188:Generated_Source\PSoC5/nRF24_HAL.c **** 
 189:Generated_Source\PSoC5/nRF24_HAL.c ****     // Copy data without the status register to the user pointer
 190:Generated_Source\PSoC5/nRF24_HAL.c ****     memcpy(data, &nrf_data[1], size);
 264              		.loc 1 190 0
 265 0028 2246     		mov	r2, r4
 266 002a 691C     		adds	r1, r5, #1
 267 002c 3046     		mov	r0, r6
 268 002e FFF7FEFF 		bl	memcpy
 269              	.LVL30:
 191:Generated_Source\PSoC5/nRF24_HAL.c **** }
 270              		.loc 1 191 0
 271 0032 BD46     		mov	sp, r7
 272              		.cfi_def_cfa_register 13
 273              	.LVL31:
 274              		@ sp needed
 275 0034 F8BD     		pop	{r3, r4, r5, r6, r7, pc}
 276              		.cfi_endproc
 277              	.LFE5:
 278              		.size	nRF24_read_long_register, .-nRF24_read_long_register
 279 0036 00BF     		.section	.text.nRF24_write_register,"ax",%progbits
 280              		.align	2
 281              		.global	nRF24_write_register
 282              		.thumb
 283              		.thumb_func
 284              		.type	nRF24_write_register, %function
 285              	nRF24_write_register:
 286              	.LFB6:
 192:Generated_Source\PSoC5/nRF24_HAL.c **** 
 193:Generated_Source\PSoC5/nRF24_HAL.c **** /**
 194:Generated_Source\PSoC5/nRF24_HAL.c ****  * Write to the specified nRF24 Register (1byte).
 195:Generated_Source\PSoC5/nRF24_HAL.c ****  *
 196:Generated_Source\PSoC5/nRF24_HAL.c ****  * @param const nrf_register reg: Register to be written.
 197:Generated_Source\PSoC5/nRF24_HAL.c ****  * @param const uint8_t data: Data to be written into the specified register.
 198:Generated_Source\PSoC5/nRF24_HAL.c ****  */
 199:Generated_Source\PSoC5/nRF24_HAL.c **** void nRF24_write_register(const nrf_register reg, const uint8_t data)
 200:Generated_Source\PSoC5/nRF24_HAL.c **** {
 287              		.loc 1 200 0
 288              		.cfi_startproc
 289              		@ args = 0, pretend = 0, frame = 8
 290              		@ frame_needed = 0, uses_anonymous_args = 0
 291              	.LVL32:
 292 0000 00B5     		push	{lr}
 293              		.cfi_def_cfa_offset 4
 294              		.cfi_offset 14, -4
 295 0002 83B0     		sub	sp, sp, #12
 296              		.cfi_def_cfa_offset 16
 201:Generated_Source\PSoC5/nRF24_HAL.c ****     const uint8_t data_to_write[] = {NRF_CMD_W_REGISTER | reg, data};
 297              		.loc 1 201 0
 298 0004 40F02000 		orr	r0, r0, #32
 299              	.LVL33:
 300 0008 8DF80400 		strb	r0, [sp, #4]
 301 000c 8DF80510 		strb	r1, [sp, #5]
 202:Generated_Source\PSoC5/nRF24_HAL.c ****     uint8_t nrf_data[2] = {0};
ARM GAS  C:\Users\mikke\AppData\Local\Temp\ccBZWGNo.s 			page 10


 302              		.loc 1 202 0
 303 0010 02A9     		add	r1, sp, #8
 304              	.LVL34:
 305 0012 0023     		movs	r3, #0
 306 0014 21F8083D 		strh	r3, [r1, #-8]!	@ movhi
 203:Generated_Source\PSoC5/nRF24_HAL.c ****     
 204:Generated_Source\PSoC5/nRF24_HAL.c ****     nRF24_spi_xfer(data_to_write, nrf_data, sizeof(data_to_write));
 307              		.loc 1 204 0
 308 0018 0222     		movs	r2, #2
 309 001a 01A8     		add	r0, sp, #4
 310 001c FFF7FEFF 		bl	nRF24_spi_xfer
 311              	.LVL35:
 205:Generated_Source\PSoC5/nRF24_HAL.c **** }
 312              		.loc 1 205 0
 313 0020 03B0     		add	sp, sp, #12
 314              		.cfi_def_cfa_offset 4
 315              		@ sp needed
 316 0022 5DF804FB 		ldr	pc, [sp], #4
 317              		.cfi_endproc
 318              	.LFE6:
 319              		.size	nRF24_write_register, .-nRF24_write_register
 320 0026 00BF     		.section	.text.nRF24_write_bit,"ax",%progbits
 321              		.align	2
 322              		.thumb
 323              		.thumb_func
 324              		.type	nRF24_write_bit, %function
 325              	nRF24_write_bit:
 326              	.LFB9:
 206:Generated_Source\PSoC5/nRF24_HAL.c **** 
 207:Generated_Source\PSoC5/nRF24_HAL.c **** /**
 208:Generated_Source\PSoC5/nRF24_HAL.c ****  * Write one or more bytes to the specified nRF24 Register.
 209:Generated_Source\PSoC5/nRF24_HAL.c ****  *
 210:Generated_Source\PSoC5/nRF24_HAL.c ****  * @param const nrf_register reg: Register to be written.
 211:Generated_Source\PSoC5/nRF24_HAL.c ****  * @param const uint8_t* data: Data to writen into the register.
 212:Generated_Source\PSoC5/nRF24_HAL.c ****  * @param size_t size: Bytes of the data to be written in the specified register.
 213:Generated_Source\PSoC5/nRF24_HAL.c ****  */
 214:Generated_Source\PSoC5/nRF24_HAL.c **** void nRF24_write_long_register(const nrf_register reg,
 215:Generated_Source\PSoC5/nRF24_HAL.c ****                                             const uint8_t* data, const size_t size)
 216:Generated_Source\PSoC5/nRF24_HAL.c **** {
 217:Generated_Source\PSoC5/nRF24_HAL.c ****     uint8_t data_to_nrf[size + 1];
 218:Generated_Source\PSoC5/nRF24_HAL.c ****     uint8_t data_from_nrf[size + 1];
 219:Generated_Source\PSoC5/nRF24_HAL.c ****     
 220:Generated_Source\PSoC5/nRF24_HAL.c ****     // Set the write command and the register to write to
 221:Generated_Source\PSoC5/nRF24_HAL.c ****     data_to_nrf[0] = NRF_CMD_W_REGISTER | reg;
 222:Generated_Source\PSoC5/nRF24_HAL.c ****     // add the data given by the user
 223:Generated_Source\PSoC5/nRF24_HAL.c ****     memcpy(&data_to_nrf[1], data, size);
 224:Generated_Source\PSoC5/nRF24_HAL.c **** 
 225:Generated_Source\PSoC5/nRF24_HAL.c ****     nRF24_spi_xfer(data_to_nrf, data_from_nrf, sizeof(data_to_nrf));
 226:Generated_Source\PSoC5/nRF24_HAL.c **** }
 227:Generated_Source\PSoC5/nRF24_HAL.c **** 
 228:Generated_Source\PSoC5/nRF24_HAL.c **** /**
 229:Generated_Source\PSoC5/nRF24_HAL.c ****  * Read the content of the specified bit of the specified nrf_register.
 230:Generated_Source\PSoC5/nRF24_HAL.c ****  *
 231:Generated_Source\PSoC5/nRF24_HAL.c ****  * @param const nrf_register reg: Register to be read.
 232:Generated_Source\PSoC5/nRF24_HAL.c ****  * @param uint8_t bit: Bit to be read.
 233:Generated_Source\PSoC5/nRF24_HAL.c ****  *
 234:Generated_Source\PSoC5/nRF24_HAL.c ****  * @return bool: Return the content of the bit.
ARM GAS  C:\Users\mikke\AppData\Local\Temp\ccBZWGNo.s 			page 11


 235:Generated_Source\PSoC5/nRF24_HAL.c ****  */
 236:Generated_Source\PSoC5/nRF24_HAL.c **** bool nRF24_read_bit(const nrf_register reg, const uint8_t bit)
 237:Generated_Source\PSoC5/nRF24_HAL.c **** {
 238:Generated_Source\PSoC5/nRF24_HAL.c ****     return (nRF24_read_register(reg) & (1 << bit)) != 0;
 239:Generated_Source\PSoC5/nRF24_HAL.c **** }
 240:Generated_Source\PSoC5/nRF24_HAL.c **** 
 241:Generated_Source\PSoC5/nRF24_HAL.c **** /**
 242:Generated_Source\PSoC5/nRF24_HAL.c ****  * Set (1) or clear (0) the specified bit of the specified nRF24 register.
 243:Generated_Source\PSoC5/nRF24_HAL.c ****  *
 244:Generated_Source\PSoC5/nRF24_HAL.c ****  * First we read the specified register and check the content of the specified
 245:Generated_Source\PSoC5/nRF24_HAL.c ****  * bit, exit early if the bit already is the value we wanted, otherwise we set
 246:Generated_Source\PSoC5/nRF24_HAL.c ****  * the bit to the specified value.
 247:Generated_Source\PSoC5/nRF24_HAL.c ****  *
 248:Generated_Source\PSoC5/nRF24_HAL.c ****  * @param const nrf_register reg: Register to be written.
 249:Generated_Source\PSoC5/nRF24_HAL.c ****  * @param const uint8_t bit: Position of the bit to be written.
 250:Generated_Source\PSoC5/nRF24_HAL.c ****  * @param const bool value: Value (1 or 0) to write into the bit.
 251:Generated_Source\PSoC5/nRF24_HAL.c ****  */
 252:Generated_Source\PSoC5/nRF24_HAL.c **** static void nRF24_write_bit(const nrf_register reg,
 253:Generated_Source\PSoC5/nRF24_HAL.c ****                                   const uint8_t bit, const bool value)
 254:Generated_Source\PSoC5/nRF24_HAL.c **** {
 327              		.loc 1 254 0
 328              		.cfi_startproc
 329              		@ args = 0, pretend = 0, frame = 0
 330              		@ frame_needed = 0, uses_anonymous_args = 0
 331              	.LVL36:
 332 0000 70B5     		push	{r4, r5, r6, lr}
 333              		.cfi_def_cfa_offset 16
 334              		.cfi_offset 4, -16
 335              		.cfi_offset 5, -12
 336              		.cfi_offset 6, -8
 337              		.cfi_offset 14, -4
 338 0002 0646     		mov	r6, r0
 339 0004 0C46     		mov	r4, r1
 340 0006 1546     		mov	r5, r2
 255:Generated_Source\PSoC5/nRF24_HAL.c ****     uint8_t temp = nRF24_read_register(reg);
 341              		.loc 1 255 0
 342 0008 FFF7FEFF 		bl	nRF24_read_register
 343              	.LVL37:
 256:Generated_Source\PSoC5/nRF24_HAL.c **** 
 257:Generated_Source\PSoC5/nRF24_HAL.c ****     // Read the bit value before writing to it.
 258:Generated_Source\PSoC5/nRF24_HAL.c ****     // Check if the bit is 1
 259:Generated_Source\PSoC5/nRF24_HAL.c ****     if ((temp & (1 << bit)) != 0) {
 344              		.loc 1 259 0
 345 000c 40FA04F3 		asr	r3, r0, r4
 346 0010 13F0010F 		tst	r3, #1
 347 0014 01D0     		beq	.L23
 260:Generated_Source\PSoC5/nRF24_HAL.c ****         // it is 1, return if we wanted to set it to 1
 261:Generated_Source\PSoC5/nRF24_HAL.c ****         if (value) {
 348              		.loc 1 261 0
 349 0016 0DB1     		cbz	r5, .L25
 350 0018 70BD     		pop	{r4, r5, r6, pc}
 351              	.L23:
 262:Generated_Source\PSoC5/nRF24_HAL.c ****             return;
 263:Generated_Source\PSoC5/nRF24_HAL.c ****         }
 264:Generated_Source\PSoC5/nRF24_HAL.c ****     } else { // the bit is 0
 265:Generated_Source\PSoC5/nRF24_HAL.c ****         // it is 0, return if we wanted to set it to 0
 266:Generated_Source\PSoC5/nRF24_HAL.c ****         if (!value) {
ARM GAS  C:\Users\mikke\AppData\Local\Temp\ccBZWGNo.s 			page 12


 352              		.loc 1 266 0
 353 001a 6DB1     		cbz	r5, .L22
 354              	.L25:
 267:Generated_Source\PSoC5/nRF24_HAL.c ****             return;
 268:Generated_Source\PSoC5/nRF24_HAL.c ****         }
 269:Generated_Source\PSoC5/nRF24_HAL.c ****     }
 270:Generated_Source\PSoC5/nRF24_HAL.c **** 
 271:Generated_Source\PSoC5/nRF24_HAL.c ****     // Calculate the new value to be written into the register
 272:Generated_Source\PSoC5/nRF24_HAL.c ****     temp = value ? temp | (1 << bit) : temp & ~(1 << bit);
 355              		.loc 1 272 0
 356 001c 25B1     		cbz	r5, .L26
 357              		.loc 1 272 0 is_stmt 0 discriminator 1
 358 001e 0121     		movs	r1, #1
 359 0020 A140     		lsls	r1, r1, r4
 360 0022 0843     		orrs	r0, r0, r1
 361              	.LVL38:
 362 0024 C1B2     		uxtb	r1, r0
 363 0026 04E0     		b	.L27
 364              	.LVL39:
 365              	.L26:
 366              		.loc 1 272 0 discriminator 2
 367 0028 0121     		movs	r1, #1
 368 002a A140     		lsls	r1, r1, r4
 369 002c 20EA0100 		bic	r0, r0, r1
 370              	.LVL40:
 371 0030 C1B2     		uxtb	r1, r0
 372              	.L27:
 373              	.LVL41:
 273:Generated_Source\PSoC5/nRF24_HAL.c **** 
 274:Generated_Source\PSoC5/nRF24_HAL.c ****     nRF24_write_register(reg, temp);
 374              		.loc 1 274 0 is_stmt 1 discriminator 4
 375 0032 3046     		mov	r0, r6
 376 0034 FFF7FEFF 		bl	nRF24_write_register
 377              	.LVL42:
 378              	.L22:
 379 0038 70BD     		pop	{r4, r5, r6, pc}
 380              		.cfi_endproc
 381              	.LFE9:
 382              		.size	nRF24_write_bit, .-nRF24_write_bit
 383 003a 00BF     		.section	.text.nRF24_write_long_register,"ax",%progbits
 384              		.align	2
 385              		.global	nRF24_write_long_register
 386              		.thumb
 387              		.thumb_func
 388              		.type	nRF24_write_long_register, %function
 389              	nRF24_write_long_register:
 390              	.LFB7:
 216:Generated_Source\PSoC5/nRF24_HAL.c ****     uint8_t data_to_nrf[size + 1];
 391              		.loc 1 216 0
 392              		.cfi_startproc
 393              		@ args = 0, pretend = 0, frame = 0
 394              		@ frame_needed = 1, uses_anonymous_args = 0
 395              	.LVL43:
 396 0000 B0B5     		push	{r4, r5, r7, lr}
 397              		.cfi_def_cfa_offset 16
 398              		.cfi_offset 4, -16
 399              		.cfi_offset 5, -12
ARM GAS  C:\Users\mikke\AppData\Local\Temp\ccBZWGNo.s 			page 13


 400              		.cfi_offset 7, -8
 401              		.cfi_offset 14, -4
 402 0002 00AF     		add	r7, sp, #0
 403              		.cfi_def_cfa_register 7
 404 0004 1346     		mov	r3, r2
 217:Generated_Source\PSoC5/nRF24_HAL.c ****     uint8_t data_from_nrf[size + 1];
 405              		.loc 1 217 0
 406 0006 551C     		adds	r5, r2, #1
 407 0008 0833     		adds	r3, r3, #8
 408 000a 23F00703 		bic	r3, r3, #7
 409 000e ADEB030D 		sub	sp, sp, r3
 410 0012 6C46     		mov	r4, sp
 411              	.LVL44:
 218:Generated_Source\PSoC5/nRF24_HAL.c ****     
 412              		.loc 1 218 0
 413 0014 ADEB030D 		sub	sp, sp, r3
 414              	.LVL45:
 221:Generated_Source\PSoC5/nRF24_HAL.c ****     // add the data given by the user
 415              		.loc 1 221 0
 416 0018 40F02003 		orr	r3, r0, #32
 417 001c 2046     		mov	r0, r4
 418              	.LVL46:
 419 001e 00F8013B 		strb	r3, [r0], #1
 223:Generated_Source\PSoC5/nRF24_HAL.c **** 
 420              		.loc 1 223 0
 421 0022 FFF7FEFF 		bl	memcpy
 422              	.LVL47:
 225:Generated_Source\PSoC5/nRF24_HAL.c **** }
 423              		.loc 1 225 0
 424 0026 2A46     		mov	r2, r5
 425 0028 6946     		mov	r1, sp
 426 002a 2046     		mov	r0, r4
 427 002c FFF7FEFF 		bl	nRF24_spi_xfer
 428              	.LVL48:
 226:Generated_Source\PSoC5/nRF24_HAL.c **** 
 429              		.loc 1 226 0
 430 0030 BD46     		mov	sp, r7
 431              		.cfi_def_cfa_register 13
 432              	.LVL49:
 433              		@ sp needed
 434 0032 B0BD     		pop	{r4, r5, r7, pc}
 435              		.cfi_endproc
 436              	.LFE7:
 437              		.size	nRF24_write_long_register, .-nRF24_write_long_register
 438              		.section	.text.nRF24_read_bit,"ax",%progbits
 439              		.align	2
 440              		.global	nRF24_read_bit
 441              		.thumb
 442              		.thumb_func
 443              		.type	nRF24_read_bit, %function
 444              	nRF24_read_bit:
 445              	.LFB8:
 237:Generated_Source\PSoC5/nRF24_HAL.c ****     return (nRF24_read_register(reg) & (1 << bit)) != 0;
 446              		.loc 1 237 0
 447              		.cfi_startproc
 448              		@ args = 0, pretend = 0, frame = 0
 449              		@ frame_needed = 0, uses_anonymous_args = 0
ARM GAS  C:\Users\mikke\AppData\Local\Temp\ccBZWGNo.s 			page 14


 450              	.LVL50:
 451 0000 10B5     		push	{r4, lr}
 452              		.cfi_def_cfa_offset 8
 453              		.cfi_offset 4, -8
 454              		.cfi_offset 14, -4
 455 0002 0C46     		mov	r4, r1
 238:Generated_Source\PSoC5/nRF24_HAL.c **** }
 456              		.loc 1 238 0
 457 0004 FFF7FEFF 		bl	nRF24_read_register
 458              	.LVL51:
 459 0008 2041     		asrs	r0, r0, r4
 460 000a 00F00100 		and	r0, r0, #1
 239:Generated_Source\PSoC5/nRF24_HAL.c **** 
 461              		.loc 1 239 0
 462 000e 10BD     		pop	{r4, pc}
 463              		.cfi_endproc
 464              	.LFE8:
 465              		.size	nRF24_read_bit, .-nRF24_read_bit
 466              		.section	.text.nRF24_clear_bit,"ax",%progbits
 467              		.align	2
 468              		.global	nRF24_clear_bit
 469              		.thumb
 470              		.thumb_func
 471              		.type	nRF24_clear_bit, %function
 472              	nRF24_clear_bit:
 473              	.LFB10:
 275:Generated_Source\PSoC5/nRF24_HAL.c **** }
 276:Generated_Source\PSoC5/nRF24_HAL.c **** 
 277:Generated_Source\PSoC5/nRF24_HAL.c **** /**
 278:Generated_Source\PSoC5/nRF24_HAL.c ****  * Set to 0 the specified bit of the specified nRF24 register.
 279:Generated_Source\PSoC5/nRF24_HAL.c ****  *
 280:Generated_Source\PSoC5/nRF24_HAL.c ****  * @param const nrf_register reg: Register to be written.
 281:Generated_Source\PSoC5/nRF24_HAL.c ****  * @param const uint8_t bit: Bit to be written.
 282:Generated_Source\PSoC5/nRF24_HAL.c ****  */
 283:Generated_Source\PSoC5/nRF24_HAL.c **** void nRF24_clear_bit(const nrf_register reg, const uint8_t bit)
 284:Generated_Source\PSoC5/nRF24_HAL.c **** {
 474              		.loc 1 284 0
 475              		.cfi_startproc
 476              		@ args = 0, pretend = 0, frame = 0
 477              		@ frame_needed = 0, uses_anonymous_args = 0
 478              	.LVL52:
 285:Generated_Source\PSoC5/nRF24_HAL.c ****     if (8 < bit) {
 479              		.loc 1 285 0
 480 0000 0829     		cmp	r1, #8
 481 0002 04D8     		bhi	.L36
 284:Generated_Source\PSoC5/nRF24_HAL.c ****     if (8 < bit) {
 482              		.loc 1 284 0
 483 0004 08B5     		push	{r3, lr}
 484              		.cfi_def_cfa_offset 8
 485              		.cfi_offset 3, -8
 486              		.cfi_offset 14, -4
 286:Generated_Source\PSoC5/nRF24_HAL.c ****         return;
 287:Generated_Source\PSoC5/nRF24_HAL.c ****     }
 288:Generated_Source\PSoC5/nRF24_HAL.c **** 
 289:Generated_Source\PSoC5/nRF24_HAL.c ****     nRF24_write_bit(reg, bit, 0);
 487              		.loc 1 289 0
 488 0006 0022     		movs	r2, #0
ARM GAS  C:\Users\mikke\AppData\Local\Temp\ccBZWGNo.s 			page 15


 489 0008 FFF7FEFF 		bl	nRF24_write_bit
 490              	.LVL53:
 491 000c 08BD     		pop	{r3, pc}
 492              	.LVL54:
 493              	.L36:
 494              		.cfi_def_cfa_offset 0
 495              		.cfi_restore 3
 496              		.cfi_restore 14
 497 000e 7047     		bx	lr
 498              		.cfi_endproc
 499              	.LFE10:
 500              		.size	nRF24_clear_bit, .-nRF24_clear_bit
 501              		.section	.text.nRF24_set_bit,"ax",%progbits
 502              		.align	2
 503              		.global	nRF24_set_bit
 504              		.thumb
 505              		.thumb_func
 506              		.type	nRF24_set_bit, %function
 507              	nRF24_set_bit:
 508              	.LFB11:
 290:Generated_Source\PSoC5/nRF24_HAL.c **** }
 291:Generated_Source\PSoC5/nRF24_HAL.c **** 
 292:Generated_Source\PSoC5/nRF24_HAL.c **** /**
 293:Generated_Source\PSoC5/nRF24_HAL.c ****  * Set to 1 the specified bit of the specified nRF24 register.
 294:Generated_Source\PSoC5/nRF24_HAL.c ****  *
 295:Generated_Source\PSoC5/nRF24_HAL.c ****  * @param const nrf_register reg: Register to be written.
 296:Generated_Source\PSoC5/nRF24_HAL.c ****  * @param const uint8_t bit: Bit to be written.
 297:Generated_Source\PSoC5/nRF24_HAL.c ****  */
 298:Generated_Source\PSoC5/nRF24_HAL.c **** void nRF24_set_bit(const nrf_register reg, const uint8_t bit)
 299:Generated_Source\PSoC5/nRF24_HAL.c **** {
 509              		.loc 1 299 0
 510              		.cfi_startproc
 511              		@ args = 0, pretend = 0, frame = 0
 512              		@ frame_needed = 0, uses_anonymous_args = 0
 513              	.LVL55:
 300:Generated_Source\PSoC5/nRF24_HAL.c ****     if (8 < bit) {
 514              		.loc 1 300 0
 515 0000 0829     		cmp	r1, #8
 516 0002 04D8     		bhi	.L40
 299:Generated_Source\PSoC5/nRF24_HAL.c ****     if (8 < bit) {
 517              		.loc 1 299 0
 518 0004 08B5     		push	{r3, lr}
 519              		.cfi_def_cfa_offset 8
 520              		.cfi_offset 3, -8
 521              		.cfi_offset 14, -4
 301:Generated_Source\PSoC5/nRF24_HAL.c ****         return;
 302:Generated_Source\PSoC5/nRF24_HAL.c ****     }
 303:Generated_Source\PSoC5/nRF24_HAL.c **** 
 304:Generated_Source\PSoC5/nRF24_HAL.c ****     nRF24_write_bit(reg, bit, 1);
 522              		.loc 1 304 0
 523 0006 0122     		movs	r2, #1
 524 0008 FFF7FEFF 		bl	nRF24_write_bit
 525              	.LVL56:
 526 000c 08BD     		pop	{r3, pc}
 527              	.LVL57:
 528              	.L40:
 529              		.cfi_def_cfa_offset 0
ARM GAS  C:\Users\mikke\AppData\Local\Temp\ccBZWGNo.s 			page 16


 530              		.cfi_restore 3
 531              		.cfi_restore 14
 532 000e 7047     		bx	lr
 533              		.cfi_endproc
 534              	.LFE11:
 535              		.size	nRF24_set_bit, .-nRF24_set_bit
 536              		.text
 537              	.Letext0:
 538              		.file 2 "c:\\program files (x86)\\cypress\\psoc creator\\4.2\\psoc creator\\import\\gnu\\arm\\5.4.
 539              		.file 3 "c:\\program files (x86)\\cypress\\psoc creator\\4.2\\psoc creator\\import\\gnu\\arm\\5.4.
 540              		.file 4 "c:\\program files (x86)\\cypress\\psoc creator\\4.2\\psoc creator\\import\\gnu\\arm\\5.4.
 541              		.file 5 "Generated_Source\\PSoC5\\cytypes.h"
 542              		.file 6 "Generated_Source\\PSoC5\\nRF24_DEFS.h"
 543              		.file 7 "Generated_Source\\PSoC5\\nRF24_HAL.h"
 544              		.file 8 "Generated_Source\\PSoC5\\SS.h"
 545              		.file 9 "Generated_Source\\PSoC5\\CE.h"
 546              		.file 10 "Generated_Source\\PSoC5\\SPI.h"