ARM GAS  C:\Users\rens_\AppData\Local\Temp\cczEIUNd.s 			page 1


   1              		.syntax unified
   2              		.cpu cortex-m3
   3              		.fpu softvfp
   4              		.eabi_attribute 20, 1
   5              		.eabi_attribute 21, 1
   6              		.eabi_attribute 23, 3
   7              		.eabi_attribute 24, 1
   8              		.eabi_attribute 25, 1
   9              		.eabi_attribute 26, 1
  10              		.eabi_attribute 30, 1
  11              		.eabi_attribute 34, 1
  12              		.eabi_attribute 18, 4
  13              		.thumb
  14              		.syntax unified
  15              		.file	"nRF24_COMMANDS.c"
  16              		.text
  17              	.Ltext0:
  18              		.cfi_sections	.debug_frame
  19              		.section	.text.nRF24_send_command,"ax",%progbits
  20              		.align	2
  21              		.global	nRF24_send_command
  22              		.thumb
  23              		.thumb_func
  24              		.type	nRF24_send_command, %function
  25              	nRF24_send_command:
  26              	.LFB0:
  27              		.file 1 "Generated_Source\\PSoC5\\nRF24_COMMANDS.c"
   1:Generated_Source\PSoC5/nRF24_COMMANDS.c **** /****************************************************************************
   2:Generated_Source\PSoC5/nRF24_COMMANDS.c **** * This file is part of the nRF24 Custom Component for PSoC Devices.
   3:Generated_Source\PSoC5/nRF24_COMMANDS.c **** *
   4:Generated_Source\PSoC5/nRF24_COMMANDS.c **** * Copyright (C) 2017 Carlos Diaz <carlos.santiago.diaz@gmail.com>
   5:Generated_Source\PSoC5/nRF24_COMMANDS.c **** *
   6:Generated_Source\PSoC5/nRF24_COMMANDS.c **** * Permission to use, copy, modify, and/or distribute this software for any
   7:Generated_Source\PSoC5/nRF24_COMMANDS.c **** * purpose with or without fee is hereby granted, provided that the above
   8:Generated_Source\PSoC5/nRF24_COMMANDS.c **** * copyright notice and this permission notice appear in all copies.
   9:Generated_Source\PSoC5/nRF24_COMMANDS.c **** *
  10:Generated_Source\PSoC5/nRF24_COMMANDS.c **** * THE SOFTWARE IS PROVIDED "AS IS" AND THE AUTHOR DISCLAIMS ALL WARRANTIES
  11:Generated_Source\PSoC5/nRF24_COMMANDS.c **** * WITH REGARD TO THIS SOFTWARE INCLUDING ALL IMPLIED WARRANTIES OF
  12:Generated_Source\PSoC5/nRF24_COMMANDS.c **** * MERCHANTABILITY AND FITNESS. IN NO EVENT SHALL THE AUTHOR BE LIABLE FOR
  13:Generated_Source\PSoC5/nRF24_COMMANDS.c **** * ANY SPECIAL, DIRECT, INDIRECT, OR CONSEQUENTIAL DAMAGES OR ANY DAMAGES
  14:Generated_Source\PSoC5/nRF24_COMMANDS.c **** * WHATSOEVER RESULTING FROM LOSS OF USE, DATA OR PROFITS, WHETHER IN AN
  15:Generated_Source\PSoC5/nRF24_COMMANDS.c **** * ACTION OF CONTRACT, NEGLIGENCE OR OTHER TORTIOUS ACTION, ARISING OUT OF
  16:Generated_Source\PSoC5/nRF24_COMMANDS.c **** * OR IN CONNECTION WITH THE USE OR PERFORMANCE OF THIS SOFTWARE.
  17:Generated_Source\PSoC5/nRF24_COMMANDS.c **** ****************************************************************************/
  18:Generated_Source\PSoC5/nRF24_COMMANDS.c **** 
  19:Generated_Source\PSoC5/nRF24_COMMANDS.c **** /**
  20:Generated_Source\PSoC5/nRF24_COMMANDS.c **** * @file nRF24_COMMANDS.c
  21:Generated_Source\PSoC5/nRF24_COMMANDS.c **** *
  22:Generated_Source\PSoC5/nRF24_COMMANDS.c **** * @brief The nRF24 radio is controlled via commands, this file implement all
  23:Generated_Source\PSoC5/nRF24_COMMANDS.c **** * the available commands.
  24:Generated_Source\PSoC5/nRF24_COMMANDS.c **** */
  25:Generated_Source\PSoC5/nRF24_COMMANDS.c **** 
  26:Generated_Source\PSoC5/nRF24_COMMANDS.c **** #include "nRF24_CONFIG.h"
  27:Generated_Source\PSoC5/nRF24_COMMANDS.c **** #include "nRF24_HAL.h"
  28:Generated_Source\PSoC5/nRF24_COMMANDS.c **** #include "nRF24_COMMANDS.h"
  29:Generated_Source\PSoC5/nRF24_COMMANDS.c **** #include "nRF24_DEFS.h"
  30:Generated_Source\PSoC5/nRF24_COMMANDS.c **** 
ARM GAS  C:\Users\rens_\AppData\Local\Temp\cczEIUNd.s 			page 2


  31:Generated_Source\PSoC5/nRF24_COMMANDS.c **** /**
  32:Generated_Source\PSoC5/nRF24_COMMANDS.c ****  * Send the specified command to the nRF24 radio.
  33:Generated_Source\PSoC5/nRF24_COMMANDS.c ****  *
  34:Generated_Source\PSoC5/nRF24_COMMANDS.c ****  * @param const nrf_cmd cmd: Command to send to the nRF24 radio.
  35:Generated_Source\PSoC5/nRF24_COMMANDS.c ****  */
  36:Generated_Source\PSoC5/nRF24_COMMANDS.c **** void nRF24_send_command(const nrf_cmd cmd)
  37:Generated_Source\PSoC5/nRF24_COMMANDS.c **** {
  28              		.loc 1 37 0
  29              		.cfi_startproc
  30              		@ args = 0, pretend = 0, frame = 16
  31              		@ frame_needed = 0, uses_anonymous_args = 0
  32              	.LVL0:
  33 0000 00B5     		push	{lr}
  34              		.cfi_def_cfa_offset 4
  35              		.cfi_offset 14, -4
  36 0002 85B0     		sub	sp, sp, #20
  37              		.cfi_def_cfa_offset 24
  38 0004 8DF80700 		strb	r0, [sp, #7]
  38:Generated_Source\PSoC5/nRF24_COMMANDS.c ****     uint8_t status = 0;
  39              		.loc 1 38 0
  40 0008 04A9     		add	r1, sp, #16
  41 000a 0023     		movs	r3, #0
  42 000c 01F8013D 		strb	r3, [r1, #-1]!
  39:Generated_Source\PSoC5/nRF24_COMMANDS.c ****     
  40:Generated_Source\PSoC5/nRF24_COMMANDS.c ****     nRF24_spi_xfer(&cmd, &status, 1);
  43              		.loc 1 40 0
  44 0010 0122     		movs	r2, #1
  45 0012 0DF10700 		add	r0, sp, #7
  46              	.LVL1:
  47 0016 FFF7FEFF 		bl	nRF24_spi_xfer
  48              	.LVL2:
  41:Generated_Source\PSoC5/nRF24_COMMANDS.c **** }
  49              		.loc 1 41 0
  50 001a 05B0     		add	sp, sp, #20
  51              		.cfi_def_cfa_offset 4
  52              		@ sp needed
  53 001c 5DF804FB 		ldr	pc, [sp], #4
  54              		.cfi_endproc
  55              	.LFE0:
  56              		.size	nRF24_send_command, .-nRF24_send_command
  57              		.section	.text.nRF24_reuse_tx_payload_cmd,"ax",%progbits
  58              		.align	2
  59              		.global	nRF24_reuse_tx_payload_cmd
  60              		.thumb
  61              		.thumb_func
  62              		.type	nRF24_reuse_tx_payload_cmd, %function
  63              	nRF24_reuse_tx_payload_cmd:
  64              	.LFB1:
  42:Generated_Source\PSoC5/nRF24_COMMANDS.c **** 
  43:Generated_Source\PSoC5/nRF24_COMMANDS.c **** /**
  44:Generated_Source\PSoC5/nRF24_COMMANDS.c ****  * @brief Reuse last transmitted payload.
  45:Generated_Source\PSoC5/nRF24_COMMANDS.c ****  *
  46:Generated_Source\PSoC5/nRF24_COMMANDS.c ****  * Used for a PTX device.
  47:Generated_Source\PSoC5/nRF24_COMMANDS.c ****  * Reuse last transmitted payload. TX payload reuse is active until
  48:Generated_Source\PSoC5/nRF24_COMMANDS.c ****  * W_TX_PAYLOAD or FLUSH_TX is executed, TX payload reuse must not be
  49:Generated_Source\PSoC5/nRF24_COMMANDS.c ****  * activated or deactivated during package transmission.
  50:Generated_Source\PSoC5/nRF24_COMMANDS.c ****  */
ARM GAS  C:\Users\rens_\AppData\Local\Temp\cczEIUNd.s 			page 3


  51:Generated_Source\PSoC5/nRF24_COMMANDS.c **** void nRF24_reuse_tx_payload_cmd(void)
  52:Generated_Source\PSoC5/nRF24_COMMANDS.c **** {
  65              		.loc 1 52 0
  66              		.cfi_startproc
  67              		@ args = 0, pretend = 0, frame = 0
  68              		@ frame_needed = 0, uses_anonymous_args = 0
  69 0000 08B5     		push	{r3, lr}
  70              		.cfi_def_cfa_offset 8
  71              		.cfi_offset 3, -8
  72              		.cfi_offset 14, -4
  53:Generated_Source\PSoC5/nRF24_COMMANDS.c ****     nRF24_send_command(NRF_CMD_REUSE_TX_PL);
  73              		.loc 1 53 0
  74 0002 E320     		movs	r0, #227
  75 0004 FFF7FEFF 		bl	nRF24_send_command
  76              	.LVL3:
  77 0008 08BD     		pop	{r3, pc}
  78              		.cfi_endproc
  79              	.LFE1:
  80              		.size	nRF24_reuse_tx_payload_cmd, .-nRF24_reuse_tx_payload_cmd
  81 000a 00BF     		.section	.text.nRF24_flush_rx_cmd,"ax",%progbits
  82              		.align	2
  83              		.global	nRF24_flush_rx_cmd
  84              		.thumb
  85              		.thumb_func
  86              		.type	nRF24_flush_rx_cmd, %function
  87              	nRF24_flush_rx_cmd:
  88              	.LFB2:
  54:Generated_Source\PSoC5/nRF24_COMMANDS.c **** }
  55:Generated_Source\PSoC5/nRF24_COMMANDS.c **** 
  56:Generated_Source\PSoC5/nRF24_COMMANDS.c **** /**
  57:Generated_Source\PSoC5/nRF24_COMMANDS.c ****  * @brief Flush RX FIFO.
  58:Generated_Source\PSoC5/nRF24_COMMANDS.c ****  *
  59:Generated_Source\PSoC5/nRF24_COMMANDS.c ****  * Used in RX mode.
  60:Generated_Source\PSoC5/nRF24_COMMANDS.c ****  * Flush RX FIFO. Should be not executed during transmission of acknowledge,
  61:Generated_Source\PSoC5/nRF24_COMMANDS.c ****  * that is, acknowledge package will not be completed.
  62:Generated_Source\PSoC5/nRF24_COMMANDS.c ****  */
  63:Generated_Source\PSoC5/nRF24_COMMANDS.c **** void nRF24_flush_rx_cmd(void)
  64:Generated_Source\PSoC5/nRF24_COMMANDS.c **** {
  89              		.loc 1 64 0
  90              		.cfi_startproc
  91              		@ args = 0, pretend = 0, frame = 0
  92              		@ frame_needed = 0, uses_anonymous_args = 0
  93 0000 08B5     		push	{r3, lr}
  94              		.cfi_def_cfa_offset 8
  95              		.cfi_offset 3, -8
  96              		.cfi_offset 14, -4
  65:Generated_Source\PSoC5/nRF24_COMMANDS.c ****     nRF24_send_command(NRF_CMD_FLUSH_RX);
  97              		.loc 1 65 0
  98 0002 E220     		movs	r0, #226
  99 0004 FFF7FEFF 		bl	nRF24_send_command
 100              	.LVL4:
 101 0008 08BD     		pop	{r3, pc}
 102              		.cfi_endproc
 103              	.LFE2:
 104              		.size	nRF24_flush_rx_cmd, .-nRF24_flush_rx_cmd
 105 000a 00BF     		.section	.text.nRF24_flush_tx_cmd,"ax",%progbits
 106              		.align	2
ARM GAS  C:\Users\rens_\AppData\Local\Temp\cczEIUNd.s 			page 4


 107              		.global	nRF24_flush_tx_cmd
 108              		.thumb
 109              		.thumb_func
 110              		.type	nRF24_flush_tx_cmd, %function
 111              	nRF24_flush_tx_cmd:
 112              	.LFB3:
  66:Generated_Source\PSoC5/nRF24_COMMANDS.c **** }
  67:Generated_Source\PSoC5/nRF24_COMMANDS.c **** 
  68:Generated_Source\PSoC5/nRF24_COMMANDS.c **** /**
  69:Generated_Source\PSoC5/nRF24_COMMANDS.c ****  * Used in TX mode.
  70:Generated_Source\PSoC5/nRF24_COMMANDS.c ****  * Flush TX FIFO.
  71:Generated_Source\PSoC5/nRF24_COMMANDS.c ****  */
  72:Generated_Source\PSoC5/nRF24_COMMANDS.c **** void nRF24_flush_tx_cmd(void)
  73:Generated_Source\PSoC5/nRF24_COMMANDS.c **** {
 113              		.loc 1 73 0
 114              		.cfi_startproc
 115              		@ args = 0, pretend = 0, frame = 0
 116              		@ frame_needed = 0, uses_anonymous_args = 0
 117 0000 08B5     		push	{r3, lr}
 118              		.cfi_def_cfa_offset 8
 119              		.cfi_offset 3, -8
 120              		.cfi_offset 14, -4
  74:Generated_Source\PSoC5/nRF24_COMMANDS.c ****     nRF24_send_command(NRF_CMD_FLUSH_TX);
 121              		.loc 1 74 0
 122 0002 E120     		movs	r0, #225
 123 0004 FFF7FEFF 		bl	nRF24_send_command
 124              	.LVL5:
 125 0008 08BD     		pop	{r3, pc}
 126              		.cfi_endproc
 127              	.LFE3:
 128              		.size	nRF24_flush_tx_cmd, .-nRF24_flush_tx_cmd
 129 000a 00BF     		.section	.text.nRF24_read_rx_payload_cmd,"ax",%progbits
 130              		.align	2
 131              		.global	nRF24_read_rx_payload_cmd
 132              		.thumb
 133              		.thumb_func
 134              		.type	nRF24_read_rx_payload_cmd, %function
 135              	nRF24_read_rx_payload_cmd:
 136              	.LFB4:
  75:Generated_Source\PSoC5/nRF24_COMMANDS.c **** }
  76:Generated_Source\PSoC5/nRF24_COMMANDS.c **** 
  77:Generated_Source\PSoC5/nRF24_COMMANDS.c **** /**
  78:Generated_Source\PSoC5/nRF24_COMMANDS.c ****  * Used in RX mode.
  79:Generated_Source\PSoC5/nRF24_COMMANDS.c ****  * Read RX payload: 1 - 32 bytes. A read operation always starts at byte 0.
  80:Generated_Source\PSoC5/nRF24_COMMANDS.c ****  * Payload is deleted from FIFO after it is read.
  81:Generated_Source\PSoC5/nRF24_COMMANDS.c ****  *
  82:Generated_Source\PSoC5/nRF24_COMMANDS.c ****  * @param data: Data to be read.
  83:Generated_Source\PSoC5/nRF24_COMMANDS.c ****  * @param data_size: Bytes of data to be read (max 32).
  84:Generated_Source\PSoC5/nRF24_COMMANDS.c ****  */
  85:Generated_Source\PSoC5/nRF24_COMMANDS.c **** void nRF24_read_rx_payload_cmd(uint8_t *data, const size_t data_size)
  86:Generated_Source\PSoC5/nRF24_COMMANDS.c **** {
 137              		.loc 1 86 0
 138              		.cfi_startproc
 139              		@ args = 0, pretend = 0, frame = 0
 140              		@ frame_needed = 1, uses_anonymous_args = 0
 141              	.LVL6:
 142 0000 F8B5     		push	{r3, r4, r5, r6, r7, lr}
ARM GAS  C:\Users\rens_\AppData\Local\Temp\cczEIUNd.s 			page 5


 143              		.cfi_def_cfa_offset 24
 144              		.cfi_offset 3, -24
 145              		.cfi_offset 4, -20
 146              		.cfi_offset 5, -16
 147              		.cfi_offset 6, -12
 148              		.cfi_offset 7, -8
 149              		.cfi_offset 14, -4
 150 0002 00AF     		add	r7, sp, #0
 151              		.cfi_def_cfa_register 7
 152 0004 0646     		mov	r6, r0
 153 0006 0C46     		mov	r4, r1
  87:Generated_Source\PSoC5/nRF24_COMMANDS.c ****     uint8_t nrf_data_out[data_size + 1];
 154              		.loc 1 87 0
 155 0008 01F10803 		add	r3, r1, #8
 156 000c 23F00703 		bic	r3, r3, #7
 157 0010 ADEB030D 		sub	sp, sp, r3
 158 0014 6D46     		mov	r5, sp
 159              	.LVL7:
  88:Generated_Source\PSoC5/nRF24_COMMANDS.c ****     // the nrf_data_in array is to keep the spi sending dummy bytes so the
  89:Generated_Source\PSoC5/nRF24_COMMANDS.c ****     // radio can send us the payload, there's no need to set the array to
  90:Generated_Source\PSoC5/nRF24_COMMANDS.c ****     // any specific value, apart of the first element being the command
  91:Generated_Source\PSoC5/nRF24_COMMANDS.c ****     uint8_t nrf_data_in[data_size + 1];
 160              		.loc 1 91 0
 161 0016 ADEB030D 		sub	sp, sp, r3
 162              	.LVL8:
  92:Generated_Source\PSoC5/nRF24_COMMANDS.c ****     
  93:Generated_Source\PSoC5/nRF24_COMMANDS.c ****     nrf_data_in[0] = NRF_CMD_R_RX_PAYLOAD;
 163              		.loc 1 93 0
 164 001a 6123     		movs	r3, #97
 165 001c 8DF80030 		strb	r3, [sp]
  94:Generated_Source\PSoC5/nRF24_COMMANDS.c ****     
  95:Generated_Source\PSoC5/nRF24_COMMANDS.c ****     nRF24_spi_xfer(nrf_data_in, nrf_data_out, sizeof(nrf_data_out));
 166              		.loc 1 95 0
 167 0020 4A1C     		adds	r2, r1, #1
 168 0022 2946     		mov	r1, r5
 169              	.LVL9:
 170 0024 6846     		mov	r0, sp
 171              	.LVL10:
 172 0026 FFF7FEFF 		bl	nRF24_spi_xfer
 173              	.LVL11:
  96:Generated_Source\PSoC5/nRF24_COMMANDS.c ****     
  97:Generated_Source\PSoC5/nRF24_COMMANDS.c ****     memcpy(data, &nrf_data_out[1], data_size);
 174              		.loc 1 97 0
 175 002a 2246     		mov	r2, r4
 176 002c 691C     		adds	r1, r5, #1
 177 002e 3046     		mov	r0, r6
 178 0030 FFF7FEFF 		bl	memcpy
 179              	.LVL12:
  98:Generated_Source\PSoC5/nRF24_COMMANDS.c **** }
 180              		.loc 1 98 0
 181 0034 BD46     		mov	sp, r7
 182              		.cfi_def_cfa_register 13
 183              	.LVL13:
 184              		@ sp needed
 185 0036 F8BD     		pop	{r3, r4, r5, r6, r7, pc}
 186              		.cfi_endproc
 187              	.LFE4:
ARM GAS  C:\Users\rens_\AppData\Local\Temp\cczEIUNd.s 			page 6


 188              		.size	nRF24_read_rx_payload_cmd, .-nRF24_read_rx_payload_cmd
 189              		.section	.text.nRF24_write_tx_payload_cmd,"ax",%progbits
 190              		.align	2
 191              		.global	nRF24_write_tx_payload_cmd
 192              		.thumb
 193              		.thumb_func
 194              		.type	nRF24_write_tx_payload_cmd, %function
 195              	nRF24_write_tx_payload_cmd:
 196              	.LFB5:
  99:Generated_Source\PSoC5/nRF24_COMMANDS.c **** 
 100:Generated_Source\PSoC5/nRF24_COMMANDS.c **** /**
 101:Generated_Source\PSoC5/nRF24_COMMANDS.c ****  * Write TX payload: 1 - 32 bytes.
 102:Generated_Source\PSoC5/nRF24_COMMANDS.c ****  * A write operation always starts at byte 0 used in TX payload.
 103:Generated_Source\PSoC5/nRF24_COMMANDS.c ****  *
 104:Generated_Source\PSoC5/nRF24_COMMANDS.c ****  * @param const uint8_t* data: Data to be sent.
 105:Generated_Source\PSoC5/nRF24_COMMANDS.c ****  * @param const size_t size: Bytes of data to be sent (max 32).
 106:Generated_Source\PSoC5/nRF24_COMMANDS.c ****  */
 107:Generated_Source\PSoC5/nRF24_COMMANDS.c **** void nRF24_write_tx_payload_cmd(const uint8_t *data, const size_t data_size)
 108:Generated_Source\PSoC5/nRF24_COMMANDS.c **** {
 197              		.loc 1 108 0
 198              		.cfi_startproc
 199              		@ args = 0, pretend = 0, frame = 0
 200              		@ frame_needed = 1, uses_anonymous_args = 0
 201              	.LVL14:
 202 0000 B0B5     		push	{r4, r5, r7, lr}
 203              		.cfi_def_cfa_offset 16
 204              		.cfi_offset 4, -16
 205              		.cfi_offset 5, -12
 206              		.cfi_offset 7, -8
 207              		.cfi_offset 14, -4
 208 0002 00AF     		add	r7, sp, #0
 209              		.cfi_def_cfa_register 7
 210 0004 0A46     		mov	r2, r1
 109:Generated_Source\PSoC5/nRF24_COMMANDS.c ****     uint8_t nrf_data_in[data_size + 1];
 211              		.loc 1 109 0
 212 0006 4D1C     		adds	r5, r1, #1
 213 0008 01F10803 		add	r3, r1, #8
 214 000c 23F00703 		bic	r3, r3, #7
 215 0010 ADEB030D 		sub	sp, sp, r3
 216 0014 6C46     		mov	r4, sp
 217              	.LVL15:
 110:Generated_Source\PSoC5/nRF24_COMMANDS.c ****     uint8_t nrf_data_out[data_size + 1];
 218              		.loc 1 110 0
 219 0016 ADEB030D 		sub	sp, sp, r3
 220              	.LVL16:
 111:Generated_Source\PSoC5/nRF24_COMMANDS.c ****     
 112:Generated_Source\PSoC5/nRF24_COMMANDS.c ****     nrf_data_in[0] = NRF_CMD_W_TX_PAYLOAD;
 221              		.loc 1 112 0
 222 001a 2346     		mov	r3, r4
 223 001c A021     		movs	r1, #160
 224              	.LVL17:
 225 001e 03F8011B 		strb	r1, [r3], #1
 113:Generated_Source\PSoC5/nRF24_COMMANDS.c ****     memcpy(&nrf_data_in[1], data, data_size);
 226              		.loc 1 113 0
 227 0022 0146     		mov	r1, r0
 228 0024 1846     		mov	r0, r3
 229              	.LVL18:
ARM GAS  C:\Users\rens_\AppData\Local\Temp\cczEIUNd.s 			page 7


 230 0026 FFF7FEFF 		bl	memcpy
 231              	.LVL19:
 114:Generated_Source\PSoC5/nRF24_COMMANDS.c ****     
 115:Generated_Source\PSoC5/nRF24_COMMANDS.c ****     nRF24_spi_xfer(nrf_data_in, nrf_data_out, sizeof(nrf_data_in));
 232              		.loc 1 115 0
 233 002a 2A46     		mov	r2, r5
 234 002c 6946     		mov	r1, sp
 235 002e 2046     		mov	r0, r4
 236 0030 FFF7FEFF 		bl	nRF24_spi_xfer
 237              	.LVL20:
 116:Generated_Source\PSoC5/nRF24_COMMANDS.c **** }
 238              		.loc 1 116 0
 239 0034 BD46     		mov	sp, r7
 240              		.cfi_def_cfa_register 13
 241              	.LVL21:
 242              		@ sp needed
 243 0036 B0BD     		pop	{r4, r5, r7, pc}
 244              		.cfi_endproc
 245              	.LFE5:
 246              		.size	nRF24_write_tx_payload_cmd, .-nRF24_write_tx_payload_cmd
 247              		.section	.text.nRF24_read_payload_width_cmd,"ax",%progbits
 248              		.align	2
 249              		.global	nRF24_read_payload_width_cmd
 250              		.thumb
 251              		.thumb_func
 252              		.type	nRF24_read_payload_width_cmd, %function
 253              	nRF24_read_payload_width_cmd:
 254              	.LFB6:
 117:Generated_Source\PSoC5/nRF24_COMMANDS.c **** 
 118:Generated_Source\PSoC5/nRF24_COMMANDS.c **** /**
 119:Generated_Source\PSoC5/nRF24_COMMANDS.c ****  * Read RX payload width for the top R_RX_PAYLOAD in the RX FIFO.
 120:Generated_Source\PSoC5/nRF24_COMMANDS.c ****  * Note: Flush RX FIFO if the read value is larger than 32 bytes.
 121:Generated_Source\PSoC5/nRF24_COMMANDS.c ****  *
 122:Generated_Source\PSoC5/nRF24_COMMANDS.c ****  * @return uint8_t: width of the payload on the top of the RX FIFO.
 123:Generated_Source\PSoC5/nRF24_COMMANDS.c ****  */
 124:Generated_Source\PSoC5/nRF24_COMMANDS.c **** uint8_t nRF24_read_payload_width_cmd(void)
 125:Generated_Source\PSoC5/nRF24_COMMANDS.c **** {
 255              		.loc 1 125 0
 256              		.cfi_startproc
 257              		@ args = 0, pretend = 0, frame = 8
 258              		@ frame_needed = 0, uses_anonymous_args = 0
 259 0000 00B5     		push	{lr}
 260              		.cfi_def_cfa_offset 4
 261              		.cfi_offset 14, -4
 262 0002 83B0     		sub	sp, sp, #12
 263              		.cfi_def_cfa_offset 16
 126:Generated_Source\PSoC5/nRF24_COMMANDS.c ****     uint8_t nrf_data_in[2] = {
 264              		.loc 1 126 0
 265 0004 0B4B     		ldr	r3, .L16
 266 0006 1B88     		ldrh	r3, [r3]	@ unaligned
 267 0008 ADF80430 		strh	r3, [sp, #4]	@ unaligned
 127:Generated_Source\PSoC5/nRF24_COMMANDS.c ****         NRF_CMD_R_RX_PL_WID, NRF_CMD_NOP
 128:Generated_Source\PSoC5/nRF24_COMMANDS.c ****     };
 129:Generated_Source\PSoC5/nRF24_COMMANDS.c ****     // nrf_data_out[0] = STATUS_REGISTER, nrf_data_out[1] = payload_width
 130:Generated_Source\PSoC5/nRF24_COMMANDS.c ****     uint8_t nrf_data_out[2] = {0};
 268              		.loc 1 130 0
 269 000c 02A9     		add	r1, sp, #8
ARM GAS  C:\Users\rens_\AppData\Local\Temp\cczEIUNd.s 			page 8


 270 000e 0023     		movs	r3, #0
 271 0010 21F8083D 		strh	r3, [r1, #-8]!	@ movhi
 131:Generated_Source\PSoC5/nRF24_COMMANDS.c ****     
 132:Generated_Source\PSoC5/nRF24_COMMANDS.c ****     nRF24_spi_xfer(nrf_data_in, nrf_data_out, sizeof(nrf_data_in));
 272              		.loc 1 132 0
 273 0014 0222     		movs	r2, #2
 274 0016 01A8     		add	r0, sp, #4
 275 0018 FFF7FEFF 		bl	nRF24_spi_xfer
 276              	.LVL22:
 133:Generated_Source\PSoC5/nRF24_COMMANDS.c **** 
 134:Generated_Source\PSoC5/nRF24_COMMANDS.c ****     // If width is greater than 32 then is garbage, we must flush the RX FIFO
 135:Generated_Source\PSoC5/nRF24_COMMANDS.c ****     if (32 < nrf_data_out[1]) {
 277              		.loc 1 135 0
 278 001c 9DF80130 		ldrb	r3, [sp, #1]	@ zero_extendqisi2
 279 0020 202B     		cmp	r3, #32
 280 0022 01D9     		bls	.L14
 136:Generated_Source\PSoC5/nRF24_COMMANDS.c ****         nRF24_flush_rx_cmd();
 281              		.loc 1 136 0
 282 0024 FFF7FEFF 		bl	nRF24_flush_rx_cmd
 283              	.LVL23:
 284              	.L14:
 137:Generated_Source\PSoC5/nRF24_COMMANDS.c ****     }
 138:Generated_Source\PSoC5/nRF24_COMMANDS.c **** 
 139:Generated_Source\PSoC5/nRF24_COMMANDS.c ****     return nrf_data_out[1];
 140:Generated_Source\PSoC5/nRF24_COMMANDS.c **** }
 285              		.loc 1 140 0
 286 0028 9DF80100 		ldrb	r0, [sp, #1]	@ zero_extendqisi2
 287 002c 03B0     		add	sp, sp, #12
 288              		.cfi_def_cfa_offset 4
 289              		@ sp needed
 290 002e 5DF804FB 		ldr	pc, [sp], #4
 291              	.L17:
 292 0032 00BF     		.align	2
 293              	.L16:
 294 0034 00000000 		.word	.LANCHOR0
 295              		.cfi_endproc
 296              	.LFE6:
 297              		.size	nRF24_read_payload_width_cmd, .-nRF24_read_payload_width_cmd
 298              		.section	.text.nRF24_write_ack_payload_cmd,"ax",%progbits
 299              		.align	2
 300              		.global	nRF24_write_ack_payload_cmd
 301              		.thumb
 302              		.thumb_func
 303              		.type	nRF24_write_ack_payload_cmd, %function
 304              	nRF24_write_ack_payload_cmd:
 305              	.LFB7:
 141:Generated_Source\PSoC5/nRF24_COMMANDS.c **** 
 142:Generated_Source\PSoC5/nRF24_COMMANDS.c **** /**
 143:Generated_Source\PSoC5/nRF24_COMMANDS.c ****  * @brief Write Payload to be transmitted together with ACK packet.
 144:Generated_Source\PSoC5/nRF24_COMMANDS.c ****  *
 145:Generated_Source\PSoC5/nRF24_COMMANDS.c ****  * Used in RX mode.
 146:Generated_Source\PSoC5/nRF24_COMMANDS.c ****  * Write Payload to be transmitted together with ACK packet on PIPE PPP
 147:Generated_Source\PSoC5/nRF24_COMMANDS.c ****  * (PPP valid in the range from 000 to 101). Maximum three ACK packet
 148:Generated_Source\PSoC5/nRF24_COMMANDS.c ****  * payloads can be pending. Payloads with same PPP are handled using
 149:Generated_Source\PSoC5/nRF24_COMMANDS.c ****  * first in - first out principle.
 150:Generated_Source\PSoC5/nRF24_COMMANDS.c ****  * Write payload: 1 - 32 bytes.
 151:Generated_Source\PSoC5/nRF24_COMMANDS.c ****  * A write operation always starts at byte 0.
ARM GAS  C:\Users\rens_\AppData\Local\Temp\cczEIUNd.s 			page 9


 152:Generated_Source\PSoC5/nRF24_COMMANDS.c ****  *
 153:Generated_Source\PSoC5/nRF24_COMMANDS.c ****  * @param const nrf_pipe pipe: Pipe to use.
 154:Generated_Source\PSoC5/nRF24_COMMANDS.c ****  * @param const uint8_t* data: Data to be sent.
 155:Generated_Source\PSoC5/nRF24_COMMANDS.c ****  * @param const size_t size: Bytes of data to be sent (max 32)
 156:Generated_Source\PSoC5/nRF24_COMMANDS.c ****  */
 157:Generated_Source\PSoC5/nRF24_COMMANDS.c **** void nRF24_write_ack_payload_cmd(const nrf_pipe pipe, const uint8_t* data,
 158:Generated_Source\PSoC5/nRF24_COMMANDS.c ****                                         const size_t data_size)
 159:Generated_Source\PSoC5/nRF24_COMMANDS.c **** {
 306              		.loc 1 159 0
 307              		.cfi_startproc
 308              		@ args = 0, pretend = 0, frame = 0
 309              		@ frame_needed = 1, uses_anonymous_args = 0
 310              	.LVL24:
 311 0000 B0B5     		push	{r4, r5, r7, lr}
 312              		.cfi_def_cfa_offset 16
 313              		.cfi_offset 4, -16
 314              		.cfi_offset 5, -12
 315              		.cfi_offset 7, -8
 316              		.cfi_offset 14, -4
 317 0002 00AF     		add	r7, sp, #0
 318              		.cfi_def_cfa_register 7
 319 0004 1346     		mov	r3, r2
 160:Generated_Source\PSoC5/nRF24_COMMANDS.c ****     uint8_t nrf_data_in[data_size + 1];
 320              		.loc 1 160 0
 321 0006 551C     		adds	r5, r2, #1
 322 0008 0833     		adds	r3, r3, #8
 323 000a 23F00703 		bic	r3, r3, #7
 324 000e ADEB030D 		sub	sp, sp, r3
 325 0012 6C46     		mov	r4, sp
 326              	.LVL25:
 161:Generated_Source\PSoC5/nRF24_COMMANDS.c ****     uint8_t nrf_data_out[data_size + 1];
 327              		.loc 1 161 0
 328 0014 ADEB030D 		sub	sp, sp, r3
 329              	.LVL26:
 162:Generated_Source\PSoC5/nRF24_COMMANDS.c ****     
 163:Generated_Source\PSoC5/nRF24_COMMANDS.c ****     nrf_data_in[0] = NRF_CMD_W_ACK_PAYLOAD | pipe;
 330              		.loc 1 163 0
 331 0018 60F05703 		orn	r3, r0, #87
 332 001c 2046     		mov	r0, r4
 333              	.LVL27:
 334 001e 00F8013B 		strb	r3, [r0], #1
 164:Generated_Source\PSoC5/nRF24_COMMANDS.c ****     memcpy(&nrf_data_in[1], data, data_size);
 335              		.loc 1 164 0
 336 0022 FFF7FEFF 		bl	memcpy
 337              	.LVL28:
 165:Generated_Source\PSoC5/nRF24_COMMANDS.c ****     
 166:Generated_Source\PSoC5/nRF24_COMMANDS.c ****     nRF24_spi_xfer(nrf_data_in, nrf_data_out, sizeof(nrf_data_in));
 338              		.loc 1 166 0
 339 0026 2A46     		mov	r2, r5
 340 0028 6946     		mov	r1, sp
 341 002a 2046     		mov	r0, r4
 342 002c FFF7FEFF 		bl	nRF24_spi_xfer
 343              	.LVL29:
 167:Generated_Source\PSoC5/nRF24_COMMANDS.c **** }
 344              		.loc 1 167 0
 345 0030 BD46     		mov	sp, r7
 346              		.cfi_def_cfa_register 13
ARM GAS  C:\Users\rens_\AppData\Local\Temp\cczEIUNd.s 			page 10


 347              	.LVL30:
 348              		@ sp needed
 349 0032 B0BD     		pop	{r4, r5, r7, pc}
 350              		.cfi_endproc
 351              	.LFE7:
 352              		.size	nRF24_write_ack_payload_cmd, .-nRF24_write_ack_payload_cmd
 353              		.section	.text.nRF24_no_ack_payload_cmd,"ax",%progbits
 354              		.align	2
 355              		.global	nRF24_no_ack_payload_cmd
 356              		.thumb
 357              		.thumb_func
 358              		.type	nRF24_no_ack_payload_cmd, %function
 359              	nRF24_no_ack_payload_cmd:
 360              	.LFB8:
 168:Generated_Source\PSoC5/nRF24_COMMANDS.c **** 
 169:Generated_Source\PSoC5/nRF24_COMMANDS.c **** /**
 170:Generated_Source\PSoC5/nRF24_COMMANDS.c ****  * Used in TX mode.
 171:Generated_Source\PSoC5/nRF24_COMMANDS.c ****  * Disable AUTOACK on this packet.
 172:Generated_Source\PSoC5/nRF24_COMMANDS.c ****  *
 173:Generated_Source\PSoC5/nRF24_COMMANDS.c ****  * @param const uint8_t* data: Data to be sent.
 174:Generated_Source\PSoC5/nRF24_COMMANDS.c ****  * @param const size_t size: Bytes of data to be sent (max 32).
 175:Generated_Source\PSoC5/nRF24_COMMANDS.c ****  */
 176:Generated_Source\PSoC5/nRF24_COMMANDS.c **** void nRF24_no_ack_payload_cmd(const uint8_t* data, const size_t data_size)
 177:Generated_Source\PSoC5/nRF24_COMMANDS.c **** {
 361              		.loc 1 177 0
 362              		.cfi_startproc
 363              		@ args = 0, pretend = 0, frame = 0
 364              		@ frame_needed = 1, uses_anonymous_args = 0
 365              	.LVL31:
 366 0000 B0B5     		push	{r4, r5, r7, lr}
 367              		.cfi_def_cfa_offset 16
 368              		.cfi_offset 4, -16
 369              		.cfi_offset 5, -12
 370              		.cfi_offset 7, -8
 371              		.cfi_offset 14, -4
 372 0002 00AF     		add	r7, sp, #0
 373              		.cfi_def_cfa_register 7
 374 0004 0A46     		mov	r2, r1
 178:Generated_Source\PSoC5/nRF24_COMMANDS.c ****     uint8_t nrf_data_in[data_size + 1];
 375              		.loc 1 178 0
 376 0006 4D1C     		adds	r5, r1, #1
 377 0008 01F10803 		add	r3, r1, #8
 378 000c 23F00703 		bic	r3, r3, #7
 379 0010 ADEB030D 		sub	sp, sp, r3
 380 0014 6C46     		mov	r4, sp
 381              	.LVL32:
 179:Generated_Source\PSoC5/nRF24_COMMANDS.c ****     uint8_t nrf_data_out[data_size + 1];
 382              		.loc 1 179 0
 383 0016 ADEB030D 		sub	sp, sp, r3
 384              	.LVL33:
 180:Generated_Source\PSoC5/nRF24_COMMANDS.c ****     
 181:Generated_Source\PSoC5/nRF24_COMMANDS.c ****     nrf_data_in[0] = NRF_CMD_W_TX_PAYLOAD_NOACK;
 385              		.loc 1 181 0
 386 001a 2346     		mov	r3, r4
 387 001c B021     		movs	r1, #176
 388              	.LVL34:
 389 001e 03F8011B 		strb	r1, [r3], #1
ARM GAS  C:\Users\rens_\AppData\Local\Temp\cczEIUNd.s 			page 11


 182:Generated_Source\PSoC5/nRF24_COMMANDS.c ****     memcpy(&nrf_data_in[1], data, data_size);
 390              		.loc 1 182 0
 391 0022 0146     		mov	r1, r0
 392 0024 1846     		mov	r0, r3
 393              	.LVL35:
 394 0026 FFF7FEFF 		bl	memcpy
 395              	.LVL36:
 183:Generated_Source\PSoC5/nRF24_COMMANDS.c ****     
 184:Generated_Source\PSoC5/nRF24_COMMANDS.c ****     nRF24_spi_xfer(nrf_data_in, nrf_data_out, sizeof(nrf_data_in));
 396              		.loc 1 184 0
 397 002a 2A46     		mov	r2, r5
 398 002c 6946     		mov	r1, sp
 399 002e 2046     		mov	r0, r4
 400 0030 FFF7FEFF 		bl	nRF24_spi_xfer
 401              	.LVL37:
 185:Generated_Source\PSoC5/nRF24_COMMANDS.c **** }
 402              		.loc 1 185 0
 403 0034 BD46     		mov	sp, r7
 404              		.cfi_def_cfa_register 13
 405              	.LVL38:
 406              		@ sp needed
 407 0036 B0BD     		pop	{r4, r5, r7, pc}
 408              		.cfi_endproc
 409              	.LFE8:
 410              		.size	nRF24_no_ack_payload_cmd, .-nRF24_no_ack_payload_cmd
 411              		.section	.text.nRF24_nop_cmd,"ax",%progbits
 412              		.align	2
 413              		.global	nRF24_nop_cmd
 414              		.thumb
 415              		.thumb_func
 416              		.type	nRF24_nop_cmd, %function
 417              	nRF24_nop_cmd:
 418              	.LFB9:
 186:Generated_Source\PSoC5/nRF24_COMMANDS.c **** 
 187:Generated_Source\PSoC5/nRF24_COMMANDS.c **** /**
 188:Generated_Source\PSoC5/nRF24_COMMANDS.c ****  * NOP (No OPeration) Command. Useful to read the STATUS register.
 189:Generated_Source\PSoC5/nRF24_COMMANDS.c ****  *
 190:Generated_Source\PSoC5/nRF24_COMMANDS.c ****  * @return uint8_t: STATUS register.
 191:Generated_Source\PSoC5/nRF24_COMMANDS.c ****  */
 192:Generated_Source\PSoC5/nRF24_COMMANDS.c **** uint8_t nRF24_nop_cmd(void)
 193:Generated_Source\PSoC5/nRF24_COMMANDS.c **** {
 419              		.loc 1 193 0
 420              		.cfi_startproc
 421              		@ args = 0, pretend = 0, frame = 8
 422              		@ frame_needed = 0, uses_anonymous_args = 0
 423 0000 00B5     		push	{lr}
 424              		.cfi_def_cfa_offset 4
 425              		.cfi_offset 14, -4
 426 0002 83B0     		sub	sp, sp, #12
 427              		.cfi_def_cfa_offset 16
 194:Generated_Source\PSoC5/nRF24_COMMANDS.c ****     uint8_t dummy = 0xFF;
 428              		.loc 1 194 0
 429 0004 FF23     		movs	r3, #255
 430 0006 8DF80730 		strb	r3, [sp, #7]
 195:Generated_Source\PSoC5/nRF24_COMMANDS.c ****     uint8_t status = 0;
 431              		.loc 1 195 0
 432 000a 02A9     		add	r1, sp, #8
ARM GAS  C:\Users\rens_\AppData\Local\Temp\cczEIUNd.s 			page 12


 433 000c 0023     		movs	r3, #0
 434 000e 01F8023D 		strb	r3, [r1, #-2]!
 196:Generated_Source\PSoC5/nRF24_COMMANDS.c ****     
 197:Generated_Source\PSoC5/nRF24_COMMANDS.c ****     nRF24_spi_xfer(&dummy, &status, 1);
 435              		.loc 1 197 0
 436 0012 0122     		movs	r2, #1
 437 0014 0DF10700 		add	r0, sp, #7
 438 0018 FFF7FEFF 		bl	nRF24_spi_xfer
 439              	.LVL39:
 198:Generated_Source\PSoC5/nRF24_COMMANDS.c ****     
 199:Generated_Source\PSoC5/nRF24_COMMANDS.c ****     return status;
 200:Generated_Source\PSoC5/nRF24_COMMANDS.c **** }
 440              		.loc 1 200 0
 441 001c 9DF80600 		ldrb	r0, [sp, #6]	@ zero_extendqisi2
 442 0020 03B0     		add	sp, sp, #12
 443              		.cfi_def_cfa_offset 4
 444              		@ sp needed
 445 0022 5DF804FB 		ldr	pc, [sp], #4
 446              		.cfi_endproc
 447              	.LFE9:
 448              		.size	nRF24_nop_cmd, .-nRF24_nop_cmd
 449 0026 00BF     		.section	.rodata
 450              		.align	2
 451              		.set	.LANCHOR0,. + 0
 452              	.LC0:
 453 0000 60       		.byte	96
 454 0001 FF       		.byte	-1
 455              		.text
 456              	.Letext0:
 457              		.file 2 "c:\\program files (x86)\\cypress\\psoc creator\\4.2\\psoc creator\\import\\gnu\\arm\\5.4.
 458              		.file 3 "c:\\program files (x86)\\cypress\\psoc creator\\4.2\\psoc creator\\import\\gnu\\arm\\5.4.
 459              		.file 4 "c:\\program files (x86)\\cypress\\psoc creator\\4.2\\psoc creator\\import\\gnu\\arm\\5.4.
 460              		.file 5 "Generated_Source\\PSoC5\\nRF24_DEFS.h"
 461              		.file 6 "Generated_Source\\PSoC5\\nRF24_HAL.h"