ARM GAS  C:\Users\mikke\AppData\Local\Temp\cc41sA3P.s 			page 1


   1              		.syntax unified
   2              		.cpu cortex-m0
   3              		.fpu softvfp
   4              		.eabi_attribute 20, 1
   5              		.eabi_attribute 21, 1
   6              		.eabi_attribute 23, 3
   7              		.eabi_attribute 24, 1
   8              		.eabi_attribute 25, 1
   9              		.eabi_attribute 26, 1
  10              		.eabi_attribute 30, 1
  11              		.eabi_attribute 34, 0
  12              		.eabi_attribute 18, 4
  13              		.thumb
  14              		.syntax unified
  15              		.file	"cyfitter_cfg.c"
  16              		.text
  17              	.Ltext0:
  18              		.cfi_sections	.debug_frame
  19              		.section	.text.cfg_write_bytes32,"ax",%progbits
  20              		.align	2
  21              		.code	16
  22              		.thumb_func
  23              		.type	cfg_write_bytes32, %function
  24              	cfg_write_bytes32:
  25              	.LFB3:
  26              		.file 1 "Generated_Source\\PSoC4\\cyfitter_cfg.c"
   1:Generated_Source\PSoC4/cyfitter_cfg.c **** 
   2:Generated_Source\PSoC4/cyfitter_cfg.c **** /*******************************************************************************
   3:Generated_Source\PSoC4/cyfitter_cfg.c **** * File Name: cyfitter_cfg.c
   4:Generated_Source\PSoC4/cyfitter_cfg.c **** * 
   5:Generated_Source\PSoC4/cyfitter_cfg.c **** * PSoC Creator  4.2
   6:Generated_Source\PSoC4/cyfitter_cfg.c **** *
   7:Generated_Source\PSoC4/cyfitter_cfg.c **** * Description:
   8:Generated_Source\PSoC4/cyfitter_cfg.c **** * This file contains device initialization code.
   9:Generated_Source\PSoC4/cyfitter_cfg.c **** * Except for the user defined sections in CyClockStartupError(), this file should not be modified.
  10:Generated_Source\PSoC4/cyfitter_cfg.c **** * This file is automatically generated by PSoC Creator.
  11:Generated_Source\PSoC4/cyfitter_cfg.c **** *
  12:Generated_Source\PSoC4/cyfitter_cfg.c **** ********************************************************************************
  13:Generated_Source\PSoC4/cyfitter_cfg.c **** * Copyright (c) 2007-2018 Cypress Semiconductor.  All rights reserved.
  14:Generated_Source\PSoC4/cyfitter_cfg.c **** * You may use this file only in accordance with the license, terms, conditions, 
  15:Generated_Source\PSoC4/cyfitter_cfg.c **** * disclaimers, and limitations in the end user license agreement accompanying 
  16:Generated_Source\PSoC4/cyfitter_cfg.c **** * the software package with which this file was provided.
  17:Generated_Source\PSoC4/cyfitter_cfg.c **** ********************************************************************************/
  18:Generated_Source\PSoC4/cyfitter_cfg.c **** 
  19:Generated_Source\PSoC4/cyfitter_cfg.c **** #include <string.h>
  20:Generated_Source\PSoC4/cyfitter_cfg.c **** #include "cytypes.h"
  21:Generated_Source\PSoC4/cyfitter_cfg.c **** #include "cydevice_trm.h"
  22:Generated_Source\PSoC4/cyfitter_cfg.c **** #include "cyfitter.h"
  23:Generated_Source\PSoC4/cyfitter_cfg.c **** #include "CyLib.h"
  24:Generated_Source\PSoC4/cyfitter_cfg.c **** #include "CyLFClk.h"
  25:Generated_Source\PSoC4/cyfitter_cfg.c **** #include "cyfitter_cfg.h"
  26:Generated_Source\PSoC4/cyfitter_cfg.c **** #include "cyapicallbacks.h"
  27:Generated_Source\PSoC4/cyfitter_cfg.c **** 
  28:Generated_Source\PSoC4/cyfitter_cfg.c **** 
  29:Generated_Source\PSoC4/cyfitter_cfg.c **** #if defined(__GNUC__) || defined(__ARMCC_VERSION)
  30:Generated_Source\PSoC4/cyfitter_cfg.c ****     #define CYPACKED 
  31:Generated_Source\PSoC4/cyfitter_cfg.c ****     #define CYPACKED_ATTR __attribute__ ((packed))
ARM GAS  C:\Users\mikke\AppData\Local\Temp\cc41sA3P.s 			page 2


  32:Generated_Source\PSoC4/cyfitter_cfg.c ****     #define CYALIGNED __attribute__ ((aligned))
  33:Generated_Source\PSoC4/cyfitter_cfg.c ****     #define CY_CFG_UNUSED __attribute__ ((unused))
  34:Generated_Source\PSoC4/cyfitter_cfg.c ****     #ifndef CY_CFG_SECTION
  35:Generated_Source\PSoC4/cyfitter_cfg.c ****         #define CY_CFG_SECTION __attribute__ ((section(".psocinit")))
  36:Generated_Source\PSoC4/cyfitter_cfg.c ****     #endif
  37:Generated_Source\PSoC4/cyfitter_cfg.c ****     
  38:Generated_Source\PSoC4/cyfitter_cfg.c ****     #if defined(__ARMCC_VERSION)
  39:Generated_Source\PSoC4/cyfitter_cfg.c ****         #define CY_CFG_MEMORY_BARRIER() __memory_changed()
  40:Generated_Source\PSoC4/cyfitter_cfg.c ****     #else
  41:Generated_Source\PSoC4/cyfitter_cfg.c ****         #define CY_CFG_MEMORY_BARRIER() __sync_synchronize()
  42:Generated_Source\PSoC4/cyfitter_cfg.c ****     #endif
  43:Generated_Source\PSoC4/cyfitter_cfg.c ****     
  44:Generated_Source\PSoC4/cyfitter_cfg.c **** #elif defined(__ICCARM__)
  45:Generated_Source\PSoC4/cyfitter_cfg.c ****     #include <intrinsics.h>
  46:Generated_Source\PSoC4/cyfitter_cfg.c **** 
  47:Generated_Source\PSoC4/cyfitter_cfg.c ****     #define CYPACKED __packed
  48:Generated_Source\PSoC4/cyfitter_cfg.c ****     #define CYPACKED_ATTR 
  49:Generated_Source\PSoC4/cyfitter_cfg.c ****     #define CYALIGNED _Pragma("data_alignment=4")
  50:Generated_Source\PSoC4/cyfitter_cfg.c ****     #define CY_CFG_UNUSED _Pragma("diag_suppress=Pe177")
  51:Generated_Source\PSoC4/cyfitter_cfg.c ****     #define CY_CFG_SECTION _Pragma("location=\".psocinit\"")
  52:Generated_Source\PSoC4/cyfitter_cfg.c ****     
  53:Generated_Source\PSoC4/cyfitter_cfg.c ****     #define CY_CFG_MEMORY_BARRIER() __DMB()
  54:Generated_Source\PSoC4/cyfitter_cfg.c ****     
  55:Generated_Source\PSoC4/cyfitter_cfg.c **** #else
  56:Generated_Source\PSoC4/cyfitter_cfg.c ****     #error Unsupported toolchain
  57:Generated_Source\PSoC4/cyfitter_cfg.c **** #endif
  58:Generated_Source\PSoC4/cyfitter_cfg.c **** 
  59:Generated_Source\PSoC4/cyfitter_cfg.c **** #ifndef CYCODE
  60:Generated_Source\PSoC4/cyfitter_cfg.c ****     #define CYCODE
  61:Generated_Source\PSoC4/cyfitter_cfg.c **** #endif
  62:Generated_Source\PSoC4/cyfitter_cfg.c **** #ifndef CYDATA
  63:Generated_Source\PSoC4/cyfitter_cfg.c ****     #define CYDATA
  64:Generated_Source\PSoC4/cyfitter_cfg.c **** #endif
  65:Generated_Source\PSoC4/cyfitter_cfg.c **** #ifndef CYFAR
  66:Generated_Source\PSoC4/cyfitter_cfg.c ****     #define CYFAR
  67:Generated_Source\PSoC4/cyfitter_cfg.c **** #endif
  68:Generated_Source\PSoC4/cyfitter_cfg.c **** #ifndef CYXDATA
  69:Generated_Source\PSoC4/cyfitter_cfg.c ****     #define CYXDATA
  70:Generated_Source\PSoC4/cyfitter_cfg.c **** #endif
  71:Generated_Source\PSoC4/cyfitter_cfg.c **** 
  72:Generated_Source\PSoC4/cyfitter_cfg.c **** 
  73:Generated_Source\PSoC4/cyfitter_cfg.c **** CY_CFG_UNUSED
  74:Generated_Source\PSoC4/cyfitter_cfg.c **** static void CYMEMZERO(void *s, size_t n);
  75:Generated_Source\PSoC4/cyfitter_cfg.c **** CY_CFG_UNUSED
  76:Generated_Source\PSoC4/cyfitter_cfg.c **** static void CYMEMZERO(void *s, size_t n)
  77:Generated_Source\PSoC4/cyfitter_cfg.c **** {
  78:Generated_Source\PSoC4/cyfitter_cfg.c **** 	(void)memset(s, 0, n);
  79:Generated_Source\PSoC4/cyfitter_cfg.c **** }
  80:Generated_Source\PSoC4/cyfitter_cfg.c **** CY_CFG_UNUSED
  81:Generated_Source\PSoC4/cyfitter_cfg.c **** static void CYCONFIGCPY(void *dest, const void *src, size_t n);
  82:Generated_Source\PSoC4/cyfitter_cfg.c **** CY_CFG_UNUSED
  83:Generated_Source\PSoC4/cyfitter_cfg.c **** static void CYCONFIGCPY(void *dest, const void *src, size_t n)
  84:Generated_Source\PSoC4/cyfitter_cfg.c **** {
  85:Generated_Source\PSoC4/cyfitter_cfg.c **** 	(void)memcpy(dest, src, n);
  86:Generated_Source\PSoC4/cyfitter_cfg.c **** }
  87:Generated_Source\PSoC4/cyfitter_cfg.c **** CY_CFG_UNUSED
  88:Generated_Source\PSoC4/cyfitter_cfg.c **** static void CYCONFIGCPYCODE(void *dest, const void *src, size_t n);
ARM GAS  C:\Users\mikke\AppData\Local\Temp\cc41sA3P.s 			page 3


  89:Generated_Source\PSoC4/cyfitter_cfg.c **** CY_CFG_UNUSED
  90:Generated_Source\PSoC4/cyfitter_cfg.c **** static void CYCONFIGCPYCODE(void *dest, const void *src, size_t n)
  91:Generated_Source\PSoC4/cyfitter_cfg.c **** {
  92:Generated_Source\PSoC4/cyfitter_cfg.c **** 	(void)memcpy(dest, src, n);
  93:Generated_Source\PSoC4/cyfitter_cfg.c **** }
  94:Generated_Source\PSoC4/cyfitter_cfg.c **** 
  95:Generated_Source\PSoC4/cyfitter_cfg.c **** 
  96:Generated_Source\PSoC4/cyfitter_cfg.c **** 
  97:Generated_Source\PSoC4/cyfitter_cfg.c **** 
  98:Generated_Source\PSoC4/cyfitter_cfg.c **** /* Clock startup error codes                                                   */
  99:Generated_Source\PSoC4/cyfitter_cfg.c **** #define CYCLOCKSTART_NO_ERROR    0u
 100:Generated_Source\PSoC4/cyfitter_cfg.c **** #define CYCLOCKSTART_XTAL_ERROR  1u
 101:Generated_Source\PSoC4/cyfitter_cfg.c **** #define CYCLOCKSTART_32KHZ_ERROR 2u
 102:Generated_Source\PSoC4/cyfitter_cfg.c **** #define CYCLOCKSTART_PLL_ERROR   3u
 103:Generated_Source\PSoC4/cyfitter_cfg.c **** #define CYCLOCKSTART_FLL_ERROR   4u
 104:Generated_Source\PSoC4/cyfitter_cfg.c **** #define CYCLOCKSTART_WCO_ERROR   5u
 105:Generated_Source\PSoC4/cyfitter_cfg.c **** 
 106:Generated_Source\PSoC4/cyfitter_cfg.c **** 
 107:Generated_Source\PSoC4/cyfitter_cfg.c **** #ifdef CY_NEED_CYCLOCKSTARTUPERROR
 108:Generated_Source\PSoC4/cyfitter_cfg.c **** /*******************************************************************************
 109:Generated_Source\PSoC4/cyfitter_cfg.c **** * Function Name: CyClockStartupError
 110:Generated_Source\PSoC4/cyfitter_cfg.c **** ********************************************************************************
 111:Generated_Source\PSoC4/cyfitter_cfg.c **** * Summary:
 112:Generated_Source\PSoC4/cyfitter_cfg.c **** *  If an error is encountered during clock configuration (crystal startup error,
 113:Generated_Source\PSoC4/cyfitter_cfg.c **** *  PLL lock error, etc.), the system will end up here.  Unless reimplemented by
 114:Generated_Source\PSoC4/cyfitter_cfg.c **** *  the customer, this function will stop in an infinite loop.
 115:Generated_Source\PSoC4/cyfitter_cfg.c **** *
 116:Generated_Source\PSoC4/cyfitter_cfg.c **** * Parameters:
 117:Generated_Source\PSoC4/cyfitter_cfg.c **** *   void
 118:Generated_Source\PSoC4/cyfitter_cfg.c **** *
 119:Generated_Source\PSoC4/cyfitter_cfg.c **** * Return:
 120:Generated_Source\PSoC4/cyfitter_cfg.c **** *   void
 121:Generated_Source\PSoC4/cyfitter_cfg.c **** *
 122:Generated_Source\PSoC4/cyfitter_cfg.c **** *******************************************************************************/
 123:Generated_Source\PSoC4/cyfitter_cfg.c **** CY_CFG_UNUSED
 124:Generated_Source\PSoC4/cyfitter_cfg.c **** static void CyClockStartupError(uint8 errorCode);
 125:Generated_Source\PSoC4/cyfitter_cfg.c **** CY_CFG_UNUSED
 126:Generated_Source\PSoC4/cyfitter_cfg.c **** static void CyClockStartupError(uint8 errorCode)
 127:Generated_Source\PSoC4/cyfitter_cfg.c **** {
 128:Generated_Source\PSoC4/cyfitter_cfg.c ****     /* To remove the compiler warning if errorCode not used.                */
 129:Generated_Source\PSoC4/cyfitter_cfg.c ****     errorCode = errorCode;
 130:Generated_Source\PSoC4/cyfitter_cfg.c **** 
 131:Generated_Source\PSoC4/cyfitter_cfg.c ****     /* If we have a clock startup error (bad MHz crystal, PLL lock, etc.),  */
 132:Generated_Source\PSoC4/cyfitter_cfg.c ****     /* we will end up here to allow the customer to implement something to  */
 133:Generated_Source\PSoC4/cyfitter_cfg.c ****     /* deal with the clock condition.                                       */
 134:Generated_Source\PSoC4/cyfitter_cfg.c **** 
 135:Generated_Source\PSoC4/cyfitter_cfg.c **** #ifdef CY_CFG_CLOCK_STARTUP_ERROR_CALLBACK
 136:Generated_Source\PSoC4/cyfitter_cfg.c ****     CY_CFG_Clock_Startup_ErrorCallback();
 137:Generated_Source\PSoC4/cyfitter_cfg.c **** #else
 138:Generated_Source\PSoC4/cyfitter_cfg.c ****     /*  If not using CY_CFG_CLOCK_STARTUP_ERROR_CALLBACK, place your clock startup code here. */
 139:Generated_Source\PSoC4/cyfitter_cfg.c ****     /* `#START CyClockStartupError` */
 140:Generated_Source\PSoC4/cyfitter_cfg.c **** 
 141:Generated_Source\PSoC4/cyfitter_cfg.c **** 
 142:Generated_Source\PSoC4/cyfitter_cfg.c **** 
 143:Generated_Source\PSoC4/cyfitter_cfg.c ****     /* `#END` */
 144:Generated_Source\PSoC4/cyfitter_cfg.c **** 
 145:Generated_Source\PSoC4/cyfitter_cfg.c ****     while(1) {}
ARM GAS  C:\Users\mikke\AppData\Local\Temp\cc41sA3P.s 			page 4


 146:Generated_Source\PSoC4/cyfitter_cfg.c **** #endif /* CY_CFG_CLOCK_STARTUP_ERROR_CALLBACK */
 147:Generated_Source\PSoC4/cyfitter_cfg.c **** }
 148:Generated_Source\PSoC4/cyfitter_cfg.c **** #endif
 149:Generated_Source\PSoC4/cyfitter_cfg.c **** 
 150:Generated_Source\PSoC4/cyfitter_cfg.c **** #define CY_CFG_BASE_ADDR_COUNT 7u
 151:Generated_Source\PSoC4/cyfitter_cfg.c **** CYPACKED typedef struct
 152:Generated_Source\PSoC4/cyfitter_cfg.c **** {
 153:Generated_Source\PSoC4/cyfitter_cfg.c **** 	uint8 offset;
 154:Generated_Source\PSoC4/cyfitter_cfg.c **** 	uint8 value;
 155:Generated_Source\PSoC4/cyfitter_cfg.c **** } CYPACKED_ATTR cy_cfg_addrvalue_t;
 156:Generated_Source\PSoC4/cyfitter_cfg.c **** 
 157:Generated_Source\PSoC4/cyfitter_cfg.c **** 
 158:Generated_Source\PSoC4/cyfitter_cfg.c **** 
 159:Generated_Source\PSoC4/cyfitter_cfg.c **** /*******************************************************************************
 160:Generated_Source\PSoC4/cyfitter_cfg.c **** * Function Name: cfg_write_bytes32
 161:Generated_Source\PSoC4/cyfitter_cfg.c **** ********************************************************************************
 162:Generated_Source\PSoC4/cyfitter_cfg.c **** * Summary:
 163:Generated_Source\PSoC4/cyfitter_cfg.c **** *  This function is used for setting up the chip configuration areas that
 164:Generated_Source\PSoC4/cyfitter_cfg.c **** *  contain relatively sparse data.
 165:Generated_Source\PSoC4/cyfitter_cfg.c **** *
 166:Generated_Source\PSoC4/cyfitter_cfg.c **** * Parameters:
 167:Generated_Source\PSoC4/cyfitter_cfg.c **** *   void
 168:Generated_Source\PSoC4/cyfitter_cfg.c **** *
 169:Generated_Source\PSoC4/cyfitter_cfg.c **** * Return:
 170:Generated_Source\PSoC4/cyfitter_cfg.c **** *   void
 171:Generated_Source\PSoC4/cyfitter_cfg.c **** *
 172:Generated_Source\PSoC4/cyfitter_cfg.c **** *******************************************************************************/
 173:Generated_Source\PSoC4/cyfitter_cfg.c **** static void cfg_write_bytes32(const uint32 addr_table[], const cy_cfg_addrvalue_t data_table[]);
 174:Generated_Source\PSoC4/cyfitter_cfg.c **** static void cfg_write_bytes32(const uint32 addr_table[], const cy_cfg_addrvalue_t data_table[])
 175:Generated_Source\PSoC4/cyfitter_cfg.c **** {
  27              		.loc 1 175 0
  28              		.cfi_startproc
  29              		@ args = 0, pretend = 0, frame = 0
  30              		@ frame_needed = 0, uses_anonymous_args = 0
  31              	.LVL0:
  32 0000 F0B5     		push	{r4, r5, r6, r7, lr}
  33              		.cfi_def_cfa_offset 20
  34              		.cfi_offset 4, -20
  35              		.cfi_offset 5, -16
  36              		.cfi_offset 6, -12
  37              		.cfi_offset 7, -8
  38              		.cfi_offset 14, -4
  39              	.LVL1:
 176:Generated_Source\PSoC4/cyfitter_cfg.c **** 	/* For 32-bit little-endian architectures */
 177:Generated_Source\PSoC4/cyfitter_cfg.c **** 	uint32 i, j = 0u;
  40              		.loc 1 177 0
  41 0002 0025     		movs	r5, #0
 178:Generated_Source\PSoC4/cyfitter_cfg.c **** 	for (i = 0u; i < CY_CFG_BASE_ADDR_COUNT; i++)
  42              		.loc 1 178 0
  43 0004 0027     		movs	r7, #0
  44 0006 11E0     		b	.L2
  45              	.LVL2:
  46              	.L5:
  47              	.LBB2:
 179:Generated_Source\PSoC4/cyfitter_cfg.c **** 	{
 180:Generated_Source\PSoC4/cyfitter_cfg.c **** 		uint32 baseAddr = addr_table[i];
  48              		.loc 1 180 0
ARM GAS  C:\Users\mikke\AppData\Local\Temp\cc41sA3P.s 			page 5


  49 0008 BB00     		lsls	r3, r7, #2
  50 000a C658     		ldr	r6, [r0, r3]
  51              	.LVL3:
 181:Generated_Source\PSoC4/cyfitter_cfg.c **** 		uint8 count = (uint8)baseAddr;
  52              		.loc 1 181 0
  53 000c F3B2     		uxtb	r3, r6
  54              	.LVL4:
 182:Generated_Source\PSoC4/cyfitter_cfg.c **** 		baseAddr &= 0xFFFFFF00u;
  55              		.loc 1 182 0
  56 000e FF22     		movs	r2, #255
  57 0010 9643     		bics	r6, r2
  58              	.LVL5:
 183:Generated_Source\PSoC4/cyfitter_cfg.c **** 		while (count != 0u)
  59              		.loc 1 183 0
  60 0012 08E0     		b	.L3
  61              	.L4:
 184:Generated_Source\PSoC4/cyfitter_cfg.c **** 		{
 185:Generated_Source\PSoC4/cyfitter_cfg.c **** 			CY_SET_REG8((void *)(baseAddr + data_table[j].offset), data_table[j].value);
  62              		.loc 1 185 0
  63 0014 6A00     		lsls	r2, r5, #1
  64 0016 8A18     		adds	r2, r1, r2
  65 0018 1478     		ldrb	r4, [r2]
  66 001a A419     		adds	r4, r4, r6
  67 001c 5278     		ldrb	r2, [r2, #1]
  68 001e 2270     		strb	r2, [r4]
 186:Generated_Source\PSoC4/cyfitter_cfg.c **** 			j++;
  69              		.loc 1 186 0
  70 0020 0135     		adds	r5, r5, #1
  71              	.LVL6:
 187:Generated_Source\PSoC4/cyfitter_cfg.c **** 			count--;
  72              		.loc 1 187 0
  73 0022 013B     		subs	r3, r3, #1
  74              	.LVL7:
  75 0024 DBB2     		uxtb	r3, r3
  76              	.LVL8:
  77              	.L3:
 183:Generated_Source\PSoC4/cyfitter_cfg.c **** 		{
  78              		.loc 1 183 0
  79 0026 002B     		cmp	r3, #0
  80 0028 F4D1     		bne	.L4
  81              	.LBE2:
 178:Generated_Source\PSoC4/cyfitter_cfg.c **** 	{
  82              		.loc 1 178 0 discriminator 2
  83 002a 0137     		adds	r7, r7, #1
  84              	.LVL9:
  85              	.L2:
 178:Generated_Source\PSoC4/cyfitter_cfg.c **** 	{
  86              		.loc 1 178 0 is_stmt 0 discriminator 1
  87 002c 062F     		cmp	r7, #6
  88 002e EBD9     		bls	.L5
 188:Generated_Source\PSoC4/cyfitter_cfg.c **** 		}
 189:Generated_Source\PSoC4/cyfitter_cfg.c **** 	}
 190:Generated_Source\PSoC4/cyfitter_cfg.c **** }
  89              		.loc 1 190 0 is_stmt 1
  90              		@ sp needed
  91              	.LVL10:
  92              	.LVL11:
ARM GAS  C:\Users\mikke\AppData\Local\Temp\cc41sA3P.s 			page 6


  93 0030 F0BD     		pop	{r4, r5, r6, r7, pc}
  94              		.cfi_endproc
  95              	.LFE3:
  96              		.size	cfg_write_bytes32, .-cfg_write_bytes32
  97 0032 C046     		.section	.text.CYMEMZERO,"ax",%progbits
  98              		.align	2
  99              		.code	16
 100              		.thumb_func
 101              		.type	CYMEMZERO, %function
 102              	CYMEMZERO:
 103              	.LFB0:
  77:Generated_Source\PSoC4/cyfitter_cfg.c **** 	(void)memset(s, 0, n);
 104              		.loc 1 77 0
 105              		.cfi_startproc
 106              		@ args = 0, pretend = 0, frame = 0
 107              		@ frame_needed = 0, uses_anonymous_args = 0
 108              	.LVL12:
 109 0000 10B5     		push	{r4, lr}
 110              		.cfi_def_cfa_offset 8
 111              		.cfi_offset 4, -8
 112              		.cfi_offset 14, -4
 113 0002 0A00     		movs	r2, r1
  78:Generated_Source\PSoC4/cyfitter_cfg.c **** }
 114              		.loc 1 78 0
 115 0004 0021     		movs	r1, #0
 116              	.LVL13:
 117 0006 FFF7FEFF 		bl	memset
 118              	.LVL14:
  79:Generated_Source\PSoC4/cyfitter_cfg.c **** CY_CFG_UNUSED
 119              		.loc 1 79 0
 120              		@ sp needed
 121 000a 10BD     		pop	{r4, pc}
 122              		.cfi_endproc
 123              	.LFE0:
 124              		.size	CYMEMZERO, .-CYMEMZERO
 125              		.section	.text.CYCONFIGCPYCODE,"ax",%progbits
 126              		.align	2
 127              		.code	16
 128              		.thumb_func
 129              		.type	CYCONFIGCPYCODE, %function
 130              	CYCONFIGCPYCODE:
 131              	.LFB2:
  91:Generated_Source\PSoC4/cyfitter_cfg.c **** 	(void)memcpy(dest, src, n);
 132              		.loc 1 91 0
 133              		.cfi_startproc
 134              		@ args = 0, pretend = 0, frame = 0
 135              		@ frame_needed = 0, uses_anonymous_args = 0
 136              	.LVL15:
 137 0000 10B5     		push	{r4, lr}
 138              		.cfi_def_cfa_offset 8
 139              		.cfi_offset 4, -8
 140              		.cfi_offset 14, -4
  92:Generated_Source\PSoC4/cyfitter_cfg.c **** }
 141              		.loc 1 92 0
 142 0002 FFF7FEFF 		bl	memcpy
 143              	.LVL16:
  93:Generated_Source\PSoC4/cyfitter_cfg.c **** 
ARM GAS  C:\Users\mikke\AppData\Local\Temp\cc41sA3P.s 			page 7


 144              		.loc 1 93 0
 145              		@ sp needed
 146 0006 10BD     		pop	{r4, pc}
 147              		.cfi_endproc
 148              	.LFE2:
 149              		.size	CYCONFIGCPYCODE, .-CYCONFIGCPYCODE
 150              		.section	.psocinit,"ax",%progbits
 151              		.align	2
 152              		.code	16
 153              		.thumb_func
 154              		.type	ClockSetup, %function
 155              	ClockSetup:
 156              	.LFB4:
 191:Generated_Source\PSoC4/cyfitter_cfg.c **** 
 192:Generated_Source\PSoC4/cyfitter_cfg.c **** 
 193:Generated_Source\PSoC4/cyfitter_cfg.c **** /*******************************************************************************
 194:Generated_Source\PSoC4/cyfitter_cfg.c **** * Function Name: ClockSetup
 195:Generated_Source\PSoC4/cyfitter_cfg.c **** ********************************************************************************
 196:Generated_Source\PSoC4/cyfitter_cfg.c **** *
 197:Generated_Source\PSoC4/cyfitter_cfg.c **** * Summary:
 198:Generated_Source\PSoC4/cyfitter_cfg.c **** *   Performs the initialization of all of the clocks in the device based on the
 199:Generated_Source\PSoC4/cyfitter_cfg.c **** *   settings in the Clock tab of the DWR.  This includes enabling the requested
 200:Generated_Source\PSoC4/cyfitter_cfg.c **** *   clocks and setting the necessary dividers to produce the desired frequency. 
 201:Generated_Source\PSoC4/cyfitter_cfg.c **** *
 202:Generated_Source\PSoC4/cyfitter_cfg.c **** * Parameters:
 203:Generated_Source\PSoC4/cyfitter_cfg.c **** *   void
 204:Generated_Source\PSoC4/cyfitter_cfg.c **** *
 205:Generated_Source\PSoC4/cyfitter_cfg.c **** * Return:
 206:Generated_Source\PSoC4/cyfitter_cfg.c **** *   void
 207:Generated_Source\PSoC4/cyfitter_cfg.c **** *
 208:Generated_Source\PSoC4/cyfitter_cfg.c **** *******************************************************************************/
 209:Generated_Source\PSoC4/cyfitter_cfg.c **** static void ClockSetup(void);
 210:Generated_Source\PSoC4/cyfitter_cfg.c **** CY_CFG_SECTION
 211:Generated_Source\PSoC4/cyfitter_cfg.c **** static void ClockSetup(void)
 212:Generated_Source\PSoC4/cyfitter_cfg.c **** {
 157              		.loc 1 212 0
 158              		.cfi_startproc
 159              		@ args = 0, pretend = 0, frame = 0
 160              		@ frame_needed = 0, uses_anonymous_args = 0
 161 0000 70B5     		push	{r4, r5, r6, lr}
 162              		.cfi_def_cfa_offset 16
 163              		.cfi_offset 4, -16
 164              		.cfi_offset 5, -12
 165              		.cfi_offset 6, -8
 166              		.cfi_offset 14, -4
 213:Generated_Source\PSoC4/cyfitter_cfg.c **** 	/* Enable HALF_EN before trimming for the flash accelerator. */
 214:Generated_Source\PSoC4/cyfitter_cfg.c **** 	CY_SET_REG32((void CYXDATA *)(CYREG_CLK_SELECT), (CY_GET_REG32((void *)CYREG_CLK_SELECT) | 0x00040
 167              		.loc 1 214 0
 168 0002 164C     		ldr	r4, .L9
 169 0004 2368     		ldr	r3, [r4]
 170 0006 8022     		movs	r2, #128
 171 0008 D202     		lsls	r2, r2, #11
 172 000a 1343     		orrs	r3, r2
 173 000c 2360     		str	r3, [r4]
 215:Generated_Source\PSoC4/cyfitter_cfg.c **** 
 216:Generated_Source\PSoC4/cyfitter_cfg.c **** 	/* Setup and trim IMO based on desired frequency. */
 217:Generated_Source\PSoC4/cyfitter_cfg.c **** 	CySysClkWriteImoFreq(24u);
ARM GAS  C:\Users\mikke\AppData\Local\Temp\cc41sA3P.s 			page 8


 174              		.loc 1 217 0
 175 000e 1820     		movs	r0, #24
 176 0010 FFF7FEFF 		bl	CySysClkWriteImoFreq
 177              	.LVL17:
 218:Generated_Source\PSoC4/cyfitter_cfg.c **** 
 219:Generated_Source\PSoC4/cyfitter_cfg.c **** 	/* Disable HALF_EN since it is not required at this IMO frequency. */
 220:Generated_Source\PSoC4/cyfitter_cfg.c **** 	CY_SET_REG32((void CYXDATA *)(CYREG_CLK_SELECT), (CY_GET_REG32((void *)CYREG_CLK_SELECT) & 0xFFFBF
 178              		.loc 1 220 0
 179 0014 2268     		ldr	r2, [r4]
 180 0016 124B     		ldr	r3, .L9+4
 181 0018 1340     		ands	r3, r2
 182 001a 2360     		str	r3, [r4]
 221:Generated_Source\PSoC4/cyfitter_cfg.c **** 	/* CYDEV_CLK_ILO_CONFIG Starting address: CYDEV_CLK_ILO_CONFIG */
 222:Generated_Source\PSoC4/cyfitter_cfg.c **** 	CY_SET_REG32((void *)(CYREG_CLK_ILO_CONFIG), 0x80000006u);
 183              		.loc 1 222 0
 184 001c 114A     		ldr	r2, .L9+8
 185 001e 124B     		ldr	r3, .L9+12
 186 0020 1A60     		str	r2, [r3]
 223:Generated_Source\PSoC4/cyfitter_cfg.c **** 
 224:Generated_Source\PSoC4/cyfitter_cfg.c **** 
 225:Generated_Source\PSoC4/cyfitter_cfg.c **** 	/* CYDEV_CLK_SELECT00 Starting address: CYDEV_CLK_SELECT00 */
 226:Generated_Source\PSoC4/cyfitter_cfg.c **** 	CY_SET_REG32((void *)(CYREG_CLK_SELECT03), 0x00000010u);
 187              		.loc 1 226 0
 188 0022 1022     		movs	r2, #16
 189 0024 114B     		ldr	r3, .L9+16
 190 0026 1A60     		str	r2, [r3]
 227:Generated_Source\PSoC4/cyfitter_cfg.c **** 	CY_SET_REG32((void *)(CYREG_CLK_SELECT12), 0x00000020u);
 191              		.loc 1 227 0
 192 0028 1032     		adds	r2, r2, #16
 193 002a 114B     		ldr	r3, .L9+20
 194 002c 1A60     		str	r2, [r3]
 228:Generated_Source\PSoC4/cyfitter_cfg.c **** 
 229:Generated_Source\PSoC4/cyfitter_cfg.c **** 	/* CYDEV_CLK_IMO_CONFIG Starting address: CYDEV_CLK_IMO_CONFIG */
 230:Generated_Source\PSoC4/cyfitter_cfg.c **** 	CY_SET_REG32((void *)(CYREG_CLK_IMO_CONFIG), 0x80000000u);
 195              		.loc 1 230 0
 196 002e 8022     		movs	r2, #128
 197 0030 1206     		lsls	r2, r2, #24
 198 0032 104B     		ldr	r3, .L9+24
 199 0034 1A60     		str	r2, [r3]
 231:Generated_Source\PSoC4/cyfitter_cfg.c **** 
 232:Generated_Source\PSoC4/cyfitter_cfg.c **** 	/* CYDEV_CLK_SELECT Starting address: CYDEV_CLK_SELECT */
 233:Generated_Source\PSoC4/cyfitter_cfg.c **** 	CY_SET_REG32((void *)(CYREG_CLK_SELECT), 0x00000000u);
 200              		.loc 1 233 0
 201 0036 0025     		movs	r5, #0
 202 0038 2560     		str	r5, [r4]
 234:Generated_Source\PSoC4/cyfitter_cfg.c **** 
 235:Generated_Source\PSoC4/cyfitter_cfg.c **** 	/* CYDEV_CLK_DIVIDER_A00 Starting address: CYDEV_CLK_DIVIDER_A00 */
 236:Generated_Source\PSoC4/cyfitter_cfg.c **** 	CY_SET_REG32((void *)(CYREG_CLK_DIVIDER_A00), 0x80000001u);
 203              		.loc 1 236 0
 204 003a 0F4A     		ldr	r2, .L9+28
 205 003c 0F4B     		ldr	r3, .L9+32
 206 003e 1A60     		str	r2, [r3]
 237:Generated_Source\PSoC4/cyfitter_cfg.c **** 
 238:Generated_Source\PSoC4/cyfitter_cfg.c **** 	/* CYDEV_CLK_DIVIDER_B00 Starting address: CYDEV_CLK_DIVIDER_B00 */
 239:Generated_Source\PSoC4/cyfitter_cfg.c **** 	CY_SET_REG32((void *)(CYREG_CLK_DIVIDER_B00), 0x80000138u);
 207              		.loc 1 239 0
 208 0040 0F4A     		ldr	r2, .L9+36
ARM GAS  C:\Users\mikke\AppData\Local\Temp\cc41sA3P.s 			page 9


 209 0042 104B     		ldr	r3, .L9+40
 210 0044 1A60     		str	r2, [r3]
 240:Generated_Source\PSoC4/cyfitter_cfg.c **** 
 241:Generated_Source\PSoC4/cyfitter_cfg.c **** 	(void)CyIntSetVector(9u, &CySysWdtIsr);
 211              		.loc 1 241 0
 212 0046 1049     		ldr	r1, .L9+44
 213 0048 0920     		movs	r0, #9
 214 004a FFF7FEFF 		bl	CyIntSetVector
 215              	.LVL18:
 242:Generated_Source\PSoC4/cyfitter_cfg.c **** 	CyIntEnable(9u);
 216              		.loc 1 242 0
 217 004e 0920     		movs	r0, #9
 218 0050 FFF7FEFF 		bl	CyIntEnable
 219              	.LVL19:
 243:Generated_Source\PSoC4/cyfitter_cfg.c **** 	CY_SET_REG32((void *)(CYREG_WDT_CONFIG), 0x00000000u);
 220              		.loc 1 243 0
 221 0054 0D4B     		ldr	r3, .L9+48
 222 0056 1D60     		str	r5, [r3]
 244:Generated_Source\PSoC4/cyfitter_cfg.c **** }
 223              		.loc 1 244 0
 224              		@ sp needed
 225 0058 70BD     		pop	{r4, r5, r6, pc}
 226              	.L10:
 227 005a C046     		.align	2
 228              	.L9:
 229 005c 00010B40 		.word	1074462976
 230 0060 FFFFFBFF 		.word	-262145
 231 0064 06000080 		.word	-2147483642
 232 0068 04010B40 		.word	1074462980
 233 006c 0C020240 		.word	1073873420
 234 0070 30020240 		.word	1073873456
 235 0074 08010B40 		.word	1074462984
 236 0078 01000080 		.word	-2147483647
 237 007c 00000240 		.word	1073872896
 238 0080 38010080 		.word	-2147483336
 239 0084 40000240 		.word	1073872960
 240 0088 00000000 		.word	CySysWdtIsr
 241 008c 0C020B40 		.word	1074463244
 242              		.cfi_endproc
 243              	.LFE4:
 244              		.size	ClockSetup, .-ClockSetup
 245              		.align	2
 246              		.global	cyfitter_cfg
 247              		.code	16
 248              		.thumb_func
 249              		.type	cyfitter_cfg, %function
 250              	cyfitter_cfg:
 251              	.LFB6:
 245:Generated_Source\PSoC4/cyfitter_cfg.c **** 
 246:Generated_Source\PSoC4/cyfitter_cfg.c **** 
 247:Generated_Source\PSoC4/cyfitter_cfg.c **** /* Analog API Functions */
 248:Generated_Source\PSoC4/cyfitter_cfg.c **** 
 249:Generated_Source\PSoC4/cyfitter_cfg.c **** 
 250:Generated_Source\PSoC4/cyfitter_cfg.c **** /*******************************************************************************
 251:Generated_Source\PSoC4/cyfitter_cfg.c **** * Function Name: AnalogSetDefault
 252:Generated_Source\PSoC4/cyfitter_cfg.c **** ********************************************************************************
 253:Generated_Source\PSoC4/cyfitter_cfg.c **** *
ARM GAS  C:\Users\mikke\AppData\Local\Temp\cc41sA3P.s 			page 10


 254:Generated_Source\PSoC4/cyfitter_cfg.c **** * Summary:
 255:Generated_Source\PSoC4/cyfitter_cfg.c **** *  Sets up the analog portions of the chip to default values based on chip
 256:Generated_Source\PSoC4/cyfitter_cfg.c **** *  configuration options from the project.
 257:Generated_Source\PSoC4/cyfitter_cfg.c **** *
 258:Generated_Source\PSoC4/cyfitter_cfg.c **** * Parameters:
 259:Generated_Source\PSoC4/cyfitter_cfg.c **** *  void
 260:Generated_Source\PSoC4/cyfitter_cfg.c **** *
 261:Generated_Source\PSoC4/cyfitter_cfg.c **** * Return:
 262:Generated_Source\PSoC4/cyfitter_cfg.c **** *  void
 263:Generated_Source\PSoC4/cyfitter_cfg.c **** *
 264:Generated_Source\PSoC4/cyfitter_cfg.c **** *******************************************************************************/
 265:Generated_Source\PSoC4/cyfitter_cfg.c **** static void AnalogSetDefault(void);
 266:Generated_Source\PSoC4/cyfitter_cfg.c **** static void AnalogSetDefault(void)
 267:Generated_Source\PSoC4/cyfitter_cfg.c **** {
 268:Generated_Source\PSoC4/cyfitter_cfg.c **** }
 269:Generated_Source\PSoC4/cyfitter_cfg.c **** 
 270:Generated_Source\PSoC4/cyfitter_cfg.c **** 
 271:Generated_Source\PSoC4/cyfitter_cfg.c **** 
 272:Generated_Source\PSoC4/cyfitter_cfg.c **** 
 273:Generated_Source\PSoC4/cyfitter_cfg.c **** /*******************************************************************************
 274:Generated_Source\PSoC4/cyfitter_cfg.c **** * Function Name: cyfitter_cfg
 275:Generated_Source\PSoC4/cyfitter_cfg.c **** ********************************************************************************
 276:Generated_Source\PSoC4/cyfitter_cfg.c **** * Summary:
 277:Generated_Source\PSoC4/cyfitter_cfg.c **** *  This function is called by the start-up code for the selected device. It
 278:Generated_Source\PSoC4/cyfitter_cfg.c **** *  performs all of the necessary device configuration based on the design
 279:Generated_Source\PSoC4/cyfitter_cfg.c **** *  settings.  This includes settings from the Design Wide Resources (DWR) such
 280:Generated_Source\PSoC4/cyfitter_cfg.c **** *  as Clocks and Pins as well as any component configuration that is necessary.
 281:Generated_Source\PSoC4/cyfitter_cfg.c **** *
 282:Generated_Source\PSoC4/cyfitter_cfg.c **** * Parameters:
 283:Generated_Source\PSoC4/cyfitter_cfg.c **** *   void
 284:Generated_Source\PSoC4/cyfitter_cfg.c **** *
 285:Generated_Source\PSoC4/cyfitter_cfg.c **** * Return:
 286:Generated_Source\PSoC4/cyfitter_cfg.c **** *   void
 287:Generated_Source\PSoC4/cyfitter_cfg.c **** *
 288:Generated_Source\PSoC4/cyfitter_cfg.c **** *******************************************************************************/
 289:Generated_Source\PSoC4/cyfitter_cfg.c **** CY_CFG_SECTION
 290:Generated_Source\PSoC4/cyfitter_cfg.c **** void cyfitter_cfg(void)
 291:Generated_Source\PSoC4/cyfitter_cfg.c **** {
 252              		.loc 1 291 0
 253              		.cfi_startproc
 254              		@ args = 0, pretend = 0, frame = 0
 255              		@ frame_needed = 0, uses_anonymous_args = 0
 256 0090 70B5     		push	{r4, r5, r6, lr}
 257              		.cfi_def_cfa_offset 16
 258              		.cfi_offset 4, -16
 259              		.cfi_offset 5, -12
 260              		.cfi_offset 6, -8
 261              		.cfi_offset 14, -4
 292:Generated_Source\PSoC4/cyfitter_cfg.c **** 	/* Disable interrupts by default. Let user enable if/when they want. */
 293:Generated_Source\PSoC4/cyfitter_cfg.c **** 	CyGlobalIntDisable;
 262              		.loc 1 293 0
 263              		.syntax divided
 264              	@ 293 "Generated_Source\PSoC4\cyfitter_cfg.c" 1
 265 0092 72B6     		CPSID   i
 266              	@ 0 "" 2
 267              	.LVL20:
 268              		.thumb
ARM GAS  C:\Users\mikke\AppData\Local\Temp\cc41sA3P.s 			page 11


 269              		.syntax unified
 270              	.LBB3:
 294:Generated_Source\PSoC4/cyfitter_cfg.c **** 
 295:Generated_Source\PSoC4/cyfitter_cfg.c **** 	{
 296:Generated_Source\PSoC4/cyfitter_cfg.c **** 		static const uint32 CYCODE cy_cfg_addr_table[] = {
 297:Generated_Source\PSoC4/cyfitter_cfg.c **** 			0x400F0003u, /* Base address: 0x400F0000 Count: 3 */
 298:Generated_Source\PSoC4/cyfitter_cfg.c **** 			0x400F3052u, /* Base address: 0x400F3000 Count: 82 */
 299:Generated_Source\PSoC4/cyfitter_cfg.c **** 			0x400F313Cu, /* Base address: 0x400F3100 Count: 60 */
 300:Generated_Source\PSoC4/cyfitter_cfg.c **** 			0x400F3217u, /* Base address: 0x400F3200 Count: 23 */
 301:Generated_Source\PSoC4/cyfitter_cfg.c **** 			0x400F333Fu, /* Base address: 0x400F3300 Count: 63 */
 302:Generated_Source\PSoC4/cyfitter_cfg.c **** 			0x400F4308u, /* Base address: 0x400F4300 Count: 8 */
 303:Generated_Source\PSoC4/cyfitter_cfg.c **** 			0x400F6002u, /* Base address: 0x400F6000 Count: 2 */
 304:Generated_Source\PSoC4/cyfitter_cfg.c **** 		};
 305:Generated_Source\PSoC4/cyfitter_cfg.c **** 
 306:Generated_Source\PSoC4/cyfitter_cfg.c **** 		static const cy_cfg_addrvalue_t CYCODE cy_cfg_data_table[] = {
 307:Generated_Source\PSoC4/cyfitter_cfg.c **** 			{0x80u, 0x0Fu},
 308:Generated_Source\PSoC4/cyfitter_cfg.c **** 			{0x81u, 0x38u},
 309:Generated_Source\PSoC4/cyfitter_cfg.c **** 			{0x82u, 0x71u},
 310:Generated_Source\PSoC4/cyfitter_cfg.c **** 			{0x04u, 0x10u},
 311:Generated_Source\PSoC4/cyfitter_cfg.c **** 			{0x06u, 0x40u},
 312:Generated_Source\PSoC4/cyfitter_cfg.c **** 			{0x08u, 0x0Cu},
 313:Generated_Source\PSoC4/cyfitter_cfg.c **** 			{0x0Au, 0x71u},
 314:Generated_Source\PSoC4/cyfitter_cfg.c **** 			{0x0Cu, 0x09u},
 315:Generated_Source\PSoC4/cyfitter_cfg.c **** 			{0x0Eu, 0xD0u},
 316:Generated_Source\PSoC4/cyfitter_cfg.c **** 			{0x0Fu, 0x0Cu},
 317:Generated_Source\PSoC4/cyfitter_cfg.c **** 			{0x10u, 0x10u},
 318:Generated_Source\PSoC4/cyfitter_cfg.c **** 			{0x12u, 0xACu},
 319:Generated_Source\PSoC4/cyfitter_cfg.c **** 			{0x15u, 0x80u},
 320:Generated_Source\PSoC4/cyfitter_cfg.c **** 			{0x17u, 0x13u},
 321:Generated_Source\PSoC4/cyfitter_cfg.c **** 			{0x18u, 0xDCu},
 322:Generated_Source\PSoC4/cyfitter_cfg.c **** 			{0x19u, 0x2Cu},
 323:Generated_Source\PSoC4/cyfitter_cfg.c **** 			{0x1Au, 0x22u},
 324:Generated_Source\PSoC4/cyfitter_cfg.c **** 			{0x1Bu, 0x43u},
 325:Generated_Source\PSoC4/cyfitter_cfg.c **** 			{0x1Eu, 0x03u},
 326:Generated_Source\PSoC4/cyfitter_cfg.c **** 			{0x24u, 0x14u},
 327:Generated_Source\PSoC4/cyfitter_cfg.c **** 			{0x27u, 0x08u},
 328:Generated_Source\PSoC4/cyfitter_cfg.c **** 			{0x29u, 0x71u},
 329:Generated_Source\PSoC4/cyfitter_cfg.c **** 			{0x2Au, 0x20u},
 330:Generated_Source\PSoC4/cyfitter_cfg.c **** 			{0x2Bu, 0x0Eu},
 331:Generated_Source\PSoC4/cyfitter_cfg.c **** 			{0x2Du, 0x71u},
 332:Generated_Source\PSoC4/cyfitter_cfg.c **** 			{0x2Fu, 0x06u},
 333:Generated_Source\PSoC4/cyfitter_cfg.c **** 			{0x31u, 0xC0u},
 334:Generated_Source\PSoC4/cyfitter_cfg.c **** 			{0x33u, 0x30u},
 335:Generated_Source\PSoC4/cyfitter_cfg.c **** 			{0x34u, 0xE0u},
 336:Generated_Source\PSoC4/cyfitter_cfg.c **** 			{0x35u, 0x0Fu},
 337:Generated_Source\PSoC4/cyfitter_cfg.c **** 			{0x36u, 0x1Fu},
 338:Generated_Source\PSoC4/cyfitter_cfg.c **** 			{0x39u, 0x0Au},
 339:Generated_Source\PSoC4/cyfitter_cfg.c **** 			{0x3Au, 0x20u},
 340:Generated_Source\PSoC4/cyfitter_cfg.c **** 			{0x3Bu, 0x20u},
 341:Generated_Source\PSoC4/cyfitter_cfg.c **** 			{0x3Fu, 0x04u},
 342:Generated_Source\PSoC4/cyfitter_cfg.c **** 			{0x40u, 0x46u},
 343:Generated_Source\PSoC4/cyfitter_cfg.c **** 			{0x41u, 0x03u},
 344:Generated_Source\PSoC4/cyfitter_cfg.c **** 			{0x45u, 0xE0u},
 345:Generated_Source\PSoC4/cyfitter_cfg.c **** 			{0x46u, 0xBCu},
 346:Generated_Source\PSoC4/cyfitter_cfg.c **** 			{0x48u, 0x0Eu},
 347:Generated_Source\PSoC4/cyfitter_cfg.c **** 			{0x49u, 0xFFu},
 348:Generated_Source\PSoC4/cyfitter_cfg.c **** 			{0x4Au, 0xFFu},
ARM GAS  C:\Users\mikke\AppData\Local\Temp\cc41sA3P.s 			page 12


 349:Generated_Source\PSoC4/cyfitter_cfg.c **** 			{0x4Bu, 0xFFu},
 350:Generated_Source\PSoC4/cyfitter_cfg.c **** 			{0x4Eu, 0xF0u},
 351:Generated_Source\PSoC4/cyfitter_cfg.c **** 			{0x4Fu, 0x44u},
 352:Generated_Source\PSoC4/cyfitter_cfg.c **** 			{0x50u, 0x0Cu},
 353:Generated_Source\PSoC4/cyfitter_cfg.c **** 			{0x54u, 0x01u},
 354:Generated_Source\PSoC4/cyfitter_cfg.c **** 			{0x58u, 0x04u},
 355:Generated_Source\PSoC4/cyfitter_cfg.c **** 			{0x59u, 0x04u},
 356:Generated_Source\PSoC4/cyfitter_cfg.c **** 			{0x5Au, 0x04u},
 357:Generated_Source\PSoC4/cyfitter_cfg.c **** 			{0x5Bu, 0x04u},
 358:Generated_Source\PSoC4/cyfitter_cfg.c **** 			{0x5Fu, 0x01u},
 359:Generated_Source\PSoC4/cyfitter_cfg.c **** 			{0x66u, 0xC0u},
 360:Generated_Source\PSoC4/cyfitter_cfg.c **** 			{0x6Au, 0x40u},
 361:Generated_Source\PSoC4/cyfitter_cfg.c **** 			{0x6Bu, 0x02u},
 362:Generated_Source\PSoC4/cyfitter_cfg.c **** 			{0x80u, 0x20u},
 363:Generated_Source\PSoC4/cyfitter_cfg.c **** 			{0x84u, 0x20u},
 364:Generated_Source\PSoC4/cyfitter_cfg.c **** 			{0x88u, 0x20u},
 365:Generated_Source\PSoC4/cyfitter_cfg.c **** 			{0x8Eu, 0x08u},
 366:Generated_Source\PSoC4/cyfitter_cfg.c **** 			{0x92u, 0x40u},
 367:Generated_Source\PSoC4/cyfitter_cfg.c **** 			{0x93u, 0x01u},
 368:Generated_Source\PSoC4/cyfitter_cfg.c **** 			{0x96u, 0x15u},
 369:Generated_Source\PSoC4/cyfitter_cfg.c **** 			{0x98u, 0x0Au},
 370:Generated_Source\PSoC4/cyfitter_cfg.c **** 			{0x9Au, 0x14u},
 371:Generated_Source\PSoC4/cyfitter_cfg.c **** 			{0x9Eu, 0x40u},
 372:Generated_Source\PSoC4/cyfitter_cfg.c **** 			{0xA0u, 0x03u},
 373:Generated_Source\PSoC4/cyfitter_cfg.c **** 			{0xA2u, 0x14u},
 374:Generated_Source\PSoC4/cyfitter_cfg.c **** 			{0xA4u, 0x13u},
 375:Generated_Source\PSoC4/cyfitter_cfg.c **** 			{0xA6u, 0x04u},
 376:Generated_Source\PSoC4/cyfitter_cfg.c **** 			{0xA7u, 0x01u},
 377:Generated_Source\PSoC4/cyfitter_cfg.c **** 			{0xACu, 0x13u},
 378:Generated_Source\PSoC4/cyfitter_cfg.c **** 			{0xAEu, 0x0Cu},
 379:Generated_Source\PSoC4/cyfitter_cfg.c **** 			{0xB0u, 0x0Fu},
 380:Generated_Source\PSoC4/cyfitter_cfg.c **** 			{0xB2u, 0x10u},
 381:Generated_Source\PSoC4/cyfitter_cfg.c **** 			{0xB4u, 0x40u},
 382:Generated_Source\PSoC4/cyfitter_cfg.c **** 			{0xB5u, 0x01u},
 383:Generated_Source\PSoC4/cyfitter_cfg.c **** 			{0xB6u, 0x20u},
 384:Generated_Source\PSoC4/cyfitter_cfg.c **** 			{0xBAu, 0x02u},
 385:Generated_Source\PSoC4/cyfitter_cfg.c **** 			{0xBEu, 0x14u},
 386:Generated_Source\PSoC4/cyfitter_cfg.c **** 			{0xBFu, 0x10u},
 387:Generated_Source\PSoC4/cyfitter_cfg.c **** 			{0xD4u, 0x18u},
 388:Generated_Source\PSoC4/cyfitter_cfg.c **** 			{0xD8u, 0x04u},
 389:Generated_Source\PSoC4/cyfitter_cfg.c **** 			{0xD9u, 0x04u},
 390:Generated_Source\PSoC4/cyfitter_cfg.c **** 			{0xDBu, 0x04u},
 391:Generated_Source\PSoC4/cyfitter_cfg.c **** 			{0xDFu, 0x01u},
 392:Generated_Source\PSoC4/cyfitter_cfg.c **** 			{0x00u, 0x40u},
 393:Generated_Source\PSoC4/cyfitter_cfg.c **** 			{0x01u, 0x08u},
 394:Generated_Source\PSoC4/cyfitter_cfg.c **** 			{0x03u, 0x08u},
 395:Generated_Source\PSoC4/cyfitter_cfg.c **** 			{0x04u, 0x6Au},
 396:Generated_Source\PSoC4/cyfitter_cfg.c **** 			{0x08u, 0x01u},
 397:Generated_Source\PSoC4/cyfitter_cfg.c **** 			{0x09u, 0x20u},
 398:Generated_Source\PSoC4/cyfitter_cfg.c **** 			{0x0Au, 0x02u},
 399:Generated_Source\PSoC4/cyfitter_cfg.c **** 			{0x0Cu, 0x08u},
 400:Generated_Source\PSoC4/cyfitter_cfg.c **** 			{0x0Du, 0x20u},
 401:Generated_Source\PSoC4/cyfitter_cfg.c **** 			{0x0Eu, 0x01u},
 402:Generated_Source\PSoC4/cyfitter_cfg.c **** 			{0x0Fu, 0x80u},
 403:Generated_Source\PSoC4/cyfitter_cfg.c **** 			{0x10u, 0x28u},
 404:Generated_Source\PSoC4/cyfitter_cfg.c **** 			{0x14u, 0x01u},
 405:Generated_Source\PSoC4/cyfitter_cfg.c **** 			{0x16u, 0x50u},
ARM GAS  C:\Users\mikke\AppData\Local\Temp\cc41sA3P.s 			page 13


 406:Generated_Source\PSoC4/cyfitter_cfg.c **** 			{0x19u, 0x10u},
 407:Generated_Source\PSoC4/cyfitter_cfg.c **** 			{0x1Au, 0x02u},
 408:Generated_Source\PSoC4/cyfitter_cfg.c **** 			{0x1Cu, 0x20u},
 409:Generated_Source\PSoC4/cyfitter_cfg.c **** 			{0x1Du, 0x80u},
 410:Generated_Source\PSoC4/cyfitter_cfg.c **** 			{0x1Eu, 0x08u},
 411:Generated_Source\PSoC4/cyfitter_cfg.c **** 			{0x1Fu, 0x02u},
 412:Generated_Source\PSoC4/cyfitter_cfg.c **** 			{0x20u, 0x40u},
 413:Generated_Source\PSoC4/cyfitter_cfg.c **** 			{0x21u, 0x24u},
 414:Generated_Source\PSoC4/cyfitter_cfg.c **** 			{0x27u, 0x08u},
 415:Generated_Source\PSoC4/cyfitter_cfg.c **** 			{0x28u, 0x01u},
 416:Generated_Source\PSoC4/cyfitter_cfg.c **** 			{0x29u, 0x18u},
 417:Generated_Source\PSoC4/cyfitter_cfg.c **** 			{0x2Au, 0x10u},
 418:Generated_Source\PSoC4/cyfitter_cfg.c **** 			{0x2Bu, 0x0Au},
 419:Generated_Source\PSoC4/cyfitter_cfg.c **** 			{0x2Fu, 0x20u},
 420:Generated_Source\PSoC4/cyfitter_cfg.c **** 			{0x30u, 0x08u},
 421:Generated_Source\PSoC4/cyfitter_cfg.c **** 			{0x31u, 0x20u},
 422:Generated_Source\PSoC4/cyfitter_cfg.c **** 			{0x36u, 0x01u},
 423:Generated_Source\PSoC4/cyfitter_cfg.c **** 			{0x38u, 0x40u},
 424:Generated_Source\PSoC4/cyfitter_cfg.c **** 			{0x43u, 0x0Au},
 425:Generated_Source\PSoC4/cyfitter_cfg.c **** 			{0x46u, 0x20u},
 426:Generated_Source\PSoC4/cyfitter_cfg.c **** 			{0x47u, 0x08u},
 427:Generated_Source\PSoC4/cyfitter_cfg.c **** 			{0x48u, 0x08u},
 428:Generated_Source\PSoC4/cyfitter_cfg.c **** 			{0x49u, 0x01u},
 429:Generated_Source\PSoC4/cyfitter_cfg.c **** 			{0x4Au, 0x80u},
 430:Generated_Source\PSoC4/cyfitter_cfg.c **** 			{0x50u, 0x20u},
 431:Generated_Source\PSoC4/cyfitter_cfg.c **** 			{0x52u, 0x40u},
 432:Generated_Source\PSoC4/cyfitter_cfg.c **** 			{0x53u, 0x80u},
 433:Generated_Source\PSoC4/cyfitter_cfg.c **** 			{0x58u, 0x20u},
 434:Generated_Source\PSoC4/cyfitter_cfg.c **** 			{0x59u, 0x85u},
 435:Generated_Source\PSoC4/cyfitter_cfg.c **** 			{0x5Fu, 0x02u},
 436:Generated_Source\PSoC4/cyfitter_cfg.c **** 			{0x66u, 0x20u},
 437:Generated_Source\PSoC4/cyfitter_cfg.c **** 			{0x67u, 0x02u},
 438:Generated_Source\PSoC4/cyfitter_cfg.c **** 			{0x82u, 0x04u},
 439:Generated_Source\PSoC4/cyfitter_cfg.c **** 			{0x83u, 0x01u},
 440:Generated_Source\PSoC4/cyfitter_cfg.c **** 			{0x88u, 0x10u},
 441:Generated_Source\PSoC4/cyfitter_cfg.c **** 			{0x89u, 0x80u},
 442:Generated_Source\PSoC4/cyfitter_cfg.c **** 			{0xC0u, 0xF7u},
 443:Generated_Source\PSoC4/cyfitter_cfg.c **** 			{0xC2u, 0xFBu},
 444:Generated_Source\PSoC4/cyfitter_cfg.c **** 			{0xC4u, 0xB6u},
 445:Generated_Source\PSoC4/cyfitter_cfg.c **** 			{0xCAu, 0x4Eu},
 446:Generated_Source\PSoC4/cyfitter_cfg.c **** 			{0xCCu, 0x86u},
 447:Generated_Source\PSoC4/cyfitter_cfg.c **** 			{0xCEu, 0x08u},
 448:Generated_Source\PSoC4/cyfitter_cfg.c **** 			{0xD0u, 0x03u},
 449:Generated_Source\PSoC4/cyfitter_cfg.c **** 			{0xD2u, 0x04u},
 450:Generated_Source\PSoC4/cyfitter_cfg.c **** 			{0xD6u, 0x8Fu},
 451:Generated_Source\PSoC4/cyfitter_cfg.c **** 			{0xD8u, 0x30u},
 452:Generated_Source\PSoC4/cyfitter_cfg.c **** 			{0x9Cu, 0x02u},
 453:Generated_Source\PSoC4/cyfitter_cfg.c **** 			{0xA0u, 0x01u},
 454:Generated_Source\PSoC4/cyfitter_cfg.c **** 			{0xB2u, 0x01u},
 455:Generated_Source\PSoC4/cyfitter_cfg.c **** 			{0xB6u, 0x02u},
 456:Generated_Source\PSoC4/cyfitter_cfg.c **** 			{0xBAu, 0x02u},
 457:Generated_Source\PSoC4/cyfitter_cfg.c **** 			{0xBEu, 0x44u},
 458:Generated_Source\PSoC4/cyfitter_cfg.c **** 			{0xC0u, 0x03u},
 459:Generated_Source\PSoC4/cyfitter_cfg.c **** 			{0xC5u, 0x04u},
 460:Generated_Source\PSoC4/cyfitter_cfg.c **** 			{0xC9u, 0xFFu},
 461:Generated_Source\PSoC4/cyfitter_cfg.c **** 			{0xCAu, 0x07u},
 462:Generated_Source\PSoC4/cyfitter_cfg.c **** 			{0xCBu, 0xFFu},
ARM GAS  C:\Users\mikke\AppData\Local\Temp\cc41sA3P.s 			page 14


 463:Generated_Source\PSoC4/cyfitter_cfg.c **** 			{0xCCu, 0x40u},
 464:Generated_Source\PSoC4/cyfitter_cfg.c **** 			{0xCDu, 0x20u},
 465:Generated_Source\PSoC4/cyfitter_cfg.c **** 			{0xCEu, 0xF0u},
 466:Generated_Source\PSoC4/cyfitter_cfg.c **** 			{0xCFu, 0x05u},
 467:Generated_Source\PSoC4/cyfitter_cfg.c **** 			{0xD0u, 0x08u},
 468:Generated_Source\PSoC4/cyfitter_cfg.c **** 			{0xD8u, 0x04u},
 469:Generated_Source\PSoC4/cyfitter_cfg.c **** 			{0xDAu, 0x04u},
 470:Generated_Source\PSoC4/cyfitter_cfg.c **** 			{0xDFu, 0x01u},
 471:Generated_Source\PSoC4/cyfitter_cfg.c **** 			{0xE0u, 0x40u},
 472:Generated_Source\PSoC4/cyfitter_cfg.c **** 			{0xE1u, 0xA8u},
 473:Generated_Source\PSoC4/cyfitter_cfg.c **** 			{0xE2u, 0x40u},
 474:Generated_Source\PSoC4/cyfitter_cfg.c **** 			{0xE3u, 0x20u},
 475:Generated_Source\PSoC4/cyfitter_cfg.c **** 			{0x04u, 0x40u},
 476:Generated_Source\PSoC4/cyfitter_cfg.c **** 			{0x05u, 0x01u},
 477:Generated_Source\PSoC4/cyfitter_cfg.c **** 			{0x06u, 0x60u},
 478:Generated_Source\PSoC4/cyfitter_cfg.c **** 			{0x07u, 0x04u},
 479:Generated_Source\PSoC4/cyfitter_cfg.c **** 			{0x0Au, 0x02u},
 480:Generated_Source\PSoC4/cyfitter_cfg.c **** 			{0x0Du, 0x88u},
 481:Generated_Source\PSoC4/cyfitter_cfg.c **** 			{0x0Eu, 0x08u},
 482:Generated_Source\PSoC4/cyfitter_cfg.c **** 			{0x12u, 0x80u},
 483:Generated_Source\PSoC4/cyfitter_cfg.c **** 			{0x17u, 0x19u},
 484:Generated_Source\PSoC4/cyfitter_cfg.c **** 			{0x18u, 0x01u},
 485:Generated_Source\PSoC4/cyfitter_cfg.c **** 			{0x19u, 0x05u},
 486:Generated_Source\PSoC4/cyfitter_cfg.c **** 			{0x1Cu, 0x40u},
 487:Generated_Source\PSoC4/cyfitter_cfg.c **** 			{0x1Du, 0x08u},
 488:Generated_Source\PSoC4/cyfitter_cfg.c **** 			{0x1Eu, 0x05u},
 489:Generated_Source\PSoC4/cyfitter_cfg.c **** 			{0x1Fu, 0x08u},
 490:Generated_Source\PSoC4/cyfitter_cfg.c **** 			{0x26u, 0x11u},
 491:Generated_Source\PSoC4/cyfitter_cfg.c **** 			{0x27u, 0x16u},
 492:Generated_Source\PSoC4/cyfitter_cfg.c **** 			{0x2Fu, 0x08u},
 493:Generated_Source\PSoC4/cyfitter_cfg.c **** 			{0x34u, 0x08u},
 494:Generated_Source\PSoC4/cyfitter_cfg.c **** 			{0x35u, 0x01u},
 495:Generated_Source\PSoC4/cyfitter_cfg.c **** 			{0x36u, 0x10u},
 496:Generated_Source\PSoC4/cyfitter_cfg.c **** 			{0x37u, 0x40u},
 497:Generated_Source\PSoC4/cyfitter_cfg.c **** 			{0x3Cu, 0x40u},
 498:Generated_Source\PSoC4/cyfitter_cfg.c **** 			{0x3Eu, 0x2Au},
 499:Generated_Source\PSoC4/cyfitter_cfg.c **** 			{0x41u, 0x04u},
 500:Generated_Source\PSoC4/cyfitter_cfg.c **** 			{0x44u, 0x08u},
 501:Generated_Source\PSoC4/cyfitter_cfg.c **** 			{0x45u, 0x80u},
 502:Generated_Source\PSoC4/cyfitter_cfg.c **** 			{0x46u, 0x40u},
 503:Generated_Source\PSoC4/cyfitter_cfg.c **** 			{0x47u, 0x44u},
 504:Generated_Source\PSoC4/cyfitter_cfg.c **** 			{0x49u, 0x08u},
 505:Generated_Source\PSoC4/cyfitter_cfg.c **** 			{0x4Du, 0x80u},
 506:Generated_Source\PSoC4/cyfitter_cfg.c **** 			{0x50u, 0x08u},
 507:Generated_Source\PSoC4/cyfitter_cfg.c **** 			{0x57u, 0x60u},
 508:Generated_Source\PSoC4/cyfitter_cfg.c **** 			{0x5Eu, 0x04u},
 509:Generated_Source\PSoC4/cyfitter_cfg.c **** 			{0x6Cu, 0x15u},
 510:Generated_Source\PSoC4/cyfitter_cfg.c **** 			{0x76u, 0x2Au},
 511:Generated_Source\PSoC4/cyfitter_cfg.c **** 			{0x77u, 0x09u},
 512:Generated_Source\PSoC4/cyfitter_cfg.c **** 			{0x85u, 0x80u},
 513:Generated_Source\PSoC4/cyfitter_cfg.c **** 			{0x86u, 0x01u},
 514:Generated_Source\PSoC4/cyfitter_cfg.c **** 			{0x8Cu, 0x09u},
 515:Generated_Source\PSoC4/cyfitter_cfg.c **** 			{0x8Eu, 0x04u},
 516:Generated_Source\PSoC4/cyfitter_cfg.c **** 			{0x91u, 0x08u},
 517:Generated_Source\PSoC4/cyfitter_cfg.c **** 			{0x92u, 0x02u},
 518:Generated_Source\PSoC4/cyfitter_cfg.c **** 			{0x94u, 0x2Au},
 519:Generated_Source\PSoC4/cyfitter_cfg.c **** 			{0x96u, 0x01u},
ARM GAS  C:\Users\mikke\AppData\Local\Temp\cc41sA3P.s 			page 15


 520:Generated_Source\PSoC4/cyfitter_cfg.c **** 			{0x9Du, 0x0Cu},
 521:Generated_Source\PSoC4/cyfitter_cfg.c **** 			{0x9Fu, 0x02u},
 522:Generated_Source\PSoC4/cyfitter_cfg.c **** 			{0xA1u, 0x80u},
 523:Generated_Source\PSoC4/cyfitter_cfg.c **** 			{0xA2u, 0x80u},
 524:Generated_Source\PSoC4/cyfitter_cfg.c **** 			{0xA4u, 0x08u},
 525:Generated_Source\PSoC4/cyfitter_cfg.c **** 			{0xA6u, 0x01u},
 526:Generated_Source\PSoC4/cyfitter_cfg.c **** 			{0xA7u, 0x60u},
 527:Generated_Source\PSoC4/cyfitter_cfg.c **** 			{0xA8u, 0x20u},
 528:Generated_Source\PSoC4/cyfitter_cfg.c **** 			{0xABu, 0x80u},
 529:Generated_Source\PSoC4/cyfitter_cfg.c **** 			{0xC0u, 0xF0u},
 530:Generated_Source\PSoC4/cyfitter_cfg.c **** 			{0xC2u, 0xE1u},
 531:Generated_Source\PSoC4/cyfitter_cfg.c **** 			{0xC4u, 0x78u},
 532:Generated_Source\PSoC4/cyfitter_cfg.c **** 			{0xCAu, 0x20u},
 533:Generated_Source\PSoC4/cyfitter_cfg.c **** 			{0xCCu, 0xF0u},
 534:Generated_Source\PSoC4/cyfitter_cfg.c **** 			{0xCEu, 0xF0u},
 535:Generated_Source\PSoC4/cyfitter_cfg.c **** 			{0xD0u, 0xF2u},
 536:Generated_Source\PSoC4/cyfitter_cfg.c **** 			{0xD2u, 0x10u},
 537:Generated_Source\PSoC4/cyfitter_cfg.c **** 			{0xD6u, 0x40u},
 538:Generated_Source\PSoC4/cyfitter_cfg.c **** 			{0x01u, 0x08u},
 539:Generated_Source\PSoC4/cyfitter_cfg.c **** 			{0x56u, 0x80u},
 540:Generated_Source\PSoC4/cyfitter_cfg.c **** 			{0x8Du, 0x08u},
 541:Generated_Source\PSoC4/cyfitter_cfg.c **** 			{0x8Eu, 0x80u},
 542:Generated_Source\PSoC4/cyfitter_cfg.c **** 			{0xC0u, 0x08u},
 543:Generated_Source\PSoC4/cyfitter_cfg.c **** 			{0xD4u, 0x02u},
 544:Generated_Source\PSoC4/cyfitter_cfg.c **** 			{0xE2u, 0x02u},
 545:Generated_Source\PSoC4/cyfitter_cfg.c **** 			{0xE4u, 0x08u},
 546:Generated_Source\PSoC4/cyfitter_cfg.c **** 			{0x10u, 0x01u},
 547:Generated_Source\PSoC4/cyfitter_cfg.c **** 			{0x11u, 0x01u},
 548:Generated_Source\PSoC4/cyfitter_cfg.c **** 		};
 549:Generated_Source\PSoC4/cyfitter_cfg.c **** 
 550:Generated_Source\PSoC4/cyfitter_cfg.c **** 
 551:Generated_Source\PSoC4/cyfitter_cfg.c **** 
 552:Generated_Source\PSoC4/cyfitter_cfg.c **** 		CYPACKED typedef struct {
 553:Generated_Source\PSoC4/cyfitter_cfg.c **** 			void CYFAR *address;
 554:Generated_Source\PSoC4/cyfitter_cfg.c **** 			uint16 size;
 555:Generated_Source\PSoC4/cyfitter_cfg.c **** 		} CYPACKED_ATTR cfg_memset_t;
 556:Generated_Source\PSoC4/cyfitter_cfg.c **** 
 557:Generated_Source\PSoC4/cyfitter_cfg.c **** 
 558:Generated_Source\PSoC4/cyfitter_cfg.c **** 		CYPACKED typedef struct {
 559:Generated_Source\PSoC4/cyfitter_cfg.c **** 			void CYFAR *dest;
 560:Generated_Source\PSoC4/cyfitter_cfg.c **** 			const void CYCODE *src;
 561:Generated_Source\PSoC4/cyfitter_cfg.c **** 			uint16 size;
 562:Generated_Source\PSoC4/cyfitter_cfg.c **** 		} CYPACKED_ATTR cfg_memcpy_t;
 563:Generated_Source\PSoC4/cyfitter_cfg.c **** 
 564:Generated_Source\PSoC4/cyfitter_cfg.c **** 		static const cfg_memset_t CYCODE cfg_memset_list[] = {
 565:Generated_Source\PSoC4/cyfitter_cfg.c **** 			/* address, size */
 566:Generated_Source\PSoC4/cyfitter_cfg.c **** 			{(void CYFAR *)(CYDEV_UDB_P0_U0_BASE), 512u},
 567:Generated_Source\PSoC4/cyfitter_cfg.c **** 			{(void CYFAR *)(CYDEV_UDB_P1_U1_BASE), 384u},
 568:Generated_Source\PSoC4/cyfitter_cfg.c **** 			{(void CYFAR *)(CYDEV_UDB_DSI0_BASE), 1024u},
 569:Generated_Source\PSoC4/cyfitter_cfg.c **** 		};
 570:Generated_Source\PSoC4/cyfitter_cfg.c **** 
 571:Generated_Source\PSoC4/cyfitter_cfg.c **** 		/* UDB_0_0_1_CONFIG Address: CYDEV_UDB_P1_U0_BASE Size (bytes): 128 */
 572:Generated_Source\PSoC4/cyfitter_cfg.c **** 		static const uint8 CYCODE BS_UDB_0_0_1_CONFIG_VAL[] = {
 573:Generated_Source\PSoC4/cyfitter_cfg.c **** 			0xFFu, 0x04u, 0x00u, 0x00u, 0x18u, 0x02u, 0x00u, 0x00u, 0xE7u, 0x06u, 0x18u, 0x00u, 0x9Cu, 0x07u
 574:Generated_Source\PSoC4/cyfitter_cfg.c **** 			0x00u, 0x37u, 0x00u, 0x00u, 0xBCu, 0x11u, 0x42u, 0x08u, 0x04u, 0x31u, 0x00u, 0x06u, 0x00u, 0x00u
 575:Generated_Source\PSoC4/cyfitter_cfg.c **** 			0x10u, 0x00u, 0x00u, 0x00u, 0x08u, 0x00u, 0x00u, 0x00u, 0x00u, 0x06u, 0x04u, 0x31u, 0x00u, 0x00u
 576:Generated_Source\PSoC4/cyfitter_cfg.c **** 			0x58u, 0x20u, 0x1Fu, 0x08u, 0x80u, 0x07u, 0x38u, 0x10u, 0x00u, 0x02u, 0x0Au, 0x20u, 0x00u, 0x00u
ARM GAS  C:\Users\mikke\AppData\Local\Temp\cc41sA3P.s 			page 16


 577:Generated_Source\PSoC4/cyfitter_cfg.c **** 			0x31u, 0x04u, 0x05u, 0x00u, 0x02u, 0x00u, 0xECu, 0x00u, 0x0Cu, 0xFFu, 0xFFu, 0xFFu, 0x62u, 0xA0u
 578:Generated_Source\PSoC4/cyfitter_cfg.c **** 			0x0Cu, 0x00u, 0x00u, 0x00u, 0x00u, 0x00u, 0x02u, 0x12u, 0x04u, 0x04u, 0x04u, 0x04u, 0x00u, 0x00u
 579:Generated_Source\PSoC4/cyfitter_cfg.c **** 			0x00u, 0x00u, 0x00u, 0x00u, 0x00u, 0x00u, 0x40u, 0x02u, 0x00u, 0x10u, 0x30u, 0x10u, 0x00u, 0x10u
 580:Generated_Source\PSoC4/cyfitter_cfg.c **** 			0x00u, 0x00u, 0x00u, 0x00u, 0x00u, 0x00u, 0x00u, 0x00u, 0x00u, 0x00u, 0x00u, 0x00u, 0x00u, 0x00u
 581:Generated_Source\PSoC4/cyfitter_cfg.c **** 
 582:Generated_Source\PSoC4/cyfitter_cfg.c **** 		static const cfg_memcpy_t CYCODE cfg_memcpy_list [] = {
 583:Generated_Source\PSoC4/cyfitter_cfg.c **** 			/* dest, src, size */
 584:Generated_Source\PSoC4/cyfitter_cfg.c **** 			{(void CYFAR *)(CYDEV_UDB_P1_U0_BASE), BS_UDB_0_0_1_CONFIG_VAL, 128u},
 585:Generated_Source\PSoC4/cyfitter_cfg.c **** 		};
 586:Generated_Source\PSoC4/cyfitter_cfg.c **** 
 587:Generated_Source\PSoC4/cyfitter_cfg.c **** 		uint8 CYDATA i;
 588:Generated_Source\PSoC4/cyfitter_cfg.c **** 
 589:Generated_Source\PSoC4/cyfitter_cfg.c **** 		/* Zero out critical memory blocks before beginning configuration */
 590:Generated_Source\PSoC4/cyfitter_cfg.c **** 		for (i = 0u; i < (sizeof(cfg_memset_list)/sizeof(cfg_memset_list[0])); i++)
 271              		.loc 1 590 0
 272 0094 0024     		movs	r4, #0
 273 0096 0FE0     		b	.L12
 274              	.LVL21:
 275              	.L13:
 276              	.LBB4:
 591:Generated_Source\PSoC4/cyfitter_cfg.c **** 		{
 592:Generated_Source\PSoC4/cyfitter_cfg.c **** 			const cfg_memset_t CYCODE * CYDATA ms = &cfg_memset_list[i];
 593:Generated_Source\PSoC4/cyfitter_cfg.c **** 			CYMEMZERO(ms->address, (size_t)(uint32)(ms->size));
 277              		.loc 1 593 0 discriminator 3
 278 0098 3948     		ldr	r0, .L16
 279 009a 6200     		lsls	r2, r4, #1
 280 009c 1319     		adds	r3, r2, r4
 281 009e 5900     		lsls	r1, r3, #1
 282 00a0 0B00     		movs	r3, r1
 283 00a2 4118     		adds	r1, r0, r1
 284 00a4 8988     		ldrh	r1, [r1, #4]
 285 00a6 1A5A     		ldrh	r2, [r3, r0]
 286 00a8 C318     		adds	r3, r0, r3
 287 00aa 5888     		ldrh	r0, [r3, #2]
 288 00ac 0004     		lsls	r0, r0, #16
 289 00ae 1043     		orrs	r0, r2
 290 00b0 FFF7FEFF 		bl	CYMEMZERO
 291              	.LVL22:
 292              	.LBE4:
 590:Generated_Source\PSoC4/cyfitter_cfg.c **** 		{
 293              		.loc 1 590 0 discriminator 3
 294 00b4 0134     		adds	r4, r4, #1
 295              	.LVL23:
 296 00b6 E4B2     		uxtb	r4, r4
 297              	.LVL24:
 298              	.L12:
 590:Generated_Source\PSoC4/cyfitter_cfg.c **** 		{
 299              		.loc 1 590 0 is_stmt 0 discriminator 1
 300 00b8 022C     		cmp	r4, #2
 301 00ba EDD9     		bls	.L13
 302 00bc 0024     		movs	r4, #0
 303              	.LVL25:
 304 00be 11E0     		b	.L14
 305              	.LVL26:
 306              	.L15:
 307              	.LBB5:
 594:Generated_Source\PSoC4/cyfitter_cfg.c **** 		}
ARM GAS  C:\Users\mikke\AppData\Local\Temp\cc41sA3P.s 			page 17


 595:Generated_Source\PSoC4/cyfitter_cfg.c **** 
 596:Generated_Source\PSoC4/cyfitter_cfg.c **** 		/* Copy device configuration data into registers */
 597:Generated_Source\PSoC4/cyfitter_cfg.c **** 		for (i = 0u; i < (sizeof(cfg_memcpy_list)/sizeof(cfg_memcpy_list[0])); i++)
 598:Generated_Source\PSoC4/cyfitter_cfg.c **** 		{
 599:Generated_Source\PSoC4/cyfitter_cfg.c **** 			const cfg_memcpy_t CYCODE * CYDATA mc = &cfg_memcpy_list[i];
 600:Generated_Source\PSoC4/cyfitter_cfg.c **** 			void * CYDATA destPtr = mc->dest;
 308              		.loc 1 600 0 is_stmt 1 discriminator 3
 309 00c0 2F4E     		ldr	r6, .L16
 310 00c2 A200     		lsls	r2, r4, #2
 311 00c4 1319     		adds	r3, r2, r4
 312 00c6 5900     		lsls	r1, r3, #1
 313 00c8 7118     		adds	r1, r6, r1
 314 00ca 8D8A     		ldrh	r5, [r1, #20]
 315 00cc C88A     		ldrh	r0, [r1, #22]
 316 00ce 0004     		lsls	r0, r0, #16
 317 00d0 2843     		orrs	r0, r5
 318              	.LVL27:
 601:Generated_Source\PSoC4/cyfitter_cfg.c **** 			const void CYCODE * CYDATA srcPtr = mc->src;
 319              		.loc 1 601 0 discriminator 3
 320 00d2 0A8B     		ldrh	r2, [r1, #24]
 321 00d4 498B     		ldrh	r1, [r1, #26]
 322 00d6 0904     		lsls	r1, r1, #16
 323 00d8 1143     		orrs	r1, r2
 324              	.LVL28:
 602:Generated_Source\PSoC4/cyfitter_cfg.c **** 			uint16 CYDATA numBytes = mc->size;
 603:Generated_Source\PSoC4/cyfitter_cfg.c **** 			CYCONFIGCPYCODE(destPtr, srcPtr, numBytes);
 325              		.loc 1 603 0 discriminator 3
 326 00da 8022     		movs	r2, #128
 327 00dc FFF7FEFF 		bl	CYCONFIGCPYCODE
 328              	.LVL29:
 329              	.LBE5:
 597:Generated_Source\PSoC4/cyfitter_cfg.c **** 		{
 330              		.loc 1 597 0 discriminator 3
 331 00e0 0134     		adds	r4, r4, #1
 332              	.LVL30:
 333 00e2 E4B2     		uxtb	r4, r4
 334              	.LVL31:
 335              	.L14:
 597:Generated_Source\PSoC4/cyfitter_cfg.c **** 		{
 336              		.loc 1 597 0 is_stmt 0 discriminator 1
 337 00e4 002C     		cmp	r4, #0
 338 00e6 EBD0     		beq	.L15
 604:Generated_Source\PSoC4/cyfitter_cfg.c **** 		}
 605:Generated_Source\PSoC4/cyfitter_cfg.c **** 
 606:Generated_Source\PSoC4/cyfitter_cfg.c **** 		cfg_write_bytes32(cy_cfg_addr_table, cy_cfg_data_table);
 339              		.loc 1 606 0 is_stmt 1
 340 00e8 2549     		ldr	r1, .L16
 341 00ea 2031     		adds	r1, r1, #32
 342 00ec 2548     		ldr	r0, .L16+4
 343 00ee 0430     		adds	r0, r0, #4
 344 00f0 FFF7FEFF 		bl	cfg_write_bytes32
 345              	.LVL32:
 607:Generated_Source\PSoC4/cyfitter_cfg.c **** 
 608:Generated_Source\PSoC4/cyfitter_cfg.c **** 		/* Perform normal device configuration. Order is not critical for these items. */
 609:Generated_Source\PSoC4/cyfitter_cfg.c **** 		CY_SET_REG16((void *)(CYREG_UDB_BCTL0_DRV), 0x0100u);
 346              		.loc 1 609 0
 347 00f4 8022     		movs	r2, #128
ARM GAS  C:\Users\mikke\AppData\Local\Temp\cc41sA3P.s 			page 18


 348 00f6 5200     		lsls	r2, r2, #1
 349 00f8 234B     		ldr	r3, .L16+8
 350 00fa 1A80     		strh	r2, [r3]
 610:Generated_Source\PSoC4/cyfitter_cfg.c **** 		CY_SET_REG8((void *)(CYREG_UDB_BCTL0_DRV + 0x2u), 0x01u);
 351              		.loc 1 610 0
 352 00fc 0121     		movs	r1, #1
 353 00fe 234B     		ldr	r3, .L16+12
 354 0100 1970     		strb	r1, [r3]
 611:Generated_Source\PSoC4/cyfitter_cfg.c **** 
 612:Generated_Source\PSoC4/cyfitter_cfg.c **** 		/* HSIOM Starting address: CYDEV_HSIOM_BASE */
 613:Generated_Source\PSoC4/cyfitter_cfg.c **** 		CY_SET_REG32((void *)(CYDEV_HSIOM_BASE), 0x0FFF0000u);
 355              		.loc 1 613 0
 356 0102 234A     		ldr	r2, .L16+16
 357 0104 234B     		ldr	r3, .L16+20
 358 0106 1A60     		str	r2, [r3]
 614:Generated_Source\PSoC4/cyfitter_cfg.c **** 		CY_SET_REG32((void *)(CYREG_HSIOM_PORT_SEL3), 0x0000EE30u);
 359              		.loc 1 614 0
 360 0108 234A     		ldr	r2, .L16+24
 361 010a 244B     		ldr	r3, .L16+28
 362 010c 1A60     		str	r2, [r3]
 615:Generated_Source\PSoC4/cyfitter_cfg.c **** 
 616:Generated_Source\PSoC4/cyfitter_cfg.c **** 		/* UDB_PA_0 Starting address: CYDEV_UDB_PA0_BASE */
 617:Generated_Source\PSoC4/cyfitter_cfg.c **** 		CY_SET_REG32((void *)(CYDEV_UDB_PA0_BASE), 0x00990000u);
 363              		.loc 1 617 0
 364 010e 9923     		movs	r3, #153
 365 0110 1B04     		lsls	r3, r3, #16
 366 0112 234A     		ldr	r2, .L16+32
 367 0114 1360     		str	r3, [r2]
 618:Generated_Source\PSoC4/cyfitter_cfg.c **** 
 619:Generated_Source\PSoC4/cyfitter_cfg.c **** 		/* UDB_PA_1 Starting address: CYDEV_UDB_PA1_BASE */
 620:Generated_Source\PSoC4/cyfitter_cfg.c **** 		CY_SET_REG32((void *)(CYDEV_UDB_PA1_BASE), 0x00990000u);
 368              		.loc 1 620 0
 369 0116 234A     		ldr	r2, .L16+36
 370 0118 1360     		str	r3, [r2]
 621:Generated_Source\PSoC4/cyfitter_cfg.c **** 
 622:Generated_Source\PSoC4/cyfitter_cfg.c **** 		/* UDB_PA_3 Starting address: CYDEV_UDB_PA3_BASE */
 623:Generated_Source\PSoC4/cyfitter_cfg.c **** 		CY_SET_REG32((void *)(CYDEV_UDB_PA3_BASE), 0x00990004u);
 371              		.loc 1 623 0
 372 011a 234A     		ldr	r2, .L16+40
 373 011c 234B     		ldr	r3, .L16+44
 374 011e 1A60     		str	r2, [r3]
 624:Generated_Source\PSoC4/cyfitter_cfg.c **** 		CY_SET_REG32((void *)(CYREG_UDB_PA3_CFG4), 0x00020000u);
 375              		.loc 1 624 0
 376 0120 8022     		movs	r2, #128
 377 0122 9202     		lsls	r2, r2, #10
 378 0124 224B     		ldr	r3, .L16+48
 379 0126 1A60     		str	r2, [r3]
 625:Generated_Source\PSoC4/cyfitter_cfg.c **** 		CY_SET_REG32((void *)(CYREG_UDB_PA3_CFG8), 0x00040000u);
 380              		.loc 1 625 0
 381 0128 8022     		movs	r2, #128
 382 012a D202     		lsls	r2, r2, #11
 383 012c 214B     		ldr	r3, .L16+52
 384 012e 1A60     		str	r2, [r3]
 626:Generated_Source\PSoC4/cyfitter_cfg.c **** 
 627:Generated_Source\PSoC4/cyfitter_cfg.c **** 		/* Enable UDB array and digital routing */
 628:Generated_Source\PSoC4/cyfitter_cfg.c **** 		CY_SET_XTND_REG8((void *)CYREG_UDB_UDBIF_WAIT_CFG, (uint8)((CY_GET_XTND_REG8((void *)CYREG_UDB_UD
 385              		.loc 1 628 0
ARM GAS  C:\Users\mikke\AppData\Local\Temp\cc41sA3P.s 			page 19


 386 0130 2148     		ldr	r0, .L16+56
 387 0132 0378     		ldrb	r3, [r0]
 388 0134 3C22     		movs	r2, #60
 389 0136 9343     		bics	r3, r2
 390 0138 1422     		movs	r2, #20
 391 013a 1343     		orrs	r3, r2
 392 013c DBB2     		uxtb	r3, r3
 393 013e 0370     		strb	r3, [r0]
 629:Generated_Source\PSoC4/cyfitter_cfg.c **** 		CY_SET_XTND_REG8((void *)CYREG_UDB_UDBIF_BANK_CTL, (uint8)(CY_GET_XTND_REG8((void *)CYREG_UDB_UDB
 394              		.loc 1 629 0
 395 0140 1E4A     		ldr	r2, .L16+60
 396 0142 1078     		ldrb	r0, [r2]
 397 0144 1623     		movs	r3, #22
 398 0146 0343     		orrs	r3, r0
 399 0148 DBB2     		uxtb	r3, r3
 400 014a 1370     		strb	r3, [r2]
 401              	.LBE3:
 630:Generated_Source\PSoC4/cyfitter_cfg.c **** 	}
 631:Generated_Source\PSoC4/cyfitter_cfg.c **** 
 632:Generated_Source\PSoC4/cyfitter_cfg.c **** 	/* Perform second pass device configuration. These items must be configured in specific order afte
 633:Generated_Source\PSoC4/cyfitter_cfg.c **** 	/* IOPINS0_0 Starting address: CYDEV_PRT0_BASE */
 634:Generated_Source\PSoC4/cyfitter_cfg.c **** 	CY_SET_REG32((void *)(CYDEV_PRT0_BASE), 0x00000054u);
 402              		.loc 1 634 0
 403 014c 5422     		movs	r2, #84
 404 014e 1C4B     		ldr	r3, .L16+64
 405 0150 1A60     		str	r2, [r3]
 635:Generated_Source\PSoC4/cyfitter_cfg.c **** 	CY_SET_REG32((void *)(CYREG_PRT0_PC), 0x00D8E180u);
 406              		.loc 1 635 0
 407 0152 1C4A     		ldr	r2, .L16+68
 408 0154 1C4B     		ldr	r3, .L16+72
 409 0156 1A60     		str	r2, [r3]
 636:Generated_Source\PSoC4/cyfitter_cfg.c **** 	CY_SET_REG32((void *)(CYREG_PRT0_PC2), 0x00000050u);
 410              		.loc 1 636 0
 411 0158 5022     		movs	r2, #80
 412 015a 1C4B     		ldr	r3, .L16+76
 413 015c 1A60     		str	r2, [r3]
 637:Generated_Source\PSoC4/cyfitter_cfg.c **** 
 638:Generated_Source\PSoC4/cyfitter_cfg.c **** 	/* IOPINS0_1 Starting address: CYDEV_PRT1_BASE */
 639:Generated_Source\PSoC4/cyfitter_cfg.c **** 	CY_SET_REG32((void *)(CYDEV_PRT1_BASE), 0x00000001u);
 414              		.loc 1 639 0
 415 015e 1C4B     		ldr	r3, .L16+80
 416 0160 1960     		str	r1, [r3]
 640:Generated_Source\PSoC4/cyfitter_cfg.c **** 	CY_SET_REG32((void *)(CYREG_PRT1_PC), 0x00000032u);
 417              		.loc 1 640 0
 418 0162 1E3A     		subs	r2, r2, #30
 419 0164 1B4B     		ldr	r3, .L16+84
 420 0166 1A60     		str	r2, [r3]
 641:Generated_Source\PSoC4/cyfitter_cfg.c **** 	CY_SET_REG32((void *)(CYREG_PRT1_INTCFG), 0x00000002u);
 421              		.loc 1 641 0
 422 0168 0223     		movs	r3, #2
 423 016a 1B4A     		ldr	r2, .L16+88
 424 016c 1360     		str	r3, [r2]
 642:Generated_Source\PSoC4/cyfitter_cfg.c **** 
 643:Generated_Source\PSoC4/cyfitter_cfg.c **** 	/* IOPINS0_3 Starting address: CYDEV_PRT3_BASE */
 644:Generated_Source\PSoC4/cyfitter_cfg.c **** 	CY_SET_REG32((void *)(CYDEV_PRT3_BASE), 0x00000002u);
 425              		.loc 1 644 0
 426 016e 1B4A     		ldr	r2, .L16+92
ARM GAS  C:\Users\mikke\AppData\Local\Temp\cc41sA3P.s 			page 20


 427 0170 1360     		str	r3, [r2]
 645:Generated_Source\PSoC4/cyfitter_cfg.c **** 	CY_SET_REG32((void *)(CYREG_PRT3_PC), 0x00000DB1u);
 428              		.loc 1 645 0
 429 0172 1B4A     		ldr	r2, .L16+96
 430 0174 1B4B     		ldr	r3, .L16+100
 431 0176 1A60     		str	r2, [r3]
 646:Generated_Source\PSoC4/cyfitter_cfg.c **** 
 647:Generated_Source\PSoC4/cyfitter_cfg.c **** 
 648:Generated_Source\PSoC4/cyfitter_cfg.c **** 	/* Setup clocks based on selections from Clock DWR */
 649:Generated_Source\PSoC4/cyfitter_cfg.c **** 	ClockSetup();
 432              		.loc 1 649 0
 433 0178 FFF742FF 		bl	ClockSetup
 434              	.LVL33:
 650:Generated_Source\PSoC4/cyfitter_cfg.c **** 
 651:Generated_Source\PSoC4/cyfitter_cfg.c **** 	/* Perform basic analog initialization to defaults */
 652:Generated_Source\PSoC4/cyfitter_cfg.c **** 	AnalogSetDefault();
 653:Generated_Source\PSoC4/cyfitter_cfg.c **** 
 654:Generated_Source\PSoC4/cyfitter_cfg.c **** }
 435              		.loc 1 654 0
 436              		@ sp needed
 437              	.LVL34:
 438 017c 70BD     		pop	{r4, r5, r6, pc}
 439              	.L17:
 440 017e C046     		.align	2
 441              	.L16:
 442 0180 00000000 		.word	.LANCHOR0
 443 0184 00020000 		.word	.LANCHOR1
 444 0188 00600F40 		.word	1074749440
 445 018c 02600F40 		.word	1074749442
 446 0190 0000FF0F 		.word	268369920
 447 0194 00000140 		.word	1073807360
 448 0198 30EE0000 		.word	60976
 449 019c 0C000140 		.word	1073807372
 450 01a0 00500F40 		.word	1074745344
 451 01a4 10500F40 		.word	1074745360
 452 01a8 04009900 		.word	10027012
 453 01ac 30500F40 		.word	1074745392
 454 01b0 34500F40 		.word	1074745396
 455 01b4 38500F40 		.word	1074745400
 456 01b8 01700F40 		.word	1074753537
 457 01bc 00700F40 		.word	1074753536
 458 01c0 00000440 		.word	1074003968
 459 01c4 80E1D800 		.word	14213504
 460 01c8 08000440 		.word	1074003976
 461 01cc 18000440 		.word	1074003992
 462 01d0 00010440 		.word	1074004224
 463 01d4 08010440 		.word	1074004232
 464 01d8 0C010440 		.word	1074004236
 465 01dc 00030440 		.word	1074004736
 466 01e0 B10D0000 		.word	3505
 467 01e4 08030440 		.word	1074004744
 468              		.cfi_endproc
 469              	.LFE6:
 470              		.size	cyfitter_cfg, .-cyfitter_cfg
 471              		.section	.rodata
 472              		.align	2
 473              		.set	.LANCHOR0,. + 0
ARM GAS  C:\Users\mikke\AppData\Local\Temp\cc41sA3P.s 			page 21


 474              		.set	.LANCHOR1,. + 512
 475              		.type	cfg_memset_list.4875, %object
 476              		.size	cfg_memset_list.4875, 18
 477              	cfg_memset_list.4875:
 478 0000 00300F40 		.word	1074737152
 479 0004 0002     		.short	512
 480 0006 80320F40 		.4byte	1074737792
 481 000a 8001     		.short	384
 482 000c 00400F40 		.word	1074741248
 483 0010 0004     		.short	1024
 484 0012 0000     		.space	2
 485              		.type	cfg_memcpy_list.4877, %object
 486              		.size	cfg_memcpy_list.4877, 10
 487              	cfg_memcpy_list.4877:
 488 0014 00320F40 		.word	1074737664
 489 0018 20020000 		.word	BS_UDB_0_0_1_CONFIG_VAL.4876
 490 001c 8000     		.short	128
 491 001e 0000     		.space	2
 492              		.type	cy_cfg_data_table.4865, %object
 493              		.size	cy_cfg_data_table.4865, 482
 494              	cy_cfg_data_table.4865:
 495 0020 80       		.byte	-128
 496 0021 0F       		.byte	15
 497 0022 81       		.byte	-127
 498 0023 38       		.byte	56
 499 0024 82       		.byte	-126
 500 0025 71       		.byte	113
 501 0026 04       		.byte	4
 502 0027 10       		.byte	16
 503 0028 06       		.byte	6
 504 0029 40       		.byte	64
 505 002a 08       		.byte	8
 506 002b 0C       		.byte	12
 507 002c 0A       		.byte	10
 508 002d 71       		.byte	113
 509 002e 0C       		.byte	12
 510 002f 09       		.byte	9
 511 0030 0E       		.byte	14
 512 0031 D0       		.byte	-48
 513 0032 0F       		.byte	15
 514 0033 0C       		.byte	12
 515 0034 10       		.byte	16
 516 0035 10       		.byte	16
 517 0036 12       		.byte	18
 518 0037 AC       		.byte	-84
 519 0038 15       		.byte	21
 520 0039 80       		.byte	-128
 521 003a 17       		.byte	23
 522 003b 13       		.byte	19
 523 003c 18       		.byte	24
 524 003d DC       		.byte	-36
 525 003e 19       		.byte	25
 526 003f 2C       		.byte	44
 527 0040 1A       		.byte	26
 528 0041 22       		.byte	34
 529 0042 1B       		.byte	27
 530 0043 43       		.byte	67
ARM GAS  C:\Users\mikke\AppData\Local\Temp\cc41sA3P.s 			page 22


 531 0044 1E       		.byte	30
 532 0045 03       		.byte	3
 533 0046 24       		.byte	36
 534 0047 14       		.byte	20
 535 0048 27       		.byte	39
 536 0049 08       		.byte	8
 537 004a 29       		.byte	41
 538 004b 71       		.byte	113
 539 004c 2A       		.byte	42
 540 004d 20       		.byte	32
 541 004e 2B       		.byte	43
 542 004f 0E       		.byte	14
 543 0050 2D       		.byte	45
 544 0051 71       		.byte	113
 545 0052 2F       		.byte	47
 546 0053 06       		.byte	6
 547 0054 31       		.byte	49
 548 0055 C0       		.byte	-64
 549 0056 33       		.byte	51
 550 0057 30       		.byte	48
 551 0058 34       		.byte	52
 552 0059 E0       		.byte	-32
 553 005a 35       		.byte	53
 554 005b 0F       		.byte	15
 555 005c 36       		.byte	54
 556 005d 1F       		.byte	31
 557 005e 39       		.byte	57
 558 005f 0A       		.byte	10
 559 0060 3A       		.byte	58
 560 0061 20       		.byte	32
 561 0062 3B       		.byte	59
 562 0063 20       		.byte	32
 563 0064 3F       		.byte	63
 564 0065 04       		.byte	4
 565 0066 40       		.byte	64
 566 0067 46       		.byte	70
 567 0068 41       		.byte	65
 568 0069 03       		.byte	3
 569 006a 45       		.byte	69
 570 006b E0       		.byte	-32
 571 006c 46       		.byte	70
 572 006d BC       		.byte	-68
 573 006e 48       		.byte	72
 574 006f 0E       		.byte	14
 575 0070 49       		.byte	73
 576 0071 FF       		.byte	-1
 577 0072 4A       		.byte	74
 578 0073 FF       		.byte	-1
 579 0074 4B       		.byte	75
 580 0075 FF       		.byte	-1
 581 0076 4E       		.byte	78
 582 0077 F0       		.byte	-16
 583 0078 4F       		.byte	79
 584 0079 44       		.byte	68
 585 007a 50       		.byte	80
 586 007b 0C       		.byte	12
 587 007c 54       		.byte	84
ARM GAS  C:\Users\mikke\AppData\Local\Temp\cc41sA3P.s 			page 23


 588 007d 01       		.byte	1
 589 007e 58       		.byte	88
 590 007f 04       		.byte	4
 591 0080 59       		.byte	89
 592 0081 04       		.byte	4
 593 0082 5A       		.byte	90
 594 0083 04       		.byte	4
 595 0084 5B       		.byte	91
 596 0085 04       		.byte	4
 597 0086 5F       		.byte	95
 598 0087 01       		.byte	1
 599 0088 66       		.byte	102
 600 0089 C0       		.byte	-64
 601 008a 6A       		.byte	106
 602 008b 40       		.byte	64
 603 008c 6B       		.byte	107
 604 008d 02       		.byte	2
 605 008e 80       		.byte	-128
 606 008f 20       		.byte	32
 607 0090 84       		.byte	-124
 608 0091 20       		.byte	32
 609 0092 88       		.byte	-120
 610 0093 20       		.byte	32
 611 0094 8E       		.byte	-114
 612 0095 08       		.byte	8
 613 0096 92       		.byte	-110
 614 0097 40       		.byte	64
 615 0098 93       		.byte	-109
 616 0099 01       		.byte	1
 617 009a 96       		.byte	-106
 618 009b 15       		.byte	21
 619 009c 98       		.byte	-104
 620 009d 0A       		.byte	10
 621 009e 9A       		.byte	-102
 622 009f 14       		.byte	20
 623 00a0 9E       		.byte	-98
 624 00a1 40       		.byte	64
 625 00a2 A0       		.byte	-96
 626 00a3 03       		.byte	3
 627 00a4 A2       		.byte	-94
 628 00a5 14       		.byte	20
 629 00a6 A4       		.byte	-92
 630 00a7 13       		.byte	19
 631 00a8 A6       		.byte	-90
 632 00a9 04       		.byte	4
 633 00aa A7       		.byte	-89
 634 00ab 01       		.byte	1
 635 00ac AC       		.byte	-84
 636 00ad 13       		.byte	19
 637 00ae AE       		.byte	-82
 638 00af 0C       		.byte	12
 639 00b0 B0       		.byte	-80
 640 00b1 0F       		.byte	15
 641 00b2 B2       		.byte	-78
 642 00b3 10       		.byte	16
 643 00b4 B4       		.byte	-76
 644 00b5 40       		.byte	64
ARM GAS  C:\Users\mikke\AppData\Local\Temp\cc41sA3P.s 			page 24


 645 00b6 B5       		.byte	-75
 646 00b7 01       		.byte	1
 647 00b8 B6       		.byte	-74
 648 00b9 20       		.byte	32
 649 00ba BA       		.byte	-70
 650 00bb 02       		.byte	2
 651 00bc BE       		.byte	-66
 652 00bd 14       		.byte	20
 653 00be BF       		.byte	-65
 654 00bf 10       		.byte	16
 655 00c0 D4       		.byte	-44
 656 00c1 18       		.byte	24
 657 00c2 D8       		.byte	-40
 658 00c3 04       		.byte	4
 659 00c4 D9       		.byte	-39
 660 00c5 04       		.byte	4
 661 00c6 DB       		.byte	-37
 662 00c7 04       		.byte	4
 663 00c8 DF       		.byte	-33
 664 00c9 01       		.byte	1
 665 00ca 00       		.byte	0
 666 00cb 40       		.byte	64
 667 00cc 01       		.byte	1
 668 00cd 08       		.byte	8
 669 00ce 03       		.byte	3
 670 00cf 08       		.byte	8
 671 00d0 04       		.byte	4
 672 00d1 6A       		.byte	106
 673 00d2 08       		.byte	8
 674 00d3 01       		.byte	1
 675 00d4 09       		.byte	9
 676 00d5 20       		.byte	32
 677 00d6 0A       		.byte	10
 678 00d7 02       		.byte	2
 679 00d8 0C       		.byte	12
 680 00d9 08       		.byte	8
 681 00da 0D       		.byte	13
 682 00db 20       		.byte	32
 683 00dc 0E       		.byte	14
 684 00dd 01       		.byte	1
 685 00de 0F       		.byte	15
 686 00df 80       		.byte	-128
 687 00e0 10       		.byte	16
 688 00e1 28       		.byte	40
 689 00e2 14       		.byte	20
 690 00e3 01       		.byte	1
 691 00e4 16       		.byte	22
 692 00e5 50       		.byte	80
 693 00e6 19       		.byte	25
 694 00e7 10       		.byte	16
 695 00e8 1A       		.byte	26
 696 00e9 02       		.byte	2
 697 00ea 1C       		.byte	28
 698 00eb 20       		.byte	32
 699 00ec 1D       		.byte	29
 700 00ed 80       		.byte	-128
 701 00ee 1E       		.byte	30
ARM GAS  C:\Users\mikke\AppData\Local\Temp\cc41sA3P.s 			page 25


 702 00ef 08       		.byte	8
 703 00f0 1F       		.byte	31
 704 00f1 02       		.byte	2
 705 00f2 20       		.byte	32
 706 00f3 40       		.byte	64
 707 00f4 21       		.byte	33
 708 00f5 24       		.byte	36
 709 00f6 27       		.byte	39
 710 00f7 08       		.byte	8
 711 00f8 28       		.byte	40
 712 00f9 01       		.byte	1
 713 00fa 29       		.byte	41
 714 00fb 18       		.byte	24
 715 00fc 2A       		.byte	42
 716 00fd 10       		.byte	16
 717 00fe 2B       		.byte	43
 718 00ff 0A       		.byte	10
 719 0100 2F       		.byte	47
 720 0101 20       		.byte	32
 721 0102 30       		.byte	48
 722 0103 08       		.byte	8
 723 0104 31       		.byte	49
 724 0105 20       		.byte	32
 725 0106 36       		.byte	54
 726 0107 01       		.byte	1
 727 0108 38       		.byte	56
 728 0109 40       		.byte	64
 729 010a 43       		.byte	67
 730 010b 0A       		.byte	10
 731 010c 46       		.byte	70
 732 010d 20       		.byte	32
 733 010e 47       		.byte	71
 734 010f 08       		.byte	8
 735 0110 48       		.byte	72
 736 0111 08       		.byte	8
 737 0112 49       		.byte	73
 738 0113 01       		.byte	1
 739 0114 4A       		.byte	74
 740 0115 80       		.byte	-128
 741 0116 50       		.byte	80
 742 0117 20       		.byte	32
 743 0118 52       		.byte	82
 744 0119 40       		.byte	64
 745 011a 53       		.byte	83
 746 011b 80       		.byte	-128
 747 011c 58       		.byte	88
 748 011d 20       		.byte	32
 749 011e 59       		.byte	89
 750 011f 85       		.byte	-123
 751 0120 5F       		.byte	95
 752 0121 02       		.byte	2
 753 0122 66       		.byte	102
 754 0123 20       		.byte	32
 755 0124 67       		.byte	103
 756 0125 02       		.byte	2
 757 0126 82       		.byte	-126
 758 0127 04       		.byte	4
ARM GAS  C:\Users\mikke\AppData\Local\Temp\cc41sA3P.s 			page 26


 759 0128 83       		.byte	-125
 760 0129 01       		.byte	1
 761 012a 88       		.byte	-120
 762 012b 10       		.byte	16
 763 012c 89       		.byte	-119
 764 012d 80       		.byte	-128
 765 012e C0       		.byte	-64
 766 012f F7       		.byte	-9
 767 0130 C2       		.byte	-62
 768 0131 FB       		.byte	-5
 769 0132 C4       		.byte	-60
 770 0133 B6       		.byte	-74
 771 0134 CA       		.byte	-54
 772 0135 4E       		.byte	78
 773 0136 CC       		.byte	-52
 774 0137 86       		.byte	-122
 775 0138 CE       		.byte	-50
 776 0139 08       		.byte	8
 777 013a D0       		.byte	-48
 778 013b 03       		.byte	3
 779 013c D2       		.byte	-46
 780 013d 04       		.byte	4
 781 013e D6       		.byte	-42
 782 013f 8F       		.byte	-113
 783 0140 D8       		.byte	-40
 784 0141 30       		.byte	48
 785 0142 9C       		.byte	-100
 786 0143 02       		.byte	2
 787 0144 A0       		.byte	-96
 788 0145 01       		.byte	1
 789 0146 B2       		.byte	-78
 790 0147 01       		.byte	1
 791 0148 B6       		.byte	-74
 792 0149 02       		.byte	2
 793 014a BA       		.byte	-70
 794 014b 02       		.byte	2
 795 014c BE       		.byte	-66
 796 014d 44       		.byte	68
 797 014e C0       		.byte	-64
 798 014f 03       		.byte	3
 799 0150 C5       		.byte	-59
 800 0151 04       		.byte	4
 801 0152 C9       		.byte	-55
 802 0153 FF       		.byte	-1
 803 0154 CA       		.byte	-54
 804 0155 07       		.byte	7
 805 0156 CB       		.byte	-53
 806 0157 FF       		.byte	-1
 807 0158 CC       		.byte	-52
 808 0159 40       		.byte	64
 809 015a CD       		.byte	-51
 810 015b 20       		.byte	32
 811 015c CE       		.byte	-50
 812 015d F0       		.byte	-16
 813 015e CF       		.byte	-49
 814 015f 05       		.byte	5
 815 0160 D0       		.byte	-48
ARM GAS  C:\Users\mikke\AppData\Local\Temp\cc41sA3P.s 			page 27


 816 0161 08       		.byte	8
 817 0162 D8       		.byte	-40
 818 0163 04       		.byte	4
 819 0164 DA       		.byte	-38
 820 0165 04       		.byte	4
 821 0166 DF       		.byte	-33
 822 0167 01       		.byte	1
 823 0168 E0       		.byte	-32
 824 0169 40       		.byte	64
 825 016a E1       		.byte	-31
 826 016b A8       		.byte	-88
 827 016c E2       		.byte	-30
 828 016d 40       		.byte	64
 829 016e E3       		.byte	-29
 830 016f 20       		.byte	32
 831 0170 04       		.byte	4
 832 0171 40       		.byte	64
 833 0172 05       		.byte	5
 834 0173 01       		.byte	1
 835 0174 06       		.byte	6
 836 0175 60       		.byte	96
 837 0176 07       		.byte	7
 838 0177 04       		.byte	4
 839 0178 0A       		.byte	10
 840 0179 02       		.byte	2
 841 017a 0D       		.byte	13
 842 017b 88       		.byte	-120
 843 017c 0E       		.byte	14
 844 017d 08       		.byte	8
 845 017e 12       		.byte	18
 846 017f 80       		.byte	-128
 847 0180 17       		.byte	23
 848 0181 19       		.byte	25
 849 0182 18       		.byte	24
 850 0183 01       		.byte	1
 851 0184 19       		.byte	25
 852 0185 05       		.byte	5
 853 0186 1C       		.byte	28
 854 0187 40       		.byte	64
 855 0188 1D       		.byte	29
 856 0189 08       		.byte	8
 857 018a 1E       		.byte	30
 858 018b 05       		.byte	5
 859 018c 1F       		.byte	31
 860 018d 08       		.byte	8
 861 018e 26       		.byte	38
 862 018f 11       		.byte	17
 863 0190 27       		.byte	39
 864 0191 16       		.byte	22
 865 0192 2F       		.byte	47
 866 0193 08       		.byte	8
 867 0194 34       		.byte	52
 868 0195 08       		.byte	8
 869 0196 35       		.byte	53
 870 0197 01       		.byte	1
 871 0198 36       		.byte	54
 872 0199 10       		.byte	16
ARM GAS  C:\Users\mikke\AppData\Local\Temp\cc41sA3P.s 			page 28


 873 019a 37       		.byte	55
 874 019b 40       		.byte	64
 875 019c 3C       		.byte	60
 876 019d 40       		.byte	64
 877 019e 3E       		.byte	62
 878 019f 2A       		.byte	42
 879 01a0 41       		.byte	65
 880 01a1 04       		.byte	4
 881 01a2 44       		.byte	68
 882 01a3 08       		.byte	8
 883 01a4 45       		.byte	69
 884 01a5 80       		.byte	-128
 885 01a6 46       		.byte	70
 886 01a7 40       		.byte	64
 887 01a8 47       		.byte	71
 888 01a9 44       		.byte	68
 889 01aa 49       		.byte	73
 890 01ab 08       		.byte	8
 891 01ac 4D       		.byte	77
 892 01ad 80       		.byte	-128
 893 01ae 50       		.byte	80
 894 01af 08       		.byte	8
 895 01b0 57       		.byte	87
 896 01b1 60       		.byte	96
 897 01b2 5E       		.byte	94
 898 01b3 04       		.byte	4
 899 01b4 6C       		.byte	108
 900 01b5 15       		.byte	21
 901 01b6 76       		.byte	118
 902 01b7 2A       		.byte	42
 903 01b8 77       		.byte	119
 904 01b9 09       		.byte	9
 905 01ba 85       		.byte	-123
 906 01bb 80       		.byte	-128
 907 01bc 86       		.byte	-122
 908 01bd 01       		.byte	1
 909 01be 8C       		.byte	-116
 910 01bf 09       		.byte	9
 911 01c0 8E       		.byte	-114
 912 01c1 04       		.byte	4
 913 01c2 91       		.byte	-111
 914 01c3 08       		.byte	8
 915 01c4 92       		.byte	-110
 916 01c5 02       		.byte	2
 917 01c6 94       		.byte	-108
 918 01c7 2A       		.byte	42
 919 01c8 96       		.byte	-106
 920 01c9 01       		.byte	1
 921 01ca 9D       		.byte	-99
 922 01cb 0C       		.byte	12
 923 01cc 9F       		.byte	-97
 924 01cd 02       		.byte	2
 925 01ce A1       		.byte	-95
 926 01cf 80       		.byte	-128
 927 01d0 A2       		.byte	-94
 928 01d1 80       		.byte	-128
 929 01d2 A4       		.byte	-92
ARM GAS  C:\Users\mikke\AppData\Local\Temp\cc41sA3P.s 			page 29


 930 01d3 08       		.byte	8
 931 01d4 A6       		.byte	-90
 932 01d5 01       		.byte	1
 933 01d6 A7       		.byte	-89
 934 01d7 60       		.byte	96
 935 01d8 A8       		.byte	-88
 936 01d9 20       		.byte	32
 937 01da AB       		.byte	-85
 938 01db 80       		.byte	-128
 939 01dc C0       		.byte	-64
 940 01dd F0       		.byte	-16
 941 01de C2       		.byte	-62
 942 01df E1       		.byte	-31
 943 01e0 C4       		.byte	-60
 944 01e1 78       		.byte	120
 945 01e2 CA       		.byte	-54
 946 01e3 20       		.byte	32
 947 01e4 CC       		.byte	-52
 948 01e5 F0       		.byte	-16
 949 01e6 CE       		.byte	-50
 950 01e7 F0       		.byte	-16
 951 01e8 D0       		.byte	-48
 952 01e9 F2       		.byte	-14
 953 01ea D2       		.byte	-46
 954 01eb 10       		.byte	16
 955 01ec D6       		.byte	-42
 956 01ed 40       		.byte	64
 957 01ee 01       		.byte	1
 958 01ef 08       		.byte	8
 959 01f0 56       		.byte	86
 960 01f1 80       		.byte	-128
 961 01f2 8D       		.byte	-115
 962 01f3 08       		.byte	8
 963 01f4 8E       		.byte	-114
 964 01f5 80       		.byte	-128
 965 01f6 C0       		.byte	-64
 966 01f7 08       		.byte	8
 967 01f8 D4       		.byte	-44
 968 01f9 02       		.byte	2
 969 01fa E2       		.byte	-30
 970 01fb 02       		.byte	2
 971 01fc E4       		.byte	-28
 972 01fd 08       		.byte	8
 973 01fe 10       		.byte	16
 974 01ff 01       		.byte	1
 975 0200 11       		.byte	17
 976 0201 01       		.byte	1
 977 0202 0000     		.space	2
 978              		.type	cy_cfg_addr_table.4864, %object
 979              		.size	cy_cfg_addr_table.4864, 28
 980              	cy_cfg_addr_table.4864:
 981 0204 03000F40 		.word	1074724867
 982 0208 52300F40 		.word	1074737234
 983 020c 3C310F40 		.word	1074737468
 984 0210 17320F40 		.word	1074737687
 985 0214 3F330F40 		.word	1074737983
 986 0218 08430F40 		.word	1074742024
ARM GAS  C:\Users\mikke\AppData\Local\Temp\cc41sA3P.s 			page 30


 987 021c 02600F40 		.word	1074749442
 988              		.type	BS_UDB_0_0_1_CONFIG_VAL.4876, %object
 989              		.size	BS_UDB_0_0_1_CONFIG_VAL.4876, 128
 990              	BS_UDB_0_0_1_CONFIG_VAL.4876:
 991 0220 FF       		.byte	-1
 992 0221 04       		.byte	4
 993 0222 00       		.byte	0
 994 0223 00       		.byte	0
 995 0224 18       		.byte	24
 996 0225 02       		.byte	2
 997 0226 00       		.byte	0
 998 0227 00       		.byte	0
 999 0228 E7       		.byte	-25
 1000 0229 06       		.byte	6
 1001 022a 18       		.byte	24
 1002 022b 00       		.byte	0
 1003 022c 9C       		.byte	-100
 1004 022d 07       		.byte	7
 1005 022e 61       		.byte	97
 1006 022f 30       		.byte	48
 1007 0230 00       		.byte	0
 1008 0231 37       		.byte	55
 1009 0232 00       		.byte	0
 1010 0233 00       		.byte	0
 1011 0234 BC       		.byte	-68
 1012 0235 11       		.byte	17
 1013 0236 42       		.byte	66
 1014 0237 08       		.byte	8
 1015 0238 04       		.byte	4
 1016 0239 31       		.byte	49
 1017 023a 00       		.byte	0
 1018 023b 06       		.byte	6
 1019 023c 00       		.byte	0
 1020 023d 00       		.byte	0
 1021 023e 63       		.byte	99
 1022 023f 11       		.byte	17
 1023 0240 10       		.byte	16
 1024 0241 00       		.byte	0
 1025 0242 00       		.byte	0
 1026 0243 00       		.byte	0
 1027 0244 08       		.byte	8
 1028 0245 00       		.byte	0
 1029 0246 00       		.byte	0
 1030 0247 00       		.byte	0
 1031 0248 00       		.byte	0
 1032 0249 06       		.byte	6
 1033 024a 04       		.byte	4
 1034 024b 31       		.byte	49
 1035 024c 00       		.byte	0
 1036 024d 00       		.byte	0
 1037 024e 00       		.byte	0
 1038 024f 00       		.byte	0
 1039 0250 58       		.byte	88
 1040 0251 20       		.byte	32
 1041 0252 1F       		.byte	31
 1042 0253 08       		.byte	8
 1043 0254 80       		.byte	-128
ARM GAS  C:\Users\mikke\AppData\Local\Temp\cc41sA3P.s 			page 31


 1044 0255 07       		.byte	7
 1045 0256 38       		.byte	56
 1046 0257 10       		.byte	16
 1047 0258 00       		.byte	0
 1048 0259 02       		.byte	2
 1049 025a 0A       		.byte	10
 1050 025b 20       		.byte	32
 1051 025c 00       		.byte	0
 1052 025d 00       		.byte	0
 1053 025e 10       		.byte	16
 1054 025f 00       		.byte	0
 1055 0260 31       		.byte	49
 1056 0261 04       		.byte	4
 1057 0262 05       		.byte	5
 1058 0263 00       		.byte	0
 1059 0264 02       		.byte	2
 1060 0265 00       		.byte	0
 1061 0266 EC       		.byte	-20
 1062 0267 00       		.byte	0
 1063 0268 0C       		.byte	12
 1064 0269 FF       		.byte	-1
 1065 026a FF       		.byte	-1
 1066 026b FF       		.byte	-1
 1067 026c 62       		.byte	98
 1068 026d A0       		.byte	-96
 1069 026e F0       		.byte	-16
 1070 026f 41       		.byte	65
 1071 0270 0C       		.byte	12
 1072 0271 00       		.byte	0
 1073 0272 00       		.byte	0
 1074 0273 00       		.byte	0
 1075 0274 00       		.byte	0
 1076 0275 00       		.byte	0
 1077 0276 02       		.byte	2
 1078 0277 12       		.byte	18
 1079 0278 04       		.byte	4
 1080 0279 04       		.byte	4
 1081 027a 04       		.byte	4
 1082 027b 04       		.byte	4
 1083 027c 00       		.byte	0
 1084 027d 00       		.byte	0
 1085 027e 00       		.byte	0
 1086 027f 01       		.byte	1
 1087 0280 00       		.byte	0
 1088 0281 00       		.byte	0
 1089 0282 00       		.byte	0
 1090 0283 00       		.byte	0
 1091 0284 00       		.byte	0
 1092 0285 00       		.byte	0
 1093 0286 40       		.byte	64
 1094 0287 02       		.byte	2
 1095 0288 00       		.byte	0
 1096 0289 10       		.byte	16
 1097 028a 30       		.byte	48
 1098 028b 10       		.byte	16
 1099 028c 00       		.byte	0
 1100 028d 10       		.byte	16
ARM GAS  C:\Users\mikke\AppData\Local\Temp\cc41sA3P.s 			page 32


 1101 028e 10       		.byte	16
 1102 028f 12       		.byte	18
 1103 0290 00       		.byte	0
 1104 0291 00       		.byte	0
 1105 0292 00       		.byte	0
 1106 0293 00       		.byte	0
 1107 0294 00       		.byte	0
 1108 0295 00       		.byte	0
 1109 0296 00       		.byte	0
 1110 0297 00       		.byte	0
 1111 0298 00       		.byte	0
 1112 0299 00       		.byte	0
 1113 029a 00       		.byte	0
 1114 029b 00       		.byte	0
 1115 029c 00       		.byte	0
 1116 029d 00       		.byte	0
 1117 029e 00       		.byte	0
 1118 029f 00       		.byte	0
 1119              		.text
 1120              	.Letext0:
 1121              		.file 2 "c:\\program files (x86)\\cypress\\psoc creator\\4.2\\psoc creator\\import\\gnu\\arm\\5.4.
 1122              		.file 3 "Generated_Source\\PSoC4\\cytypes.h"
 1123              		.file 4 "Generated_Source\\PSoC4\\CyLib.h"