ARM GAS  C:\Users\mikke\AppData\Local\Temp\ccdqBzKj.s 			page 1


   1              		.syntax unified
   2              		.cpu cortex-m0
   3              		.fpu softvfp
   4              		.eabi_attribute 20, 1
   5              		.eabi_attribute 21, 1
   6              		.eabi_attribute 23, 3
   7              		.eabi_attribute 24, 1
   8              		.eabi_attribute 25, 1
   9              		.eabi_attribute 26, 1
  10              		.eabi_attribute 30, 1
  11              		.eabi_attribute 34, 0
  12              		.eabi_attribute 18, 4
  13              		.thumb
  14              		.syntax unified
  15              		.file	"nRF24_FUNCS.c"
  16              		.text
  17              	.Ltext0:
  18              		.cfi_sections	.debug_frame
  19              		.section	.text._addr_width_conf_to_bytes,"ax",%progbits
  20              		.align	2
  21              		.code	16
  22              		.thumb_func
  23              		.type	_addr_width_conf_to_bytes, %function
  24              	_addr_width_conf_to_bytes:
  25              	.LFB0:
  26              		.file 1 "Generated_Source\\PSoC4\\nRF24_FUNCS.c"
   1:Generated_Source\PSoC4/nRF24_FUNCS.c **** /****************************************************************************
   2:Generated_Source\PSoC4/nRF24_FUNCS.c **** * This file is part of the nRF24 Custom Component for PSoC Devices.
   3:Generated_Source\PSoC4/nRF24_FUNCS.c **** *
   4:Generated_Source\PSoC4/nRF24_FUNCS.c **** * Copyright (C) 2017 Carlos Diaz <carlos.santiago.diaz@gmail.com>
   5:Generated_Source\PSoC4/nRF24_FUNCS.c **** *
   6:Generated_Source\PSoC4/nRF24_FUNCS.c **** * Permission to use, copy, modify, and/or distribute this software for any
   7:Generated_Source\PSoC4/nRF24_FUNCS.c **** * purpose with or without fee is hereby granted, provided that the above
   8:Generated_Source\PSoC4/nRF24_FUNCS.c **** * copyright notice and this permission notice appear in all copies.
   9:Generated_Source\PSoC4/nRF24_FUNCS.c **** *
  10:Generated_Source\PSoC4/nRF24_FUNCS.c **** * THE SOFTWARE IS PROVIDED "AS IS" AND THE AUTHOR DISCLAIMS ALL WARRANTIES
  11:Generated_Source\PSoC4/nRF24_FUNCS.c **** * WITH REGARD TO THIS SOFTWARE INCLUDING ALL IMPLIED WARRANTIES OF
  12:Generated_Source\PSoC4/nRF24_FUNCS.c **** * MERCHANTABILITY AND FITNESS. IN NO EVENT SHALL THE AUTHOR BE LIABLE FOR
  13:Generated_Source\PSoC4/nRF24_FUNCS.c **** * ANY SPECIAL, DIRECT, INDIRECT, OR CONSEQUENTIAL DAMAGES OR ANY DAMAGES
  14:Generated_Source\PSoC4/nRF24_FUNCS.c **** * WHATSOEVER RESULTING FROM LOSS OF USE, DATA OR PROFITS, WHETHER IN AN
  15:Generated_Source\PSoC4/nRF24_FUNCS.c **** * ACTION OF CONTRACT, NEGLIGENCE OR OTHER TORTIOUS ACTION, ARISING OUT OF
  16:Generated_Source\PSoC4/nRF24_FUNCS.c **** * OR IN CONNECTION WITH THE USE OR PERFORMANCE OF THIS SOFTWARE.
  17:Generated_Source\PSoC4/nRF24_FUNCS.c **** ****************************************************************************/
  18:Generated_Source\PSoC4/nRF24_FUNCS.c **** 
  19:Generated_Source\PSoC4/nRF24_FUNCS.c **** /**
  20:Generated_Source\PSoC4/nRF24_FUNCS.c **** * @file nRF24_NRF_FUNCS.c
  21:Generated_Source\PSoC4/nRF24_FUNCS.c **** *
  22:Generated_Source\PSoC4/nRF24_FUNCS.c **** * @brief This file define all the functions available to the user.
  23:Generated_Source\PSoC4/nRF24_FUNCS.c **** */
  24:Generated_Source\PSoC4/nRF24_FUNCS.c **** 
  25:Generated_Source\PSoC4/nRF24_FUNCS.c **** #include "nRF24_CONFIG.h"
  26:Generated_Source\PSoC4/nRF24_FUNCS.c **** #include "nRF24_HAL.h"
  27:Generated_Source\PSoC4/nRF24_FUNCS.c **** #include "nRF24_COMMANDS.h"
  28:Generated_Source\PSoC4/nRF24_FUNCS.c **** #include "nRF24_FUNCS.h"
  29:Generated_Source\PSoC4/nRF24_FUNCS.c **** #include "nRF24_DEFS.h"
  30:Generated_Source\PSoC4/nRF24_FUNCS.c **** 
  31:Generated_Source\PSoC4/nRF24_FUNCS.c **** /* "Helper" global variables */
ARM GAS  C:\Users\mikke\AppData\Local\Temp\ccdqBzKj.s 			page 2


  32:Generated_Source\PSoC4/nRF24_FUNCS.c **** /* _nrf_addr_width expresed in bytes, declared with the default value */
  33:Generated_Source\PSoC4/nRF24_FUNCS.c **** static nrf_pipe_addr_width _nrf_addr_width = NRF_PIPE_ADDR_WIDTH_5BYTES;
  34:Generated_Source\PSoC4/nRF24_FUNCS.c **** 
  35:Generated_Source\PSoC4/nRF24_FUNCS.c **** static void
  36:Generated_Source\PSoC4/nRF24_FUNCS.c **** _addr_width_conf_to_bytes(nrf_addr_width addr_width)
  37:Generated_Source\PSoC4/nRF24_FUNCS.c **** {
  27              		.loc 1 37 0
  28              		.cfi_startproc
  29              		@ args = 0, pretend = 0, frame = 0
  30              		@ frame_needed = 0, uses_anonymous_args = 0
  31              		@ link register save eliminated.
  32              	.LVL0:
  38:Generated_Source\PSoC4/nRF24_FUNCS.c ****     switch(addr_width)
  33              		.loc 1 38 0
  34 0000 0228     		cmp	r0, #2
  35 0002 07D0     		beq	.L3
  36 0004 0328     		cmp	r0, #3
  37 0006 09D0     		beq	.L4
  38 0008 0128     		cmp	r0, #1
  39 000a 0AD1     		bne	.L1
  39:Generated_Source\PSoC4/nRF24_FUNCS.c ****     {
  40:Generated_Source\PSoC4/nRF24_FUNCS.c ****     case NRF_SETUP_AW_3BYTES:
  41:Generated_Source\PSoC4/nRF24_FUNCS.c ****         _nrf_addr_width = NRF_PIPE_ADDR_WIDTH_3BYTES;
  40              		.loc 1 41 0
  41 000c 0322     		movs	r2, #3
  42 000e 054B     		ldr	r3, .L6
  43 0010 1A70     		strb	r2, [r3]
  42:Generated_Source\PSoC4/nRF24_FUNCS.c ****         break;
  44              		.loc 1 42 0
  45 0012 06E0     		b	.L1
  46              	.L3:
  43:Generated_Source\PSoC4/nRF24_FUNCS.c ****     case NRF_SETUP_AW_4BYTES:
  44:Generated_Source\PSoC4/nRF24_FUNCS.c ****         _nrf_addr_width = NRF_PIPE_ADDR_WIDTH_4BYTES;
  47              		.loc 1 44 0
  48 0014 0422     		movs	r2, #4
  49 0016 034B     		ldr	r3, .L6
  50 0018 1A70     		strb	r2, [r3]
  45:Generated_Source\PSoC4/nRF24_FUNCS.c ****         break;
  51              		.loc 1 45 0
  52 001a 02E0     		b	.L1
  53              	.L4:
  46:Generated_Source\PSoC4/nRF24_FUNCS.c ****     case NRF_SETUP_AW_5BYTES:
  47:Generated_Source\PSoC4/nRF24_FUNCS.c ****         _nrf_addr_width = NRF_PIPE_ADDR_WIDTH_5BYTES;
  54              		.loc 1 47 0
  55 001c 0522     		movs	r2, #5
  56 001e 014B     		ldr	r3, .L6
  57 0020 1A70     		strb	r2, [r3]
  58              	.L1:
  48:Generated_Source\PSoC4/nRF24_FUNCS.c ****         break;
  49:Generated_Source\PSoC4/nRF24_FUNCS.c ****     }
  50:Generated_Source\PSoC4/nRF24_FUNCS.c **** }
  59              		.loc 1 50 0
  60              		@ sp needed
  61 0022 7047     		bx	lr
  62              	.L7:
  63              		.align	2
  64              	.L6:
ARM GAS  C:\Users\mikke\AppData\Local\Temp\ccdqBzKj.s 			page 3


  65 0024 00000000 		.word	.LANCHOR0
  66              		.cfi_endproc
  67              	.LFE0:
  68              		.size	_addr_width_conf_to_bytes, .-_addr_width_conf_to_bytes
  69              		.section	.text.nRF24_init,"ax",%progbits
  70              		.align	2
  71              		.global	nRF24_init
  72              		.code	16
  73              		.thumb_func
  74              		.type	nRF24_init, %function
  75              	nRF24_init:
  76              	.LFB2:
  51:Generated_Source\PSoC4/nRF24_FUNCS.c **** 
  52:Generated_Source\PSoC4/nRF24_FUNCS.c **** /**
  53:Generated_Source\PSoC4/nRF24_FUNCS.c ****  * @brief Configure the radio and clear IRQs, TX and RX FIFOs.
  54:Generated_Source\PSoC4/nRF24_FUNCS.c ****  */
  55:Generated_Source\PSoC4/nRF24_FUNCS.c **** void nRF24_start(void)
  56:Generated_Source\PSoC4/nRF24_FUNCS.c **** {
  57:Generated_Source\PSoC4/nRF24_FUNCS.c ****     // Recommended delay before start using the nRF24
  58:Generated_Source\PSoC4/nRF24_FUNCS.c ****     CyDelay(NRF_POWER_UP_DELAY_MS);
  59:Generated_Source\PSoC4/nRF24_FUNCS.c **** 
  60:Generated_Source\PSoC4/nRF24_FUNCS.c ****     // Now the radio is in Power Down mode
  61:Generated_Source\PSoC4/nRF24_FUNCS.c **** 
  62:Generated_Source\PSoC4/nRF24_FUNCS.c **** #if defined (_PSOC6)
  63:Generated_Source\PSoC4/nRF24_FUNCS.c ****     /* We are using the low level driver, so pass NULL to the context */
  64:Generated_Source\PSoC4/nRF24_FUNCS.c ****     (void) Cy_SCB_SPI_Init(SPI_HW, &SPI_config, NULL);
  65:Generated_Source\PSoC4/nRF24_FUNCS.c ****     Cy_SCB_SPI_Enable(SPI_HW);
  66:Generated_Source\PSoC4/nRF24_FUNCS.c **** #else // _PSoC4_SCB and _PSOC_UDB
  67:Generated_Source\PSoC4/nRF24_FUNCS.c ****     SPI_Start();
  68:Generated_Source\PSoC4/nRF24_FUNCS.c **** #endif
  69:Generated_Source\PSoC4/nRF24_FUNCS.c ****     nRF24_ss_write(GPIO_SET);
  70:Generated_Source\PSoC4/nRF24_FUNCS.c ****     nRF24_ce_write(GPIO_CLEAR);
  71:Generated_Source\PSoC4/nRF24_FUNCS.c **** 
  72:Generated_Source\PSoC4/nRF24_FUNCS.c ****     // Flush both nRF24 FIFOs
  73:Generated_Source\PSoC4/nRF24_FUNCS.c ****     nRF24_flush_rx_cmd();
  74:Generated_Source\PSoC4/nRF24_FUNCS.c ****     nRF24_flush_tx_cmd();
  75:Generated_Source\PSoC4/nRF24_FUNCS.c ****     // Clear IRQ flags
  76:Generated_Source\PSoC4/nRF24_FUNCS.c ****     nRF24_clear_all_irqs();
  77:Generated_Source\PSoC4/nRF24_FUNCS.c **** 
  78:Generated_Source\PSoC4/nRF24_FUNCS.c ****     // Configure the nRF24 with the data from the customizer
  79:Generated_Source\PSoC4/nRF24_FUNCS.c ****     nRF24_init();
  80:Generated_Source\PSoC4/nRF24_FUNCS.c **** 
  81:Generated_Source\PSoC4/nRF24_FUNCS.c ****     // After PWR_UP = 1 the radio is in Standby-I mode, 130us of delay for settling
  82:Generated_Source\PSoC4/nRF24_FUNCS.c ****     CyDelayUs(150);
  83:Generated_Source\PSoC4/nRF24_FUNCS.c **** }
  84:Generated_Source\PSoC4/nRF24_FUNCS.c **** 
  85:Generated_Source\PSoC4/nRF24_FUNCS.c **** /**
  86:Generated_Source\PSoC4/nRF24_FUNCS.c ****  * Configure the nRF radio with the data from the customizer.
  87:Generated_Source\PSoC4/nRF24_FUNCS.c ****  */
  88:Generated_Source\PSoC4/nRF24_FUNCS.c **** void nRF24_init(void)
  89:Generated_Source\PSoC4/nRF24_FUNCS.c **** {
  77              		.loc 1 89 0
  78              		.cfi_startproc
  79              		@ args = 0, pretend = 0, frame = 0
  80              		@ frame_needed = 0, uses_anonymous_args = 0
  81 0000 10B5     		push	{r4, lr}
  82              		.cfi_def_cfa_offset 8
ARM GAS  C:\Users\mikke\AppData\Local\Temp\ccdqBzKj.s 			page 4


  83              		.cfi_offset 4, -8
  84              		.cfi_offset 14, -4
  90:Generated_Source\PSoC4/nRF24_FUNCS.c ****     nRF24_write_register(NRF_REG_EN_AA, CUSTOMIZER_EN_AA);
  85              		.loc 1 90 0
  86 0002 0121     		movs	r1, #1
  87 0004 0120     		movs	r0, #1
  88 0006 FFF7FEFF 		bl	nRF24_write_register
  89              	.LVL1:
  91:Generated_Source\PSoC4/nRF24_FUNCS.c ****     nRF24_write_register(NRF_REG_EN_RXADDR, CUSTOMIZER_EN_RXADDR);
  90              		.loc 1 91 0
  91 000a 0121     		movs	r1, #1
  92 000c 0220     		movs	r0, #2
  93 000e FFF7FEFF 		bl	nRF24_write_register
  94              	.LVL2:
  92:Generated_Source\PSoC4/nRF24_FUNCS.c ****     nRF24_write_register(NRF_REG_SETUP_AW, CUSTOMIZER_SETUP_AW);
  95              		.loc 1 92 0
  96 0012 0321     		movs	r1, #3
  97 0014 0320     		movs	r0, #3
  98 0016 FFF7FEFF 		bl	nRF24_write_register
  99              	.LVL3:
  93:Generated_Source\PSoC4/nRF24_FUNCS.c ****     nRF24_write_register(NRF_REG_SETUP_RETR, CUSTOMIZER_SETUP_RETR);
 100              		.loc 1 93 0
 101 001a FF21     		movs	r1, #255
 102 001c 0420     		movs	r0, #4
 103 001e FFF7FEFF 		bl	nRF24_write_register
 104              	.LVL4:
  94:Generated_Source\PSoC4/nRF24_FUNCS.c ****     nRF24_write_register(NRF_REG_RF_CH, CUSTOMIZER_RF_CH);
 105              		.loc 1 94 0
 106 0022 4B21     		movs	r1, #75
 107 0024 0520     		movs	r0, #5
 108 0026 FFF7FEFF 		bl	nRF24_write_register
 109              	.LVL5:
  95:Generated_Source\PSoC4/nRF24_FUNCS.c ****     nRF24_write_register(NRF_REG_RF_SETUP, CUSTOMIZER_RF_SETUP);
 110              		.loc 1 95 0
 111 002a 2621     		movs	r1, #38
 112 002c 0620     		movs	r0, #6
 113 002e FFF7FEFF 		bl	nRF24_write_register
 114              	.LVL6:
  96:Generated_Source\PSoC4/nRF24_FUNCS.c ****     nRF24_write_register(NRF_REG_DYNPD, CUSTOMIZER_DYNPD);
 115              		.loc 1 96 0
 116 0032 0021     		movs	r1, #0
 117 0034 1C20     		movs	r0, #28
 118 0036 FFF7FEFF 		bl	nRF24_write_register
 119              	.LVL7:
  97:Generated_Source\PSoC4/nRF24_FUNCS.c ****     nRF24_write_register(NRF_REG_FEATURE, CUSTOMIZER_FEATURE);
 120              		.loc 1 97 0
 121 003a 0021     		movs	r1, #0
 122 003c 1D20     		movs	r0, #29
 123 003e FFF7FEFF 		bl	nRF24_write_register
 124              	.LVL8:
  98:Generated_Source\PSoC4/nRF24_FUNCS.c **** 
  99:Generated_Source\PSoC4/nRF24_FUNCS.c **** // Configuring data pipes
 100:Generated_Source\PSoC4/nRF24_FUNCS.c **** #if (ENABLE_PIPE0 == 1)
 101:Generated_Source\PSoC4/nRF24_FUNCS.c ****     nRF24_write_register(NRF_REG_RX_PW_P0, CUSTOMIZER_RX_PW_P0);
 125              		.loc 1 101 0
 126 0042 0121     		movs	r1, #1
 127 0044 1120     		movs	r0, #17
ARM GAS  C:\Users\mikke\AppData\Local\Temp\ccdqBzKj.s 			page 5


 128 0046 FFF7FEFF 		bl	nRF24_write_register
 129              	.LVL9:
 102:Generated_Source\PSoC4/nRF24_FUNCS.c **** #endif
 103:Generated_Source\PSoC4/nRF24_FUNCS.c **** #if (ENABLE_PIPE1 == 1)
 104:Generated_Source\PSoC4/nRF24_FUNCS.c ****     nRF24_write_register(NRF_REG_RX_PW_P1, CUSTOMIZER_RX_PW_P1);
 105:Generated_Source\PSoC4/nRF24_FUNCS.c **** #endif
 106:Generated_Source\PSoC4/nRF24_FUNCS.c **** #if (ENABLE_PIPE2 == 1)
 107:Generated_Source\PSoC4/nRF24_FUNCS.c ****     nRF24_write_register(NRF_REG_RX_ADDR_P2, CUSTOMIZER_RX_ADDR_P2);
 108:Generated_Source\PSoC4/nRF24_FUNCS.c ****     nRF24_write_register(NRF_REG_RX_PW_P2, CUSTOMIZER_RX_PW_P2);
 109:Generated_Source\PSoC4/nRF24_FUNCS.c **** #endif
 110:Generated_Source\PSoC4/nRF24_FUNCS.c **** #if (ENABLE_PIPE3 == 1)
 111:Generated_Source\PSoC4/nRF24_FUNCS.c ****     nRF24_write_register(NRF_REG_RX_ADDR_P3, CUSTOMIZER_RX_ADDR_P3);
 112:Generated_Source\PSoC4/nRF24_FUNCS.c ****     nRF24_write_register(NRF_REG_RX_PW_P3, CUSTOMIZER_RX_PW_P3);
 113:Generated_Source\PSoC4/nRF24_FUNCS.c **** #endif
 114:Generated_Source\PSoC4/nRF24_FUNCS.c **** #if (ENABLE_PIPE4 == 1)
 115:Generated_Source\PSoC4/nRF24_FUNCS.c ****     nRF24_write_register(NRF_REG_RX_ADDR_P4, CUSTOMIZER_RX_ADDR_P4);
 116:Generated_Source\PSoC4/nRF24_FUNCS.c ****     nRF24_write_register(NRF_REG_RX_PW_P4, CUSTOMIZER_RX_PW_P4);
 117:Generated_Source\PSoC4/nRF24_FUNCS.c **** #endif
 118:Generated_Source\PSoC4/nRF24_FUNCS.c **** #if (ENABLE_PIPE5 == 1)
 119:Generated_Source\PSoC4/nRF24_FUNCS.c ****     nRF24_write_register(NRF_REG_RX_ADDR_P5, CUSTOMIZER_RX_ADDR_P5);
 120:Generated_Source\PSoC4/nRF24_FUNCS.c ****     nRF24_write_register(NRF_REG_RX_PW_P5, CUSTOMIZER_RX_PW_P5);
 121:Generated_Source\PSoC4/nRF24_FUNCS.c **** #endif
 122:Generated_Source\PSoC4/nRF24_FUNCS.c **** 
 123:Generated_Source\PSoC4/nRF24_FUNCS.c ****     nRF24_write_register(NRF_REG_CONFIG, CUSTOMIZER_CONFIG);
 130              		.loc 1 123 0
 131 004a 4A21     		movs	r1, #74
 132 004c 0020     		movs	r0, #0
 133 004e FFF7FEFF 		bl	nRF24_write_register
 134              	.LVL10:
 124:Generated_Source\PSoC4/nRF24_FUNCS.c **** 
 125:Generated_Source\PSoC4/nRF24_FUNCS.c ****     // Set the _nrf_addr_width variable
 126:Generated_Source\PSoC4/nRF24_FUNCS.c ****     _addr_width_conf_to_bytes(CUSTOMIZER_SETUP_AW);
 135              		.loc 1 126 0
 136 0052 0320     		movs	r0, #3
 137 0054 FFF7FEFF 		bl	_addr_width_conf_to_bytes
 138              	.LVL11:
 127:Generated_Source\PSoC4/nRF24_FUNCS.c **** }
 139              		.loc 1 127 0
 140              		@ sp needed
 141 0058 10BD     		pop	{r4, pc}
 142              		.cfi_endproc
 143              	.LFE2:
 144              		.size	nRF24_init, .-nRF24_init
 145 005a C046     		.section	.text.nRF24_enable,"ax",%progbits
 146              		.align	2
 147              		.global	nRF24_enable
 148              		.code	16
 149              		.thumb_func
 150              		.type	nRF24_enable, %function
 151              	nRF24_enable:
 152              	.LFB3:
 128:Generated_Source\PSoC4/nRF24_FUNCS.c **** 
 129:Generated_Source\PSoC4/nRF24_FUNCS.c **** /**
 130:Generated_Source\PSoC4/nRF24_FUNCS.c ****  * Enable the nRF24 radio.
 131:Generated_Source\PSoC4/nRF24_FUNCS.c ****  *
 132:Generated_Source\PSoC4/nRF24_FUNCS.c ****  * @todo Implement this function
 133:Generated_Source\PSoC4/nRF24_FUNCS.c ****  */
ARM GAS  C:\Users\mikke\AppData\Local\Temp\ccdqBzKj.s 			page 6


 134:Generated_Source\PSoC4/nRF24_FUNCS.c **** void nRF24_enable(void)
 135:Generated_Source\PSoC4/nRF24_FUNCS.c **** {
 153              		.loc 1 135 0
 154              		.cfi_startproc
 155              		@ args = 0, pretend = 0, frame = 0
 156              		@ frame_needed = 0, uses_anonymous_args = 0
 157              		@ link register save eliminated.
 136:Generated_Source\PSoC4/nRF24_FUNCS.c **** }
 158              		.loc 1 136 0
 159              		@ sp needed
 160 0000 7047     		bx	lr
 161              		.cfi_endproc
 162              	.LFE3:
 163              		.size	nRF24_enable, .-nRF24_enable
 164 0002 C046     		.section	.text.nRF24_stop,"ax",%progbits
 165              		.align	2
 166              		.global	nRF24_stop
 167              		.code	16
 168              		.thumb_func
 169              		.type	nRF24_stop, %function
 170              	nRF24_stop:
 171              	.LFB4:
 137:Generated_Source\PSoC4/nRF24_FUNCS.c **** 
 138:Generated_Source\PSoC4/nRF24_FUNCS.c **** /**
 139:Generated_Source\PSoC4/nRF24_FUNCS.c ****  * Stop the nRF24 radio.
 140:Generated_Source\PSoC4/nRF24_FUNCS.c ****  *
 141:Generated_Source\PSoC4/nRF24_FUNCS.c ****  * @todo Implement this function
 142:Generated_Source\PSoC4/nRF24_FUNCS.c ****  */
 143:Generated_Source\PSoC4/nRF24_FUNCS.c **** void nRF24_stop(void)
 144:Generated_Source\PSoC4/nRF24_FUNCS.c **** {
 172              		.loc 1 144 0
 173              		.cfi_startproc
 174              		@ args = 0, pretend = 0, frame = 0
 175              		@ frame_needed = 0, uses_anonymous_args = 0
 176              		@ link register save eliminated.
 145:Generated_Source\PSoC4/nRF24_FUNCS.c **** }
 177              		.loc 1 145 0
 178              		@ sp needed
 179 0000 7047     		bx	lr
 180              		.cfi_endproc
 181              	.LFE4:
 182              		.size	nRF24_stop, .-nRF24_stop
 183 0002 C046     		.section	.text.nRF24_wakeup,"ax",%progbits
 184              		.align	2
 185              		.global	nRF24_wakeup
 186              		.code	16
 187              		.thumb_func
 188              		.type	nRF24_wakeup, %function
 189              	nRF24_wakeup:
 190              	.LFB6:
 146:Generated_Source\PSoC4/nRF24_FUNCS.c **** 
 147:Generated_Source\PSoC4/nRF24_FUNCS.c **** /**
 148:Generated_Source\PSoC4/nRF24_FUNCS.c ****  * Put the nRF24 radio on Standby-I mode.
 149:Generated_Source\PSoC4/nRF24_FUNCS.c ****  * This function doesn't put the SPI, MCU nor pins to sleep
 150:Generated_Source\PSoC4/nRF24_FUNCS.c ****  */
 151:Generated_Source\PSoC4/nRF24_FUNCS.c **** void nRF24_sleep(void)
 152:Generated_Source\PSoC4/nRF24_FUNCS.c **** {
ARM GAS  C:\Users\mikke\AppData\Local\Temp\ccdqBzKj.s 			page 7


 153:Generated_Source\PSoC4/nRF24_FUNCS.c ****     // is standby.I the lowest power mode?
 154:Generated_Source\PSoC4/nRF24_FUNCS.c ****     nRF24_set_standby_i_mode();
 155:Generated_Source\PSoC4/nRF24_FUNCS.c **** }
 156:Generated_Source\PSoC4/nRF24_FUNCS.c **** 
 157:Generated_Source\PSoC4/nRF24_FUNCS.c **** /**
 158:Generated_Source\PSoC4/nRF24_FUNCS.c ****  * Wakeup the nRF24 radio, and restore the configuration.
 159:Generated_Source\PSoC4/nRF24_FUNCS.c ****  *
 160:Generated_Source\PSoC4/nRF24_FUNCS.c ****  * @todo Implement this function.
 161:Generated_Source\PSoC4/nRF24_FUNCS.c ****  */
 162:Generated_Source\PSoC4/nRF24_FUNCS.c **** void nRF24_wakeup(void)
 163:Generated_Source\PSoC4/nRF24_FUNCS.c **** {
 191              		.loc 1 163 0
 192              		.cfi_startproc
 193              		@ args = 0, pretend = 0, frame = 0
 194              		@ frame_needed = 0, uses_anonymous_args = 0
 195 0000 10B5     		push	{r4, lr}
 196              		.cfi_def_cfa_offset 8
 197              		.cfi_offset 4, -8
 198              		.cfi_offset 14, -4
 164:Generated_Source\PSoC4/nRF24_FUNCS.c ****     // after leaving standby-I mode the radio need a time to
 165:Generated_Source\PSoC4/nRF24_FUNCS.c ****     // return to TX or RX Mode
 166:Generated_Source\PSoC4/nRF24_FUNCS.c ****     nRF24_set_bit(NRF_REG_CONFIG, NRF_CONFIG_PWR_UP);
 199              		.loc 1 166 0
 200 0002 0221     		movs	r1, #2
 201 0004 0020     		movs	r0, #0
 202 0006 FFF7FEFF 		bl	nRF24_set_bit
 203              	.LVL12:
 167:Generated_Source\PSoC4/nRF24_FUNCS.c ****     CyDelay(5);
 204              		.loc 1 167 0
 205 000a 0520     		movs	r0, #5
 206 000c FFF7FEFF 		bl	CyDelay
 207              	.LVL13:
 168:Generated_Source\PSoC4/nRF24_FUNCS.c **** }
 208              		.loc 1 168 0
 209              		@ sp needed
 210 0010 10BD     		pop	{r4, pc}
 211              		.cfi_endproc
 212              	.LFE6:
 213              		.size	nRF24_wakeup, .-nRF24_wakeup
 214 0012 C046     		.section	.text.nRF24_save_config,"ax",%progbits
 215              		.align	2
 216              		.global	nRF24_save_config
 217              		.code	16
 218              		.thumb_func
 219              		.type	nRF24_save_config, %function
 220              	nRF24_save_config:
 221              	.LFB7:
 169:Generated_Source\PSoC4/nRF24_FUNCS.c **** 
 170:Generated_Source\PSoC4/nRF24_FUNCS.c **** /**
 171:Generated_Source\PSoC4/nRF24_FUNCS.c ****  * Save the nRF24 radio configuration.
 172:Generated_Source\PSoC4/nRF24_FUNCS.c ****  *
 173:Generated_Source\PSoC4/nRF24_FUNCS.c ****  * @todo Implement this function.
 174:Generated_Source\PSoC4/nRF24_FUNCS.c ****  */
 175:Generated_Source\PSoC4/nRF24_FUNCS.c **** void nRF24_save_config(void)
 176:Generated_Source\PSoC4/nRF24_FUNCS.c **** {
 222              		.loc 1 176 0
 223              		.cfi_startproc
ARM GAS  C:\Users\mikke\AppData\Local\Temp\ccdqBzKj.s 			page 8


 224              		@ args = 0, pretend = 0, frame = 0
 225              		@ frame_needed = 0, uses_anonymous_args = 0
 226              		@ link register save eliminated.
 177:Generated_Source\PSoC4/nRF24_FUNCS.c **** }
 227              		.loc 1 177 0
 228              		@ sp needed
 229 0000 7047     		bx	lr
 230              		.cfi_endproc
 231              	.LFE7:
 232              		.size	nRF24_save_config, .-nRF24_save_config
 233 0002 C046     		.section	.text.nRF24_restore_config,"ax",%progbits
 234              		.align	2
 235              		.global	nRF24_restore_config
 236              		.code	16
 237              		.thumb_func
 238              		.type	nRF24_restore_config, %function
 239              	nRF24_restore_config:
 240              	.LFB8:
 178:Generated_Source\PSoC4/nRF24_FUNCS.c **** 
 179:Generated_Source\PSoC4/nRF24_FUNCS.c **** /**
 180:Generated_Source\PSoC4/nRF24_FUNCS.c ****  * Restore the nRF24 radio configuration.
 181:Generated_Source\PSoC4/nRF24_FUNCS.c ****  *
 182:Generated_Source\PSoC4/nRF24_FUNCS.c ****  * @todo Implement this function.
 183:Generated_Source\PSoC4/nRF24_FUNCS.c ****  */
 184:Generated_Source\PSoC4/nRF24_FUNCS.c **** void nRF24_restore_config(void)
 185:Generated_Source\PSoC4/nRF24_FUNCS.c **** {
 241              		.loc 1 185 0
 242              		.cfi_startproc
 243              		@ args = 0, pretend = 0, frame = 0
 244              		@ frame_needed = 0, uses_anonymous_args = 0
 245              		@ link register save eliminated.
 186:Generated_Source\PSoC4/nRF24_FUNCS.c **** }
 246              		.loc 1 186 0
 247              		@ sp needed
 248 0000 7047     		bx	lr
 249              		.cfi_endproc
 250              	.LFE8:
 251              		.size	nRF24_restore_config, .-nRF24_restore_config
 252 0002 C046     		.section	.text.nRF24_set_power_down_mode,"ax",%progbits
 253              		.align	2
 254              		.global	nRF24_set_power_down_mode
 255              		.code	16
 256              		.thumb_func
 257              		.type	nRF24_set_power_down_mode, %function
 258              	nRF24_set_power_down_mode:
 259              	.LFB10:
 187:Generated_Source\PSoC4/nRF24_FUNCS.c **** 
 188:Generated_Source\PSoC4/nRF24_FUNCS.c **** /**
 189:Generated_Source\PSoC4/nRF24_FUNCS.c ****  * Configure the radio as Receiver or Transmitter.
 190:Generated_Source\PSoC4/nRF24_FUNCS.c ****  *
 191:Generated_Source\PSoC4/nRF24_FUNCS.c ****  * @param const nrf_mode mode: The radio can be configured as Receiver (PRX)
 192:Generated_Source\PSoC4/nRF24_FUNCS.c ****  * or Transmitter (PTX).
 193:Generated_Source\PSoC4/nRF24_FUNCS.c ****  */
 194:Generated_Source\PSoC4/nRF24_FUNCS.c **** void nRF24_set_mode(const nrf_mode mode)
 195:Generated_Source\PSoC4/nRF24_FUNCS.c **** {
 196:Generated_Source\PSoC4/nRF24_FUNCS.c ****     mode ? nRF24_set_rx_mode() : nRF24_set_tx_mode();
 197:Generated_Source\PSoC4/nRF24_FUNCS.c **** }
ARM GAS  C:\Users\mikke\AppData\Local\Temp\ccdqBzKj.s 			page 9


 198:Generated_Source\PSoC4/nRF24_FUNCS.c **** 
 199:Generated_Source\PSoC4/nRF24_FUNCS.c **** /**
 200:Generated_Source\PSoC4/nRF24_FUNCS.c ****  * @brief Set radio in Power Down Mode.
 201:Generated_Source\PSoC4/nRF24_FUNCS.c ****  *
 202:Generated_Source\PSoC4/nRF24_FUNCS.c ****  * In power down mode nRF24 is disabled using minimal current consumption.
 203:Generated_Source\PSoC4/nRF24_FUNCS.c ****  * All register values available are maintained and the SPI is kept active,
 204:Generated_Source\PSoC4/nRF24_FUNCS.c ****  * enabling change of configuration and the uploading/downloading of data
 205:Generated_Source\PSoC4/nRF24_FUNCS.c ****  * registers.
 206:Generated_Source\PSoC4/nRF24_FUNCS.c ****  * Power down mode is entered by setting the PWR_UP bit (CONFIG register) to 0.
 207:Generated_Source\PSoC4/nRF24_FUNCS.c ****  */
 208:Generated_Source\PSoC4/nRF24_FUNCS.c **** void nRF24_set_power_down_mode(void)
 209:Generated_Source\PSoC4/nRF24_FUNCS.c **** {
 260              		.loc 1 209 0
 261              		.cfi_startproc
 262              		@ args = 0, pretend = 0, frame = 0
 263              		@ frame_needed = 0, uses_anonymous_args = 0
 264 0000 10B5     		push	{r4, lr}
 265              		.cfi_def_cfa_offset 8
 266              		.cfi_offset 4, -8
 267              		.cfi_offset 14, -4
 210:Generated_Source\PSoC4/nRF24_FUNCS.c ****     nRF24_clear_bit(NRF_REG_CONFIG, NRF_CONFIG_PWR_UP);
 268              		.loc 1 210 0
 269 0002 0221     		movs	r1, #2
 270 0004 0020     		movs	r0, #0
 271 0006 FFF7FEFF 		bl	nRF24_clear_bit
 272              	.LVL14:
 211:Generated_Source\PSoC4/nRF24_FUNCS.c **** }
 273              		.loc 1 211 0
 274              		@ sp needed
 275 000a 10BD     		pop	{r4, pc}
 276              		.cfi_endproc
 277              	.LFE10:
 278              		.size	nRF24_set_power_down_mode, .-nRF24_set_power_down_mode
 279              		.section	.text.nRF24_set_rx_mode,"ax",%progbits
 280              		.align	2
 281              		.global	nRF24_set_rx_mode
 282              		.code	16
 283              		.thumb_func
 284              		.type	nRF24_set_rx_mode, %function
 285              	nRF24_set_rx_mode:
 286              	.LFB13:
 212:Generated_Source\PSoC4/nRF24_FUNCS.c **** 
 213:Generated_Source\PSoC4/nRF24_FUNCS.c **** /**
 214:Generated_Source\PSoC4/nRF24_FUNCS.c ****  * @brief Set the radio in Standby I Mode.
 215:Generated_Source\PSoC4/nRF24_FUNCS.c ****  *
 216:Generated_Source\PSoC4/nRF24_FUNCS.c ****  * By setting the PWR_UP bit in the CONFIG register to 1, the device enters
 217:Generated_Source\PSoC4/nRF24_FUNCS.c ****  * standby-I mode. Standby-I mode is used to minimize average current
 218:Generated_Source\PSoC4/nRF24_FUNCS.c ****  * consumption while maintaining short start up times.
 219:Generated_Source\PSoC4/nRF24_FUNCS.c ****  * In this mode only part of the crystal oscillator is active. Change to
 220:Generated_Source\PSoC4/nRF24_FUNCS.c ****  * active modes only happens if CE is set high and when CE is set low,
 221:Generated_Source\PSoC4/nRF24_FUNCS.c ****  * the nRF24 returns to standby-I mode from both the TX and RX modes.
 222:Generated_Source\PSoC4/nRF24_FUNCS.c ****  */
 223:Generated_Source\PSoC4/nRF24_FUNCS.c **** void nRF24_set_standby_i_mode(void)
 224:Generated_Source\PSoC4/nRF24_FUNCS.c **** {
 225:Generated_Source\PSoC4/nRF24_FUNCS.c ****     nRF24_stop_listening();
 226:Generated_Source\PSoC4/nRF24_FUNCS.c ****     nRF24_set_bit(NRF_REG_CONFIG, NRF_CONFIG_PWR_UP);
 227:Generated_Source\PSoC4/nRF24_FUNCS.c **** }
ARM GAS  C:\Users\mikke\AppData\Local\Temp\ccdqBzKj.s 			page 10


 228:Generated_Source\PSoC4/nRF24_FUNCS.c **** 
 229:Generated_Source\PSoC4/nRF24_FUNCS.c **** /**
 230:Generated_Source\PSoC4/nRF24_FUNCS.c ****  * @brief Set the radio in Standby II Mode.
 231:Generated_Source\PSoC4/nRF24_FUNCS.c ****  *
 232:Generated_Source\PSoC4/nRF24_FUNCS.c ****  * In standby-II mode extra clock buffers are active and more current is used
 233:Generated_Source\PSoC4/nRF24_FUNCS.c ****  * compared to standby-I mode. nRF24 enters standby-II mode if CE is held high
 234:Generated_Source\PSoC4/nRF24_FUNCS.c ****  * on a TX device with an empty TX FIFO.
 235:Generated_Source\PSoC4/nRF24_FUNCS.c ****  * If a new packet is uploaded to the TX FIFO, the PLL immediately starts and
 236:Generated_Source\PSoC4/nRF24_FUNCS.c ****  * the packet is transmitted after the normal PLL settling  delay (130us).
 237:Generated_Source\PSoC4/nRF24_FUNCS.c ****  */
 238:Generated_Source\PSoC4/nRF24_FUNCS.c **** void nRF24_set_standby_ii_mode(void)
 239:Generated_Source\PSoC4/nRF24_FUNCS.c **** {
 240:Generated_Source\PSoC4/nRF24_FUNCS.c ****     nRF24_start_listening();
 241:Generated_Source\PSoC4/nRF24_FUNCS.c ****     nRF24_set_bit(NRF_REG_CONFIG, NRF_CONFIG_PWR_UP);
 242:Generated_Source\PSoC4/nRF24_FUNCS.c **** }
 243:Generated_Source\PSoC4/nRF24_FUNCS.c **** 
 244:Generated_Source\PSoC4/nRF24_FUNCS.c **** /**
 245:Generated_Source\PSoC4/nRF24_FUNCS.c ****  * @brief Set the radio in Receiver (Rx) Mode.
 246:Generated_Source\PSoC4/nRF24_FUNCS.c ****  *
 247:Generated_Source\PSoC4/nRF24_FUNCS.c ****  * RX mode is an active mode where the nRF24 radio is used as receiver. To
 248:Generated_Source\PSoC4/nRF24_FUNCS.c ****  * enter this mode, the nRF24 must have the PWR_UP bit, PRIM_RX bit and the CE
 249:Generated_Source\PSoC4/nRF24_FUNCS.c ****  * pin set high.
 250:Generated_Source\PSoC4/nRF24_FUNCS.c ****  */
 251:Generated_Source\PSoC4/nRF24_FUNCS.c **** void nRF24_set_rx_mode(void)
 252:Generated_Source\PSoC4/nRF24_FUNCS.c **** {
 287              		.loc 1 252 0
 288              		.cfi_startproc
 289              		@ args = 0, pretend = 0, frame = 0
 290              		@ frame_needed = 0, uses_anonymous_args = 0
 291 0000 10B5     		push	{r4, lr}
 292              		.cfi_def_cfa_offset 8
 293              		.cfi_offset 4, -8
 294              		.cfi_offset 14, -4
 253:Generated_Source\PSoC4/nRF24_FUNCS.c ****     nRF24_set_bit(NRF_REG_CONFIG, NRF_CONFIG_BIT_PRIM_RX);
 295              		.loc 1 253 0
 296 0002 0021     		movs	r1, #0
 297 0004 0020     		movs	r0, #0
 298 0006 FFF7FEFF 		bl	nRF24_set_bit
 299              	.LVL15:
 254:Generated_Source\PSoC4/nRF24_FUNCS.c **** }
 300              		.loc 1 254 0
 301              		@ sp needed
 302 000a 10BD     		pop	{r4, pc}
 303              		.cfi_endproc
 304              	.LFE13:
 305              		.size	nRF24_set_rx_mode, .-nRF24_set_rx_mode
 306              		.section	.text.nRF24_set_tx_mode,"ax",%progbits
 307              		.align	2
 308              		.global	nRF24_set_tx_mode
 309              		.code	16
 310              		.thumb_func
 311              		.type	nRF24_set_tx_mode, %function
 312              	nRF24_set_tx_mode:
 313              	.LFB14:
 255:Generated_Source\PSoC4/nRF24_FUNCS.c **** 
 256:Generated_Source\PSoC4/nRF24_FUNCS.c **** /**
 257:Generated_Source\PSoC4/nRF24_FUNCS.c ****  * @brief Set the radio in Transmitted (Tx) Mode.
ARM GAS  C:\Users\mikke\AppData\Local\Temp\ccdqBzKj.s 			page 11


 258:Generated_Source\PSoC4/nRF24_FUNCS.c ****  *
 259:Generated_Source\PSoC4/nRF24_FUNCS.c ****  * TX mode is an active mode for transmitting packets. To enter this mode,
 260:Generated_Source\PSoC4/nRF24_FUNCS.c ****  * the nRF24 must have the PWR_UP bit set high, PRIM_RX bit set low, a payload
 261:Generated_Source\PSoC4/nRF24_FUNCS.c ****  * in the TX FIFO and a high pulse on the CE for more than 10us.
 262:Generated_Source\PSoC4/nRF24_FUNCS.c ****  */
 263:Generated_Source\PSoC4/nRF24_FUNCS.c **** void nRF24_set_tx_mode(void)
 264:Generated_Source\PSoC4/nRF24_FUNCS.c **** {
 314              		.loc 1 264 0
 315              		.cfi_startproc
 316              		@ args = 0, pretend = 0, frame = 0
 317              		@ frame_needed = 0, uses_anonymous_args = 0
 318 0000 10B5     		push	{r4, lr}
 319              		.cfi_def_cfa_offset 8
 320              		.cfi_offset 4, -8
 321              		.cfi_offset 14, -4
 265:Generated_Source\PSoC4/nRF24_FUNCS.c ****     nRF24_clear_bit(NRF_REG_CONFIG, NRF_CONFIG_BIT_PRIM_RX);
 322              		.loc 1 265 0
 323 0002 0021     		movs	r1, #0
 324 0004 0020     		movs	r0, #0
 325 0006 FFF7FEFF 		bl	nRF24_clear_bit
 326              	.LVL16:
 266:Generated_Source\PSoC4/nRF24_FUNCS.c **** }
 327              		.loc 1 266 0
 328              		@ sp needed
 329 000a 10BD     		pop	{r4, pc}
 330              		.cfi_endproc
 331              	.LFE14:
 332              		.size	nRF24_set_tx_mode, .-nRF24_set_tx_mode
 333              		.section	.text.nRF24_set_mode,"ax",%progbits
 334              		.align	2
 335              		.global	nRF24_set_mode
 336              		.code	16
 337              		.thumb_func
 338              		.type	nRF24_set_mode, %function
 339              	nRF24_set_mode:
 340              	.LFB9:
 195:Generated_Source\PSoC4/nRF24_FUNCS.c ****     mode ? nRF24_set_rx_mode() : nRF24_set_tx_mode();
 341              		.loc 1 195 0
 342              		.cfi_startproc
 343              		@ args = 0, pretend = 0, frame = 0
 344              		@ frame_needed = 0, uses_anonymous_args = 0
 345              	.LVL17:
 346 0000 10B5     		push	{r4, lr}
 347              		.cfi_def_cfa_offset 8
 348              		.cfi_offset 4, -8
 349              		.cfi_offset 14, -4
 196:Generated_Source\PSoC4/nRF24_FUNCS.c **** }
 350              		.loc 1 196 0
 351 0002 0028     		cmp	r0, #0
 352 0004 02D0     		beq	.L18
 196:Generated_Source\PSoC4/nRF24_FUNCS.c **** }
 353              		.loc 1 196 0 is_stmt 0 discriminator 1
 354 0006 FFF7FEFF 		bl	nRF24_set_rx_mode
 355              	.LVL18:
 356 000a 01E0     		b	.L17
 357              	.LVL19:
 358              	.L18:
ARM GAS  C:\Users\mikke\AppData\Local\Temp\ccdqBzKj.s 			page 12


 196:Generated_Source\PSoC4/nRF24_FUNCS.c **** }
 359              		.loc 1 196 0 discriminator 2
 360 000c FFF7FEFF 		bl	nRF24_set_tx_mode
 361              	.LVL20:
 362              	.L17:
 197:Generated_Source\PSoC4/nRF24_FUNCS.c **** 
 363              		.loc 1 197 0 is_stmt 1
 364              		@ sp needed
 365 0010 10BD     		pop	{r4, pc}
 366              		.cfi_endproc
 367              	.LFE9:
 368              		.size	nRF24_set_mode, .-nRF24_set_mode
 369 0012 C046     		.section	.text.nRF24_enable_auto_ack,"ax",%progbits
 370              		.align	2
 371              		.global	nRF24_enable_auto_ack
 372              		.code	16
 373              		.thumb_func
 374              		.type	nRF24_enable_auto_ack, %function
 375              	nRF24_enable_auto_ack:
 376              	.LFB15:
 267:Generated_Source\PSoC4/nRF24_FUNCS.c **** 
 268:Generated_Source\PSoC4/nRF24_FUNCS.c **** /**
 269:Generated_Source\PSoC4/nRF24_FUNCS.c ****  * @brief Enable AutoACK in the given pipe.
 270:Generated_Source\PSoC4/nRF24_FUNCS.c ****  *
 271:Generated_Source\PSoC4/nRF24_FUNCS.c ****  * @param pipe: Enable AutoACK in the given pipe.
 272:Generated_Source\PSoC4/nRF24_FUNCS.c ****  */
 273:Generated_Source\PSoC4/nRF24_FUNCS.c **** void nRF24_enable_auto_ack(const nrf_pipe pipe)
 274:Generated_Source\PSoC4/nRF24_FUNCS.c **** {
 377              		.loc 1 274 0
 378              		.cfi_startproc
 379              		@ args = 0, pretend = 0, frame = 0
 380              		@ frame_needed = 0, uses_anonymous_args = 0
 381              	.LVL21:
 382 0000 10B5     		push	{r4, lr}
 383              		.cfi_def_cfa_offset 8
 384              		.cfi_offset 4, -8
 385              		.cfi_offset 14, -4
 386 0002 0100     		movs	r1, r0
 275:Generated_Source\PSoC4/nRF24_FUNCS.c ****     nRF24_set_bit(NRF_REG_EN_AA, pipe);
 387              		.loc 1 275 0
 388 0004 0120     		movs	r0, #1
 389              	.LVL22:
 390 0006 FFF7FEFF 		bl	nRF24_set_bit
 391              	.LVL23:
 276:Generated_Source\PSoC4/nRF24_FUNCS.c **** }
 392              		.loc 1 276 0
 393              		@ sp needed
 394 000a 10BD     		pop	{r4, pc}
 395              		.cfi_endproc
 396              	.LFE15:
 397              		.size	nRF24_enable_auto_ack, .-nRF24_enable_auto_ack
 398              		.section	.text.nRF24_disable_auto_ack,"ax",%progbits
 399              		.align	2
 400              		.global	nRF24_disable_auto_ack
 401              		.code	16
 402              		.thumb_func
 403              		.type	nRF24_disable_auto_ack, %function
ARM GAS  C:\Users\mikke\AppData\Local\Temp\ccdqBzKj.s 			page 13


 404              	nRF24_disable_auto_ack:
 405              	.LFB16:
 277:Generated_Source\PSoC4/nRF24_FUNCS.c **** 
 278:Generated_Source\PSoC4/nRF24_FUNCS.c **** /**
 279:Generated_Source\PSoC4/nRF24_FUNCS.c ****  * @brief Disable AutoACK in the given pipe.
 280:Generated_Source\PSoC4/nRF24_FUNCS.c ****  *
 281:Generated_Source\PSoC4/nRF24_FUNCS.c ****  * @param pipe: Disable AutoACK in the given pipe.
 282:Generated_Source\PSoC4/nRF24_FUNCS.c ****  */
 283:Generated_Source\PSoC4/nRF24_FUNCS.c **** void nRF24_disable_auto_ack(const nrf_pipe pipe)
 284:Generated_Source\PSoC4/nRF24_FUNCS.c **** {
 406              		.loc 1 284 0
 407              		.cfi_startproc
 408              		@ args = 0, pretend = 0, frame = 0
 409              		@ frame_needed = 0, uses_anonymous_args = 0
 410              	.LVL24:
 411 0000 10B5     		push	{r4, lr}
 412              		.cfi_def_cfa_offset 8
 413              		.cfi_offset 4, -8
 414              		.cfi_offset 14, -4
 415 0002 0100     		movs	r1, r0
 285:Generated_Source\PSoC4/nRF24_FUNCS.c ****     nRF24_clear_bit(NRF_REG_EN_AA, pipe);
 416              		.loc 1 285 0
 417 0004 0120     		movs	r0, #1
 418              	.LVL25:
 419 0006 FFF7FEFF 		bl	nRF24_clear_bit
 420              	.LVL26:
 286:Generated_Source\PSoC4/nRF24_FUNCS.c **** }
 421              		.loc 1 286 0
 422              		@ sp needed
 423 000a 10BD     		pop	{r4, pc}
 424              		.cfi_endproc
 425              	.LFE16:
 426              		.size	nRF24_disable_auto_ack, .-nRF24_disable_auto_ack
 427              		.section	.text.nRF24_set_channel,"ax",%progbits
 428              		.align	2
 429              		.global	nRF24_set_channel
 430              		.code	16
 431              		.thumb_func
 432              		.type	nRF24_set_channel, %function
 433              	nRF24_set_channel:
 434              	.LFB17:
 287:Generated_Source\PSoC4/nRF24_FUNCS.c **** 
 288:Generated_Source\PSoC4/nRF24_FUNCS.c **** /**
 289:Generated_Source\PSoC4/nRF24_FUNCS.c ****  * @brief Set the channel where the radio will work.
 290:Generated_Source\PSoC4/nRF24_FUNCS.c ****  *
 291:Generated_Source\PSoC4/nRF24_FUNCS.c ****  * @param uint8_t channel: Channel where the radio will work.
 292:Generated_Source\PSoC4/nRF24_FUNCS.c ****  */
 293:Generated_Source\PSoC4/nRF24_FUNCS.c **** void nRF24_set_channel(uint8_t channel)
 294:Generated_Source\PSoC4/nRF24_FUNCS.c **** {
 435              		.loc 1 294 0
 436              		.cfi_startproc
 437              		@ args = 0, pretend = 0, frame = 0
 438              		@ frame_needed = 0, uses_anonymous_args = 0
 439              	.LVL27:
 440 0000 10B5     		push	{r4, lr}
 441              		.cfi_def_cfa_offset 8
 442              		.cfi_offset 4, -8
ARM GAS  C:\Users\mikke\AppData\Local\Temp\ccdqBzKj.s 			page 14


 443              		.cfi_offset 14, -4
 444 0002 0100     		movs	r1, r0
 295:Generated_Source\PSoC4/nRF24_FUNCS.c ****     if (NRF_MAX_RF_CHANNEL < channel) {
 445              		.loc 1 295 0
 446 0004 7D28     		cmp	r0, #125
 447 0006 00D9     		bls	.L23
 296:Generated_Source\PSoC4/nRF24_FUNCS.c ****         channel = NRF_MAX_RF_CHANNEL;
 448              		.loc 1 296 0
 449 0008 7D21     		movs	r1, #125
 450              	.L23:
 451              	.LVL28:
 297:Generated_Source\PSoC4/nRF24_FUNCS.c ****     }
 298:Generated_Source\PSoC4/nRF24_FUNCS.c **** 
 299:Generated_Source\PSoC4/nRF24_FUNCS.c ****     nRF24_write_register(NRF_REG_RF_CH, channel);
 452              		.loc 1 299 0
 453 000a 0520     		movs	r0, #5
 454 000c FFF7FEFF 		bl	nRF24_write_register
 455              	.LVL29:
 300:Generated_Source\PSoC4/nRF24_FUNCS.c **** 
 301:Generated_Source\PSoC4/nRF24_FUNCS.c ****     // Flush both nRF24 FIFOs, from mcuoneclipse nrf24 component
 302:Generated_Source\PSoC4/nRF24_FUNCS.c ****     nRF24_flush_rx_cmd();
 456              		.loc 1 302 0
 457 0010 FFF7FEFF 		bl	nRF24_flush_rx_cmd
 458              	.LVL30:
 303:Generated_Source\PSoC4/nRF24_FUNCS.c ****     nRF24_flush_tx_cmd();
 459              		.loc 1 303 0
 460 0014 FFF7FEFF 		bl	nRF24_flush_tx_cmd
 461              	.LVL31:
 304:Generated_Source\PSoC4/nRF24_FUNCS.c **** }
 462              		.loc 1 304 0
 463              		@ sp needed
 464 0018 10BD     		pop	{r4, pc}
 465              		.cfi_endproc
 466              	.LFE17:
 467              		.size	nRF24_set_channel, .-nRF24_set_channel
 468 001a C046     		.section	.text.nRF24_get_channel,"ax",%progbits
 469              		.align	2
 470              		.global	nRF24_get_channel
 471              		.code	16
 472              		.thumb_func
 473              		.type	nRF24_get_channel, %function
 474              	nRF24_get_channel:
 475              	.LFB18:
 305:Generated_Source\PSoC4/nRF24_FUNCS.c **** 
 306:Generated_Source\PSoC4/nRF24_FUNCS.c **** /**
 307:Generated_Source\PSoC4/nRF24_FUNCS.c ****  * @brief Set the data pipes address width.
 308:Generated_Source\PSoC4/nRF24_FUNCS.c ****  *
 309:Generated_Source\PSoC4/nRF24_FUNCS.c ****  * @param const nrf_setup_address_width addr_width:
 310:Generated_Source\PSoC4/nRF24_FUNCS.c ****  */
 311:Generated_Source\PSoC4/nRF24_FUNCS.c **** uint8_t nRF24_get_channel(void)
 312:Generated_Source\PSoC4/nRF24_FUNCS.c **** {
 476              		.loc 1 312 0
 477              		.cfi_startproc
 478              		@ args = 0, pretend = 0, frame = 0
 479              		@ frame_needed = 0, uses_anonymous_args = 0
 480 0000 10B5     		push	{r4, lr}
 481              		.cfi_def_cfa_offset 8
ARM GAS  C:\Users\mikke\AppData\Local\Temp\ccdqBzKj.s 			page 15


 482              		.cfi_offset 4, -8
 483              		.cfi_offset 14, -4
 313:Generated_Source\PSoC4/nRF24_FUNCS.c ****     return nRF24_read_register(NRF_REG_RF_CH);
 484              		.loc 1 313 0
 485 0002 0520     		movs	r0, #5
 486 0004 FFF7FEFF 		bl	nRF24_read_register
 487              	.LVL32:
 314:Generated_Source\PSoC4/nRF24_FUNCS.c **** }
 488              		.loc 1 314 0
 489              		@ sp needed
 490 0008 10BD     		pop	{r4, pc}
 491              		.cfi_endproc
 492              	.LFE18:
 493              		.size	nRF24_get_channel, .-nRF24_get_channel
 494 000a C046     		.section	.text.nRF24_set_address_width,"ax",%progbits
 495              		.align	2
 496              		.global	nRF24_set_address_width
 497              		.code	16
 498              		.thumb_func
 499              		.type	nRF24_set_address_width, %function
 500              	nRF24_set_address_width:
 501              	.LFB19:
 315:Generated_Source\PSoC4/nRF24_FUNCS.c **** 
 316:Generated_Source\PSoC4/nRF24_FUNCS.c **** /**
 317:Generated_Source\PSoC4/nRF24_FUNCS.c ****  * @brief Set the data pipes address width.
 318:Generated_Source\PSoC4/nRF24_FUNCS.c ****  *
 319:Generated_Source\PSoC4/nRF24_FUNCS.c ****  * @param const nrf_addr_width addr_width:
 320:Generated_Source\PSoC4/nRF24_FUNCS.c ****  */
 321:Generated_Source\PSoC4/nRF24_FUNCS.c **** void nRF24_set_address_width(const nrf_addr_width addr_width)
 322:Generated_Source\PSoC4/nRF24_FUNCS.c **** {
 502              		.loc 1 322 0
 503              		.cfi_startproc
 504              		@ args = 0, pretend = 0, frame = 0
 505              		@ frame_needed = 0, uses_anonymous_args = 0
 506              	.LVL33:
 507 0000 10B5     		push	{r4, lr}
 508              		.cfi_def_cfa_offset 8
 509              		.cfi_offset 4, -8
 510              		.cfi_offset 14, -4
 511 0002 0400     		movs	r4, r0
 323:Generated_Source\PSoC4/nRF24_FUNCS.c ****     nRF24_write_register(NRF_REG_SETUP_AW, (uint8_t)addr_width);
 512              		.loc 1 323 0
 513 0004 0100     		movs	r1, r0
 514 0006 0320     		movs	r0, #3
 515              	.LVL34:
 516 0008 FFF7FEFF 		bl	nRF24_write_register
 517              	.LVL35:
 324:Generated_Source\PSoC4/nRF24_FUNCS.c ****     // update the _nrf_addr_width variable
 325:Generated_Source\PSoC4/nRF24_FUNCS.c ****     _addr_width_conf_to_bytes(addr_width);
 518              		.loc 1 325 0
 519 000c 2000     		movs	r0, r4
 520 000e FFF7FEFF 		bl	_addr_width_conf_to_bytes
 521              	.LVL36:
 326:Generated_Source\PSoC4/nRF24_FUNCS.c **** }
 522              		.loc 1 326 0
 523              		@ sp needed
 524 0012 10BD     		pop	{r4, pc}
ARM GAS  C:\Users\mikke\AppData\Local\Temp\ccdqBzKj.s 			page 16


 525              		.cfi_endproc
 526              	.LFE19:
 527              		.size	nRF24_set_address_width, .-nRF24_set_address_width
 528              		.section	.text.nRF24_get_address_width,"ax",%progbits
 529              		.align	2
 530              		.global	nRF24_get_address_width
 531              		.code	16
 532              		.thumb_func
 533              		.type	nRF24_get_address_width, %function
 534              	nRF24_get_address_width:
 535              	.LFB20:
 327:Generated_Source\PSoC4/nRF24_FUNCS.c **** 
 328:Generated_Source\PSoC4/nRF24_FUNCS.c **** /**
 329:Generated_Source\PSoC4/nRF24_FUNCS.c ****  * @brief Get the address width of the data pipes.
 330:Generated_Source\PSoC4/nRF24_FUNCS.c ****  *
 331:Generated_Source\PSoC4/nRF24_FUNCS.c ****  * @return uint8_t: Address width in bytes.
 332:Generated_Source\PSoC4/nRF24_FUNCS.c ****  */
 333:Generated_Source\PSoC4/nRF24_FUNCS.c **** uint8_t nRF24_get_address_width(void)
 334:Generated_Source\PSoC4/nRF24_FUNCS.c **** {
 536              		.loc 1 334 0
 537              		.cfi_startproc
 538              		@ args = 0, pretend = 0, frame = 0
 539              		@ frame_needed = 0, uses_anonymous_args = 0
 540              		@ link register save eliminated.
 335:Generated_Source\PSoC4/nRF24_FUNCS.c ****     return _nrf_addr_width;
 541              		.loc 1 335 0
 542 0000 014B     		ldr	r3, .L28
 543 0002 1878     		ldrb	r0, [r3]
 336:Generated_Source\PSoC4/nRF24_FUNCS.c **** }
 544              		.loc 1 336 0
 545              		@ sp needed
 546 0004 7047     		bx	lr
 547              	.L29:
 548 0006 C046     		.align	2
 549              	.L28:
 550 0008 00000000 		.word	.LANCHOR0
 551              		.cfi_endproc
 552              	.LFE20:
 553              		.size	nRF24_get_address_width, .-nRF24_get_address_width
 554              		.section	.text.nRF24_set_rx_pipe_address,"ax",%progbits
 555              		.align	2
 556              		.global	nRF24_set_rx_pipe_address
 557              		.code	16
 558              		.thumb_func
 559              		.type	nRF24_set_rx_pipe_address, %function
 560              	nRF24_set_rx_pipe_address:
 561              	.LFB21:
 337:Generated_Source\PSoC4/nRF24_FUNCS.c **** 
 338:Generated_Source\PSoC4/nRF24_FUNCS.c **** /**
 339:Generated_Source\PSoC4/nRF24_FUNCS.c ****  * @brief Set the address of the RX Pipe 0 in the radio.
 340:Generated_Source\PSoC4/nRF24_FUNCS.c ****  *
 341:Generated_Source\PSoC4/nRF24_FUNCS.c ****  * This function configure the address of the Rx Pipe 0 of the radio.
 342:Generated_Source\PSoC4/nRF24_FUNCS.c ****  *
 343:Generated_Source\PSoC4/nRF24_FUNCS.c ****  * @param const uint8_t* addr:
 344:Generated_Source\PSoC4/nRF24_FUNCS.c ****  * @param size_t size:
 345:Generated_Source\PSoC4/nRF24_FUNCS.c ****  */
 346:Generated_Source\PSoC4/nRF24_FUNCS.c **** void nRF24_set_rx_pipe_address(const nrf_addr_rx_pipe pipe,
ARM GAS  C:\Users\mikke\AppData\Local\Temp\ccdqBzKj.s 			page 17


 347:Generated_Source\PSoC4/nRF24_FUNCS.c ****                                             const uint8_t *addr, size_t size)
 348:Generated_Source\PSoC4/nRF24_FUNCS.c **** {
 562              		.loc 1 348 0
 563              		.cfi_startproc
 564              		@ args = 0, pretend = 0, frame = 0
 565              		@ frame_needed = 0, uses_anonymous_args = 0
 566              	.LVL37:
 567 0000 10B5     		push	{r4, lr}
 568              		.cfi_def_cfa_offset 8
 569              		.cfi_offset 4, -8
 570              		.cfi_offset 14, -4
 349:Generated_Source\PSoC4/nRF24_FUNCS.c ****     if (NULL == addr) {
 571              		.loc 1 349 0
 572 0002 0029     		cmp	r1, #0
 573 0004 12D0     		beq	.L30
 350:Generated_Source\PSoC4/nRF24_FUNCS.c ****         return;
 351:Generated_Source\PSoC4/nRF24_FUNCS.c ****     }
 352:Generated_Source\PSoC4/nRF24_FUNCS.c ****     
 353:Generated_Source\PSoC4/nRF24_FUNCS.c ****     switch(pipe) {
 574              		.loc 1 353 0
 575 0006 0A28     		cmp	r0, #10
 576 0008 10D3     		bcc	.L30
 577 000a 0B28     		cmp	r0, #11
 578 000c 02D9     		bls	.L32
 579 000e 0F28     		cmp	r0, #15
 580 0010 09D9     		bls	.L35
 581 0012 0BE0     		b	.L30
 582              	.L32:
 354:Generated_Source\PSoC4/nRF24_FUNCS.c ****     // For pipes 0 and 1 we can change up to 5 bytes of it's addresses
 355:Generated_Source\PSoC4/nRF24_FUNCS.c ****     case NRF_ADDR_PIPE0:
 356:Generated_Source\PSoC4/nRF24_FUNCS.c ****     case NRF_ADDR_PIPE1:
 357:Generated_Source\PSoC4/nRF24_FUNCS.c ****         // The smaller address is 3 bytes
 358:Generated_Source\PSoC4/nRF24_FUNCS.c ****         if (NRF_PIPE_ADDR_WIDTH_3BYTES > size) {
 359:Generated_Source\PSoC4/nRF24_FUNCS.c ****             // TODO
 360:Generated_Source\PSoC4/nRF24_FUNCS.c ****         }
 361:Generated_Source\PSoC4/nRF24_FUNCS.c ****         
 362:Generated_Source\PSoC4/nRF24_FUNCS.c ****         if (_nrf_addr_width < size) {
 583              		.loc 1 362 0
 584 0014 064B     		ldr	r3, .L36
 585 0016 1B78     		ldrb	r3, [r3]
 586 0018 9342     		cmp	r3, r2
 587 001a 00D3     		bcc	.L34
 588 001c 1300     		movs	r3, r2
 589              	.L34:
 590              	.LVL38:
 363:Generated_Source\PSoC4/nRF24_FUNCS.c ****             size = _nrf_addr_width;
 364:Generated_Source\PSoC4/nRF24_FUNCS.c ****         }
 365:Generated_Source\PSoC4/nRF24_FUNCS.c ****             
 366:Generated_Source\PSoC4/nRF24_FUNCS.c ****         nRF24_write_long_register(pipe, addr, size);
 591              		.loc 1 366 0
 592 001e 1A00     		movs	r2, r3
 593 0020 FFF7FEFF 		bl	nRF24_write_long_register
 594              	.LVL39:
 367:Generated_Source\PSoC4/nRF24_FUNCS.c ****         break;
 595              		.loc 1 367 0
 596 0024 02E0     		b	.L30
 597              	.LVL40:
ARM GAS  C:\Users\mikke\AppData\Local\Temp\ccdqBzKj.s 			page 18


 598              	.L35:
 368:Generated_Source\PSoC4/nRF24_FUNCS.c ****     // For pipes 2, 3, 4 and 5 we can change only the LSB of it's address
 369:Generated_Source\PSoC4/nRF24_FUNCS.c ****     case NRF_ADDR_PIPE2:
 370:Generated_Source\PSoC4/nRF24_FUNCS.c ****     case NRF_ADDR_PIPE3:
 371:Generated_Source\PSoC4/nRF24_FUNCS.c ****     case NRF_ADDR_PIPE4:
 372:Generated_Source\PSoC4/nRF24_FUNCS.c ****     case NRF_ADDR_PIPE5:
 373:Generated_Source\PSoC4/nRF24_FUNCS.c ****         (void)size; // so we don't get a warning on unused variable
 374:Generated_Source\PSoC4/nRF24_FUNCS.c ****         
 375:Generated_Source\PSoC4/nRF24_FUNCS.c ****         nRF24_write_long_register(pipe, addr, 1);
 599              		.loc 1 375 0
 600 0026 0122     		movs	r2, #1
 601              	.LVL41:
 602 0028 FFF7FEFF 		bl	nRF24_write_long_register
 603              	.LVL42:
 604              	.L30:
 376:Generated_Source\PSoC4/nRF24_FUNCS.c ****         break;
 377:Generated_Source\PSoC4/nRF24_FUNCS.c ****     }
 378:Generated_Source\PSoC4/nRF24_FUNCS.c **** }
 605              		.loc 1 378 0
 606              		@ sp needed
 607 002c 10BD     		pop	{r4, pc}
 608              	.L37:
 609 002e C046     		.align	2
 610              	.L36:
 611 0030 00000000 		.word	.LANCHOR0
 612              		.cfi_endproc
 613              	.LFE21:
 614              		.size	nRF24_set_rx_pipe_address, .-nRF24_set_rx_pipe_address
 615              		.section	.text.nRF24_get_rx_pipe_address,"ax",%progbits
 616              		.align	2
 617              		.global	nRF24_get_rx_pipe_address
 618              		.code	16
 619              		.thumb_func
 620              		.type	nRF24_get_rx_pipe_address, %function
 621              	nRF24_get_rx_pipe_address:
 622              	.LFB22:
 379:Generated_Source\PSoC4/nRF24_FUNCS.c **** 
 380:Generated_Source\PSoC4/nRF24_FUNCS.c **** /**
 381:Generated_Source\PSoC4/nRF24_FUNCS.c ****  * @brief Get the address of the RX Pipe 0 in the radio.
 382:Generated_Source\PSoC4/nRF24_FUNCS.c ****  *
 383:Generated_Source\PSoC4/nRF24_FUNCS.c ****  * @param uint8_t* addr:
 384:Generated_Source\PSoC4/nRF24_FUNCS.c ****  * @param size_t size:
 385:Generated_Source\PSoC4/nRF24_FUNCS.c ****  */
 386:Generated_Source\PSoC4/nRF24_FUNCS.c **** void nRF24_get_rx_pipe_address(const nrf_addr_rx_pipe pipe,
 387:Generated_Source\PSoC4/nRF24_FUNCS.c ****                                             uint8_t *addr, size_t size)
 388:Generated_Source\PSoC4/nRF24_FUNCS.c **** {
 623              		.loc 1 388 0
 624              		.cfi_startproc
 625              		@ args = 0, pretend = 0, frame = 0
 626              		@ frame_needed = 0, uses_anonymous_args = 0
 627              	.LVL43:
 628 0000 70B5     		push	{r4, r5, r6, lr}
 629              		.cfi_def_cfa_offset 16
 630              		.cfi_offset 4, -16
 631              		.cfi_offset 5, -12
 632              		.cfi_offset 6, -8
 633              		.cfi_offset 14, -4
ARM GAS  C:\Users\mikke\AppData\Local\Temp\ccdqBzKj.s 			page 19


 634 0002 0500     		movs	r5, r0
 635 0004 0E1E     		subs	r6, r1, #0
 389:Generated_Source\PSoC4/nRF24_FUNCS.c ****     if (NULL == addr) {
 636              		.loc 1 389 0
 637 0006 1CD0     		beq	.L38
 390:Generated_Source\PSoC4/nRF24_FUNCS.c ****         return;
 391:Generated_Source\PSoC4/nRF24_FUNCS.c ****     }
 392:Generated_Source\PSoC4/nRF24_FUNCS.c ****     
 393:Generated_Source\PSoC4/nRF24_FUNCS.c ****     // The smaller address is 3 bytes
 394:Generated_Source\PSoC4/nRF24_FUNCS.c ****     if (NRF_PIPE_ADDR_WIDTH_3BYTES > size) {
 395:Generated_Source\PSoC4/nRF24_FUNCS.c ****         // TODO
 396:Generated_Source\PSoC4/nRF24_FUNCS.c ****     }
 397:Generated_Source\PSoC4/nRF24_FUNCS.c ****     
 398:Generated_Source\PSoC4/nRF24_FUNCS.c ****     if (_nrf_addr_width < size) {
 638              		.loc 1 398 0
 639 0008 0E4B     		ldr	r3, .L44
 640 000a 1978     		ldrb	r1, [r3]
 641              	.LVL44:
 642 000c 9142     		cmp	r1, r2
 643 000e 00D3     		bcc	.L40
 644 0010 1100     		movs	r1, r2
 645              	.L40:
 646              	.LVL45:
 399:Generated_Source\PSoC4/nRF24_FUNCS.c ****         size = _nrf_addr_width;
 400:Generated_Source\PSoC4/nRF24_FUNCS.c ****     }
 401:Generated_Source\PSoC4/nRF24_FUNCS.c ****     
 402:Generated_Source\PSoC4/nRF24_FUNCS.c ****     switch(pipe) {
 647              		.loc 1 402 0
 648 0012 0A2D     		cmp	r5, #10
 649 0014 15D3     		bcc	.L38
 650 0016 0B2D     		cmp	r5, #11
 651 0018 02D9     		bls	.L41
 652 001a 0F2D     		cmp	r5, #15
 653 001c 06D9     		bls	.L43
 654 001e 10E0     		b	.L38
 655              	.L41:
 403:Generated_Source\PSoC4/nRF24_FUNCS.c ****     // For pipes 0 and 1 we can read up to 5 bytes of it's addresses
 404:Generated_Source\PSoC4/nRF24_FUNCS.c ****     case NRF_ADDR_PIPE0:
 405:Generated_Source\PSoC4/nRF24_FUNCS.c ****     case NRF_ADDR_PIPE1:
 406:Generated_Source\PSoC4/nRF24_FUNCS.c ****         nRF24_read_long_register(pipe, addr, size);
 656              		.loc 1 406 0
 657 0020 0A00     		movs	r2, r1
 658 0022 3100     		movs	r1, r6
 659              	.LVL46:
 660 0024 2800     		movs	r0, r5
 661              	.LVL47:
 662 0026 FFF7FEFF 		bl	nRF24_read_long_register
 663              	.LVL48:
 407:Generated_Source\PSoC4/nRF24_FUNCS.c ****         break;
 664              		.loc 1 407 0
 665 002a 0AE0     		b	.L38
 666              	.LVL49:
 667              	.L43:
 408:Generated_Source\PSoC4/nRF24_FUNCS.c ****     // For pipes 2, 3, 4 and 5 the address is the same to pipe1 except the LSB
 409:Generated_Source\PSoC4/nRF24_FUNCS.c ****     case NRF_ADDR_PIPE2:
 410:Generated_Source\PSoC4/nRF24_FUNCS.c ****     case NRF_ADDR_PIPE3:
 411:Generated_Source\PSoC4/nRF24_FUNCS.c ****     case NRF_ADDR_PIPE4:
ARM GAS  C:\Users\mikke\AppData\Local\Temp\ccdqBzKj.s 			page 20


 412:Generated_Source\PSoC4/nRF24_FUNCS.c ****     case NRF_ADDR_PIPE5:
 413:Generated_Source\PSoC4/nRF24_FUNCS.c ****         nRF24_read_long_register(NRF_REG_RX_ADDR_P1, addr, size - 1);
 668              		.loc 1 413 0
 669 002c 4C1E     		subs	r4, r1, #1
 670 002e 2200     		movs	r2, r4
 671 0030 3100     		movs	r1, r6
 672              	.LVL50:
 673 0032 0B20     		movs	r0, #11
 674              	.LVL51:
 675 0034 FFF7FEFF 		bl	nRF24_read_long_register
 676              	.LVL52:
 414:Generated_Source\PSoC4/nRF24_FUNCS.c ****         addr[size - 1] = nRF24_read_register(pipe);
 677              		.loc 1 414 0
 678 0038 3419     		adds	r4, r6, r4
 679              	.LVL53:
 680 003a 2800     		movs	r0, r5
 681 003c FFF7FEFF 		bl	nRF24_read_register
 682              	.LVL54:
 683 0040 2070     		strb	r0, [r4]
 684              	.L38:
 415:Generated_Source\PSoC4/nRF24_FUNCS.c ****         break;
 416:Generated_Source\PSoC4/nRF24_FUNCS.c ****     }
 417:Generated_Source\PSoC4/nRF24_FUNCS.c **** }
 685              		.loc 1 417 0
 686              		@ sp needed
 687              	.LVL55:
 688 0042 70BD     		pop	{r4, r5, r6, pc}
 689              	.L45:
 690              		.align	2
 691              	.L44:
 692 0044 00000000 		.word	.LANCHOR0
 693              		.cfi_endproc
 694              	.LFE22:
 695              		.size	nRF24_get_rx_pipe_address, .-nRF24_get_rx_pipe_address
 696              		.section	.text.nRF24_set_tx_address,"ax",%progbits
 697              		.align	2
 698              		.global	nRF24_set_tx_address
 699              		.code	16
 700              		.thumb_func
 701              		.type	nRF24_set_tx_address, %function
 702              	nRF24_set_tx_address:
 703              	.LFB23:
 418:Generated_Source\PSoC4/nRF24_FUNCS.c **** 
 419:Generated_Source\PSoC4/nRF24_FUNCS.c **** /**
 420:Generated_Source\PSoC4/nRF24_FUNCS.c ****  * @brief Set the TX Address of the radio.
 421:Generated_Source\PSoC4/nRF24_FUNCS.c ****  *
 422:Generated_Source\PSoC4/nRF24_FUNCS.c ****  * @param const uint8_t* addr:
 423:Generated_Source\PSoC4/nRF24_FUNCS.c ****  * @param size_t size:
 424:Generated_Source\PSoC4/nRF24_FUNCS.c ****  */
 425:Generated_Source\PSoC4/nRF24_FUNCS.c **** void nRF24_set_tx_address(const uint8_t *const addr, size_t size)
 426:Generated_Source\PSoC4/nRF24_FUNCS.c **** {
 704              		.loc 1 426 0
 705              		.cfi_startproc
 706              		@ args = 0, pretend = 0, frame = 0
 707              		@ frame_needed = 0, uses_anonymous_args = 0
 708              	.LVL56:
 709 0000 10B5     		push	{r4, lr}
ARM GAS  C:\Users\mikke\AppData\Local\Temp\ccdqBzKj.s 			page 21


 710              		.cfi_def_cfa_offset 8
 711              		.cfi_offset 4, -8
 712              		.cfi_offset 14, -4
 427:Generated_Source\PSoC4/nRF24_FUNCS.c ****     if (NULL == addr) {
 713              		.loc 1 427 0
 714 0002 0028     		cmp	r0, #0
 715 0004 08D0     		beq	.L46
 428:Generated_Source\PSoC4/nRF24_FUNCS.c ****         return;
 429:Generated_Source\PSoC4/nRF24_FUNCS.c ****     }
 430:Generated_Source\PSoC4/nRF24_FUNCS.c **** 
 431:Generated_Source\PSoC4/nRF24_FUNCS.c ****     if (_nrf_addr_width < size) {
 716              		.loc 1 431 0
 717 0006 054B     		ldr	r3, .L49
 718 0008 1A78     		ldrb	r2, [r3]
 719 000a 8A42     		cmp	r2, r1
 720 000c 00D3     		bcc	.L48
 721 000e 0A00     		movs	r2, r1
 722              	.L48:
 723              	.LVL57:
 432:Generated_Source\PSoC4/nRF24_FUNCS.c ****         size = _nrf_addr_width;
 433:Generated_Source\PSoC4/nRF24_FUNCS.c ****     }
 434:Generated_Source\PSoC4/nRF24_FUNCS.c **** 
 435:Generated_Source\PSoC4/nRF24_FUNCS.c ****     nRF24_write_long_register(NRF_REG_TX_ADDR, addr, size);
 724              		.loc 1 435 0
 725 0010 0100     		movs	r1, r0
 726 0012 1020     		movs	r0, #16
 727              	.LVL58:
 728 0014 FFF7FEFF 		bl	nRF24_write_long_register
 729              	.LVL59:
 730              	.L46:
 436:Generated_Source\PSoC4/nRF24_FUNCS.c **** }
 731              		.loc 1 436 0
 732              		@ sp needed
 733 0018 10BD     		pop	{r4, pc}
 734              	.L50:
 735 001a C046     		.align	2
 736              	.L49:
 737 001c 00000000 		.word	.LANCHOR0
 738              		.cfi_endproc
 739              	.LFE23:
 740              		.size	nRF24_set_tx_address, .-nRF24_set_tx_address
 741              		.section	.text.nRF24_get_tx_address,"ax",%progbits
 742              		.align	2
 743              		.global	nRF24_get_tx_address
 744              		.code	16
 745              		.thumb_func
 746              		.type	nRF24_get_tx_address, %function
 747              	nRF24_get_tx_address:
 748              	.LFB24:
 437:Generated_Source\PSoC4/nRF24_FUNCS.c **** 
 438:Generated_Source\PSoC4/nRF24_FUNCS.c **** /**
 439:Generated_Source\PSoC4/nRF24_FUNCS.c ****  * @brief Get the TX Address of the radio.
 440:Generated_Source\PSoC4/nRF24_FUNCS.c ****  *
 441:Generated_Source\PSoC4/nRF24_FUNCS.c ****  * @param const uint8_t* addr:
 442:Generated_Source\PSoC4/nRF24_FUNCS.c ****  * @param const size_t size:
 443:Generated_Source\PSoC4/nRF24_FUNCS.c ****  */
 444:Generated_Source\PSoC4/nRF24_FUNCS.c **** void nRF24_get_tx_address(uint8_t* addr, size_t size)
ARM GAS  C:\Users\mikke\AppData\Local\Temp\ccdqBzKj.s 			page 22


 445:Generated_Source\PSoC4/nRF24_FUNCS.c **** {
 749              		.loc 1 445 0
 750              		.cfi_startproc
 751              		@ args = 0, pretend = 0, frame = 0
 752              		@ frame_needed = 0, uses_anonymous_args = 0
 753              	.LVL60:
 754 0000 10B5     		push	{r4, lr}
 755              		.cfi_def_cfa_offset 8
 756              		.cfi_offset 4, -8
 757              		.cfi_offset 14, -4
 446:Generated_Source\PSoC4/nRF24_FUNCS.c ****     if (NULL == addr) {
 758              		.loc 1 446 0
 759 0002 0028     		cmp	r0, #0
 760 0004 08D0     		beq	.L51
 447:Generated_Source\PSoC4/nRF24_FUNCS.c ****         return;
 448:Generated_Source\PSoC4/nRF24_FUNCS.c ****     }
 449:Generated_Source\PSoC4/nRF24_FUNCS.c **** 
 450:Generated_Source\PSoC4/nRF24_FUNCS.c ****     if (_nrf_addr_width < size) {
 761              		.loc 1 450 0
 762 0006 054B     		ldr	r3, .L54
 763 0008 1A78     		ldrb	r2, [r3]
 764 000a 8A42     		cmp	r2, r1
 765 000c 00D3     		bcc	.L53
 766 000e 0A00     		movs	r2, r1
 767              	.L53:
 768              	.LVL61:
 451:Generated_Source\PSoC4/nRF24_FUNCS.c ****         size = _nrf_addr_width;
 452:Generated_Source\PSoC4/nRF24_FUNCS.c ****     }
 453:Generated_Source\PSoC4/nRF24_FUNCS.c **** 
 454:Generated_Source\PSoC4/nRF24_FUNCS.c ****     nRF24_read_long_register(NRF_REG_TX_ADDR, addr, size);
 769              		.loc 1 454 0
 770 0010 0100     		movs	r1, r0
 771 0012 1020     		movs	r0, #16
 772              	.LVL62:
 773 0014 FFF7FEFF 		bl	nRF24_read_long_register
 774              	.LVL63:
 775              	.L51:
 455:Generated_Source\PSoC4/nRF24_FUNCS.c **** }
 776              		.loc 1 455 0
 777              		@ sp needed
 778 0018 10BD     		pop	{r4, pc}
 779              	.L55:
 780 001a C046     		.align	2
 781              	.L54:
 782 001c 00000000 		.word	.LANCHOR0
 783              		.cfi_endproc
 784              	.LFE24:
 785              		.size	nRF24_get_tx_address, .-nRF24_get_tx_address
 786              		.section	.text.nRF24_set_payload_size,"ax",%progbits
 787              		.align	2
 788              		.global	nRF24_set_payload_size
 789              		.code	16
 790              		.thumb_func
 791              		.type	nRF24_set_payload_size, %function
 792              	nRF24_set_payload_size:
 793              	.LFB25:
 456:Generated_Source\PSoC4/nRF24_FUNCS.c **** 
ARM GAS  C:\Users\mikke\AppData\Local\Temp\ccdqBzKj.s 			page 23


 457:Generated_Source\PSoC4/nRF24_FUNCS.c **** /**
 458:Generated_Source\PSoC4/nRF24_FUNCS.c ****  * @brief Set the payload size of the given pipe.
 459:Generated_Source\PSoC4/nRF24_FUNCS.c ****  *
 460:Generated_Source\PSoC4/nRF24_FUNCS.c ****  * Configure the payload size of the given pipe.
 461:Generated_Source\PSoC4/nRF24_FUNCS.c ****  *
 462:Generated_Source\PSoC4/nRF24_FUNCS.c ****  * @param const nrf_pipe pipe:
 463:Generated_Source\PSoC4/nRF24_FUNCS.c ****  * @param uint8_t size:
 464:Generated_Source\PSoC4/nRF24_FUNCS.c ****  */
 465:Generated_Source\PSoC4/nRF24_FUNCS.c **** void nRF24_set_payload_size(const nrf_pld_size pipe, uint8_t size)
 466:Generated_Source\PSoC4/nRF24_FUNCS.c **** {
 794              		.loc 1 466 0
 795              		.cfi_startproc
 796              		@ args = 0, pretend = 0, frame = 0
 797              		@ frame_needed = 0, uses_anonymous_args = 0
 798              	.LVL64:
 799 0000 10B5     		push	{r4, lr}
 800              		.cfi_def_cfa_offset 8
 801              		.cfi_offset 4, -8
 802              		.cfi_offset 14, -4
 467:Generated_Source\PSoC4/nRF24_FUNCS.c ****     if (NRF_PAYLOAD_SIZE_MAX < size) {
 803              		.loc 1 467 0
 804 0002 2029     		cmp	r1, #32
 805 0004 00D9     		bls	.L57
 468:Generated_Source\PSoC4/nRF24_FUNCS.c ****         size = NRF_PAYLOAD_SIZE_MAX;
 806              		.loc 1 468 0
 807 0006 2021     		movs	r1, #32
 808              	.LVL65:
 809              	.L57:
 469:Generated_Source\PSoC4/nRF24_FUNCS.c ****     }
 470:Generated_Source\PSoC4/nRF24_FUNCS.c **** 
 471:Generated_Source\PSoC4/nRF24_FUNCS.c ****     nRF24_write_register(pipe, size);
 810              		.loc 1 471 0
 811 0008 FFF7FEFF 		bl	nRF24_write_register
 812              	.LVL66:
 472:Generated_Source\PSoC4/nRF24_FUNCS.c **** }
 813              		.loc 1 472 0
 814              		@ sp needed
 815 000c 10BD     		pop	{r4, pc}
 816              		.cfi_endproc
 817              	.LFE25:
 818              		.size	nRF24_set_payload_size, .-nRF24_set_payload_size
 819 000e C046     		.section	.text.nRF24_get_payload_size,"ax",%progbits
 820              		.align	2
 821              		.global	nRF24_get_payload_size
 822              		.code	16
 823              		.thumb_func
 824              		.type	nRF24_get_payload_size, %function
 825              	nRF24_get_payload_size:
 826              	.LFB26:
 473:Generated_Source\PSoC4/nRF24_FUNCS.c **** 
 474:Generated_Source\PSoC4/nRF24_FUNCS.c **** /**
 475:Generated_Source\PSoC4/nRF24_FUNCS.c ****  * Get the payload size of the given pipe.
 476:Generated_Source\PSoC4/nRF24_FUNCS.c ****  *
 477:Generated_Source\PSoC4/nRF24_FUNCS.c ****  * @param const nrf_pipe pipe: Pipe to be read.
 478:Generated_Source\PSoC4/nRF24_FUNCS.c ****  *
 479:Generated_Source\PSoC4/nRF24_FUNCS.c ****  * @return uint8_t: Configured payload size of the given pipe.
 480:Generated_Source\PSoC4/nRF24_FUNCS.c ****  */
ARM GAS  C:\Users\mikke\AppData\Local\Temp\ccdqBzKj.s 			page 24


 481:Generated_Source\PSoC4/nRF24_FUNCS.c **** uint8_t nRF24_get_payload_size(const nrf_pld_size pipe)
 482:Generated_Source\PSoC4/nRF24_FUNCS.c **** {
 827              		.loc 1 482 0
 828              		.cfi_startproc
 829              		@ args = 0, pretend = 0, frame = 0
 830              		@ frame_needed = 0, uses_anonymous_args = 0
 831              	.LVL67:
 832 0000 10B5     		push	{r4, lr}
 833              		.cfi_def_cfa_offset 8
 834              		.cfi_offset 4, -8
 835              		.cfi_offset 14, -4
 483:Generated_Source\PSoC4/nRF24_FUNCS.c ****     return nRF24_read_register(pipe);
 836              		.loc 1 483 0
 837 0002 FFF7FEFF 		bl	nRF24_read_register
 838              	.LVL68:
 484:Generated_Source\PSoC4/nRF24_FUNCS.c **** }
 839              		.loc 1 484 0
 840              		@ sp needed
 841 0006 10BD     		pop	{r4, pc}
 842              		.cfi_endproc
 843              	.LFE26:
 844              		.size	nRF24_get_payload_size, .-nRF24_get_payload_size
 845              		.section	.text.nRF24_enable_dynamic_payload,"ax",%progbits
 846              		.align	2
 847              		.global	nRF24_enable_dynamic_payload
 848              		.code	16
 849              		.thumb_func
 850              		.type	nRF24_enable_dynamic_payload, %function
 851              	nRF24_enable_dynamic_payload:
 852              	.LFB28:
 485:Generated_Source\PSoC4/nRF24_FUNCS.c **** 
 486:Generated_Source\PSoC4/nRF24_FUNCS.c **** /**
 487:Generated_Source\PSoC4/nRF24_FUNCS.c ****  * @brief Reuse last transmitted payload.
 488:Generated_Source\PSoC4/nRF24_FUNCS.c ****  *
 489:Generated_Source\PSoC4/nRF24_FUNCS.c ****  * This function issue the command ReuseTxPayload and then toggle the CE pin
 490:Generated_Source\PSoC4/nRF24_FUNCS.c ****  * to transmit the last transmitted payload.
 491:Generated_Source\PSoC4/nRF24_FUNCS.c ****  */
 492:Generated_Source\PSoC4/nRF24_FUNCS.c **** void nRF24_reuse_last_transmitted_payload(void)
 493:Generated_Source\PSoC4/nRF24_FUNCS.c **** {
 494:Generated_Source\PSoC4/nRF24_FUNCS.c ****     nRF24_reuse_tx_payload_cmd();
 495:Generated_Source\PSoC4/nRF24_FUNCS.c ****     nRF24_transmit_pulse();
 496:Generated_Source\PSoC4/nRF24_FUNCS.c **** }
 497:Generated_Source\PSoC4/nRF24_FUNCS.c **** 
 498:Generated_Source\PSoC4/nRF24_FUNCS.c **** /**
 499:Generated_Source\PSoC4/nRF24_FUNCS.c ****  * @brief Enable dynamic payload on the given pipe.
 500:Generated_Source\PSoC4/nRF24_FUNCS.c ****  *
 501:Generated_Source\PSoC4/nRF24_FUNCS.c ****  * @param const nrf_pipe pipe:
 502:Generated_Source\PSoC4/nRF24_FUNCS.c ****  */
 503:Generated_Source\PSoC4/nRF24_FUNCS.c **** void nRF24_enable_dynamic_payload(void)
 504:Generated_Source\PSoC4/nRF24_FUNCS.c **** {
 853              		.loc 1 504 0
 854              		.cfi_startproc
 855              		@ args = 0, pretend = 0, frame = 0
 856              		@ frame_needed = 0, uses_anonymous_args = 0
 857 0000 10B5     		push	{r4, lr}
 858              		.cfi_def_cfa_offset 8
 859              		.cfi_offset 4, -8
ARM GAS  C:\Users\mikke\AppData\Local\Temp\ccdqBzKj.s 			page 25


 860              		.cfi_offset 14, -4
 505:Generated_Source\PSoC4/nRF24_FUNCS.c ****     // TODO: Read the FEATURE register, check the needed values and set
 506:Generated_Source\PSoC4/nRF24_FUNCS.c ****     // the bits if not set already
 507:Generated_Source\PSoC4/nRF24_FUNCS.c ****     nRF24_set_bit(NRF_REG_FEATURE, NRF_FEATURE_BIT_EN_ACK_PAY);
 861              		.loc 1 507 0
 862 0002 0121     		movs	r1, #1
 863 0004 1D20     		movs	r0, #29
 864 0006 FFF7FEFF 		bl	nRF24_set_bit
 865              	.LVL69:
 508:Generated_Source\PSoC4/nRF24_FUNCS.c ****     nRF24_set_bit(NRF_REG_FEATURE, NRF_FEATURE_BIT_EN_DPL);
 866              		.loc 1 508 0
 867 000a 0221     		movs	r1, #2
 868 000c 1D20     		movs	r0, #29
 869 000e FFF7FEFF 		bl	nRF24_set_bit
 870              	.LVL70:
 509:Generated_Source\PSoC4/nRF24_FUNCS.c **** }
 871              		.loc 1 509 0
 872              		@ sp needed
 873 0012 10BD     		pop	{r4, pc}
 874              		.cfi_endproc
 875              	.LFE28:
 876              		.size	nRF24_enable_dynamic_payload, .-nRF24_enable_dynamic_payload
 877              		.section	.text.nRF24_enable_dynamic_payload_on_pipe,"ax",%progbits
 878              		.align	2
 879              		.global	nRF24_enable_dynamic_payload_on_pipe
 880              		.code	16
 881              		.thumb_func
 882              		.type	nRF24_enable_dynamic_payload_on_pipe, %function
 883              	nRF24_enable_dynamic_payload_on_pipe:
 884              	.LFB29:
 510:Generated_Source\PSoC4/nRF24_FUNCS.c **** 
 511:Generated_Source\PSoC4/nRF24_FUNCS.c **** /**
 512:Generated_Source\PSoC4/nRF24_FUNCS.c ****  * @brief Enable dynamic payload on the given pipe.
 513:Generated_Source\PSoC4/nRF24_FUNCS.c ****  *
 514:Generated_Source\PSoC4/nRF24_FUNCS.c ****  * @param const nrf_pipe pipe:
 515:Generated_Source\PSoC4/nRF24_FUNCS.c ****  */
 516:Generated_Source\PSoC4/nRF24_FUNCS.c **** void nRF24_enable_dynamic_payload_on_pipe(const nrf_pipe pipe)
 517:Generated_Source\PSoC4/nRF24_FUNCS.c **** {
 885              		.loc 1 517 0
 886              		.cfi_startproc
 887              		@ args = 0, pretend = 0, frame = 0
 888              		@ frame_needed = 0, uses_anonymous_args = 0
 889              	.LVL71:
 890 0000 10B5     		push	{r4, lr}
 891              		.cfi_def_cfa_offset 8
 892              		.cfi_offset 4, -8
 893              		.cfi_offset 14, -4
 894 0002 0400     		movs	r4, r0
 518:Generated_Source\PSoC4/nRF24_FUNCS.c ****     nRF24_set_bit(NRF_REG_EN_AA, pipe);
 895              		.loc 1 518 0
 896 0004 0100     		movs	r1, r0
 897 0006 0120     		movs	r0, #1
 898              	.LVL72:
 899 0008 FFF7FEFF 		bl	nRF24_set_bit
 900              	.LVL73:
 519:Generated_Source\PSoC4/nRF24_FUNCS.c ****     nRF24_set_bit(NRF_REG_DYNPD, pipe);
 901              		.loc 1 519 0
ARM GAS  C:\Users\mikke\AppData\Local\Temp\ccdqBzKj.s 			page 26


 902 000c 2100     		movs	r1, r4
 903 000e 1C20     		movs	r0, #28
 904 0010 FFF7FEFF 		bl	nRF24_set_bit
 905              	.LVL74:
 520:Generated_Source\PSoC4/nRF24_FUNCS.c **** }
 906              		.loc 1 520 0
 907              		@ sp needed
 908 0014 10BD     		pop	{r4, pc}
 909              		.cfi_endproc
 910              	.LFE29:
 911              		.size	nRF24_enable_dynamic_payload_on_pipe, .-nRF24_enable_dynamic_payload_on_pipe
 912 0016 C046     		.section	.text.nRF24_disable_dynamic_payload,"ax",%progbits
 913              		.align	2
 914              		.global	nRF24_disable_dynamic_payload
 915              		.code	16
 916              		.thumb_func
 917              		.type	nRF24_disable_dynamic_payload, %function
 918              	nRF24_disable_dynamic_payload:
 919              	.LFB30:
 521:Generated_Source\PSoC4/nRF24_FUNCS.c **** 
 522:Generated_Source\PSoC4/nRF24_FUNCS.c **** /**
 523:Generated_Source\PSoC4/nRF24_FUNCS.c ****  * @brief Disable dynamic payload on the given pipe.
 524:Generated_Source\PSoC4/nRF24_FUNCS.c ****  *
 525:Generated_Source\PSoC4/nRF24_FUNCS.c ****  * @param const nrf_pipe pipe:
 526:Generated_Source\PSoC4/nRF24_FUNCS.c ****  */
 527:Generated_Source\PSoC4/nRF24_FUNCS.c **** void nRF24_disable_dynamic_payload()
 528:Generated_Source\PSoC4/nRF24_FUNCS.c **** {
 920              		.loc 1 528 0
 921              		.cfi_startproc
 922              		@ args = 0, pretend = 0, frame = 0
 923              		@ frame_needed = 0, uses_anonymous_args = 0
 924 0000 10B5     		push	{r4, lr}
 925              		.cfi_def_cfa_offset 8
 926              		.cfi_offset 4, -8
 927              		.cfi_offset 14, -4
 529:Generated_Source\PSoC4/nRF24_FUNCS.c ****     // TODO: Read the FEATURE register, check the needed values and clear
 530:Generated_Source\PSoC4/nRF24_FUNCS.c ****     // the bits if not clear already
 531:Generated_Source\PSoC4/nRF24_FUNCS.c ****     nRF24_clear_bit(NRF_REG_FEATURE, NRF_FEATURE_BIT_EN_ACK_PAY);
 928              		.loc 1 531 0
 929 0002 0121     		movs	r1, #1
 930 0004 1D20     		movs	r0, #29
 931 0006 FFF7FEFF 		bl	nRF24_clear_bit
 932              	.LVL75:
 532:Generated_Source\PSoC4/nRF24_FUNCS.c ****     nRF24_clear_bit(NRF_REG_FEATURE, NRF_FEATURE_BIT_EN_DPL);
 933              		.loc 1 532 0
 934 000a 0221     		movs	r1, #2
 935 000c 1D20     		movs	r0, #29
 936 000e FFF7FEFF 		bl	nRF24_clear_bit
 937              	.LVL76:
 533:Generated_Source\PSoC4/nRF24_FUNCS.c **** }
 938              		.loc 1 533 0
 939              		@ sp needed
 940 0012 10BD     		pop	{r4, pc}
 941              		.cfi_endproc
 942              	.LFE30:
 943              		.size	nRF24_disable_dynamic_payload, .-nRF24_disable_dynamic_payload
 944              		.section	.text.nRF24_disable_dynamic_payload_on_pipe,"ax",%progbits
ARM GAS  C:\Users\mikke\AppData\Local\Temp\ccdqBzKj.s 			page 27


 945              		.align	2
 946              		.global	nRF24_disable_dynamic_payload_on_pipe
 947              		.code	16
 948              		.thumb_func
 949              		.type	nRF24_disable_dynamic_payload_on_pipe, %function
 950              	nRF24_disable_dynamic_payload_on_pipe:
 951              	.LFB31:
 534:Generated_Source\PSoC4/nRF24_FUNCS.c **** 
 535:Generated_Source\PSoC4/nRF24_FUNCS.c **** /**
 536:Generated_Source\PSoC4/nRF24_FUNCS.c ****  * @brief Disable dynamic payload on the given pipe.
 537:Generated_Source\PSoC4/nRF24_FUNCS.c ****  *
 538:Generated_Source\PSoC4/nRF24_FUNCS.c ****  * @param const nrf_pipe pipe:
 539:Generated_Source\PSoC4/nRF24_FUNCS.c ****  */
 540:Generated_Source\PSoC4/nRF24_FUNCS.c **** void nRF24_disable_dynamic_payload_on_pipe(const nrf_pipe pipe)
 541:Generated_Source\PSoC4/nRF24_FUNCS.c **** {
 952              		.loc 1 541 0
 953              		.cfi_startproc
 954              		@ args = 0, pretend = 0, frame = 0
 955              		@ frame_needed = 0, uses_anonymous_args = 0
 956              	.LVL77:
 957 0000 10B5     		push	{r4, lr}
 958              		.cfi_def_cfa_offset 8
 959              		.cfi_offset 4, -8
 960              		.cfi_offset 14, -4
 961 0002 0400     		movs	r4, r0
 542:Generated_Source\PSoC4/nRF24_FUNCS.c ****     nRF24_clear_bit(NRF_REG_EN_AA, pipe);
 962              		.loc 1 542 0
 963 0004 0100     		movs	r1, r0
 964 0006 0120     		movs	r0, #1
 965              	.LVL78:
 966 0008 FFF7FEFF 		bl	nRF24_clear_bit
 967              	.LVL79:
 543:Generated_Source\PSoC4/nRF24_FUNCS.c ****     nRF24_clear_bit(NRF_REG_DYNPD, pipe);
 968              		.loc 1 543 0
 969 000c 2100     		movs	r1, r4
 970 000e 1C20     		movs	r0, #28
 971 0010 FFF7FEFF 		bl	nRF24_clear_bit
 972              	.LVL80:
 544:Generated_Source\PSoC4/nRF24_FUNCS.c **** }
 973              		.loc 1 544 0
 974              		@ sp needed
 975 0014 10BD     		pop	{r4, pc}
 976              		.cfi_endproc
 977              	.LFE31:
 978              		.size	nRF24_disable_dynamic_payload_on_pipe, .-nRF24_disable_dynamic_payload_on_pipe
 979 0016 C046     		.section	.text.nRF24_enable_dynamic_payload_length,"ax",%progbits
 980              		.align	2
 981              		.global	nRF24_enable_dynamic_payload_length
 982              		.code	16
 983              		.thumb_func
 984              		.type	nRF24_enable_dynamic_payload_length, %function
 985              	nRF24_enable_dynamic_payload_length:
 986              	.LFB32:
 545:Generated_Source\PSoC4/nRF24_FUNCS.c **** 
 546:Generated_Source\PSoC4/nRF24_FUNCS.c **** /**
 547:Generated_Source\PSoC4/nRF24_FUNCS.c ****  * @brief Enable dinamic payload length.
 548:Generated_Source\PSoC4/nRF24_FUNCS.c ****  */
ARM GAS  C:\Users\mikke\AppData\Local\Temp\ccdqBzKj.s 			page 28


 549:Generated_Source\PSoC4/nRF24_FUNCS.c **** void nRF24_enable_dynamic_payload_length(void)
 550:Generated_Source\PSoC4/nRF24_FUNCS.c **** {
 987              		.loc 1 550 0
 988              		.cfi_startproc
 989              		@ args = 0, pretend = 0, frame = 0
 990              		@ frame_needed = 0, uses_anonymous_args = 0
 991 0000 10B5     		push	{r4, lr}
 992              		.cfi_def_cfa_offset 8
 993              		.cfi_offset 4, -8
 994              		.cfi_offset 14, -4
 551:Generated_Source\PSoC4/nRF24_FUNCS.c ****     nRF24_set_bit(NRF_REG_FEATURE, NRF_FEATURE_BIT_EN_DPL);
 995              		.loc 1 551 0
 996 0002 0221     		movs	r1, #2
 997 0004 1D20     		movs	r0, #29
 998 0006 FFF7FEFF 		bl	nRF24_set_bit
 999              	.LVL81:
 552:Generated_Source\PSoC4/nRF24_FUNCS.c **** }
 1000              		.loc 1 552 0
 1001              		@ sp needed
 1002 000a 10BD     		pop	{r4, pc}
 1003              		.cfi_endproc
 1004              	.LFE32:
 1005              		.size	nRF24_enable_dynamic_payload_length, .-nRF24_enable_dynamic_payload_length
 1006              		.section	.text.nRF24_disable_dynamic_payload_length,"ax",%progbits
 1007              		.align	2
 1008              		.global	nRF24_disable_dynamic_payload_length
 1009              		.code	16
 1010              		.thumb_func
 1011              		.type	nRF24_disable_dynamic_payload_length, %function
 1012              	nRF24_disable_dynamic_payload_length:
 1013              	.LFB33:
 553:Generated_Source\PSoC4/nRF24_FUNCS.c **** 
 554:Generated_Source\PSoC4/nRF24_FUNCS.c **** /**
 555:Generated_Source\PSoC4/nRF24_FUNCS.c ****  * @brief Disable dynamic payload length.
 556:Generated_Source\PSoC4/nRF24_FUNCS.c ****  */
 557:Generated_Source\PSoC4/nRF24_FUNCS.c **** void nRF24_disable_dynamic_payload_length(void)
 558:Generated_Source\PSoC4/nRF24_FUNCS.c **** {
 1014              		.loc 1 558 0
 1015              		.cfi_startproc
 1016              		@ args = 0, pretend = 0, frame = 0
 1017              		@ frame_needed = 0, uses_anonymous_args = 0
 1018 0000 10B5     		push	{r4, lr}
 1019              		.cfi_def_cfa_offset 8
 1020              		.cfi_offset 4, -8
 1021              		.cfi_offset 14, -4
 559:Generated_Source\PSoC4/nRF24_FUNCS.c ****     nRF24_clear_bit(NRF_REG_FEATURE, NRF_FEATURE_BIT_EN_DPL);
 1022              		.loc 1 559 0
 1023 0002 0221     		movs	r1, #2
 1024 0004 1D20     		movs	r0, #29
 1025 0006 FFF7FEFF 		bl	nRF24_clear_bit
 1026              	.LVL82:
 560:Generated_Source\PSoC4/nRF24_FUNCS.c **** }
 1027              		.loc 1 560 0
 1028              		@ sp needed
 1029 000a 10BD     		pop	{r4, pc}
 1030              		.cfi_endproc
 1031              	.LFE33:
ARM GAS  C:\Users\mikke\AppData\Local\Temp\ccdqBzKj.s 			page 29


 1032              		.size	nRF24_disable_dynamic_payload_length, .-nRF24_disable_dynamic_payload_length
 1033              		.section	.text.nRF24_enable_payload_with_ack,"ax",%progbits
 1034              		.align	2
 1035              		.global	nRF24_enable_payload_with_ack
 1036              		.code	16
 1037              		.thumb_func
 1038              		.type	nRF24_enable_payload_with_ack, %function
 1039              	nRF24_enable_payload_with_ack:
 1040              	.LFB34:
 561:Generated_Source\PSoC4/nRF24_FUNCS.c **** 
 562:Generated_Source\PSoC4/nRF24_FUNCS.c **** /**
 563:Generated_Source\PSoC4/nRF24_FUNCS.c ****  * @brief Enable payload with ACK.
 564:Generated_Source\PSoC4/nRF24_FUNCS.c ****  */
 565:Generated_Source\PSoC4/nRF24_FUNCS.c **** void nRF24_enable_payload_with_ack(void)
 566:Generated_Source\PSoC4/nRF24_FUNCS.c **** {
 1041              		.loc 1 566 0
 1042              		.cfi_startproc
 1043              		@ args = 0, pretend = 0, frame = 0
 1044              		@ frame_needed = 0, uses_anonymous_args = 0
 1045 0000 10B5     		push	{r4, lr}
 1046              		.cfi_def_cfa_offset 8
 1047              		.cfi_offset 4, -8
 1048              		.cfi_offset 14, -4
 567:Generated_Source\PSoC4/nRF24_FUNCS.c ****     nRF24_set_bit(NRF_REG_FEATURE, NRF_FEATURE_BIT_EN_ACK_PAY);
 1049              		.loc 1 567 0
 1050 0002 0121     		movs	r1, #1
 1051 0004 1D20     		movs	r0, #29
 1052 0006 FFF7FEFF 		bl	nRF24_set_bit
 1053              	.LVL83:
 568:Generated_Source\PSoC4/nRF24_FUNCS.c **** }
 1054              		.loc 1 568 0
 1055              		@ sp needed
 1056 000a 10BD     		pop	{r4, pc}
 1057              		.cfi_endproc
 1058              	.LFE34:
 1059              		.size	nRF24_enable_payload_with_ack, .-nRF24_enable_payload_with_ack
 1060              		.section	.text.nRF24_disable_payload_with_ack,"ax",%progbits
 1061              		.align	2
 1062              		.global	nRF24_disable_payload_with_ack
 1063              		.code	16
 1064              		.thumb_func
 1065              		.type	nRF24_disable_payload_with_ack, %function
 1066              	nRF24_disable_payload_with_ack:
 1067              	.LFB35:
 569:Generated_Source\PSoC4/nRF24_FUNCS.c **** 
 570:Generated_Source\PSoC4/nRF24_FUNCS.c **** /**
 571:Generated_Source\PSoC4/nRF24_FUNCS.c ****  * @brief Disable Payload with ACK.
 572:Generated_Source\PSoC4/nRF24_FUNCS.c ****  */
 573:Generated_Source\PSoC4/nRF24_FUNCS.c **** void nRF24_disable_payload_with_ack(void)
 574:Generated_Source\PSoC4/nRF24_FUNCS.c **** {
 1068              		.loc 1 574 0
 1069              		.cfi_startproc
 1070              		@ args = 0, pretend = 0, frame = 0
 1071              		@ frame_needed = 0, uses_anonymous_args = 0
 1072 0000 10B5     		push	{r4, lr}
 1073              		.cfi_def_cfa_offset 8
 1074              		.cfi_offset 4, -8
ARM GAS  C:\Users\mikke\AppData\Local\Temp\ccdqBzKj.s 			page 30


 1075              		.cfi_offset 14, -4
 575:Generated_Source\PSoC4/nRF24_FUNCS.c ****     nRF24_clear_bit(NRF_REG_FEATURE, NRF_FEATURE_BIT_EN_ACK_PAY);
 1076              		.loc 1 575 0
 1077 0002 0121     		movs	r1, #1
 1078 0004 1D20     		movs	r0, #29
 1079 0006 FFF7FEFF 		bl	nRF24_clear_bit
 1080              	.LVL84:
 576:Generated_Source\PSoC4/nRF24_FUNCS.c **** }
 1081              		.loc 1 576 0
 1082              		@ sp needed
 1083 000a 10BD     		pop	{r4, pc}
 1084              		.cfi_endproc
 1085              	.LFE35:
 1086              		.size	nRF24_disable_payload_with_ack, .-nRF24_disable_payload_with_ack
 1087              		.section	.text.nRF24_enable_payload_with_no_ack,"ax",%progbits
 1088              		.align	2
 1089              		.global	nRF24_enable_payload_with_no_ack
 1090              		.code	16
 1091              		.thumb_func
 1092              		.type	nRF24_enable_payload_with_no_ack, %function
 1093              	nRF24_enable_payload_with_no_ack:
 1094              	.LFB36:
 577:Generated_Source\PSoC4/nRF24_FUNCS.c **** 
 578:Generated_Source\PSoC4/nRF24_FUNCS.c **** /**
 579:Generated_Source\PSoC4/nRF24_FUNCS.c ****  * @brief Enable dynamic payload length.
 580:Generated_Source\PSoC4/nRF24_FUNCS.c ****  */
 581:Generated_Source\PSoC4/nRF24_FUNCS.c **** void nRF24_enable_payload_with_no_ack(void)
 582:Generated_Source\PSoC4/nRF24_FUNCS.c **** {
 1095              		.loc 1 582 0
 1096              		.cfi_startproc
 1097              		@ args = 0, pretend = 0, frame = 0
 1098              		@ frame_needed = 0, uses_anonymous_args = 0
 1099 0000 10B5     		push	{r4, lr}
 1100              		.cfi_def_cfa_offset 8
 1101              		.cfi_offset 4, -8
 1102              		.cfi_offset 14, -4
 583:Generated_Source\PSoC4/nRF24_FUNCS.c ****     nRF24_set_bit(NRF_REG_FEATURE, NRF_FEATURE_BIT_EN_DYN_ACK);
 1103              		.loc 1 583 0
 1104 0002 0021     		movs	r1, #0
 1105 0004 1D20     		movs	r0, #29
 1106 0006 FFF7FEFF 		bl	nRF24_set_bit
 1107              	.LVL85:
 584:Generated_Source\PSoC4/nRF24_FUNCS.c **** }
 1108              		.loc 1 584 0
 1109              		@ sp needed
 1110 000a 10BD     		pop	{r4, pc}
 1111              		.cfi_endproc
 1112              	.LFE36:
 1113              		.size	nRF24_enable_payload_with_no_ack, .-nRF24_enable_payload_with_no_ack
 1114              		.section	.text.nRF24_disable_payload_with_no_ack,"ax",%progbits
 1115              		.align	2
 1116              		.global	nRF24_disable_payload_with_no_ack
 1117              		.code	16
 1118              		.thumb_func
 1119              		.type	nRF24_disable_payload_with_no_ack, %function
 1120              	nRF24_disable_payload_with_no_ack:
 1121              	.LFB37:
ARM GAS  C:\Users\mikke\AppData\Local\Temp\ccdqBzKj.s 			page 31


 585:Generated_Source\PSoC4/nRF24_FUNCS.c **** 
 586:Generated_Source\PSoC4/nRF24_FUNCS.c **** /**
 587:Generated_Source\PSoC4/nRF24_FUNCS.c ****  * @brief Disable Payload with no ACK.
 588:Generated_Source\PSoC4/nRF24_FUNCS.c ****  */
 589:Generated_Source\PSoC4/nRF24_FUNCS.c **** void nRF24_disable_payload_with_no_ack(void)
 590:Generated_Source\PSoC4/nRF24_FUNCS.c **** {
 1122              		.loc 1 590 0
 1123              		.cfi_startproc
 1124              		@ args = 0, pretend = 0, frame = 0
 1125              		@ frame_needed = 0, uses_anonymous_args = 0
 1126 0000 10B5     		push	{r4, lr}
 1127              		.cfi_def_cfa_offset 8
 1128              		.cfi_offset 4, -8
 1129              		.cfi_offset 14, -4
 591:Generated_Source\PSoC4/nRF24_FUNCS.c ****     nRF24_clear_bit(NRF_REG_FEATURE, NRF_FEATURE_BIT_EN_DYN_ACK);
 1130              		.loc 1 591 0
 1131 0002 0021     		movs	r1, #0
 1132 0004 1D20     		movs	r0, #29
 1133 0006 FFF7FEFF 		bl	nRF24_clear_bit
 1134              	.LVL86:
 592:Generated_Source\PSoC4/nRF24_FUNCS.c **** }
 1135              		.loc 1 592 0
 1136              		@ sp needed
 1137 000a 10BD     		pop	{r4, pc}
 1138              		.cfi_endproc
 1139              	.LFE37:
 1140              		.size	nRF24_disable_payload_with_no_ack, .-nRF24_disable_payload_with_no_ack
 1141              		.section	.text.nRF24_start_listening,"ax",%progbits
 1142              		.align	2
 1143              		.global	nRF24_start_listening
 1144              		.code	16
 1145              		.thumb_func
 1146              		.type	nRF24_start_listening, %function
 1147              	nRF24_start_listening:
 1148              	.LFB38:
 593:Generated_Source\PSoC4/nRF24_FUNCS.c **** 
 594:Generated_Source\PSoC4/nRF24_FUNCS.c **** /**
 595:Generated_Source\PSoC4/nRF24_FUNCS.c ****  * @brief The nRF24 radio will start listening.
 596:Generated_Source\PSoC4/nRF24_FUNCS.c ****  *
 597:Generated_Source\PSoC4/nRF24_FUNCS.c ****  * This function set the pin CE to logic high, this enable the radio for
 598:Generated_Source\PSoC4/nRF24_FUNCS.c ****  * listening.
 599:Generated_Source\PSoC4/nRF24_FUNCS.c ****  */
 600:Generated_Source\PSoC4/nRF24_FUNCS.c **** void nRF24_start_listening(void)
 601:Generated_Source\PSoC4/nRF24_FUNCS.c **** {
 1149              		.loc 1 601 0
 1150              		.cfi_startproc
 1151              		@ args = 0, pretend = 0, frame = 0
 1152              		@ frame_needed = 0, uses_anonymous_args = 0
 1153 0000 10B5     		push	{r4, lr}
 1154              		.cfi_def_cfa_offset 8
 1155              		.cfi_offset 4, -8
 1156              		.cfi_offset 14, -4
 602:Generated_Source\PSoC4/nRF24_FUNCS.c ****     nRF24_ce_write(GPIO_SET);
 1157              		.loc 1 602 0
 1158 0002 0120     		movs	r0, #1
 1159 0004 FFF7FEFF 		bl	nRF24_ce_write
 1160              	.LVL87:
ARM GAS  C:\Users\mikke\AppData\Local\Temp\ccdqBzKj.s 			page 32


 603:Generated_Source\PSoC4/nRF24_FUNCS.c **** }
 1161              		.loc 1 603 0
 1162              		@ sp needed
 1163 0008 10BD     		pop	{r4, pc}
 1164              		.cfi_endproc
 1165              	.LFE38:
 1166              		.size	nRF24_start_listening, .-nRF24_start_listening
 1167 000a C046     		.section	.text.nRF24_set_standby_ii_mode,"ax",%progbits
 1168              		.align	2
 1169              		.global	nRF24_set_standby_ii_mode
 1170              		.code	16
 1171              		.thumb_func
 1172              		.type	nRF24_set_standby_ii_mode, %function
 1173              	nRF24_set_standby_ii_mode:
 1174              	.LFB12:
 239:Generated_Source\PSoC4/nRF24_FUNCS.c ****     nRF24_start_listening();
 1175              		.loc 1 239 0
 1176              		.cfi_startproc
 1177              		@ args = 0, pretend = 0, frame = 0
 1178              		@ frame_needed = 0, uses_anonymous_args = 0
 1179 0000 10B5     		push	{r4, lr}
 1180              		.cfi_def_cfa_offset 8
 1181              		.cfi_offset 4, -8
 1182              		.cfi_offset 14, -4
 240:Generated_Source\PSoC4/nRF24_FUNCS.c ****     nRF24_set_bit(NRF_REG_CONFIG, NRF_CONFIG_PWR_UP);
 1183              		.loc 1 240 0
 1184 0002 FFF7FEFF 		bl	nRF24_start_listening
 1185              	.LVL88:
 241:Generated_Source\PSoC4/nRF24_FUNCS.c **** }
 1186              		.loc 1 241 0
 1187 0006 0221     		movs	r1, #2
 1188 0008 0020     		movs	r0, #0
 1189 000a FFF7FEFF 		bl	nRF24_set_bit
 1190              	.LVL89:
 242:Generated_Source\PSoC4/nRF24_FUNCS.c **** 
 1191              		.loc 1 242 0
 1192              		@ sp needed
 1193 000e 10BD     		pop	{r4, pc}
 1194              		.cfi_endproc
 1195              	.LFE12:
 1196              		.size	nRF24_set_standby_ii_mode, .-nRF24_set_standby_ii_mode
 1197              		.section	.text.nRF24_stop_listening,"ax",%progbits
 1198              		.align	2
 1199              		.global	nRF24_stop_listening
 1200              		.code	16
 1201              		.thumb_func
 1202              		.type	nRF24_stop_listening, %function
 1203              	nRF24_stop_listening:
 1204              	.LFB39:
 604:Generated_Source\PSoC4/nRF24_FUNCS.c **** 
 605:Generated_Source\PSoC4/nRF24_FUNCS.c **** /**
 606:Generated_Source\PSoC4/nRF24_FUNCS.c ****  * @brief The nRF24 radio will stop listening.
 607:Generated_Source\PSoC4/nRF24_FUNCS.c ****  *
 608:Generated_Source\PSoC4/nRF24_FUNCS.c ****  * This function the pin CE of the nRF24 radio will be set to logic low,
 609:Generated_Source\PSoC4/nRF24_FUNCS.c ****  * this disable the radio for listening.
 610:Generated_Source\PSoC4/nRF24_FUNCS.c ****  */
 611:Generated_Source\PSoC4/nRF24_FUNCS.c **** void nRF24_stop_listening(void)
ARM GAS  C:\Users\mikke\AppData\Local\Temp\ccdqBzKj.s 			page 33


 612:Generated_Source\PSoC4/nRF24_FUNCS.c **** {
 1205              		.loc 1 612 0
 1206              		.cfi_startproc
 1207              		@ args = 0, pretend = 0, frame = 0
 1208              		@ frame_needed = 0, uses_anonymous_args = 0
 1209 0000 10B5     		push	{r4, lr}
 1210              		.cfi_def_cfa_offset 8
 1211              		.cfi_offset 4, -8
 1212              		.cfi_offset 14, -4
 613:Generated_Source\PSoC4/nRF24_FUNCS.c ****     nRF24_ce_write(GPIO_CLEAR);
 1213              		.loc 1 613 0
 1214 0002 0020     		movs	r0, #0
 1215 0004 FFF7FEFF 		bl	nRF24_ce_write
 1216              	.LVL90:
 614:Generated_Source\PSoC4/nRF24_FUNCS.c **** }
 1217              		.loc 1 614 0
 1218              		@ sp needed
 1219 0008 10BD     		pop	{r4, pc}
 1220              		.cfi_endproc
 1221              	.LFE39:
 1222              		.size	nRF24_stop_listening, .-nRF24_stop_listening
 1223 000a C046     		.section	.text.nRF24_set_standby_i_mode,"ax",%progbits
 1224              		.align	2
 1225              		.global	nRF24_set_standby_i_mode
 1226              		.code	16
 1227              		.thumb_func
 1228              		.type	nRF24_set_standby_i_mode, %function
 1229              	nRF24_set_standby_i_mode:
 1230              	.LFB11:
 224:Generated_Source\PSoC4/nRF24_FUNCS.c ****     nRF24_stop_listening();
 1231              		.loc 1 224 0
 1232              		.cfi_startproc
 1233              		@ args = 0, pretend = 0, frame = 0
 1234              		@ frame_needed = 0, uses_anonymous_args = 0
 1235 0000 10B5     		push	{r4, lr}
 1236              		.cfi_def_cfa_offset 8
 1237              		.cfi_offset 4, -8
 1238              		.cfi_offset 14, -4
 225:Generated_Source\PSoC4/nRF24_FUNCS.c ****     nRF24_set_bit(NRF_REG_CONFIG, NRF_CONFIG_PWR_UP);
 1239              		.loc 1 225 0
 1240 0002 FFF7FEFF 		bl	nRF24_stop_listening
 1241              	.LVL91:
 226:Generated_Source\PSoC4/nRF24_FUNCS.c **** }
 1242              		.loc 1 226 0
 1243 0006 0221     		movs	r1, #2
 1244 0008 0020     		movs	r0, #0
 1245 000a FFF7FEFF 		bl	nRF24_set_bit
 1246              	.LVL92:
 227:Generated_Source\PSoC4/nRF24_FUNCS.c **** 
 1247              		.loc 1 227 0
 1248              		@ sp needed
 1249 000e 10BD     		pop	{r4, pc}
 1250              		.cfi_endproc
 1251              	.LFE11:
 1252              		.size	nRF24_set_standby_i_mode, .-nRF24_set_standby_i_mode
 1253              		.section	.text.nRF24_sleep,"ax",%progbits
 1254              		.align	2
ARM GAS  C:\Users\mikke\AppData\Local\Temp\ccdqBzKj.s 			page 34


 1255              		.global	nRF24_sleep
 1256              		.code	16
 1257              		.thumb_func
 1258              		.type	nRF24_sleep, %function
 1259              	nRF24_sleep:
 1260              	.LFB5:
 152:Generated_Source\PSoC4/nRF24_FUNCS.c ****     // is standby.I the lowest power mode?
 1261              		.loc 1 152 0
 1262              		.cfi_startproc
 1263              		@ args = 0, pretend = 0, frame = 0
 1264              		@ frame_needed = 0, uses_anonymous_args = 0
 1265 0000 10B5     		push	{r4, lr}
 1266              		.cfi_def_cfa_offset 8
 1267              		.cfi_offset 4, -8
 1268              		.cfi_offset 14, -4
 154:Generated_Source\PSoC4/nRF24_FUNCS.c **** }
 1269              		.loc 1 154 0
 1270 0002 FFF7FEFF 		bl	nRF24_set_standby_i_mode
 1271              	.LVL93:
 155:Generated_Source\PSoC4/nRF24_FUNCS.c **** 
 1272              		.loc 1 155 0
 1273              		@ sp needed
 1274 0006 10BD     		pop	{r4, pc}
 1275              		.cfi_endproc
 1276              	.LFE5:
 1277              		.size	nRF24_sleep, .-nRF24_sleep
 1278              		.section	.text.nRF24_transmit_pulse,"ax",%progbits
 1279              		.align	2
 1280              		.global	nRF24_transmit_pulse
 1281              		.code	16
 1282              		.thumb_func
 1283              		.type	nRF24_transmit_pulse, %function
 1284              	nRF24_transmit_pulse:
 1285              	.LFB40:
 615:Generated_Source\PSoC4/nRF24_FUNCS.c **** 
 616:Generated_Source\PSoC4/nRF24_FUNCS.c **** /**
 617:Generated_Source\PSoC4/nRF24_FUNCS.c ****  * @brief Transmit pulse on the CE pin.
 618:Generated_Source\PSoC4/nRF24_FUNCS.c ****  *
 619:Generated_Source\PSoC4/nRF24_FUNCS.c ****  * With this function the CE pin of the nRF24 radio will have a pulse of 15us,
 620:Generated_Source\PSoC4/nRF24_FUNCS.c ****  * this pulse trigger a transmission of the content of the TX FIFO.
 621:Generated_Source\PSoC4/nRF24_FUNCS.c ****  */
 622:Generated_Source\PSoC4/nRF24_FUNCS.c **** void nRF24_transmit_pulse(void)
 623:Generated_Source\PSoC4/nRF24_FUNCS.c **** {
 1286              		.loc 1 623 0
 1287              		.cfi_startproc
 1288              		@ args = 0, pretend = 0, frame = 0
 1289              		@ frame_needed = 0, uses_anonymous_args = 0
 1290 0000 10B5     		push	{r4, lr}
 1291              		.cfi_def_cfa_offset 8
 1292              		.cfi_offset 4, -8
 1293              		.cfi_offset 14, -4
 624:Generated_Source\PSoC4/nRF24_FUNCS.c ****     nRF24_ce_write(GPIO_SET);
 1294              		.loc 1 624 0
 1295 0002 0120     		movs	r0, #1
 1296 0004 FFF7FEFF 		bl	nRF24_ce_write
 1297              	.LVL94:
 625:Generated_Source\PSoC4/nRF24_FUNCS.c ****     CyDelayUs(NRF_CE_PULSE_WIDTH_US);
ARM GAS  C:\Users\mikke\AppData\Local\Temp\ccdqBzKj.s 			page 35


 1298              		.loc 1 625 0
 1299 0008 0F20     		movs	r0, #15
 1300 000a FFF7FEFF 		bl	CyDelayUs
 1301              	.LVL95:
 626:Generated_Source\PSoC4/nRF24_FUNCS.c ****     nRF24_ce_write(GPIO_CLEAR);
 1302              		.loc 1 626 0
 1303 000e 0020     		movs	r0, #0
 1304 0010 FFF7FEFF 		bl	nRF24_ce_write
 1305              	.LVL96:
 627:Generated_Source\PSoC4/nRF24_FUNCS.c **** }
 1306              		.loc 1 627 0
 1307              		@ sp needed
 1308 0014 10BD     		pop	{r4, pc}
 1309              		.cfi_endproc
 1310              	.LFE40:
 1311              		.size	nRF24_transmit_pulse, .-nRF24_transmit_pulse
 1312 0016 C046     		.section	.text.nRF24_reuse_last_transmitted_payload,"ax",%progbits
 1313              		.align	2
 1314              		.global	nRF24_reuse_last_transmitted_payload
 1315              		.code	16
 1316              		.thumb_func
 1317              		.type	nRF24_reuse_last_transmitted_payload, %function
 1318              	nRF24_reuse_last_transmitted_payload:
 1319              	.LFB27:
 493:Generated_Source\PSoC4/nRF24_FUNCS.c ****     nRF24_reuse_tx_payload_cmd();
 1320              		.loc 1 493 0
 1321              		.cfi_startproc
 1322              		@ args = 0, pretend = 0, frame = 0
 1323              		@ frame_needed = 0, uses_anonymous_args = 0
 1324 0000 10B5     		push	{r4, lr}
 1325              		.cfi_def_cfa_offset 8
 1326              		.cfi_offset 4, -8
 1327              		.cfi_offset 14, -4
 494:Generated_Source\PSoC4/nRF24_FUNCS.c ****     nRF24_transmit_pulse();
 1328              		.loc 1 494 0
 1329 0002 FFF7FEFF 		bl	nRF24_reuse_tx_payload_cmd
 1330              	.LVL97:
 495:Generated_Source\PSoC4/nRF24_FUNCS.c **** }
 1331              		.loc 1 495 0
 1332 0006 FFF7FEFF 		bl	nRF24_transmit_pulse
 1333              	.LVL98:
 496:Generated_Source\PSoC4/nRF24_FUNCS.c **** 
 1334              		.loc 1 496 0
 1335              		@ sp needed
 1336 000a 10BD     		pop	{r4, pc}
 1337              		.cfi_endproc
 1338              	.LFE27:
 1339              		.size	nRF24_reuse_last_transmitted_payload, .-nRF24_reuse_last_transmitted_payload
 1340              		.section	.text.nRF24_get_status,"ax",%progbits
 1341              		.align	2
 1342              		.global	nRF24_get_status
 1343              		.code	16
 1344              		.thumb_func
 1345              		.type	nRF24_get_status, %function
 1346              	nRF24_get_status:
 1347              	.LFB41:
 628:Generated_Source\PSoC4/nRF24_FUNCS.c **** 
ARM GAS  C:\Users\mikke\AppData\Local\Temp\ccdqBzKj.s 			page 36


 629:Generated_Source\PSoC4/nRF24_FUNCS.c **** /**
 630:Generated_Source\PSoC4/nRF24_FUNCS.c ****  * @brief Get the STATUS register of the nRF24.
 631:Generated_Source\PSoC4/nRF24_FUNCS.c ****  *
 632:Generated_Source\PSoC4/nRF24_FUNCS.c ****  * @return uint8_t: STATUS register of the nRF24.
 633:Generated_Source\PSoC4/nRF24_FUNCS.c ****  */
 634:Generated_Source\PSoC4/nRF24_FUNCS.c **** uint8_t nRF24_get_status(void)
 635:Generated_Source\PSoC4/nRF24_FUNCS.c **** {
 1348              		.loc 1 635 0
 1349              		.cfi_startproc
 1350              		@ args = 0, pretend = 0, frame = 0
 1351              		@ frame_needed = 0, uses_anonymous_args = 0
 1352 0000 10B5     		push	{r4, lr}
 1353              		.cfi_def_cfa_offset 8
 1354              		.cfi_offset 4, -8
 1355              		.cfi_offset 14, -4
 636:Generated_Source\PSoC4/nRF24_FUNCS.c ****     return nRF24_nop_cmd();
 1356              		.loc 1 636 0
 1357 0002 FFF7FEFF 		bl	nRF24_nop_cmd
 1358              	.LVL99:
 637:Generated_Source\PSoC4/nRF24_FUNCS.c **** }
 1359              		.loc 1 637 0
 1360              		@ sp needed
 1361 0006 10BD     		pop	{r4, pc}
 1362              		.cfi_endproc
 1363              	.LFE41:
 1364              		.size	nRF24_get_status, .-nRF24_get_status
 1365              		.section	.text.nRF24_get_fifo_status,"ax",%progbits
 1366              		.align	2
 1367              		.global	nRF24_get_fifo_status
 1368              		.code	16
 1369              		.thumb_func
 1370              		.type	nRF24_get_fifo_status, %function
 1371              	nRF24_get_fifo_status:
 1372              	.LFB42:
 638:Generated_Source\PSoC4/nRF24_FUNCS.c **** 
 639:Generated_Source\PSoC4/nRF24_FUNCS.c **** /**
 640:Generated_Source\PSoC4/nRF24_FUNCS.c ****  * @brief Get the STATUS register of the nRF24.
 641:Generated_Source\PSoC4/nRF24_FUNCS.c ****  *
 642:Generated_Source\PSoC4/nRF24_FUNCS.c ****  * @return uint8_t: STATUS register of the nRF24.
 643:Generated_Source\PSoC4/nRF24_FUNCS.c ****  */
 644:Generated_Source\PSoC4/nRF24_FUNCS.c **** uint8_t nRF24_get_fifo_status(void)
 645:Generated_Source\PSoC4/nRF24_FUNCS.c **** {
 1373              		.loc 1 645 0
 1374              		.cfi_startproc
 1375              		@ args = 0, pretend = 0, frame = 0
 1376              		@ frame_needed = 0, uses_anonymous_args = 0
 1377 0000 10B5     		push	{r4, lr}
 1378              		.cfi_def_cfa_offset 8
 1379              		.cfi_offset 4, -8
 1380              		.cfi_offset 14, -4
 646:Generated_Source\PSoC4/nRF24_FUNCS.c ****     return nRF24_read_register(NRF_REG_FIFO_STATUS);
 1381              		.loc 1 646 0
 1382 0002 1720     		movs	r0, #23
 1383 0004 FFF7FEFF 		bl	nRF24_read_register
 1384              	.LVL100:
 647:Generated_Source\PSoC4/nRF24_FUNCS.c **** }
 1385              		.loc 1 647 0
ARM GAS  C:\Users\mikke\AppData\Local\Temp\ccdqBzKj.s 			page 37


 1386              		@ sp needed
 1387 0008 10BD     		pop	{r4, pc}
 1388              		.cfi_endproc
 1389              	.LFE42:
 1390              		.size	nRF24_get_fifo_status, .-nRF24_get_fifo_status
 1391 000a C046     		.section	.text.nRF24_get_retransmissions_count,"ax",%progbits
 1392              		.align	2
 1393              		.global	nRF24_get_retransmissions_count
 1394              		.code	16
 1395              		.thumb_func
 1396              		.type	nRF24_get_retransmissions_count, %function
 1397              	nRF24_get_retransmissions_count:
 1398              	.LFB43:
 648:Generated_Source\PSoC4/nRF24_FUNCS.c **** 
 649:Generated_Source\PSoC4/nRF24_FUNCS.c **** /**
 650:Generated_Source\PSoC4/nRF24_FUNCS.c ****  * @brief Get the number of retransmissions.
 651:Generated_Source\PSoC4/nRF24_FUNCS.c ****  *
 652:Generated_Source\PSoC4/nRF24_FUNCS.c ****  * @return uint8_t: Retransmissions count.
 653:Generated_Source\PSoC4/nRF24_FUNCS.c ****  */
 654:Generated_Source\PSoC4/nRF24_FUNCS.c **** uint8_t nRF24_get_retransmissions_count(void)
 655:Generated_Source\PSoC4/nRF24_FUNCS.c **** {
 1399              		.loc 1 655 0
 1400              		.cfi_startproc
 1401              		@ args = 0, pretend = 0, frame = 0
 1402              		@ frame_needed = 0, uses_anonymous_args = 0
 1403 0000 10B5     		push	{r4, lr}
 1404              		.cfi_def_cfa_offset 8
 1405              		.cfi_offset 4, -8
 1406              		.cfi_offset 14, -4
 656:Generated_Source\PSoC4/nRF24_FUNCS.c ****     uint8_t count = nRF24_read_register(NRF_REG_OBSERVE_TX);
 1407              		.loc 1 656 0
 1408 0002 0820     		movs	r0, #8
 1409 0004 FFF7FEFF 		bl	nRF24_read_register
 1410              	.LVL101:
 657:Generated_Source\PSoC4/nRF24_FUNCS.c ****     return count & NRF_OBSERVE_TX_ARC_CNT_MASK;
 1411              		.loc 1 657 0
 1412 0008 0F23     		movs	r3, #15
 1413 000a 1840     		ands	r0, r3
 1414              	.LVL102:
 658:Generated_Source\PSoC4/nRF24_FUNCS.c **** }
 1415              		.loc 1 658 0
 1416              		@ sp needed
 1417 000c 10BD     		pop	{r4, pc}
 1418              		.cfi_endproc
 1419              	.LFE43:
 1420              		.size	nRF24_get_retransmissions_count, .-nRF24_get_retransmissions_count
 1421 000e C046     		.section	.text.nRF24_get_lost_packets_count,"ax",%progbits
 1422              		.align	2
 1423              		.global	nRF24_get_lost_packets_count
 1424              		.code	16
 1425              		.thumb_func
 1426              		.type	nRF24_get_lost_packets_count, %function
 1427              	nRF24_get_lost_packets_count:
 1428              	.LFB44:
 659:Generated_Source\PSoC4/nRF24_FUNCS.c **** 
 660:Generated_Source\PSoC4/nRF24_FUNCS.c **** /**
 661:Generated_Source\PSoC4/nRF24_FUNCS.c ****  * @brief Get the number of lost packets.
ARM GAS  C:\Users\mikke\AppData\Local\Temp\ccdqBzKj.s 			page 38


 662:Generated_Source\PSoC4/nRF24_FUNCS.c ****  *
 663:Generated_Source\PSoC4/nRF24_FUNCS.c ****  * @return uint8_t: Lost packets.
 664:Generated_Source\PSoC4/nRF24_FUNCS.c ****  */
 665:Generated_Source\PSoC4/nRF24_FUNCS.c **** uint8_t nRF24_get_lost_packets_count(void)
 666:Generated_Source\PSoC4/nRF24_FUNCS.c **** {
 1429              		.loc 1 666 0
 1430              		.cfi_startproc
 1431              		@ args = 0, pretend = 0, frame = 0
 1432              		@ frame_needed = 0, uses_anonymous_args = 0
 1433 0000 10B5     		push	{r4, lr}
 1434              		.cfi_def_cfa_offset 8
 1435              		.cfi_offset 4, -8
 1436              		.cfi_offset 14, -4
 667:Generated_Source\PSoC4/nRF24_FUNCS.c ****     uint8_t lostPackets = nRF24_read_register(NRF_REG_OBSERVE_TX);
 1437              		.loc 1 667 0
 1438 0002 0820     		movs	r0, #8
 1439 0004 FFF7FEFF 		bl	nRF24_read_register
 1440              	.LVL103:
 668:Generated_Source\PSoC4/nRF24_FUNCS.c ****     lostPackets = lostPackets & NRF_OBSERVE_TX_PLOS_CNT_MASK;
 669:Generated_Source\PSoC4/nRF24_FUNCS.c ****     return lostPackets >> NRF_OBSERVE_TX_BIT_PLOS_CNT;
 1441              		.loc 1 669 0
 1442 0008 0009     		lsrs	r0, r0, #4
 1443              	.LVL104:
 1444 000a C0B2     		uxtb	r0, r0
 670:Generated_Source\PSoC4/nRF24_FUNCS.c **** }
 1445              		.loc 1 670 0
 1446              		@ sp needed
 1447 000c 10BD     		pop	{r4, pc}
 1448              		.cfi_endproc
 1449              	.LFE44:
 1450              		.size	nRF24_get_lost_packets_count, .-nRF24_get_lost_packets_count
 1451 000e C046     		.section	.text.nRF24_put_in_tx_fifo,"ax",%progbits
 1452              		.align	2
 1453              		.global	nRF24_put_in_tx_fifo
 1454              		.code	16
 1455              		.thumb_func
 1456              		.type	nRF24_put_in_tx_fifo, %function
 1457              	nRF24_put_in_tx_fifo:
 1458              	.LFB45:
 671:Generated_Source\PSoC4/nRF24_FUNCS.c **** 
 672:Generated_Source\PSoC4/nRF24_FUNCS.c **** /**
 673:Generated_Source\PSoC4/nRF24_FUNCS.c ****  * Put data into the TX FIFO wihout sending it.
 674:Generated_Source\PSoC4/nRF24_FUNCS.c ****  *
 675:Generated_Source\PSoC4/nRF24_FUNCS.c ****  * @param const uint8_t* data:
 676:Generated_Source\PSoC4/nRF24_FUNCS.c ****  * @param const size_t size:
 677:Generated_Source\PSoC4/nRF24_FUNCS.c ****  */
 678:Generated_Source\PSoC4/nRF24_FUNCS.c **** void nRF24_put_in_tx_fifo(const uint8_t* data, size_t size)
 679:Generated_Source\PSoC4/nRF24_FUNCS.c **** {
 1459              		.loc 1 679 0
 1460              		.cfi_startproc
 1461              		@ args = 0, pretend = 0, frame = 0
 1462              		@ frame_needed = 0, uses_anonymous_args = 0
 1463              	.LVL105:
 1464 0000 10B5     		push	{r4, lr}
 1465              		.cfi_def_cfa_offset 8
 1466              		.cfi_offset 4, -8
 1467              		.cfi_offset 14, -4
ARM GAS  C:\Users\mikke\AppData\Local\Temp\ccdqBzKj.s 			page 39


 680:Generated_Source\PSoC4/nRF24_FUNCS.c ****     if (NULL == data) {
 1468              		.loc 1 680 0
 1469 0002 0028     		cmp	r0, #0
 1470 0004 04D0     		beq	.L81
 681:Generated_Source\PSoC4/nRF24_FUNCS.c ****         return;
 682:Generated_Source\PSoC4/nRF24_FUNCS.c ****     }
 683:Generated_Source\PSoC4/nRF24_FUNCS.c **** 
 684:Generated_Source\PSoC4/nRF24_FUNCS.c ****     if (NRF_PAYLOAD_SIZE_MAX < size) {
 1471              		.loc 1 684 0
 1472 0006 2029     		cmp	r1, #32
 1473 0008 00D9     		bls	.L83
 685:Generated_Source\PSoC4/nRF24_FUNCS.c ****         size = NRF_PAYLOAD_SIZE_MAX;
 1474              		.loc 1 685 0
 1475 000a 2021     		movs	r1, #32
 1476              	.LVL106:
 1477              	.L83:
 686:Generated_Source\PSoC4/nRF24_FUNCS.c ****     }
 687:Generated_Source\PSoC4/nRF24_FUNCS.c **** 
 688:Generated_Source\PSoC4/nRF24_FUNCS.c ****     nRF24_write_tx_payload_cmd(data, size);
 1478              		.loc 1 688 0
 1479 000c FFF7FEFF 		bl	nRF24_write_tx_payload_cmd
 1480              	.LVL107:
 1481              	.L81:
 689:Generated_Source\PSoC4/nRF24_FUNCS.c **** }
 1482              		.loc 1 689 0
 1483              		@ sp needed
 1484 0010 10BD     		pop	{r4, pc}
 1485              		.cfi_endproc
 1486              	.LFE45:
 1487              		.size	nRF24_put_in_tx_fifo, .-nRF24_put_in_tx_fifo
 1488 0012 C046     		.section	.text.nRF24_transmit,"ax",%progbits
 1489              		.align	2
 1490              		.global	nRF24_transmit
 1491              		.code	16
 1492              		.thumb_func
 1493              		.type	nRF24_transmit, %function
 1494              	nRF24_transmit:
 1495              	.LFB46:
 690:Generated_Source\PSoC4/nRF24_FUNCS.c **** 
 691:Generated_Source\PSoC4/nRF24_FUNCS.c **** /**
 692:Generated_Source\PSoC4/nRF24_FUNCS.c ****  * Put data in TX FIFO and transmit it.
 693:Generated_Source\PSoC4/nRF24_FUNCS.c ****  *
 694:Generated_Source\PSoC4/nRF24_FUNCS.c ****  * @param const uint8_t* data:
 695:Generated_Source\PSoC4/nRF24_FUNCS.c ****  * @param const size_t size:
 696:Generated_Source\PSoC4/nRF24_FUNCS.c ****  */
 697:Generated_Source\PSoC4/nRF24_FUNCS.c **** void nRF24_transmit(const uint8_t* data, size_t size)
 698:Generated_Source\PSoC4/nRF24_FUNCS.c **** {
 1496              		.loc 1 698 0
 1497              		.cfi_startproc
 1498              		@ args = 0, pretend = 0, frame = 0
 1499              		@ frame_needed = 0, uses_anonymous_args = 0
 1500              	.LVL108:
 1501 0000 10B5     		push	{r4, lr}
 1502              		.cfi_def_cfa_offset 8
 1503              		.cfi_offset 4, -8
 1504              		.cfi_offset 14, -4
 699:Generated_Source\PSoC4/nRF24_FUNCS.c ****     if (NULL == data) {
ARM GAS  C:\Users\mikke\AppData\Local\Temp\ccdqBzKj.s 			page 40


 1505              		.loc 1 699 0
 1506 0002 0028     		cmp	r0, #0
 1507 0004 06D0     		beq	.L85
 700:Generated_Source\PSoC4/nRF24_FUNCS.c ****         return;
 701:Generated_Source\PSoC4/nRF24_FUNCS.c ****     }
 702:Generated_Source\PSoC4/nRF24_FUNCS.c **** 
 703:Generated_Source\PSoC4/nRF24_FUNCS.c ****     if (NRF_PAYLOAD_SIZE_MAX < size) {
 1508              		.loc 1 703 0
 1509 0006 2029     		cmp	r1, #32
 1510 0008 00D9     		bls	.L87
 704:Generated_Source\PSoC4/nRF24_FUNCS.c ****         size = NRF_PAYLOAD_SIZE_MAX;
 1511              		.loc 1 704 0
 1512 000a 2021     		movs	r1, #32
 1513              	.LVL109:
 1514              	.L87:
 705:Generated_Source\PSoC4/nRF24_FUNCS.c ****     }
 706:Generated_Source\PSoC4/nRF24_FUNCS.c **** 
 707:Generated_Source\PSoC4/nRF24_FUNCS.c ****     nRF24_put_in_tx_fifo(data, size);
 1515              		.loc 1 707 0
 1516 000c FFF7FEFF 		bl	nRF24_put_in_tx_fifo
 1517              	.LVL110:
 708:Generated_Source\PSoC4/nRF24_FUNCS.c ****     nRF24_transmit_pulse();
 1518              		.loc 1 708 0
 1519 0010 FFF7FEFF 		bl	nRF24_transmit_pulse
 1520              	.LVL111:
 1521              	.L85:
 709:Generated_Source\PSoC4/nRF24_FUNCS.c **** }
 1522              		.loc 1 709 0
 1523              		@ sp needed
 1524 0014 10BD     		pop	{r4, pc}
 1525              		.cfi_endproc
 1526              	.LFE46:
 1527              		.size	nRF24_transmit, .-nRF24_transmit
 1528 0016 C046     		.section	.text.nRF24_is_data_ready,"ax",%progbits
 1529              		.align	2
 1530              		.global	nRF24_is_data_ready
 1531              		.code	16
 1532              		.thumb_func
 1533              		.type	nRF24_is_data_ready, %function
 1534              	nRF24_is_data_ready:
 1535              	.LFB47:
 710:Generated_Source\PSoC4/nRF24_FUNCS.c **** 
 711:Generated_Source\PSoC4/nRF24_FUNCS.c **** /**
 712:Generated_Source\PSoC4/nRF24_FUNCS.c ****  * @brief
 713:Generated_Source\PSoC4/nRF24_FUNCS.c ****  *
 714:Generated_Source\PSoC4/nRF24_FUNCS.c ****  * @return bool: True if there's data ready.
 715:Generated_Source\PSoC4/nRF24_FUNCS.c ****  */
 716:Generated_Source\PSoC4/nRF24_FUNCS.c **** bool nRF24_is_data_ready(void)
 717:Generated_Source\PSoC4/nRF24_FUNCS.c **** {
 1536              		.loc 1 717 0
 1537              		.cfi_startproc
 1538              		@ args = 0, pretend = 0, frame = 0
 1539              		@ frame_needed = 0, uses_anonymous_args = 0
 1540 0000 10B5     		push	{r4, lr}
 1541              		.cfi_def_cfa_offset 8
 1542              		.cfi_offset 4, -8
 1543              		.cfi_offset 14, -4
ARM GAS  C:\Users\mikke\AppData\Local\Temp\ccdqBzKj.s 			page 41


 718:Generated_Source\PSoC4/nRF24_FUNCS.c ****     return NRF_STATUS_RX_DR_MASK & nRF24_get_status();
 1544              		.loc 1 718 0
 1545 0002 FFF7FEFF 		bl	nRF24_get_status
 1546              	.LVL112:
 1547 0006 8009     		lsrs	r0, r0, #6
 1548 0008 0123     		movs	r3, #1
 1549 000a 1840     		ands	r0, r3
 719:Generated_Source\PSoC4/nRF24_FUNCS.c **** }
 1550              		.loc 1 719 0
 1551              		@ sp needed
 1552 000c 10BD     		pop	{r4, pc}
 1553              		.cfi_endproc
 1554              	.LFE47:
 1555              		.size	nRF24_is_data_ready, .-nRF24_is_data_ready
 1556 000e C046     		.section	.text.nRF24_get_rx_payload,"ax",%progbits
 1557              		.align	2
 1558              		.global	nRF24_get_rx_payload
 1559              		.code	16
 1560              		.thumb_func
 1561              		.type	nRF24_get_rx_payload, %function
 1562              	nRF24_get_rx_payload:
 1563              	.LFB48:
 720:Generated_Source\PSoC4/nRF24_FUNCS.c **** 
 721:Generated_Source\PSoC4/nRF24_FUNCS.c **** /**
 722:Generated_Source\PSoC4/nRF24_FUNCS.c ****  * @brief
 723:Generated_Source\PSoC4/nRF24_FUNCS.c ****  *
 724:Generated_Source\PSoC4/nRF24_FUNCS.c ****  * @param uint8_t* data:
 725:Generated_Source\PSoC4/nRF24_FUNCS.c ****  * @param const size_t size:
 726:Generated_Source\PSoC4/nRF24_FUNCS.c ****  */
 727:Generated_Source\PSoC4/nRF24_FUNCS.c **** void nRF24_get_rx_payload(uint8_t *data, const size_t size)
 728:Generated_Source\PSoC4/nRF24_FUNCS.c **** {
 1564              		.loc 1 728 0
 1565              		.cfi_startproc
 1566              		@ args = 0, pretend = 0, frame = 0
 1567              		@ frame_needed = 0, uses_anonymous_args = 0
 1568              	.LVL113:
 1569 0000 70B5     		push	{r4, r5, r6, lr}
 1570              		.cfi_def_cfa_offset 16
 1571              		.cfi_offset 4, -16
 1572              		.cfi_offset 5, -12
 1573              		.cfi_offset 6, -8
 1574              		.cfi_offset 14, -4
 1575 0002 0400     		movs	r4, r0
 1576 0004 0D00     		movs	r5, r1
 729:Generated_Source\PSoC4/nRF24_FUNCS.c ****     if (NULL == data) {
 1577              		.loc 1 729 0
 1578 0006 0028     		cmp	r0, #0
 1579 0008 09D0     		beq	.L90
 730:Generated_Source\PSoC4/nRF24_FUNCS.c ****         return;
 731:Generated_Source\PSoC4/nRF24_FUNCS.c ****     }
 732:Generated_Source\PSoC4/nRF24_FUNCS.c **** 
 733:Generated_Source\PSoC4/nRF24_FUNCS.c ****     nRF24_ce_write(GPIO_CLEAR);
 1580              		.loc 1 733 0
 1581 000a 0020     		movs	r0, #0
 1582              	.LVL114:
 1583 000c FFF7FEFF 		bl	nRF24_ce_write
 1584              	.LVL115:
ARM GAS  C:\Users\mikke\AppData\Local\Temp\ccdqBzKj.s 			page 42


 734:Generated_Source\PSoC4/nRF24_FUNCS.c ****     nRF24_read_rx_payload_cmd(data, size);
 1585              		.loc 1 734 0
 1586 0010 2900     		movs	r1, r5
 1587 0012 2000     		movs	r0, r4
 1588 0014 FFF7FEFF 		bl	nRF24_read_rx_payload_cmd
 1589              	.LVL116:
 735:Generated_Source\PSoC4/nRF24_FUNCS.c ****     nRF24_ce_write(GPIO_SET);
 1590              		.loc 1 735 0
 1591 0018 0120     		movs	r0, #1
 1592 001a FFF7FEFF 		bl	nRF24_ce_write
 1593              	.LVL117:
 1594              	.L90:
 736:Generated_Source\PSoC4/nRF24_FUNCS.c **** }
 1595              		.loc 1 736 0
 1596              		@ sp needed
 1597              	.LVL118:
 1598              	.LVL119:
 1599 001e 70BD     		pop	{r4, r5, r6, pc}
 1600              		.cfi_endproc
 1601              	.LFE48:
 1602              		.size	nRF24_get_rx_payload, .-nRF24_get_rx_payload
 1603              		.section	.text.nRF24_tx_transmit_no_ack,"ax",%progbits
 1604              		.align	2
 1605              		.global	nRF24_tx_transmit_no_ack
 1606              		.code	16
 1607              		.thumb_func
 1608              		.type	nRF24_tx_transmit_no_ack, %function
 1609              	nRF24_tx_transmit_no_ack:
 1610              	.LFB49:
 737:Generated_Source\PSoC4/nRF24_FUNCS.c **** 
 738:Generated_Source\PSoC4/nRF24_FUNCS.c **** /**
 739:Generated_Source\PSoC4/nRF24_FUNCS.c ****  * @brief
 740:Generated_Source\PSoC4/nRF24_FUNCS.c ****  *
 741:Generated_Source\PSoC4/nRF24_FUNCS.c ****  * @param const uint8_t* data:
 742:Generated_Source\PSoC4/nRF24_FUNCS.c ****  * @param size_t size:
 743:Generated_Source\PSoC4/nRF24_FUNCS.c ****  */
 744:Generated_Source\PSoC4/nRF24_FUNCS.c **** void nRF24_tx_transmit_no_ack(const uint8_t *data, size_t size)
 745:Generated_Source\PSoC4/nRF24_FUNCS.c **** {
 1611              		.loc 1 745 0
 1612              		.cfi_startproc
 1613              		@ args = 0, pretend = 0, frame = 0
 1614              		@ frame_needed = 0, uses_anonymous_args = 0
 1615              	.LVL120:
 1616 0000 10B5     		push	{r4, lr}
 1617              		.cfi_def_cfa_offset 8
 1618              		.cfi_offset 4, -8
 1619              		.cfi_offset 14, -4
 746:Generated_Source\PSoC4/nRF24_FUNCS.c ****     if (NULL == data) {
 1620              		.loc 1 746 0
 1621 0002 0028     		cmp	r0, #0
 1622 0004 05D0     		beq	.L92
 747:Generated_Source\PSoC4/nRF24_FUNCS.c ****         return;
 748:Generated_Source\PSoC4/nRF24_FUNCS.c ****     }
 749:Generated_Source\PSoC4/nRF24_FUNCS.c **** 
 750:Generated_Source\PSoC4/nRF24_FUNCS.c ****     if (NRF_PAYLOAD_SIZE_MAX < size) {
 1623              		.loc 1 750 0
 1624 0006 2029     		cmp	r1, #32
ARM GAS  C:\Users\mikke\AppData\Local\Temp\ccdqBzKj.s 			page 43


 1625 0008 03D8     		bhi	.L92
 751:Generated_Source\PSoC4/nRF24_FUNCS.c ****         return;
 752:Generated_Source\PSoC4/nRF24_FUNCS.c ****     }
 753:Generated_Source\PSoC4/nRF24_FUNCS.c **** 
 754:Generated_Source\PSoC4/nRF24_FUNCS.c ****     nRF24_no_ack_payload_cmd(data, size);
 1626              		.loc 1 754 0
 1627 000a FFF7FEFF 		bl	nRF24_no_ack_payload_cmd
 1628              	.LVL121:
 755:Generated_Source\PSoC4/nRF24_FUNCS.c ****     nRF24_transmit_pulse();
 1629              		.loc 1 755 0
 1630 000e FFF7FEFF 		bl	nRF24_transmit_pulse
 1631              	.LVL122:
 1632              	.L92:
 756:Generated_Source\PSoC4/nRF24_FUNCS.c **** }
 1633              		.loc 1 756 0
 1634              		@ sp needed
 1635 0012 10BD     		pop	{r4, pc}
 1636              		.cfi_endproc
 1637              	.LFE49:
 1638              		.size	nRF24_tx_transmit_no_ack, .-nRF24_tx_transmit_no_ack
 1639              		.section	.text.nRF24_rx_write_payload,"ax",%progbits
 1640              		.align	2
 1641              		.global	nRF24_rx_write_payload
 1642              		.code	16
 1643              		.thumb_func
 1644              		.type	nRF24_rx_write_payload, %function
 1645              	nRF24_rx_write_payload:
 1646              	.LFB50:
 757:Generated_Source\PSoC4/nRF24_FUNCS.c **** 
 758:Generated_Source\PSoC4/nRF24_FUNCS.c **** /**
 759:Generated_Source\PSoC4/nRF24_FUNCS.c ****  * @brief
 760:Generated_Source\PSoC4/nRF24_FUNCS.c ****  *
 761:Generated_Source\PSoC4/nRF24_FUNCS.c ****  * @param const nrf_pipe pipe:
 762:Generated_Source\PSoC4/nRF24_FUNCS.c ****  * @param const uint8_t* data:
 763:Generated_Source\PSoC4/nRF24_FUNCS.c ****  * @param size_t size:
 764:Generated_Source\PSoC4/nRF24_FUNCS.c ****  */
 765:Generated_Source\PSoC4/nRF24_FUNCS.c **** void nRF24_rx_write_payload(const nrf_pipe pipe,
 766:Generated_Source\PSoC4/nRF24_FUNCS.c ****                                         const uint8_t *data, size_t size)
 767:Generated_Source\PSoC4/nRF24_FUNCS.c **** {
 1647              		.loc 1 767 0
 1648              		.cfi_startproc
 1649              		@ args = 0, pretend = 0, frame = 0
 1650              		@ frame_needed = 0, uses_anonymous_args = 0
 1651              	.LVL123:
 1652 0000 10B5     		push	{r4, lr}
 1653              		.cfi_def_cfa_offset 8
 1654              		.cfi_offset 4, -8
 1655              		.cfi_offset 14, -4
 768:Generated_Source\PSoC4/nRF24_FUNCS.c ****     if (NULL == data) {
 1656              		.loc 1 768 0
 1657 0002 0029     		cmp	r1, #0
 1658 0004 04D0     		beq	.L94
 769:Generated_Source\PSoC4/nRF24_FUNCS.c ****         return;
 770:Generated_Source\PSoC4/nRF24_FUNCS.c ****     }
 771:Generated_Source\PSoC4/nRF24_FUNCS.c **** 
 772:Generated_Source\PSoC4/nRF24_FUNCS.c ****     if (NRF_PAYLOAD_SIZE_MAX < size) {
 1659              		.loc 1 772 0
ARM GAS  C:\Users\mikke\AppData\Local\Temp\ccdqBzKj.s 			page 44


 1660 0006 202A     		cmp	r2, #32
 1661 0008 00D9     		bls	.L96
 773:Generated_Source\PSoC4/nRF24_FUNCS.c ****         size = NRF_PAYLOAD_SIZE_MAX;
 1662              		.loc 1 773 0
 1663 000a 2022     		movs	r2, #32
 1664              	.LVL124:
 1665              	.L96:
 774:Generated_Source\PSoC4/nRF24_FUNCS.c ****     }
 775:Generated_Source\PSoC4/nRF24_FUNCS.c **** 
 776:Generated_Source\PSoC4/nRF24_FUNCS.c ****     nRF24_write_ack_payload_cmd(pipe, data, size);
 1666              		.loc 1 776 0
 1667 000c FFF7FEFF 		bl	nRF24_write_ack_payload_cmd
 1668              	.LVL125:
 1669              	.L94:
 777:Generated_Source\PSoC4/nRF24_FUNCS.c **** }
 1670              		.loc 1 777 0
 1671              		@ sp needed
 1672 0010 10BD     		pop	{r4, pc}
 1673              		.cfi_endproc
 1674              	.LFE50:
 1675              		.size	nRF24_rx_write_payload, .-nRF24_rx_write_payload
 1676 0012 C046     		.section	.text.nRF24_get_data_pipe_with_payload,"ax",%progbits
 1677              		.align	2
 1678              		.global	nRF24_get_data_pipe_with_payload
 1679              		.code	16
 1680              		.thumb_func
 1681              		.type	nRF24_get_data_pipe_with_payload, %function
 1682              	nRF24_get_data_pipe_with_payload:
 1683              	.LFB51:
 778:Generated_Source\PSoC4/nRF24_FUNCS.c **** 
 779:Generated_Source\PSoC4/nRF24_FUNCS.c **** /**
 780:Generated_Source\PSoC4/nRF24_FUNCS.c ****  * Return the pipe number with data.
 781:Generated_Source\PSoC4/nRF24_FUNCS.c ****  *
 782:Generated_Source\PSoC4/nRF24_FUNCS.c ****  * @return uint8_t:
 783:Generated_Source\PSoC4/nRF24_FUNCS.c ****  */
 784:Generated_Source\PSoC4/nRF24_FUNCS.c **** uint8_t nRF24_get_data_pipe_with_payload(void)
 785:Generated_Source\PSoC4/nRF24_FUNCS.c **** {
 1684              		.loc 1 785 0
 1685              		.cfi_startproc
 1686              		@ args = 0, pretend = 0, frame = 0
 1687              		@ frame_needed = 0, uses_anonymous_args = 0
 1688 0000 10B5     		push	{r4, lr}
 1689              		.cfi_def_cfa_offset 8
 1690              		.cfi_offset 4, -8
 1691              		.cfi_offset 14, -4
 786:Generated_Source\PSoC4/nRF24_FUNCS.c ****     uint8_t pipe = nRF24_read_register(NRF_REG_STATUS);
 1692              		.loc 1 786 0
 1693 0002 0720     		movs	r0, #7
 1694 0004 FFF7FEFF 		bl	nRF24_read_register
 1695              	.LVL126:
 787:Generated_Source\PSoC4/nRF24_FUNCS.c ****     return (pipe & NRF_STATUS_PIPES_MASK) >> NRF_STATUS_PIPES_SHIFT;
 1696              		.loc 1 787 0
 1697 0008 4010     		asrs	r0, r0, #1
 1698              	.LVL127:
 1699 000a 0723     		movs	r3, #7
 1700 000c 1840     		ands	r0, r3
 788:Generated_Source\PSoC4/nRF24_FUNCS.c **** }
ARM GAS  C:\Users\mikke\AppData\Local\Temp\ccdqBzKj.s 			page 45


 1701              		.loc 1 788 0
 1702              		@ sp needed
 1703 000e 10BD     		pop	{r4, pc}
 1704              		.cfi_endproc
 1705              	.LFE51:
 1706              		.size	nRF24_get_data_pipe_with_payload, .-nRF24_get_data_pipe_with_payload
 1707              		.section	.text.nRF24_received_power_detector,"ax",%progbits
 1708              		.align	2
 1709              		.global	nRF24_received_power_detector
 1710              		.code	16
 1711              		.thumb_func
 1712              		.type	nRF24_received_power_detector, %function
 1713              	nRF24_received_power_detector:
 1714              	.LFB52:
 789:Generated_Source\PSoC4/nRF24_FUNCS.c **** 
 790:Generated_Source\PSoC4/nRF24_FUNCS.c **** /**
 791:Generated_Source\PSoC4/nRF24_FUNCS.c ****  * @brief
 792:Generated_Source\PSoC4/nRF24_FUNCS.c ****  *
 793:Generated_Source\PSoC4/nRF24_FUNCS.c ****  * @return uint8_t:
 794:Generated_Source\PSoC4/nRF24_FUNCS.c ****  */
 795:Generated_Source\PSoC4/nRF24_FUNCS.c **** uint8_t nRF24_received_power_detector(void)
 796:Generated_Source\PSoC4/nRF24_FUNCS.c **** {
 1715              		.loc 1 796 0
 1716              		.cfi_startproc
 1717              		@ args = 0, pretend = 0, frame = 0
 1718              		@ frame_needed = 0, uses_anonymous_args = 0
 1719 0000 10B5     		push	{r4, lr}
 1720              		.cfi_def_cfa_offset 8
 1721              		.cfi_offset 4, -8
 1722              		.cfi_offset 14, -4
 797:Generated_Source\PSoC4/nRF24_FUNCS.c ****     return nRF24_read_bit(NRF_REG_RPD, NRF_RPD_BIT_RPD);
 1723              		.loc 1 797 0
 1724 0002 0021     		movs	r1, #0
 1725 0004 0920     		movs	r0, #9
 1726 0006 FFF7FEFF 		bl	nRF24_read_bit
 1727              	.LVL128:
 798:Generated_Source\PSoC4/nRF24_FUNCS.c **** }
 1728              		.loc 1 798 0
 1729              		@ sp needed
 1730 000a 10BD     		pop	{r4, pc}
 1731              		.cfi_endproc
 1732              	.LFE52:
 1733              		.size	nRF24_received_power_detector, .-nRF24_received_power_detector
 1734              		.section	.text.nRF24_is_tx_fifo_full,"ax",%progbits
 1735              		.align	2
 1736              		.global	nRF24_is_tx_fifo_full
 1737              		.code	16
 1738              		.thumb_func
 1739              		.type	nRF24_is_tx_fifo_full, %function
 1740              	nRF24_is_tx_fifo_full:
 1741              	.LFB53:
 799:Generated_Source\PSoC4/nRF24_FUNCS.c **** 
 800:Generated_Source\PSoC4/nRF24_FUNCS.c **** /**
 801:Generated_Source\PSoC4/nRF24_FUNCS.c ****  * @return bool: true if the TX FIFO is full, false if it have available
 802:Generated_Source\PSoC4/nRF24_FUNCS.c ****  * locations.
 803:Generated_Source\PSoC4/nRF24_FUNCS.c ****  */
 804:Generated_Source\PSoC4/nRF24_FUNCS.c **** bool nRF24_is_tx_fifo_full(void)
ARM GAS  C:\Users\mikke\AppData\Local\Temp\ccdqBzKj.s 			page 46


 805:Generated_Source\PSoC4/nRF24_FUNCS.c **** {
 1742              		.loc 1 805 0
 1743              		.cfi_startproc
 1744              		@ args = 0, pretend = 0, frame = 0
 1745              		@ frame_needed = 0, uses_anonymous_args = 0
 1746 0000 10B5     		push	{r4, lr}
 1747              		.cfi_def_cfa_offset 8
 1748              		.cfi_offset 4, -8
 1749              		.cfi_offset 14, -4
 806:Generated_Source\PSoC4/nRF24_FUNCS.c ****     return nRF24_read_bit(NRF_REG_FIFO_STATUS, NRF_FIFO_STATUS_BIT_TX_FULL);
 1750              		.loc 1 806 0
 1751 0002 0521     		movs	r1, #5
 1752 0004 1720     		movs	r0, #23
 1753 0006 FFF7FEFF 		bl	nRF24_read_bit
 1754              	.LVL129:
 807:Generated_Source\PSoC4/nRF24_FUNCS.c **** }
 1755              		.loc 1 807 0
 1756              		@ sp needed
 1757 000a 10BD     		pop	{r4, pc}
 1758              		.cfi_endproc
 1759              	.LFE53:
 1760              		.size	nRF24_is_tx_fifo_full, .-nRF24_is_tx_fifo_full
 1761              		.section	.text.nRF24_is_rx_fifo_empty,"ax",%progbits
 1762              		.align	2
 1763              		.global	nRF24_is_rx_fifo_empty
 1764              		.code	16
 1765              		.thumb_func
 1766              		.type	nRF24_is_rx_fifo_empty, %function
 1767              	nRF24_is_rx_fifo_empty:
 1768              	.LFB54:
 808:Generated_Source\PSoC4/nRF24_FUNCS.c **** 
 809:Generated_Source\PSoC4/nRF24_FUNCS.c **** /**
 810:Generated_Source\PSoC4/nRF24_FUNCS.c ****  * @return bool: true if the RX FIFO es empty, false if any pipe have data.
 811:Generated_Source\PSoC4/nRF24_FUNCS.c ****  */
 812:Generated_Source\PSoC4/nRF24_FUNCS.c **** bool nRF24_is_rx_fifo_empty(void)
 813:Generated_Source\PSoC4/nRF24_FUNCS.c **** {
 1769              		.loc 1 813 0
 1770              		.cfi_startproc
 1771              		@ args = 0, pretend = 0, frame = 0
 1772              		@ frame_needed = 0, uses_anonymous_args = 0
 1773 0000 10B5     		push	{r4, lr}
 1774              		.cfi_def_cfa_offset 8
 1775              		.cfi_offset 4, -8
 1776              		.cfi_offset 14, -4
 814:Generated_Source\PSoC4/nRF24_FUNCS.c ****     return nRF24_read_bit(NRF_REG_FIFO_STATUS, NRF_FIFO_STATUS_BIT_RX_EMPTY);
 1777              		.loc 1 814 0
 1778 0002 0021     		movs	r1, #0
 1779 0004 1720     		movs	r0, #23
 1780 0006 FFF7FEFF 		bl	nRF24_read_bit
 1781              	.LVL130:
 815:Generated_Source\PSoC4/nRF24_FUNCS.c **** }
 1782              		.loc 1 815 0
 1783              		@ sp needed
 1784 000a 10BD     		pop	{r4, pc}
 1785              		.cfi_endproc
 1786              	.LFE54:
 1787              		.size	nRF24_is_rx_fifo_empty, .-nRF24_is_rx_fifo_empty
ARM GAS  C:\Users\mikke\AppData\Local\Temp\ccdqBzKj.s 			page 47


 1788              		.section	.text.nRF24_test_carrier,"ax",%progbits
 1789              		.align	2
 1790              		.global	nRF24_test_carrier
 1791              		.code	16
 1792              		.thumb_func
 1793              		.type	nRF24_test_carrier, %function
 1794              	nRF24_test_carrier:
 1795              	.LFB55:
 816:Generated_Source\PSoC4/nRF24_FUNCS.c **** 
 817:Generated_Source\PSoC4/nRF24_FUNCS.c **** /**
 818:Generated_Source\PSoC4/nRF24_FUNCS.c ****  * Received Power Detector triggers at received power levels above -64dBm that
 819:Generated_Source\PSoC4/nRF24_FUNCS.c ****  * are present in the RF channel you receive on. If the received power is less
 820:Generated_Source\PSoC4/nRF24_FUNCS.c ****  * than -64dBm, RDP = 0.
 821:Generated_Source\PSoC4/nRF24_FUNCS.c ****  * The RPD can be read out at any time while nRF24L01+ is in receive mode.
 822:Generated_Source\PSoC4/nRF24_FUNCS.c ****  */
 823:Generated_Source\PSoC4/nRF24_FUNCS.c **** bool nRF24_test_carrier(void)
 824:Generated_Source\PSoC4/nRF24_FUNCS.c **** {
 1796              		.loc 1 824 0
 1797              		.cfi_startproc
 1798              		@ args = 0, pretend = 0, frame = 0
 1799              		@ frame_needed = 0, uses_anonymous_args = 0
 1800 0000 10B5     		push	{r4, lr}
 1801              		.cfi_def_cfa_offset 8
 1802              		.cfi_offset 4, -8
 1803              		.cfi_offset 14, -4
 825:Generated_Source\PSoC4/nRF24_FUNCS.c ****     return nRF24_read_bit(NRF_REG_RPD, NRF_RPD_BIT_RPD);
 1804              		.loc 1 825 0
 1805 0002 0021     		movs	r1, #0
 1806 0004 0920     		movs	r0, #9
 1807 0006 FFF7FEFF 		bl	nRF24_read_bit
 1808              	.LVL131:
 826:Generated_Source\PSoC4/nRF24_FUNCS.c **** }
 1809              		.loc 1 826 0
 1810              		@ sp needed
 1811 000a 10BD     		pop	{r4, pc}
 1812              		.cfi_endproc
 1813              	.LFE55:
 1814              		.size	nRF24_test_carrier, .-nRF24_test_carrier
 1815              		.section	.text.nRF24_clear_all_irqs,"ax",%progbits
 1816              		.align	2
 1817              		.global	nRF24_clear_all_irqs
 1818              		.code	16
 1819              		.thumb_func
 1820              		.type	nRF24_clear_all_irqs, %function
 1821              	nRF24_clear_all_irqs:
 1822              	.LFB56:
 827:Generated_Source\PSoC4/nRF24_FUNCS.c **** 
 828:Generated_Source\PSoC4/nRF24_FUNCS.c **** /**
 829:Generated_Source\PSoC4/nRF24_FUNCS.c ****  * This function will write 1 to all the three IRQ "flag" bits on the
 830:Generated_Source\PSoC4/nRF24_FUNCS.c ****  * STATUS register.
 831:Generated_Source\PSoC4/nRF24_FUNCS.c ****  */
 832:Generated_Source\PSoC4/nRF24_FUNCS.c **** void nRF24_clear_all_irqs(void)
 833:Generated_Source\PSoC4/nRF24_FUNCS.c **** {
 1823              		.loc 1 833 0
 1824              		.cfi_startproc
 1825              		@ args = 0, pretend = 0, frame = 0
 1826              		@ frame_needed = 0, uses_anonymous_args = 0
ARM GAS  C:\Users\mikke\AppData\Local\Temp\ccdqBzKj.s 			page 48


 1827 0000 10B5     		push	{r4, lr}
 1828              		.cfi_def_cfa_offset 8
 1829              		.cfi_offset 4, -8
 1830              		.cfi_offset 14, -4
 834:Generated_Source\PSoC4/nRF24_FUNCS.c ****     nRF24_write_register(NRF_REG_STATUS, NRF_ALL_IRQ_MASK);
 1831              		.loc 1 834 0
 1832 0002 7021     		movs	r1, #112
 1833 0004 0720     		movs	r0, #7
 1834 0006 FFF7FEFF 		bl	nRF24_write_register
 1835              	.LVL132:
 835:Generated_Source\PSoC4/nRF24_FUNCS.c **** }
 1836              		.loc 1 835 0
 1837              		@ sp needed
 1838 000a 10BD     		pop	{r4, pc}
 1839              		.cfi_endproc
 1840              	.LFE56:
 1841              		.size	nRF24_clear_all_irqs, .-nRF24_clear_all_irqs
 1842              		.section	.text.nRF24_start,"ax",%progbits
 1843              		.align	2
 1844              		.global	nRF24_start
 1845              		.code	16
 1846              		.thumb_func
 1847              		.type	nRF24_start, %function
 1848              	nRF24_start:
 1849              	.LFB1:
  56:Generated_Source\PSoC4/nRF24_FUNCS.c ****     // Recommended delay before start using the nRF24
 1850              		.loc 1 56 0
 1851              		.cfi_startproc
 1852              		@ args = 0, pretend = 0, frame = 0
 1853              		@ frame_needed = 0, uses_anonymous_args = 0
 1854 0000 10B5     		push	{r4, lr}
 1855              		.cfi_def_cfa_offset 8
 1856              		.cfi_offset 4, -8
 1857              		.cfi_offset 14, -4
  58:Generated_Source\PSoC4/nRF24_FUNCS.c **** 
 1858              		.loc 1 58 0
 1859 0002 6420     		movs	r0, #100
 1860 0004 FFF7FEFF 		bl	CyDelay
 1861              	.LVL133:
  67:Generated_Source\PSoC4/nRF24_FUNCS.c **** #endif
 1862              		.loc 1 67 0
 1863 0008 FFF7FEFF 		bl	SPI_Start
 1864              	.LVL134:
  69:Generated_Source\PSoC4/nRF24_FUNCS.c ****     nRF24_ce_write(GPIO_CLEAR);
 1865              		.loc 1 69 0
 1866 000c 0120     		movs	r0, #1
 1867 000e FFF7FEFF 		bl	nRF24_ss_write
 1868              	.LVL135:
  70:Generated_Source\PSoC4/nRF24_FUNCS.c **** 
 1869              		.loc 1 70 0
 1870 0012 0020     		movs	r0, #0
 1871 0014 FFF7FEFF 		bl	nRF24_ce_write
 1872              	.LVL136:
  73:Generated_Source\PSoC4/nRF24_FUNCS.c ****     nRF24_flush_tx_cmd();
 1873              		.loc 1 73 0
 1874 0018 FFF7FEFF 		bl	nRF24_flush_rx_cmd
 1875              	.LVL137:
ARM GAS  C:\Users\mikke\AppData\Local\Temp\ccdqBzKj.s 			page 49


  74:Generated_Source\PSoC4/nRF24_FUNCS.c ****     // Clear IRQ flags
 1876              		.loc 1 74 0
 1877 001c FFF7FEFF 		bl	nRF24_flush_tx_cmd
 1878              	.LVL138:
  76:Generated_Source\PSoC4/nRF24_FUNCS.c **** 
 1879              		.loc 1 76 0
 1880 0020 FFF7FEFF 		bl	nRF24_clear_all_irqs
 1881              	.LVL139:
  79:Generated_Source\PSoC4/nRF24_FUNCS.c **** 
 1882              		.loc 1 79 0
 1883 0024 FFF7FEFF 		bl	nRF24_init
 1884              	.LVL140:
  82:Generated_Source\PSoC4/nRF24_FUNCS.c **** }
 1885              		.loc 1 82 0
 1886 0028 9620     		movs	r0, #150
 1887 002a FFF7FEFF 		bl	CyDelayUs
 1888              	.LVL141:
  83:Generated_Source\PSoC4/nRF24_FUNCS.c **** 
 1889              		.loc 1 83 0
 1890              		@ sp needed
 1891 002e 10BD     		pop	{r4, pc}
 1892              		.cfi_endproc
 1893              	.LFE1:
 1894              		.size	nRF24_start, .-nRF24_start
 1895              		.section	.text.nRF24_clear_irq_flag,"ax",%progbits
 1896              		.align	2
 1897              		.global	nRF24_clear_irq_flag
 1898              		.code	16
 1899              		.thumb_func
 1900              		.type	nRF24_clear_irq_flag, %function
 1901              	nRF24_clear_irq_flag:
 1902              	.LFB57:
 836:Generated_Source\PSoC4/nRF24_FUNCS.c **** 
 837:Generated_Source\PSoC4/nRF24_FUNCS.c **** /**
 838:Generated_Source\PSoC4/nRF24_FUNCS.c ****  * @brief Clears the specific IRQ flag.
 839:Generated_Source\PSoC4/nRF24_FUNCS.c ****  *
 840:Generated_Source\PSoC4/nRF24_FUNCS.c ****  * Clear the flag by writing 1 to the interrupt flag bit.
 841:Generated_Source\PSoC4/nRF24_FUNCS.c ****  *
 842:Generated_Source\PSoC4/nRF24_FUNCS.c ****  * @param nrf_irq irq_flag: Interrupt flag to clear.
 843:Generated_Source\PSoC4/nRF24_FUNCS.c ****  */
 844:Generated_Source\PSoC4/nRF24_FUNCS.c **** void nRF24_clear_irq_flag(const nrf_irq irq_flag)
 845:Generated_Source\PSoC4/nRF24_FUNCS.c **** {
 1903              		.loc 1 845 0
 1904              		.cfi_startproc
 1905              		@ args = 0, pretend = 0, frame = 0
 1906              		@ frame_needed = 0, uses_anonymous_args = 0
 1907              	.LVL142:
 1908 0000 10B5     		push	{r4, lr}
 1909              		.cfi_def_cfa_offset 8
 1910              		.cfi_offset 4, -8
 1911              		.cfi_offset 14, -4
 846:Generated_Source\PSoC4/nRF24_FUNCS.c ****     nRF24_write_register(NRF_REG_STATUS, (1 << irq_flag));
 1912              		.loc 1 846 0
 1913 0002 0121     		movs	r1, #1
 1914 0004 8140     		lsls	r1, r1, r0
 1915 0006 C9B2     		uxtb	r1, r1
 1916 0008 0720     		movs	r0, #7
ARM GAS  C:\Users\mikke\AppData\Local\Temp\ccdqBzKj.s 			page 50


 1917              	.LVL143:
 1918 000a FFF7FEFF 		bl	nRF24_write_register
 1919              	.LVL144:
 847:Generated_Source\PSoC4/nRF24_FUNCS.c **** }
 1920              		.loc 1 847 0
 1921              		@ sp needed
 1922 000e 10BD     		pop	{r4, pc}
 1923              		.cfi_endproc
 1924              	.LFE57:
 1925              		.size	nRF24_clear_irq_flag, .-nRF24_clear_irq_flag
 1926              		.section	.text.nRF24_get_irq_flag,"ax",%progbits
 1927              		.align	2
 1928              		.global	nRF24_get_irq_flag
 1929              		.code	16
 1930              		.thumb_func
 1931              		.type	nRF24_get_irq_flag, %function
 1932              	nRF24_get_irq_flag:
 1933              	.LFB58:
 848:Generated_Source\PSoC4/nRF24_FUNCS.c **** 
 849:Generated_Source\PSoC4/nRF24_FUNCS.c **** /**
 850:Generated_Source\PSoC4/nRF24_FUNCS.c ****  * This method is used to get if any of the IRQ "flag" bits on the STATUS
 851:Generated_Source\PSoC4/nRF24_FUNCS.c ****  * register is set to 1. This function returns 0 is none of the flag bits
 852:Generated_Source\PSoC4/nRF24_FUNCS.c ****  * is not set to 1.
 853:Generated_Source\PSoC4/nRF24_FUNCS.c ****  *
 854:Generated_Source\PSoC4/nRF24_FUNCS.c ****  * @return nrf_irq: Asserted bit of the interrupt flags.
 855:Generated_Source\PSoC4/nRF24_FUNCS.c ****  */
 856:Generated_Source\PSoC4/nRF24_FUNCS.c **** nrf_irq nRF24_get_irq_flag(void)
 857:Generated_Source\PSoC4/nRF24_FUNCS.c **** {
 1934              		.loc 1 857 0
 1935              		.cfi_startproc
 1936              		@ args = 0, pretend = 0, frame = 0
 1937              		@ frame_needed = 0, uses_anonymous_args = 0
 1938 0000 10B5     		push	{r4, lr}
 1939              		.cfi_def_cfa_offset 8
 1940              		.cfi_offset 4, -8
 1941              		.cfi_offset 14, -4
 1942              	.LVL145:
 858:Generated_Source\PSoC4/nRF24_FUNCS.c ****     nrf_irq irq = NRF_NONE_IRQ;
 859:Generated_Source\PSoC4/nRF24_FUNCS.c **** 
 860:Generated_Source\PSoC4/nRF24_FUNCS.c ****     // Get the STATUS register
 861:Generated_Source\PSoC4/nRF24_FUNCS.c ****     uint8_t sts = nRF24_nop_cmd();
 1943              		.loc 1 861 0
 1944 0002 FFF7FEFF 		bl	nRF24_nop_cmd
 1945              	.LVL146:
 862:Generated_Source\PSoC4/nRF24_FUNCS.c **** 
 863:Generated_Source\PSoC4/nRF24_FUNCS.c ****     // We only care if bits 4, 5 or 6 are set, so we mask the STATUS with 0x0111_0000
 864:Generated_Source\PSoC4/nRF24_FUNCS.c ****     switch (sts & NRF_ALL_IRQ_MASK) {
 1946              		.loc 1 864 0
 1947 0006 7023     		movs	r3, #112
 1948 0008 1840     		ands	r0, r3
 1949              	.LVL147:
 1950 000a 2028     		cmp	r0, #32
 1951 000c 0AD0     		beq	.L111
 1952 000e 4028     		cmp	r0, #64
 1953 0010 02D0     		beq	.L109
 1954 0012 1028     		cmp	r0, #16
 1955 0014 04D1     		bne	.L112
ARM GAS  C:\Users\mikke\AppData\Local\Temp\ccdqBzKj.s 			page 51


 1956 0016 01E0     		b	.L110
 1957              	.L109:
 865:Generated_Source\PSoC4/nRF24_FUNCS.c ****     case NRF_STATUS_RX_DR_MASK:
 866:Generated_Source\PSoC4/nRF24_FUNCS.c ****         irq = NRF_RX_DR_IRQ;
 1958              		.loc 1 866 0
 1959 0018 0620     		movs	r0, #6
 1960 001a 04E0     		b	.L108
 1961              	.L110:
 1962              	.LVL148:
 867:Generated_Source\PSoC4/nRF24_FUNCS.c ****         break;
 868:Generated_Source\PSoC4/nRF24_FUNCS.c ****     case NRF_STATUS_TX_DS_MASK:
 869:Generated_Source\PSoC4/nRF24_FUNCS.c ****         irq = NRF_TX_DS_IRQ;
 870:Generated_Source\PSoC4/nRF24_FUNCS.c ****         break;
 871:Generated_Source\PSoC4/nRF24_FUNCS.c ****     case NRF_STATUS_MAX_RT_MASK:
 872:Generated_Source\PSoC4/nRF24_FUNCS.c ****         irq = NRF_MAX_RT_IRQ;
 1963              		.loc 1 872 0
 1964 001c 0420     		movs	r0, #4
 873:Generated_Source\PSoC4/nRF24_FUNCS.c ****         break;
 1965              		.loc 1 873 0
 1966 001e 02E0     		b	.L108
 1967              	.LVL149:
 1968              	.L112:
 874:Generated_Source\PSoC4/nRF24_FUNCS.c ****     default:
 875:Generated_Source\PSoC4/nRF24_FUNCS.c ****         irq = NRF_ALL_IRQ_MASK;
 1969              		.loc 1 875 0
 1970 0020 7020     		movs	r0, #112
 876:Generated_Source\PSoC4/nRF24_FUNCS.c ****         break;
 1971              		.loc 1 876 0
 1972 0022 00E0     		b	.L108
 1973              	.LVL150:
 1974              	.L111:
 869:Generated_Source\PSoC4/nRF24_FUNCS.c ****         break;
 1975              		.loc 1 869 0
 1976 0024 0520     		movs	r0, #5
 1977              	.LVL151:
 1978              	.L108:
 877:Generated_Source\PSoC4/nRF24_FUNCS.c ****     }
 878:Generated_Source\PSoC4/nRF24_FUNCS.c **** 
 879:Generated_Source\PSoC4/nRF24_FUNCS.c ****     return irq;
 880:Generated_Source\PSoC4/nRF24_FUNCS.c **** }
 1979              		.loc 1 880 0
 1980              		@ sp needed
 1981 0026 10BD     		pop	{r4, pc}
 1982              		.cfi_endproc
 1983              	.LFE58:
 1984              		.size	nRF24_get_irq_flag, .-nRF24_get_irq_flag
 1985              		.section	.text.nRF24_poll_interrupt,"ax",%progbits
 1986              		.align	2
 1987              		.global	nRF24_poll_interrupt
 1988              		.code	16
 1989              		.thumb_func
 1990              		.type	nRF24_poll_interrupt, %function
 1991              	nRF24_poll_interrupt:
 1992              	.LFB59:
 881:Generated_Source\PSoC4/nRF24_FUNCS.c **** 
 882:Generated_Source\PSoC4/nRF24_FUNCS.c **** void nRF24_poll_interrupt(void)
 883:Generated_Source\PSoC4/nRF24_FUNCS.c **** {
ARM GAS  C:\Users\mikke\AppData\Local\Temp\ccdqBzKj.s 			page 52


 1993              		.loc 1 883 0
 1994              		.cfi_startproc
 1995              		@ args = 0, pretend = 0, frame = 0
 1996              		@ frame_needed = 0, uses_anonymous_args = 0
 1997              		@ link register save eliminated.
 884:Generated_Source\PSoC4/nRF24_FUNCS.c **** 
 885:Generated_Source\PSoC4/nRF24_FUNCS.c **** }
 1998              		.loc 1 885 0
 1999              		@ sp needed
 2000 0000 7047     		bx	lr
 2001              		.cfi_endproc
 2002              	.LFE59:
 2003              		.size	nRF24_poll_interrupt, .-nRF24_poll_interrupt
 2004 0002 C046     		.section	.text.nRF24_get_status_clear_irq,"ax",%progbits
 2005              		.align	2
 2006              		.global	nRF24_get_status_clear_irq
 2007              		.code	16
 2008              		.thumb_func
 2009              		.type	nRF24_get_status_clear_irq, %function
 2010              	nRF24_get_status_clear_irq:
 2011              	.LFB60:
 886:Generated_Source\PSoC4/nRF24_FUNCS.c **** 
 887:Generated_Source\PSoC4/nRF24_FUNCS.c **** uint8_t nRF24_get_status_clear_irq(void)
 888:Generated_Source\PSoC4/nRF24_FUNCS.c **** {
 2012              		.loc 1 888 0
 2013              		.cfi_startproc
 2014              		@ args = 0, pretend = 0, frame = 0
 2015              		@ frame_needed = 0, uses_anonymous_args = 0
 2016 0000 10B5     		push	{r4, lr}
 2017              		.cfi_def_cfa_offset 8
 2018              		.cfi_offset 4, -8
 2019              		.cfi_offset 14, -4
 889:Generated_Source\PSoC4/nRF24_FUNCS.c ****     uint8_t sts = nRF24_nop_cmd();
 2020              		.loc 1 889 0
 2021 0002 FFF7FEFF 		bl	nRF24_nop_cmd
 2022              	.LVL152:
 2023 0006 0400     		movs	r4, r0
 2024              	.LVL153:
 890:Generated_Source\PSoC4/nRF24_FUNCS.c ****     nRF24_write_register(NRF_REG_STATUS, NRF_ALL_IRQ_MASK);
 2025              		.loc 1 890 0
 2026 0008 7021     		movs	r1, #112
 2027 000a 0720     		movs	r0, #7
 2028 000c FFF7FEFF 		bl	nRF24_write_register
 2029              	.LVL154:
 891:Generated_Source\PSoC4/nRF24_FUNCS.c **** 
 892:Generated_Source\PSoC4/nRF24_FUNCS.c ****     return sts;
 893:Generated_Source\PSoC4/nRF24_FUNCS.c **** }
 2030              		.loc 1 893 0
 2031 0010 2000     		movs	r0, r4
 2032              		@ sp needed
 2033              	.LVL155:
 2034 0012 10BD     		pop	{r4, pc}
 2035              		.cfi_endproc
 2036              	.LFE60:
 2037              		.size	nRF24_get_status_clear_irq, .-nRF24_get_status_clear_irq
 2038              		.section	.text.nRF24_flush_rx,"ax",%progbits
 2039              		.align	2
ARM GAS  C:\Users\mikke\AppData\Local\Temp\ccdqBzKj.s 			page 53


 2040              		.global	nRF24_flush_rx
 2041              		.code	16
 2042              		.thumb_func
 2043              		.type	nRF24_flush_rx, %function
 2044              	nRF24_flush_rx:
 2045              	.LFB61:
 894:Generated_Source\PSoC4/nRF24_FUNCS.c **** 
 895:Generated_Source\PSoC4/nRF24_FUNCS.c **** // command wrappers
 896:Generated_Source\PSoC4/nRF24_FUNCS.c **** void nRF24_flush_rx(void)
 897:Generated_Source\PSoC4/nRF24_FUNCS.c **** {
 2046              		.loc 1 897 0
 2047              		.cfi_startproc
 2048              		@ args = 0, pretend = 0, frame = 0
 2049              		@ frame_needed = 0, uses_anonymous_args = 0
 2050 0000 10B5     		push	{r4, lr}
 2051              		.cfi_def_cfa_offset 8
 2052              		.cfi_offset 4, -8
 2053              		.cfi_offset 14, -4
 898:Generated_Source\PSoC4/nRF24_FUNCS.c ****     nRF24_flush_rx_cmd();
 2054              		.loc 1 898 0
 2055 0002 FFF7FEFF 		bl	nRF24_flush_rx_cmd
 2056              	.LVL156:
 899:Generated_Source\PSoC4/nRF24_FUNCS.c **** }
 2057              		.loc 1 899 0
 2058              		@ sp needed
 2059 0006 10BD     		pop	{r4, pc}
 2060              		.cfi_endproc
 2061              	.LFE61:
 2062              		.size	nRF24_flush_rx, .-nRF24_flush_rx
 2063              		.section	.text.nRF24_flush_tx,"ax",%progbits
 2064              		.align	2
 2065              		.global	nRF24_flush_tx
 2066              		.code	16
 2067              		.thumb_func
 2068              		.type	nRF24_flush_tx, %function
 2069              	nRF24_flush_tx:
 2070              	.LFB62:
 900:Generated_Source\PSoC4/nRF24_FUNCS.c **** 
 901:Generated_Source\PSoC4/nRF24_FUNCS.c **** void nRF24_flush_tx(void)
 902:Generated_Source\PSoC4/nRF24_FUNCS.c **** {
 2071              		.loc 1 902 0
 2072              		.cfi_startproc
 2073              		@ args = 0, pretend = 0, frame = 0
 2074              		@ frame_needed = 0, uses_anonymous_args = 0
 2075 0000 10B5     		push	{r4, lr}
 2076              		.cfi_def_cfa_offset 8
 2077              		.cfi_offset 4, -8
 2078              		.cfi_offset 14, -4
 903:Generated_Source\PSoC4/nRF24_FUNCS.c ****     nRF24_flush_tx_cmd();
 2079              		.loc 1 903 0
 2080 0002 FFF7FEFF 		bl	nRF24_flush_tx_cmd
 2081              	.LVL157:
 904:Generated_Source\PSoC4/nRF24_FUNCS.c **** }
 2082              		.loc 1 904 0
 2083              		@ sp needed
 2084 0006 10BD     		pop	{r4, pc}
 2085              		.cfi_endproc
ARM GAS  C:\Users\mikke\AppData\Local\Temp\ccdqBzKj.s 			page 54


 2086              	.LFE62:
 2087              		.size	nRF24_flush_tx, .-nRF24_flush_tx
 2088              		.data
 2089              		.set	.LANCHOR0,. + 0
 2090              		.type	_nrf_addr_width, %object
 2091              		.size	_nrf_addr_width, 1
 2092              	_nrf_addr_width:
 2093 0000 05       		.byte	5
 2094              		.text
 2095              	.Letext0:
 2096              		.file 2 "c:\\program files (x86)\\cypress\\psoc creator\\4.2\\psoc creator\\import\\gnu\\arm\\5.4.
 2097              		.file 3 "c:\\program files (x86)\\cypress\\psoc creator\\4.2\\psoc creator\\import\\gnu\\arm\\5.4.
 2098              		.file 4 "c:\\program files (x86)\\cypress\\psoc creator\\4.2\\psoc creator\\import\\gnu\\arm\\5.4.
 2099              		.file 5 "Generated_Source\\PSoC4\\nRF24_DEFS.h"
 2100              		.file 6 "Generated_Source\\PSoC4\\nRF24_HAL.h"
 2101              		.file 7 "Generated_Source\\PSoC4/CyLib.h"
 2102              		.file 8 "Generated_Source\\PSoC4\\nRF24_COMMANDS.h"
 2103              		.file 9 "Generated_Source\\PSoC4\\SPI.h"