ARM GAS  C:\Users\rens_\AppData\Local\Temp\ccEOU2u7.s 			page 1


   1              		.syntax unified
   2              		.cpu cortex-m3
   3              		.fpu softvfp
   4              		.eabi_attribute 20, 1
   5              		.eabi_attribute 21, 1
   6              		.eabi_attribute 23, 3
   7              		.eabi_attribute 24, 1
   8              		.eabi_attribute 25, 1
   9              		.eabi_attribute 26, 1
  10              		.eabi_attribute 30, 6
  11              		.eabi_attribute 34, 1
  12              		.eabi_attribute 18, 4
  13              		.thumb
  14              		.syntax unified
  15              		.file	"Counter_PM.c"
  16              		.text
  17              	.Ltext0:
  18              		.cfi_sections	.debug_frame
  19              		.bss
  20              		.align	2
  21              	Counter_backup:
  22 0000 00000000 		.space	6
  22      0000
  23              		.section	.text.Counter_SaveConfig,"ax",%progbits
  24              		.align	2
  25              		.global	Counter_SaveConfig
  26              		.thumb
  27              		.thumb_func
  28              		.type	Counter_SaveConfig, %function
  29              	Counter_SaveConfig:
  30              	.LFB0:
  31              		.file 1 "Generated_Source\\PSoC5\\Counter_PM.c"
   1:Generated_Source\PSoC5/Counter_PM.c **** /*******************************************************************************
   2:Generated_Source\PSoC5/Counter_PM.c **** * File Name: Counter_PM.c  
   3:Generated_Source\PSoC5/Counter_PM.c **** * Version 3.0
   4:Generated_Source\PSoC5/Counter_PM.c **** *
   5:Generated_Source\PSoC5/Counter_PM.c **** *  Description:
   6:Generated_Source\PSoC5/Counter_PM.c **** *    This file provides the power management source code to API for the
   7:Generated_Source\PSoC5/Counter_PM.c **** *    Counter.  
   8:Generated_Source\PSoC5/Counter_PM.c **** *
   9:Generated_Source\PSoC5/Counter_PM.c **** *   Note:
  10:Generated_Source\PSoC5/Counter_PM.c **** *     None
  11:Generated_Source\PSoC5/Counter_PM.c **** *
  12:Generated_Source\PSoC5/Counter_PM.c **** ********************************************************************************
  13:Generated_Source\PSoC5/Counter_PM.c **** * Copyright 2008-2012, Cypress Semiconductor Corporation.  All rights reserved.
  14:Generated_Source\PSoC5/Counter_PM.c **** * You may use this file only in accordance with the license, terms, conditions, 
  15:Generated_Source\PSoC5/Counter_PM.c **** * disclaimers, and limitations in the end user license agreement accompanying 
  16:Generated_Source\PSoC5/Counter_PM.c **** * the software package with which this file was provided.
  17:Generated_Source\PSoC5/Counter_PM.c **** *******************************************************************************/
  18:Generated_Source\PSoC5/Counter_PM.c **** 
  19:Generated_Source\PSoC5/Counter_PM.c **** #include "Counter.h"
  20:Generated_Source\PSoC5/Counter_PM.c **** 
  21:Generated_Source\PSoC5/Counter_PM.c **** static Counter_backupStruct Counter_backup;
  22:Generated_Source\PSoC5/Counter_PM.c **** 
  23:Generated_Source\PSoC5/Counter_PM.c **** 
  24:Generated_Source\PSoC5/Counter_PM.c **** /*******************************************************************************
  25:Generated_Source\PSoC5/Counter_PM.c **** * Function Name: Counter_SaveConfig
ARM GAS  C:\Users\rens_\AppData\Local\Temp\ccEOU2u7.s 			page 2


  26:Generated_Source\PSoC5/Counter_PM.c **** ********************************************************************************
  27:Generated_Source\PSoC5/Counter_PM.c **** * Summary:
  28:Generated_Source\PSoC5/Counter_PM.c **** *     Save the current user configuration
  29:Generated_Source\PSoC5/Counter_PM.c **** *
  30:Generated_Source\PSoC5/Counter_PM.c **** * Parameters:  
  31:Generated_Source\PSoC5/Counter_PM.c **** *  void
  32:Generated_Source\PSoC5/Counter_PM.c **** *
  33:Generated_Source\PSoC5/Counter_PM.c **** * Return: 
  34:Generated_Source\PSoC5/Counter_PM.c **** *  void
  35:Generated_Source\PSoC5/Counter_PM.c **** *
  36:Generated_Source\PSoC5/Counter_PM.c **** * Global variables:
  37:Generated_Source\PSoC5/Counter_PM.c **** *  Counter_backup:  Variables of this global structure are modified to 
  38:Generated_Source\PSoC5/Counter_PM.c **** *  store the values of non retention configuration registers when Sleep() API is 
  39:Generated_Source\PSoC5/Counter_PM.c **** *  called.
  40:Generated_Source\PSoC5/Counter_PM.c **** *
  41:Generated_Source\PSoC5/Counter_PM.c **** *******************************************************************************/
  42:Generated_Source\PSoC5/Counter_PM.c **** void Counter_SaveConfig(void) 
  43:Generated_Source\PSoC5/Counter_PM.c **** {
  32              		.loc 1 43 0
  33              		.cfi_startproc
  34              		@ args = 0, pretend = 0, frame = 0
  35              		@ frame_needed = 1, uses_anonymous_args = 0
  36              		@ link register save eliminated.
  37 0000 80B4     		push	{r7}
  38              		.cfi_def_cfa_offset 4
  39              		.cfi_offset 7, -4
  40 0002 00AF     		add	r7, sp, #0
  41              		.cfi_def_cfa_register 7
  44:Generated_Source\PSoC5/Counter_PM.c ****     #if (!Counter_UsingFixedFunction)
  45:Generated_Source\PSoC5/Counter_PM.c **** 
  46:Generated_Source\PSoC5/Counter_PM.c ****         Counter_backup.CounterUdb = Counter_ReadCounter();
  47:Generated_Source\PSoC5/Counter_PM.c **** 
  48:Generated_Source\PSoC5/Counter_PM.c ****         #if(!Counter_ControlRegRemoved)
  49:Generated_Source\PSoC5/Counter_PM.c ****             Counter_backup.CounterControlRegister = Counter_ReadControlRegister();
  50:Generated_Source\PSoC5/Counter_PM.c ****         #endif /* (!Counter_ControlRegRemoved) */
  51:Generated_Source\PSoC5/Counter_PM.c **** 
  52:Generated_Source\PSoC5/Counter_PM.c ****     #endif /* (!Counter_UsingFixedFunction) */
  53:Generated_Source\PSoC5/Counter_PM.c **** }
  42              		.loc 1 53 0
  43 0004 00BF     		nop
  44 0006 BD46     		mov	sp, r7
  45              		.cfi_def_cfa_register 13
  46              		@ sp needed
  47 0008 80BC     		pop	{r7}
  48              		.cfi_restore 7
  49              		.cfi_def_cfa_offset 0
  50 000a 7047     		bx	lr
  51              		.cfi_endproc
  52              	.LFE0:
  53              		.size	Counter_SaveConfig, .-Counter_SaveConfig
  54              		.section	.text.Counter_RestoreConfig,"ax",%progbits
  55              		.align	2
  56              		.global	Counter_RestoreConfig
  57              		.thumb
  58              		.thumb_func
  59              		.type	Counter_RestoreConfig, %function
  60              	Counter_RestoreConfig:
ARM GAS  C:\Users\rens_\AppData\Local\Temp\ccEOU2u7.s 			page 3


  61              	.LFB1:
  54:Generated_Source\PSoC5/Counter_PM.c **** 
  55:Generated_Source\PSoC5/Counter_PM.c **** 
  56:Generated_Source\PSoC5/Counter_PM.c **** /*******************************************************************************
  57:Generated_Source\PSoC5/Counter_PM.c **** * Function Name: Counter_RestoreConfig
  58:Generated_Source\PSoC5/Counter_PM.c **** ********************************************************************************
  59:Generated_Source\PSoC5/Counter_PM.c **** *
  60:Generated_Source\PSoC5/Counter_PM.c **** * Summary:
  61:Generated_Source\PSoC5/Counter_PM.c **** *  Restores the current user configuration.
  62:Generated_Source\PSoC5/Counter_PM.c **** *
  63:Generated_Source\PSoC5/Counter_PM.c **** * Parameters:  
  64:Generated_Source\PSoC5/Counter_PM.c **** *  void
  65:Generated_Source\PSoC5/Counter_PM.c **** *
  66:Generated_Source\PSoC5/Counter_PM.c **** * Return: 
  67:Generated_Source\PSoC5/Counter_PM.c **** *  void
  68:Generated_Source\PSoC5/Counter_PM.c **** *
  69:Generated_Source\PSoC5/Counter_PM.c **** * Global variables:
  70:Generated_Source\PSoC5/Counter_PM.c **** *  Counter_backup:  Variables of this global structure are used to 
  71:Generated_Source\PSoC5/Counter_PM.c **** *  restore the values of non retention registers on wakeup from sleep mode.
  72:Generated_Source\PSoC5/Counter_PM.c **** *
  73:Generated_Source\PSoC5/Counter_PM.c **** *******************************************************************************/
  74:Generated_Source\PSoC5/Counter_PM.c **** void Counter_RestoreConfig(void) 
  75:Generated_Source\PSoC5/Counter_PM.c **** {      
  62              		.loc 1 75 0
  63              		.cfi_startproc
  64              		@ args = 0, pretend = 0, frame = 0
  65              		@ frame_needed = 1, uses_anonymous_args = 0
  66              		@ link register save eliminated.
  67 0000 80B4     		push	{r7}
  68              		.cfi_def_cfa_offset 4
  69              		.cfi_offset 7, -4
  70 0002 00AF     		add	r7, sp, #0
  71              		.cfi_def_cfa_register 7
  76:Generated_Source\PSoC5/Counter_PM.c ****     #if (!Counter_UsingFixedFunction)
  77:Generated_Source\PSoC5/Counter_PM.c **** 
  78:Generated_Source\PSoC5/Counter_PM.c ****        Counter_WriteCounter(Counter_backup.CounterUdb);
  79:Generated_Source\PSoC5/Counter_PM.c **** 
  80:Generated_Source\PSoC5/Counter_PM.c ****         #if(!Counter_ControlRegRemoved)
  81:Generated_Source\PSoC5/Counter_PM.c ****             Counter_WriteControlRegister(Counter_backup.CounterControlRegister);
  82:Generated_Source\PSoC5/Counter_PM.c ****         #endif /* (!Counter_ControlRegRemoved) */
  83:Generated_Source\PSoC5/Counter_PM.c **** 
  84:Generated_Source\PSoC5/Counter_PM.c ****     #endif /* (!Counter_UsingFixedFunction) */
  85:Generated_Source\PSoC5/Counter_PM.c **** }
  72              		.loc 1 85 0
  73 0004 00BF     		nop
  74 0006 BD46     		mov	sp, r7
  75              		.cfi_def_cfa_register 13
  76              		@ sp needed
  77 0008 80BC     		pop	{r7}
  78              		.cfi_restore 7
  79              		.cfi_def_cfa_offset 0
  80 000a 7047     		bx	lr
  81              		.cfi_endproc
  82              	.LFE1:
  83              		.size	Counter_RestoreConfig, .-Counter_RestoreConfig
  84              		.section	.text.Counter_Sleep,"ax",%progbits
  85              		.align	2
ARM GAS  C:\Users\rens_\AppData\Local\Temp\ccEOU2u7.s 			page 4


  86              		.global	Counter_Sleep
  87              		.thumb
  88              		.thumb_func
  89              		.type	Counter_Sleep, %function
  90              	Counter_Sleep:
  91              	.LFB2:
  86:Generated_Source\PSoC5/Counter_PM.c **** 
  87:Generated_Source\PSoC5/Counter_PM.c **** 
  88:Generated_Source\PSoC5/Counter_PM.c **** /*******************************************************************************
  89:Generated_Source\PSoC5/Counter_PM.c **** * Function Name: Counter_Sleep
  90:Generated_Source\PSoC5/Counter_PM.c **** ********************************************************************************
  91:Generated_Source\PSoC5/Counter_PM.c **** * Summary:
  92:Generated_Source\PSoC5/Counter_PM.c **** *     Stop and Save the user configuration
  93:Generated_Source\PSoC5/Counter_PM.c **** *
  94:Generated_Source\PSoC5/Counter_PM.c **** * Parameters:  
  95:Generated_Source\PSoC5/Counter_PM.c **** *  void
  96:Generated_Source\PSoC5/Counter_PM.c **** *
  97:Generated_Source\PSoC5/Counter_PM.c **** * Return: 
  98:Generated_Source\PSoC5/Counter_PM.c **** *  void
  99:Generated_Source\PSoC5/Counter_PM.c **** *
 100:Generated_Source\PSoC5/Counter_PM.c **** * Global variables:
 101:Generated_Source\PSoC5/Counter_PM.c **** *  Counter_backup.enableState:  Is modified depending on the enable 
 102:Generated_Source\PSoC5/Counter_PM.c **** *  state of the block before entering sleep mode.
 103:Generated_Source\PSoC5/Counter_PM.c **** *
 104:Generated_Source\PSoC5/Counter_PM.c **** *******************************************************************************/
 105:Generated_Source\PSoC5/Counter_PM.c **** void Counter_Sleep(void) 
 106:Generated_Source\PSoC5/Counter_PM.c **** {
  92              		.loc 1 106 0
  93              		.cfi_startproc
  94              		@ args = 0, pretend = 0, frame = 0
  95              		@ frame_needed = 1, uses_anonymous_args = 0
  96 0000 80B5     		push	{r7, lr}
  97              		.cfi_def_cfa_offset 8
  98              		.cfi_offset 7, -8
  99              		.cfi_offset 14, -4
 100 0002 00AF     		add	r7, sp, #0
 101              		.cfi_def_cfa_register 7
 107:Generated_Source\PSoC5/Counter_PM.c ****     #if(!Counter_ControlRegRemoved)
 108:Generated_Source\PSoC5/Counter_PM.c ****         /* Save Counter's enable state */
 109:Generated_Source\PSoC5/Counter_PM.c ****         if(Counter_CTRL_ENABLE == (Counter_CONTROL & Counter_CTRL_ENABLE))
 102              		.loc 1 109 0
 103 0004 094B     		ldr	r3, .L6
 104 0006 1B78     		ldrb	r3, [r3]
 105 0008 DBB2     		uxtb	r3, r3
 106 000a 03F00103 		and	r3, r3, #1
 107 000e 002B     		cmp	r3, #0
 108 0010 03D0     		beq	.L4
 110:Generated_Source\PSoC5/Counter_PM.c ****         {
 111:Generated_Source\PSoC5/Counter_PM.c ****             /* Counter is enabled */
 112:Generated_Source\PSoC5/Counter_PM.c ****             Counter_backup.CounterEnableState = 1u;
 109              		.loc 1 112 0
 110 0012 074B     		ldr	r3, .L6+4
 111 0014 0122     		movs	r2, #1
 112 0016 1A70     		strb	r2, [r3]
 113 0018 02E0     		b	.L5
 114              	.L4:
 113:Generated_Source\PSoC5/Counter_PM.c ****         }
ARM GAS  C:\Users\rens_\AppData\Local\Temp\ccEOU2u7.s 			page 5


 114:Generated_Source\PSoC5/Counter_PM.c ****         else
 115:Generated_Source\PSoC5/Counter_PM.c ****         {
 116:Generated_Source\PSoC5/Counter_PM.c ****             /* Counter is disabled */
 117:Generated_Source\PSoC5/Counter_PM.c ****             Counter_backup.CounterEnableState = 0u;
 115              		.loc 1 117 0
 116 001a 054B     		ldr	r3, .L6+4
 117 001c 0022     		movs	r2, #0
 118 001e 1A70     		strb	r2, [r3]
 119              	.L5:
 118:Generated_Source\PSoC5/Counter_PM.c ****         }
 119:Generated_Source\PSoC5/Counter_PM.c ****     #else
 120:Generated_Source\PSoC5/Counter_PM.c ****         Counter_backup.CounterEnableState = 1u;
 121:Generated_Source\PSoC5/Counter_PM.c ****         if(Counter_backup.CounterEnableState != 0u)
 122:Generated_Source\PSoC5/Counter_PM.c ****         {
 123:Generated_Source\PSoC5/Counter_PM.c ****             Counter_backup.CounterEnableState = 0u;
 124:Generated_Source\PSoC5/Counter_PM.c ****         }
 125:Generated_Source\PSoC5/Counter_PM.c ****     #endif /* (!Counter_ControlRegRemoved) */
 126:Generated_Source\PSoC5/Counter_PM.c ****     
 127:Generated_Source\PSoC5/Counter_PM.c ****     Counter_Stop();
 120              		.loc 1 127 0
 121 0020 FFF7FEFF 		bl	Counter_Stop
 128:Generated_Source\PSoC5/Counter_PM.c ****     Counter_SaveConfig();
 122              		.loc 1 128 0
 123 0024 FFF7FEFF 		bl	Counter_SaveConfig
 129:Generated_Source\PSoC5/Counter_PM.c **** }
 124              		.loc 1 129 0
 125 0028 00BF     		nop
 126 002a 80BD     		pop	{r7, pc}
 127              	.L7:
 128              		.align	2
 129              	.L6:
 130 002c 004F0040 		.word	1073762048
 131 0030 00000000 		.word	Counter_backup
 132              		.cfi_endproc
 133              	.LFE2:
 134              		.size	Counter_Sleep, .-Counter_Sleep
 135              		.section	.text.Counter_Wakeup,"ax",%progbits
 136              		.align	2
 137              		.global	Counter_Wakeup
 138              		.thumb
 139              		.thumb_func
 140              		.type	Counter_Wakeup, %function
 141              	Counter_Wakeup:
 142              	.LFB3:
 130:Generated_Source\PSoC5/Counter_PM.c **** 
 131:Generated_Source\PSoC5/Counter_PM.c **** 
 132:Generated_Source\PSoC5/Counter_PM.c **** /*******************************************************************************
 133:Generated_Source\PSoC5/Counter_PM.c **** * Function Name: Counter_Wakeup
 134:Generated_Source\PSoC5/Counter_PM.c **** ********************************************************************************
 135:Generated_Source\PSoC5/Counter_PM.c **** *
 136:Generated_Source\PSoC5/Counter_PM.c **** * Summary:
 137:Generated_Source\PSoC5/Counter_PM.c **** *  Restores and enables the user configuration
 138:Generated_Source\PSoC5/Counter_PM.c **** *  
 139:Generated_Source\PSoC5/Counter_PM.c **** * Parameters:  
 140:Generated_Source\PSoC5/Counter_PM.c **** *  void
 141:Generated_Source\PSoC5/Counter_PM.c **** *
 142:Generated_Source\PSoC5/Counter_PM.c **** * Return: 
ARM GAS  C:\Users\rens_\AppData\Local\Temp\ccEOU2u7.s 			page 6


 143:Generated_Source\PSoC5/Counter_PM.c **** *  void
 144:Generated_Source\PSoC5/Counter_PM.c **** *
 145:Generated_Source\PSoC5/Counter_PM.c **** * Global variables:
 146:Generated_Source\PSoC5/Counter_PM.c **** *  Counter_backup.enableState:  Is used to restore the enable state of 
 147:Generated_Source\PSoC5/Counter_PM.c **** *  block on wakeup from sleep mode.
 148:Generated_Source\PSoC5/Counter_PM.c **** *
 149:Generated_Source\PSoC5/Counter_PM.c **** *******************************************************************************/
 150:Generated_Source\PSoC5/Counter_PM.c **** void Counter_Wakeup(void) 
 151:Generated_Source\PSoC5/Counter_PM.c **** {
 143              		.loc 1 151 0
 144              		.cfi_startproc
 145              		@ args = 0, pretend = 0, frame = 0
 146              		@ frame_needed = 1, uses_anonymous_args = 0
 147 0000 80B5     		push	{r7, lr}
 148              		.cfi_def_cfa_offset 8
 149              		.cfi_offset 7, -8
 150              		.cfi_offset 14, -4
 151 0002 00AF     		add	r7, sp, #0
 152              		.cfi_def_cfa_register 7
 152:Generated_Source\PSoC5/Counter_PM.c ****     Counter_RestoreConfig();
 153              		.loc 1 152 0
 154 0004 FFF7FEFF 		bl	Counter_RestoreConfig
 153:Generated_Source\PSoC5/Counter_PM.c ****     #if(!Counter_ControlRegRemoved)
 154:Generated_Source\PSoC5/Counter_PM.c ****         if(Counter_backup.CounterEnableState == 1u)
 155              		.loc 1 154 0
 156 0008 034B     		ldr	r3, .L11
 157 000a 1B78     		ldrb	r3, [r3]	@ zero_extendqisi2
 158 000c 012B     		cmp	r3, #1
 159 000e 01D1     		bne	.L10
 155:Generated_Source\PSoC5/Counter_PM.c ****         {
 156:Generated_Source\PSoC5/Counter_PM.c ****             /* Enable Counter's operation */
 157:Generated_Source\PSoC5/Counter_PM.c ****             Counter_Enable();
 160              		.loc 1 157 0
 161 0010 FFF7FEFF 		bl	Counter_Enable
 162              	.L10:
 158:Generated_Source\PSoC5/Counter_PM.c ****         } /* Do nothing if Counter was disabled before */    
 159:Generated_Source\PSoC5/Counter_PM.c ****     #endif /* (!Counter_ControlRegRemoved) */
 160:Generated_Source\PSoC5/Counter_PM.c ****     
 161:Generated_Source\PSoC5/Counter_PM.c **** }
 163              		.loc 1 161 0
 164 0014 00BF     		nop
 165 0016 80BD     		pop	{r7, pc}
 166              	.L12:
 167              		.align	2
 168              	.L11:
 169 0018 00000000 		.word	Counter_backup
 170              		.cfi_endproc
 171              	.LFE3:
 172              		.size	Counter_Wakeup, .-Counter_Wakeup
 173              		.text
 174              	.Letext0:
 175              		.file 2 "Generated_Source\\PSoC5\\cytypes.h"
 176              		.file 3 "Generated_Source\\PSoC5\\Counter.h"