ARM GAS  C:\Users\rens_\AppData\Local\Temp\cc35mTjg.s 			page 1


   1              		.syntax unified
   2              		.cpu cortex-m3
   3              		.fpu softvfp
   4              		.eabi_attribute 20, 1
   5              		.eabi_attribute 21, 1
   6              		.eabi_attribute 23, 3
   7              		.eabi_attribute 24, 1
   8              		.eabi_attribute 25, 1
   9              		.eabi_attribute 26, 1
  10              		.eabi_attribute 30, 6
  11              		.eabi_attribute 34, 1
  12              		.eabi_attribute 18, 4
  13              		.thumb
  14              		.syntax unified
  15              		.file	"cyfitter_cfg.c"
  16              		.text
  17              	.Ltext0:
  18              		.cfi_sections	.debug_frame
  19              		.section	.text.CYMEMZERO,"ax",%progbits
  20              		.align	2
  21              		.thumb
  22              		.thumb_func
  23              		.type	CYMEMZERO, %function
  24              	CYMEMZERO:
  25              	.LFB0:
  26              		.file 1 "Generated_Source\\PSoC5\\cyfitter_cfg.c"
   1:Generated_Source\PSoC5/cyfitter_cfg.c **** 
   2:Generated_Source\PSoC5/cyfitter_cfg.c **** /*******************************************************************************
   3:Generated_Source\PSoC5/cyfitter_cfg.c **** * File Name: cyfitter_cfg.c
   4:Generated_Source\PSoC5/cyfitter_cfg.c **** * 
   5:Generated_Source\PSoC5/cyfitter_cfg.c **** * PSoC Creator  4.2
   6:Generated_Source\PSoC5/cyfitter_cfg.c **** *
   7:Generated_Source\PSoC5/cyfitter_cfg.c **** * Description:
   8:Generated_Source\PSoC5/cyfitter_cfg.c **** * This file contains device initialization code.
   9:Generated_Source\PSoC5/cyfitter_cfg.c **** * Except for the user defined sections in CyClockStartupError(), this file should not be modified.
  10:Generated_Source\PSoC5/cyfitter_cfg.c **** * This file is automatically generated by PSoC Creator.
  11:Generated_Source\PSoC5/cyfitter_cfg.c **** *
  12:Generated_Source\PSoC5/cyfitter_cfg.c **** ********************************************************************************
  13:Generated_Source\PSoC5/cyfitter_cfg.c **** * Copyright (c) 2007-2018 Cypress Semiconductor.  All rights reserved.
  14:Generated_Source\PSoC5/cyfitter_cfg.c **** * You may use this file only in accordance with the license, terms, conditions, 
  15:Generated_Source\PSoC5/cyfitter_cfg.c **** * disclaimers, and limitations in the end user license agreement accompanying 
  16:Generated_Source\PSoC5/cyfitter_cfg.c **** * the software package with which this file was provided.
  17:Generated_Source\PSoC5/cyfitter_cfg.c **** ********************************************************************************/
  18:Generated_Source\PSoC5/cyfitter_cfg.c **** 
  19:Generated_Source\PSoC5/cyfitter_cfg.c **** #include <string.h>
  20:Generated_Source\PSoC5/cyfitter_cfg.c **** #include "cytypes.h"
  21:Generated_Source\PSoC5/cyfitter_cfg.c **** #include "cydevice_trm.h"
  22:Generated_Source\PSoC5/cyfitter_cfg.c **** #include "cyfitter.h"
  23:Generated_Source\PSoC5/cyfitter_cfg.c **** #include "CyLib.h"
  24:Generated_Source\PSoC5/cyfitter_cfg.c **** #include "cyfitter_cfg.h"
  25:Generated_Source\PSoC5/cyfitter_cfg.c **** 
  26:Generated_Source\PSoC5/cyfitter_cfg.c **** #define CY_NEED_CYCLOCKSTARTUPERROR 1
  27:Generated_Source\PSoC5/cyfitter_cfg.c **** 
  28:Generated_Source\PSoC5/cyfitter_cfg.c **** 
  29:Generated_Source\PSoC5/cyfitter_cfg.c **** #if defined(__GNUC__) || defined(__ARMCC_VERSION)
  30:Generated_Source\PSoC5/cyfitter_cfg.c ****     #define CYPACKED 
  31:Generated_Source\PSoC5/cyfitter_cfg.c ****     #define CYPACKED_ATTR __attribute__ ((packed))
ARM GAS  C:\Users\rens_\AppData\Local\Temp\cc35mTjg.s 			page 2


  32:Generated_Source\PSoC5/cyfitter_cfg.c ****     #define CYALIGNED __attribute__ ((aligned))
  33:Generated_Source\PSoC5/cyfitter_cfg.c ****     #define CY_CFG_UNUSED __attribute__ ((unused))
  34:Generated_Source\PSoC5/cyfitter_cfg.c ****     #ifndef CY_CFG_SECTION
  35:Generated_Source\PSoC5/cyfitter_cfg.c ****         #define CY_CFG_SECTION __attribute__ ((section(".psocinit")))
  36:Generated_Source\PSoC5/cyfitter_cfg.c ****     #endif
  37:Generated_Source\PSoC5/cyfitter_cfg.c ****     
  38:Generated_Source\PSoC5/cyfitter_cfg.c ****     #if CYDEV_CONFIGURATION_DMA
  39:Generated_Source\PSoC5/cyfitter_cfg.c ****         #if (defined(__ARMCC_VERSION) || defined(__GNUC__))
  40:Generated_Source\PSoC5/cyfitter_cfg.c ****             #ifndef DMAINITSEC
  41:Generated_Source\PSoC5/cyfitter_cfg.c ****                 #define DMAINITSEC __attribute__ ((section(".dma_init")))
  42:Generated_Source\PSoC5/cyfitter_cfg.c ****             #endif
  43:Generated_Source\PSoC5/cyfitter_cfg.c ****         #elif defined(__ICCARM__)
  44:Generated_Source\PSoC5/cyfitter_cfg.c ****             #define DMAINITSEC _Pragma("location=\".dma_init\"")
  45:Generated_Source\PSoC5/cyfitter_cfg.c ****         #endif
  46:Generated_Source\PSoC5/cyfitter_cfg.c ****     #else
  47:Generated_Source\PSoC5/cyfitter_cfg.c ****         #define DMAINITSEC
  48:Generated_Source\PSoC5/cyfitter_cfg.c ****     #endif
  49:Generated_Source\PSoC5/cyfitter_cfg.c **** 
  50:Generated_Source\PSoC5/cyfitter_cfg.c ****     #if defined(__ARMCC_VERSION)
  51:Generated_Source\PSoC5/cyfitter_cfg.c ****         #define CY_CFG_MEMORY_BARRIER() __memory_changed()
  52:Generated_Source\PSoC5/cyfitter_cfg.c ****     #else
  53:Generated_Source\PSoC5/cyfitter_cfg.c ****         #define CY_CFG_MEMORY_BARRIER() __sync_synchronize()
  54:Generated_Source\PSoC5/cyfitter_cfg.c ****     #endif
  55:Generated_Source\PSoC5/cyfitter_cfg.c ****     
  56:Generated_Source\PSoC5/cyfitter_cfg.c **** #elif defined(__ICCARM__)
  57:Generated_Source\PSoC5/cyfitter_cfg.c ****     #include <intrinsics.h>
  58:Generated_Source\PSoC5/cyfitter_cfg.c **** 
  59:Generated_Source\PSoC5/cyfitter_cfg.c ****     #define CYPACKED __packed
  60:Generated_Source\PSoC5/cyfitter_cfg.c ****     #define CYPACKED_ATTR 
  61:Generated_Source\PSoC5/cyfitter_cfg.c ****     #define CYALIGNED _Pragma("data_alignment=4")
  62:Generated_Source\PSoC5/cyfitter_cfg.c ****     #define CY_CFG_UNUSED _Pragma("diag_suppress=Pe177")
  63:Generated_Source\PSoC5/cyfitter_cfg.c ****     #define CY_CFG_SECTION _Pragma("location=\".psocinit\"")
  64:Generated_Source\PSoC5/cyfitter_cfg.c ****     
  65:Generated_Source\PSoC5/cyfitter_cfg.c ****     #if CYDEV_CONFIGURATION_DMA
  66:Generated_Source\PSoC5/cyfitter_cfg.c ****         #if (defined(__ARMCC_VERSION) || defined(__GNUC__))
  67:Generated_Source\PSoC5/cyfitter_cfg.c ****             #ifndef DMAINITSEC
  68:Generated_Source\PSoC5/cyfitter_cfg.c ****                 #define DMAINITSEC __attribute__ ((section(".dma_init")))
  69:Generated_Source\PSoC5/cyfitter_cfg.c ****             #endif
  70:Generated_Source\PSoC5/cyfitter_cfg.c ****         #elif defined(__ICCARM__)
  71:Generated_Source\PSoC5/cyfitter_cfg.c ****             #define DMAINITSEC _Pragma("location=\".dma_init\"")
  72:Generated_Source\PSoC5/cyfitter_cfg.c ****         #endif
  73:Generated_Source\PSoC5/cyfitter_cfg.c ****     #else
  74:Generated_Source\PSoC5/cyfitter_cfg.c ****         #define DMAINITSEC
  75:Generated_Source\PSoC5/cyfitter_cfg.c ****     #endif
  76:Generated_Source\PSoC5/cyfitter_cfg.c **** 
  77:Generated_Source\PSoC5/cyfitter_cfg.c ****     #define CY_CFG_MEMORY_BARRIER() __DMB()
  78:Generated_Source\PSoC5/cyfitter_cfg.c ****     
  79:Generated_Source\PSoC5/cyfitter_cfg.c **** #else
  80:Generated_Source\PSoC5/cyfitter_cfg.c ****     #error Unsupported toolchain
  81:Generated_Source\PSoC5/cyfitter_cfg.c **** #endif
  82:Generated_Source\PSoC5/cyfitter_cfg.c **** 
  83:Generated_Source\PSoC5/cyfitter_cfg.c **** #ifndef CYCODE
  84:Generated_Source\PSoC5/cyfitter_cfg.c ****     #define CYCODE
  85:Generated_Source\PSoC5/cyfitter_cfg.c **** #endif
  86:Generated_Source\PSoC5/cyfitter_cfg.c **** #ifndef CYDATA
  87:Generated_Source\PSoC5/cyfitter_cfg.c ****     #define CYDATA
  88:Generated_Source\PSoC5/cyfitter_cfg.c **** #endif
ARM GAS  C:\Users\rens_\AppData\Local\Temp\cc35mTjg.s 			page 3


  89:Generated_Source\PSoC5/cyfitter_cfg.c **** #ifndef CYFAR
  90:Generated_Source\PSoC5/cyfitter_cfg.c ****     #define CYFAR
  91:Generated_Source\PSoC5/cyfitter_cfg.c **** #endif
  92:Generated_Source\PSoC5/cyfitter_cfg.c **** #ifndef CYXDATA
  93:Generated_Source\PSoC5/cyfitter_cfg.c ****     #define CYXDATA
  94:Generated_Source\PSoC5/cyfitter_cfg.c **** #endif
  95:Generated_Source\PSoC5/cyfitter_cfg.c **** 
  96:Generated_Source\PSoC5/cyfitter_cfg.c **** 
  97:Generated_Source\PSoC5/cyfitter_cfg.c **** CY_CFG_UNUSED
  98:Generated_Source\PSoC5/cyfitter_cfg.c **** static void CYMEMZERO(void *s, size_t n);
  99:Generated_Source\PSoC5/cyfitter_cfg.c **** CY_CFG_UNUSED
 100:Generated_Source\PSoC5/cyfitter_cfg.c **** static void CYMEMZERO(void *s, size_t n)
 101:Generated_Source\PSoC5/cyfitter_cfg.c **** {
  27              		.loc 1 101 0
  28              		.cfi_startproc
  29              		@ args = 0, pretend = 0, frame = 8
  30              		@ frame_needed = 1, uses_anonymous_args = 0
  31 0000 80B5     		push	{r7, lr}
  32              		.cfi_def_cfa_offset 8
  33              		.cfi_offset 7, -8
  34              		.cfi_offset 14, -4
  35 0002 82B0     		sub	sp, sp, #8
  36              		.cfi_def_cfa_offset 16
  37 0004 00AF     		add	r7, sp, #0
  38              		.cfi_def_cfa_register 7
  39 0006 7860     		str	r0, [r7, #4]
  40 0008 3960     		str	r1, [r7]
 102:Generated_Source\PSoC5/cyfitter_cfg.c **** 	(void)memset(s, 0, n);
  41              		.loc 1 102 0
  42 000a 3A68     		ldr	r2, [r7]
  43 000c 0021     		movs	r1, #0
  44 000e 7868     		ldr	r0, [r7, #4]
  45 0010 FFF7FEFF 		bl	memset
 103:Generated_Source\PSoC5/cyfitter_cfg.c **** }
  46              		.loc 1 103 0
  47 0014 00BF     		nop
  48 0016 0837     		adds	r7, r7, #8
  49              		.cfi_def_cfa_offset 8
  50 0018 BD46     		mov	sp, r7
  51              		.cfi_def_cfa_register 13
  52              		@ sp needed
  53 001a 80BD     		pop	{r7, pc}
  54              		.cfi_endproc
  55              	.LFE0:
  56              		.size	CYMEMZERO, .-CYMEMZERO
  57              		.section	.text.CYCONFIGCPY,"ax",%progbits
  58              		.align	2
  59              		.thumb
  60              		.thumb_func
  61              		.type	CYCONFIGCPY, %function
  62              	CYCONFIGCPY:
  63              	.LFB1:
 104:Generated_Source\PSoC5/cyfitter_cfg.c **** CY_CFG_UNUSED
 105:Generated_Source\PSoC5/cyfitter_cfg.c **** static void CYCONFIGCPY(void *dest, const void *src, size_t n);
 106:Generated_Source\PSoC5/cyfitter_cfg.c **** CY_CFG_UNUSED
 107:Generated_Source\PSoC5/cyfitter_cfg.c **** static void CYCONFIGCPY(void *dest, const void *src, size_t n)
 108:Generated_Source\PSoC5/cyfitter_cfg.c **** {
ARM GAS  C:\Users\rens_\AppData\Local\Temp\cc35mTjg.s 			page 4


  64              		.loc 1 108 0
  65              		.cfi_startproc
  66              		@ args = 0, pretend = 0, frame = 16
  67              		@ frame_needed = 1, uses_anonymous_args = 0
  68 0000 80B5     		push	{r7, lr}
  69              		.cfi_def_cfa_offset 8
  70              		.cfi_offset 7, -8
  71              		.cfi_offset 14, -4
  72 0002 84B0     		sub	sp, sp, #16
  73              		.cfi_def_cfa_offset 24
  74 0004 00AF     		add	r7, sp, #0
  75              		.cfi_def_cfa_register 7
  76 0006 F860     		str	r0, [r7, #12]
  77 0008 B960     		str	r1, [r7, #8]
  78 000a 7A60     		str	r2, [r7, #4]
 109:Generated_Source\PSoC5/cyfitter_cfg.c **** 	(void)memcpy(dest, src, n);
  79              		.loc 1 109 0
  80 000c 7A68     		ldr	r2, [r7, #4]
  81 000e B968     		ldr	r1, [r7, #8]
  82 0010 F868     		ldr	r0, [r7, #12]
  83 0012 FFF7FEFF 		bl	memcpy
 110:Generated_Source\PSoC5/cyfitter_cfg.c **** }
  84              		.loc 1 110 0
  85 0016 00BF     		nop
  86 0018 1037     		adds	r7, r7, #16
  87              		.cfi_def_cfa_offset 8
  88 001a BD46     		mov	sp, r7
  89              		.cfi_def_cfa_register 13
  90              		@ sp needed
  91 001c 80BD     		pop	{r7, pc}
  92              		.cfi_endproc
  93              	.LFE1:
  94              		.size	CYCONFIGCPY, .-CYCONFIGCPY
  95 001e 00BF     		.section	.text.CYCONFIGCPYCODE,"ax",%progbits
  96              		.align	2
  97              		.thumb
  98              		.thumb_func
  99              		.type	CYCONFIGCPYCODE, %function
 100              	CYCONFIGCPYCODE:
 101              	.LFB2:
 111:Generated_Source\PSoC5/cyfitter_cfg.c **** CY_CFG_UNUSED
 112:Generated_Source\PSoC5/cyfitter_cfg.c **** static void CYCONFIGCPYCODE(void *dest, const void *src, size_t n);
 113:Generated_Source\PSoC5/cyfitter_cfg.c **** CY_CFG_UNUSED
 114:Generated_Source\PSoC5/cyfitter_cfg.c **** static void CYCONFIGCPYCODE(void *dest, const void *src, size_t n)
 115:Generated_Source\PSoC5/cyfitter_cfg.c **** {
 102              		.loc 1 115 0
 103              		.cfi_startproc
 104              		@ args = 0, pretend = 0, frame = 16
 105              		@ frame_needed = 1, uses_anonymous_args = 0
 106 0000 80B5     		push	{r7, lr}
 107              		.cfi_def_cfa_offset 8
 108              		.cfi_offset 7, -8
 109              		.cfi_offset 14, -4
 110 0002 84B0     		sub	sp, sp, #16
 111              		.cfi_def_cfa_offset 24
 112 0004 00AF     		add	r7, sp, #0
 113              		.cfi_def_cfa_register 7
ARM GAS  C:\Users\rens_\AppData\Local\Temp\cc35mTjg.s 			page 5


 114 0006 F860     		str	r0, [r7, #12]
 115 0008 B960     		str	r1, [r7, #8]
 116 000a 7A60     		str	r2, [r7, #4]
 116:Generated_Source\PSoC5/cyfitter_cfg.c **** 	(void)memcpy(dest, src, n);
 117              		.loc 1 116 0
 118 000c 7A68     		ldr	r2, [r7, #4]
 119 000e B968     		ldr	r1, [r7, #8]
 120 0010 F868     		ldr	r0, [r7, #12]
 121 0012 FFF7FEFF 		bl	memcpy
 117:Generated_Source\PSoC5/cyfitter_cfg.c **** }
 122              		.loc 1 117 0
 123 0016 00BF     		nop
 124 0018 1037     		adds	r7, r7, #16
 125              		.cfi_def_cfa_offset 8
 126 001a BD46     		mov	sp, r7
 127              		.cfi_def_cfa_register 13
 128              		@ sp needed
 129 001c 80BD     		pop	{r7, pc}
 130              		.cfi_endproc
 131              	.LFE2:
 132              		.size	CYCONFIGCPYCODE, .-CYCONFIGCPYCODE
 133 001e 00BF     		.section	.text.CyClockStartupError,"ax",%progbits
 134              		.align	2
 135              		.thumb
 136              		.thumb_func
 137              		.type	CyClockStartupError, %function
 138              	CyClockStartupError:
 139              	.LFB3:
 118:Generated_Source\PSoC5/cyfitter_cfg.c **** 
 119:Generated_Source\PSoC5/cyfitter_cfg.c **** 
 120:Generated_Source\PSoC5/cyfitter_cfg.c **** 
 121:Generated_Source\PSoC5/cyfitter_cfg.c **** 
 122:Generated_Source\PSoC5/cyfitter_cfg.c **** /* Clock startup error codes                                                   */
 123:Generated_Source\PSoC5/cyfitter_cfg.c **** #define CYCLOCKSTART_NO_ERROR    0u
 124:Generated_Source\PSoC5/cyfitter_cfg.c **** #define CYCLOCKSTART_XTAL_ERROR  1u
 125:Generated_Source\PSoC5/cyfitter_cfg.c **** #define CYCLOCKSTART_32KHZ_ERROR 2u
 126:Generated_Source\PSoC5/cyfitter_cfg.c **** #define CYCLOCKSTART_PLL_ERROR   3u
 127:Generated_Source\PSoC5/cyfitter_cfg.c **** #define CYCLOCKSTART_FLL_ERROR   4u
 128:Generated_Source\PSoC5/cyfitter_cfg.c **** #define CYCLOCKSTART_WCO_ERROR   5u
 129:Generated_Source\PSoC5/cyfitter_cfg.c **** 
 130:Generated_Source\PSoC5/cyfitter_cfg.c **** 
 131:Generated_Source\PSoC5/cyfitter_cfg.c **** #ifdef CY_NEED_CYCLOCKSTARTUPERROR
 132:Generated_Source\PSoC5/cyfitter_cfg.c **** /*******************************************************************************
 133:Generated_Source\PSoC5/cyfitter_cfg.c **** * Function Name: CyClockStartupError
 134:Generated_Source\PSoC5/cyfitter_cfg.c **** ********************************************************************************
 135:Generated_Source\PSoC5/cyfitter_cfg.c **** * Summary:
 136:Generated_Source\PSoC5/cyfitter_cfg.c **** *  If an error is encountered during clock configuration (crystal startup error,
 137:Generated_Source\PSoC5/cyfitter_cfg.c **** *  PLL lock error, etc.), the system will end up here.  Unless reimplemented by
 138:Generated_Source\PSoC5/cyfitter_cfg.c **** *  the customer, this function will stop in an infinite loop.
 139:Generated_Source\PSoC5/cyfitter_cfg.c **** *
 140:Generated_Source\PSoC5/cyfitter_cfg.c **** * Parameters:
 141:Generated_Source\PSoC5/cyfitter_cfg.c **** *   void
 142:Generated_Source\PSoC5/cyfitter_cfg.c **** *
 143:Generated_Source\PSoC5/cyfitter_cfg.c **** * Return:
 144:Generated_Source\PSoC5/cyfitter_cfg.c **** *   void
 145:Generated_Source\PSoC5/cyfitter_cfg.c **** *
 146:Generated_Source\PSoC5/cyfitter_cfg.c **** *******************************************************************************/
ARM GAS  C:\Users\rens_\AppData\Local\Temp\cc35mTjg.s 			page 6


 147:Generated_Source\PSoC5/cyfitter_cfg.c **** CY_CFG_UNUSED
 148:Generated_Source\PSoC5/cyfitter_cfg.c **** static void CyClockStartupError(uint8 errorCode);
 149:Generated_Source\PSoC5/cyfitter_cfg.c **** CY_CFG_UNUSED
 150:Generated_Source\PSoC5/cyfitter_cfg.c **** static void CyClockStartupError(uint8 errorCode)
 151:Generated_Source\PSoC5/cyfitter_cfg.c **** {
 140              		.loc 1 151 0
 141              		.cfi_startproc
 142              		@ args = 0, pretend = 0, frame = 8
 143              		@ frame_needed = 1, uses_anonymous_args = 0
 144              		@ link register save eliminated.
 145 0000 80B4     		push	{r7}
 146              		.cfi_def_cfa_offset 4
 147              		.cfi_offset 7, -4
 148 0002 83B0     		sub	sp, sp, #12
 149              		.cfi_def_cfa_offset 16
 150 0004 00AF     		add	r7, sp, #0
 151              		.cfi_def_cfa_register 7
 152 0006 0346     		mov	r3, r0
 153 0008 FB71     		strb	r3, [r7, #7]
 154              	.L5:
 152:Generated_Source\PSoC5/cyfitter_cfg.c ****     /* To remove the compiler warning if errorCode not used.                */
 153:Generated_Source\PSoC5/cyfitter_cfg.c ****     errorCode = errorCode;
 154:Generated_Source\PSoC5/cyfitter_cfg.c **** 
 155:Generated_Source\PSoC5/cyfitter_cfg.c ****     /* If we have a clock startup error (bad MHz crystal, PLL lock, etc.),  */
 156:Generated_Source\PSoC5/cyfitter_cfg.c ****     /* we will end up here to allow the customer to implement something to  */
 157:Generated_Source\PSoC5/cyfitter_cfg.c ****     /* deal with the clock condition.                                       */
 158:Generated_Source\PSoC5/cyfitter_cfg.c **** 
 159:Generated_Source\PSoC5/cyfitter_cfg.c **** #ifdef CY_CFG_CLOCK_STARTUP_ERROR_CALLBACK
 160:Generated_Source\PSoC5/cyfitter_cfg.c ****     CY_CFG_Clock_Startup_ErrorCallback();
 161:Generated_Source\PSoC5/cyfitter_cfg.c **** #else
 162:Generated_Source\PSoC5/cyfitter_cfg.c ****     /*  If not using CY_CFG_CLOCK_STARTUP_ERROR_CALLBACK, place your clock startup code here. */
 163:Generated_Source\PSoC5/cyfitter_cfg.c ****     /* `#START CyClockStartupError` */
 164:Generated_Source\PSoC5/cyfitter_cfg.c **** 
 165:Generated_Source\PSoC5/cyfitter_cfg.c **** 
 166:Generated_Source\PSoC5/cyfitter_cfg.c **** 
 167:Generated_Source\PSoC5/cyfitter_cfg.c ****     /* `#END` */
 168:Generated_Source\PSoC5/cyfitter_cfg.c **** 
 169:Generated_Source\PSoC5/cyfitter_cfg.c ****     while(1) {}
 155              		.loc 1 169 0 discriminator 1
 156 000a FEE7     		b	.L5
 157              		.cfi_endproc
 158              	.LFE3:
 159              		.size	CyClockStartupError, .-CyClockStartupError
 160              		.section	.dma_init,"a",%progbits
 161              		.align	2
 162              		.type	CH1_ADDR_DATA0.4961, %object
 163              		.size	CH1_ADDR_DATA0.4961, 8
 164              	CH1_ADDR_DATA0.4961:
 165 0000 01       		.byte	1
 166 0001 00       		.byte	0
 167 0002 00       		.byte	0
 168 0003 00       		.byte	0
 169 0004 00       		.byte	0
 170 0005 20       		.byte	32
 171 0006 00       		.byte	0
 172 0007 40       		.byte	64
 173              		.align	2
ARM GAS  C:\Users\rens_\AppData\Local\Temp\cc35mTjg.s 			page 7


 174              		.type	CH2_ADDR_DATA0.4962, %object
 175              		.size	CH2_ADDR_DATA0.4962, 8
 176              	CH2_ADDR_DATA0.4962:
 177 0008 01       		.byte	1
 178 0009 00       		.byte	0
 179 000a 00       		.byte	0
 180 000b 00       		.byte	0
 181 000c 00       		.byte	0
 182 000d 20       		.byte	32
 183 000e 01       		.byte	1
 184 000f 40       		.byte	64
 185              		.align	2
 186              		.type	CH5_ADDR_DATA0.4963, %object
 187              		.size	CH5_ADDR_DATA0.4963, 8
 188              	CH5_ADDR_DATA0.4963:
 189 0010 01       		.byte	1
 190 0011 00       		.byte	0
 191 0012 00       		.byte	0
 192 0013 00       		.byte	0
 193 0014 00       		.byte	0
 194 0015 48       		.byte	72
 195 0016 00       		.byte	0
 196 0017 40       		.byte	64
 197              		.align	2
 198              		.type	CH6_ADDR_DATA0.4964, %object
 199              		.size	CH6_ADDR_DATA0.4964, 8
 200              	CH6_ADDR_DATA0.4964:
 201 0018 01       		.byte	1
 202 0019 00       		.byte	0
 203 001a 00       		.byte	0
 204 001b 00       		.byte	0
 205 001c 00       		.byte	0
 206 001d 48       		.byte	72
 207 001e 01       		.byte	1
 208 001f 40       		.byte	64
 209              		.align	2
 210              		.type	DMA_TD_START_CMD.4965, %object
 211              		.size	DMA_TD_START_CMD.4965, 5
 212              	DMA_TD_START_CMD.4965:
 213 0020 01       		.byte	1
 214 0021 00       		.byte	0
 215 0022 00       		.byte	0
 216 0023 00       		.byte	0
 217 0024 01       		.byte	1
 218 0025 000000   		.align	2
 219              		.type	CFG_TD_LIST0.4967, %object
 220              		.size	CFG_TD_LIST0.4967, 624
 221              	CFG_TD_LIST0.4967:
 222 0028 0800     		.short	8
 223 002a 02       		.byte	2
 224 002b 23       		.byte	35
 225 002c 0000     		.short	0
 226 002e 0876     		.short	30216
 227 0030 0800     		.short	8
 228 0032 03       		.byte	3
 229 0033 23       		.byte	35
 230 0034 0000     		.short	0
ARM GAS  C:\Users\rens_\AppData\Local\Temp\cc35mTjg.s 			page 8


 231 0036 1076     		.short	30224
 232 0038 0800     		.short	8
 233 003a 04       		.byte	4
 234 003b 23       		.byte	35
 235 003c 0000     		.short	0
 236 003e 2876     		.short	30248
 237 0040 0800     		.short	8
 238 0042 05       		.byte	5
 239 0043 23       		.byte	35
 240 0044 0000     		.short	0
 241 0046 3076     		.short	30256
 242 0048 0500     		.short	5
 243 004a 06       		.byte	6
 244 004b 23       		.byte	35
 245 004c 0000     		.short	0
 246 004e 2070     		.short	28704
 247 0050 0500     		.short	5
 248 0052 07       		.byte	7
 249 0053 23       		.byte	35
 250 0054 0000     		.short	0
 251 0056 3070     		.short	28720
 252 0058 0500     		.short	5
 253 005a 08       		.byte	8
 254 005b 23       		.byte	35
 255 005c 0000     		.short	0
 256 005e 6070     		.short	28768
 257 0060 0500     		.short	5
 258 0062 FE       		.byte	-2
 259 0063 23       		.byte	35
 260 0064 0000     		.short	0
 261 0066 7070     		.short	28784
 262 0068 4000     		.short	64
 263 006a FE       		.byte	-2
 264 006b 22       		.byte	34
 265 006c 0000     		.short	0
 266 006e 3051     		.short	20784
 267 0070 8003     		.short	896
 268 0072 0B       		.byte	11
 269 0073 22       		.byte	34
 270 0074 0000     		.short	0
 271 0076 0000     		.short	0
 272 0078 8001     		.short	384
 273 007a 0C       		.byte	12
 274 007b 22       		.byte	34
 275 007c 0000     		.short	0
 276 007e 0004     		.short	1024
 277 0080 8001     		.short	384
 278 0082 0D       		.byte	13
 279 0083 22       		.byte	34
 280 0084 0000     		.short	0
 281 0086 0006     		.short	1536
 282 0088 8001     		.short	384
 283 008a 0E       		.byte	14
 284 008b 22       		.byte	34
 285 008c 0000     		.short	0
 286 008e 000A     		.short	2560
 287 0090 8000     		.short	128
ARM GAS  C:\Users\rens_\AppData\Local\Temp\cc35mTjg.s 			page 9


 288 0092 0F       		.byte	15
 289 0093 22       		.byte	34
 290 0094 0000     		.short	0
 291 0096 800C     		.short	3200
 292 0098 8001     		.short	384
 293 009a 10       		.byte	16
 294 009b 22       		.byte	34
 295 009c 0000     		.short	0
 296 009e 000E     		.short	3584
 297 00a0 8001     		.short	384
 298 00a2 11       		.byte	17
 299 00a3 22       		.byte	34
 300 00a4 0000     		.short	0
 301 00a6 0014     		.short	5120
 302 00a8 8000     		.short	128
 303 00aa 12       		.byte	18
 304 00ab 22       		.byte	34
 305 00ac 0000     		.short	0
 306 00ae 0041     		.short	16640
 307 00b0 8000     		.short	128
 308 00b2 FE       		.byte	-2
 309 00b3 22       		.byte	34
 310 00b4 0000     		.short	0
 311 00b6 0043     		.short	17152
 312 00b8 0600     		.short	6
 313 00ba 14       		.byte	20
 314 00bb 23       		.byte	35
 315 00bc 0000     		.short	0
 316 00be 6052     		.short	21088
 317 00c0 0800     		.short	8
 318 00c2 15       		.byte	21
 319 00c3 23       		.byte	35
 320 00c4 0000     		.short	0
 321 00c6 6045     		.short	17760
 322 00c8 0800     		.short	8
 323 00ca 16       		.byte	22
 324 00cb 23       		.byte	35
 325 00cc 0000     		.short	0
 326 00ce C05A     		.short	23232
 327 00d0 0800     		.short	8
 328 00d2 17       		.byte	23
 329 00d3 23       		.byte	35
 330 00d4 0000     		.short	0
 331 00d6 C85A     		.short	23240
 332 00d8 0D00     		.short	13
 333 00da 18       		.byte	24
 334 00db 23       		.byte	35
 335 00dc 0000     		.short	0
 336 00de 005A     		.short	23040
 337 00e0 0D00     		.short	13
 338 00e2 19       		.byte	25
 339 00e3 23       		.byte	35
 340 00e4 0000     		.short	0
 341 00e6 205A     		.short	23072
 342 00e8 0C00     		.short	12
 343 00ea 1A       		.byte	26
 344 00eb 23       		.byte	35
ARM GAS  C:\Users\rens_\AppData\Local\Temp\cc35mTjg.s 			page 10


 345 00ec 0000     		.short	0
 346 00ee 004F     		.short	20224
 347 00f0 0800     		.short	8
 348 00f2 1B       		.byte	27
 349 00f3 23       		.byte	35
 350 00f4 0000     		.short	0
 351 00f6 205B     		.short	23328
 352 00f8 2000     		.short	32
 353 00fa 1C       		.byte	28
 354 00fb 23       		.byte	35
 355 00fc 0000     		.short	0
 356 00fe 7064     		.short	25712
 357 0100 2000     		.short	32
 358 0102 FE       		.byte	-2
 359 0103 23       		.byte	35
 360 0104 0000     		.short	0
 361 0106 7065     		.short	25968
 362 0108 0800     		.short	8
 363 010a 1E       		.byte	30
 364 010b 23       		.byte	35
 365 010c 0000     		.short	0
 366 010e 0051     		.short	20736
 367 0110 8000     		.short	128
 368 0112 1F       		.byte	31
 369 0113 23       		.byte	35
 370 0114 0000     		.short	0
 371 0116 0008     		.short	2048
 372 0118 8000     		.short	128
 373 011a 20       		.byte	32
 374 011b 23       		.byte	35
 375 011c 0000     		.short	0
 376 011e 8008     		.short	2176
 377 0120 8000     		.short	128
 378 0122 21       		.byte	33
 379 0123 23       		.byte	35
 380 0124 0000     		.short	0
 381 0126 000C     		.short	3072
 382 0128 8000     		.short	128
 383 012a 22       		.byte	34
 384 012b 23       		.byte	35
 385 012c 0000     		.short	0
 386 012e 0016     		.short	5632
 387 0130 8000     		.short	128
 388 0132 23       		.byte	35
 389 0133 23       		.byte	35
 390 0134 0000     		.short	0
 391 0136 8016     		.short	5760
 392 0138 8000     		.short	128
 393 013a 24       		.byte	36
 394 013b 23       		.byte	35
 395 013c 0000     		.short	0
 396 013e 0018     		.short	6144
 397 0140 8000     		.short	128
 398 0142 25       		.byte	37
 399 0143 23       		.byte	35
 400 0144 0000     		.short	0
 401 0146 8018     		.short	6272
ARM GAS  C:\Users\rens_\AppData\Local\Temp\cc35mTjg.s 			page 11


 402 0148 8000     		.short	128
 403 014a 26       		.byte	38
 404 014b 23       		.byte	35
 405 014c 0000     		.short	0
 406 014e 001A     		.short	6656
 407 0150 8000     		.short	128
 408 0152 27       		.byte	39
 409 0153 23       		.byte	35
 410 0154 0000     		.short	0
 411 0156 801A     		.short	6784
 412 0158 1000     		.short	16
 413 015a 28       		.byte	40
 414 015b 23       		.byte	35
 415 015c 0000     		.short	0
 416 015e 1050     		.short	20496
 417 0160 1000     		.short	16
 418 0162 29       		.byte	41
 419 0163 23       		.byte	35
 420 0164 0000     		.short	0
 421 0166 0050     		.short	20480
 422 0168 8000     		.short	128
 423 016a 2A       		.byte	42
 424 016b 23       		.byte	35
 425 016c 0000     		.short	0
 426 016e 004D     		.short	19712
 427 0170 8000     		.short	128
 428 0172 2B       		.byte	43
 429 0173 23       		.byte	35
 430 0174 0000     		.short	0
 431 0176 804D     		.short	19840
 432 0178 8000     		.short	128
 433 017a 2C       		.byte	44
 434 017b 23       		.byte	35
 435 017c 0000     		.short	0
 436 017e 004C     		.short	19456
 437 0180 8000     		.short	128
 438 0182 2D       		.byte	45
 439 0183 23       		.byte	35
 440 0184 0000     		.short	0
 441 0186 804C     		.short	19584
 442 0188 8000     		.short	128
 443 018a 2E       		.byte	46
 444 018b 23       		.byte	35
 445 018c 0000     		.short	0
 446 018e 0047     		.short	18176
 447 0190 8000     		.short	128
 448 0192 2F       		.byte	47
 449 0193 23       		.byte	35
 450 0194 0000     		.short	0
 451 0196 8047     		.short	18304
 452 0198 8000     		.short	128
 453 019a 30       		.byte	48
 454 019b 23       		.byte	35
 455 019c 0000     		.short	0
 456 019e 0046     		.short	17920
 457 01a0 8000     		.short	128
 458 01a2 31       		.byte	49
ARM GAS  C:\Users\rens_\AppData\Local\Temp\cc35mTjg.s 			page 12


 459 01a3 23       		.byte	35
 460 01a4 0000     		.short	0
 461 01a6 8046     		.short	18048
 462 01a8 8000     		.short	128
 463 01aa 32       		.byte	50
 464 01ab 23       		.byte	35
 465 01ac 0000     		.short	0
 466 01ae 0045     		.short	17664
 467 01b0 8000     		.short	128
 468 01b2 33       		.byte	51
 469 01b3 23       		.byte	35
 470 01b4 0000     		.short	0
 471 01b6 8045     		.short	17792
 472 01b8 8000     		.short	128
 473 01ba 34       		.byte	52
 474 01bb 23       		.byte	35
 475 01bc 0000     		.short	0
 476 01be 0044     		.short	17408
 477 01c0 8000     		.short	128
 478 01c2 35       		.byte	53
 479 01c3 23       		.byte	35
 480 01c4 0000     		.short	0
 481 01c6 8044     		.short	17536
 482 01c8 8000     		.short	128
 483 01ca 36       		.byte	54
 484 01cb 23       		.byte	35
 485 01cc 0000     		.short	0
 486 01ce 001B     		.short	6912
 487 01d0 8000     		.short	128
 488 01d2 37       		.byte	55
 489 01d3 23       		.byte	35
 490 01d4 0000     		.short	0
 491 01d6 801B     		.short	7040
 492 01d8 8000     		.short	128
 493 01da 38       		.byte	56
 494 01db 23       		.byte	35
 495 01dc 0000     		.short	0
 496 01de 8015     		.short	5504
 497 01e0 8000     		.short	128
 498 01e2 39       		.byte	57
 499 01e3 23       		.byte	35
 500 01e4 0000     		.short	0
 501 01e6 0019     		.short	6400
 502 01e8 8000     		.short	128
 503 01ea 3A       		.byte	58
 504 01eb 23       		.byte	35
 505 01ec 0000     		.short	0
 506 01ee 8019     		.short	6528
 507 01f0 8000     		.short	128
 508 01f2 3B       		.byte	59
 509 01f3 23       		.byte	35
 510 01f4 0000     		.short	0
 511 01f6 0017     		.short	5888
 512 01f8 8000     		.short	128
 513 01fa 3C       		.byte	60
 514 01fb 23       		.byte	35
 515 01fc 0000     		.short	0
ARM GAS  C:\Users\rens_\AppData\Local\Temp\cc35mTjg.s 			page 13


 516 01fe 8017     		.short	6016
 517 0200 8000     		.short	128
 518 0202 3D       		.byte	61
 519 0203 23       		.byte	35
 520 0204 0000     		.short	0
 521 0206 0009     		.short	2304
 522 0208 8000     		.short	128
 523 020a 3E       		.byte	62
 524 020b 23       		.byte	35
 525 020c 0000     		.short	0
 526 020e 8009     		.short	2432
 527 0210 8000     		.short	128
 528 0212 3F       		.byte	63
 529 0213 23       		.byte	35
 530 0214 0000     		.short	0
 531 0216 8007     		.short	1920
 532 0218 8000     		.short	128
 533 021a 40       		.byte	64
 534 021b 23       		.byte	35
 535 021c 0000     		.short	0
 536 021e 800B     		.short	2944
 537 0220 8000     		.short	128
 538 0222 41       		.byte	65
 539 0223 23       		.byte	35
 540 0224 0000     		.short	0
 541 0226 8005     		.short	1408
 542 0228 8000     		.short	128
 543 022a 42       		.byte	66
 544 022b 23       		.byte	35
 545 022c 0000     		.short	0
 546 022e 000D     		.short	3328
 547 0230 8000     		.short	128
 548 0232 43       		.byte	67
 549 0233 23       		.byte	35
 550 0234 0000     		.short	0
 551 0236 800D     		.short	3456
 552 0238 8000     		.short	128
 553 023a 44       		.byte	68
 554 023b 23       		.byte	35
 555 023c 0000     		.short	0
 556 023e 8003     		.short	896
 557 0240 8000     		.short	128
 558 0242 45       		.byte	69
 559 0243 23       		.byte	35
 560 0244 0000     		.short	0
 561 0246 800F     		.short	3968
 562 0248 8000     		.short	128
 563 024a 46       		.byte	70
 564 024b 23       		.byte	35
 565 024c 0000     		.short	0
 566 024e 0049     		.short	18688
 567 0250 8000     		.short	128
 568 0252 47       		.byte	71
 569 0253 23       		.byte	35
 570 0254 0000     		.short	0
 571 0256 8049     		.short	18816
 572 0258 8000     		.short	128
ARM GAS  C:\Users\rens_\AppData\Local\Temp\cc35mTjg.s 			page 14


 573 025a 48       		.byte	72
 574 025b 23       		.byte	35
 575 025c 0000     		.short	0
 576 025e 0048     		.short	18432
 577 0260 8000     		.short	128
 578 0262 49       		.byte	73
 579 0263 23       		.byte	35
 580 0264 0000     		.short	0
 581 0266 8048     		.short	18560
 582 0268 8000     		.short	128
 583 026a 4A       		.byte	74
 584 026b 23       		.byte	35
 585 026c 0000     		.short	0
 586 026e 8043     		.short	17280
 587 0270 8000     		.short	128
 588 0272 4B       		.byte	75
 589 0273 23       		.byte	35
 590 0274 0000     		.short	0
 591 0276 0042     		.short	16896
 592 0278 8000     		.short	128
 593 027a 4C       		.byte	76
 594 027b 23       		.byte	35
 595 027c 0000     		.short	0
 596 027e 8042     		.short	17024
 597 0280 8000     		.short	128
 598 0282 4D       		.byte	77
 599 0283 23       		.byte	35
 600 0284 0000     		.short	0
 601 0286 8041     		.short	16768
 602 0288 8000     		.short	128
 603 028a 4E       		.byte	78
 604 028b 23       		.byte	35
 605 028c 0000     		.short	0
 606 028e 0040     		.short	16384
 607 0290 8000     		.short	128
 608 0292 FE       		.byte	-2
 609 0293 23       		.byte	35
 610 0294 0000     		.short	0
 611 0296 8040     		.short	16512
 612              		.section	.text.cfg_dma_init,"ax",%progbits
 613              		.align	2
 614              		.thumb
 615              		.thumb_func
 616              		.type	cfg_dma_init, %function
 617              	cfg_dma_init:
 618              	.LFB4:
 170:Generated_Source\PSoC5/cyfitter_cfg.c **** #endif /* CY_CFG_CLOCK_STARTUP_ERROR_CALLBACK */
 171:Generated_Source\PSoC5/cyfitter_cfg.c **** }
 172:Generated_Source\PSoC5/cyfitter_cfg.c **** #endif
 173:Generated_Source\PSoC5/cyfitter_cfg.c **** 
 174:Generated_Source\PSoC5/cyfitter_cfg.c **** /* IDMUX Address: CYREG_IDMUX_DRQ_CTL0 Size (bytes): 6 */
 175:Generated_Source\PSoC5/cyfitter_cfg.c **** #define BS_IDMUX_VAL ((const uint8 CYFAR *)0x48000000u)
 176:Generated_Source\PSoC5/cyfitter_cfg.c **** 
 177:Generated_Source\PSoC5/cyfitter_cfg.c **** /* IOPORT_7 Address: CYDEV_PRTDSI_PRT12_BASE Size (bytes): 6 */
 178:Generated_Source\PSoC5/cyfitter_cfg.c **** #define BS_IOPORT_7_VAL ((const uint8 CYFAR *)0x48000008u)
 179:Generated_Source\PSoC5/cyfitter_cfg.c **** 
 180:Generated_Source\PSoC5/cyfitter_cfg.c **** /* PICU_7 Address: CYDEV_PICU_INTTYPE_PICU12_BASE Size (bytes): 8 */
ARM GAS  C:\Users\rens_\AppData\Local\Temp\cc35mTjg.s 			page 15


 181:Generated_Source\PSoC5/cyfitter_cfg.c **** #define BS_PICU_7_VAL ((const uint8 CYFAR *)0x48000010u)
 182:Generated_Source\PSoC5/cyfitter_cfg.c **** 
 183:Generated_Source\PSoC5/cyfitter_cfg.c **** /* IDMUX_IRQ Address: CYREG_IDMUX_IRQ_CTL0 Size (bytes): 8 */
 184:Generated_Source\PSoC5/cyfitter_cfg.c **** #define BS_IDMUX_IRQ_VAL ((const uint8 CYFAR *)0x48000018u)
 185:Generated_Source\PSoC5/cyfitter_cfg.c **** 
 186:Generated_Source\PSoC5/cyfitter_cfg.c **** /* CMP0 Address: CYREG_CMP0_SW0 Size (bytes): 8 */
 187:Generated_Source\PSoC5/cyfitter_cfg.c **** #define BS_CMP0_VAL ((const uint8 CYFAR *)0x48000020u)
 188:Generated_Source\PSoC5/cyfitter_cfg.c **** 
 189:Generated_Source\PSoC5/cyfitter_cfg.c **** /* CMP1 Address: CYREG_CMP1_SW0 Size (bytes): 8 */
 190:Generated_Source\PSoC5/cyfitter_cfg.c **** #define BS_CMP1_VAL ((const uint8 CYFAR *)0x48000028u)
 191:Generated_Source\PSoC5/cyfitter_cfg.c **** 
 192:Generated_Source\PSoC5/cyfitter_cfg.c **** /* SC0 Address: CYREG_SC0_SW0 Size (bytes): 13 */
 193:Generated_Source\PSoC5/cyfitter_cfg.c **** #define BS_SC0_VAL ((const uint8 CYFAR *)0x48000030u)
 194:Generated_Source\PSoC5/cyfitter_cfg.c **** 
 195:Generated_Source\PSoC5/cyfitter_cfg.c **** /* SC2 Address: CYREG_SC2_SW0 Size (bytes): 13 */
 196:Generated_Source\PSoC5/cyfitter_cfg.c **** #define BS_SC2_VAL ((const uint8 CYFAR *)0x48000040u)
 197:Generated_Source\PSoC5/cyfitter_cfg.c **** 
 198:Generated_Source\PSoC5/cyfitter_cfg.c **** /* TMR0 Address: CYREG_TMR0_CFG0 Size (bytes): 12 */
 199:Generated_Source\PSoC5/cyfitter_cfg.c **** #define BS_TMR0_VAL ((const uint8 CYFAR *)0x48000050u)
 200:Generated_Source\PSoC5/cyfitter_cfg.c **** 
 201:Generated_Source\PSoC5/cyfitter_cfg.c **** /* SAR0 Address: CYREG_SAR0_SW0 Size (bytes): 8 */
 202:Generated_Source\PSoC5/cyfitter_cfg.c **** #define BS_SAR0_VAL ((const uint8 CYFAR *)0x4800005Cu)
 203:Generated_Source\PSoC5/cyfitter_cfg.c **** 
 204:Generated_Source\PSoC5/cyfitter_cfg.c **** /* UDB_0_2_1_CONFIG Address: CYDEV_UCFG_B0_P4_U0_BASE Size (bytes): 128 */
 205:Generated_Source\PSoC5/cyfitter_cfg.c **** #define BS_UDB_0_2_1_CONFIG_VAL ((const uint8 CYFAR *)0x48000064u)
 206:Generated_Source\PSoC5/cyfitter_cfg.c **** 
 207:Generated_Source\PSoC5/cyfitter_cfg.c **** /* UDB_0_2_0_CONFIG Address: CYDEV_UCFG_B0_P4_U1_BASE Size (bytes): 128 */
 208:Generated_Source\PSoC5/cyfitter_cfg.c **** #define BS_UDB_0_2_0_CONFIG_VAL ((const uint8 CYFAR *)0x480000E4u)
 209:Generated_Source\PSoC5/cyfitter_cfg.c **** 
 210:Generated_Source\PSoC5/cyfitter_cfg.c **** /* UDB_0_4_1_CONFIG Address: CYDEV_UCFG_B0_P6_U0_BASE Size (bytes): 128 */
 211:Generated_Source\PSoC5/cyfitter_cfg.c **** #define BS_UDB_0_4_1_CONFIG_VAL ((const uint8 CYFAR *)0x48000164u)
 212:Generated_Source\PSoC5/cyfitter_cfg.c **** 
 213:Generated_Source\PSoC5/cyfitter_cfg.c **** /* UDB_1_1_1_CONFIG Address: CYDEV_UCFG_B1_P3_U0_BASE Size (bytes): 128 */
 214:Generated_Source\PSoC5/cyfitter_cfg.c **** #define BS_UDB_1_1_1_CONFIG_VAL ((const uint8 CYFAR *)0x480001E4u)
 215:Generated_Source\PSoC5/cyfitter_cfg.c **** 
 216:Generated_Source\PSoC5/cyfitter_cfg.c **** /* UDB_1_1_0_CONFIG Address: CYDEV_UCFG_B1_P3_U1_BASE Size (bytes): 128 */
 217:Generated_Source\PSoC5/cyfitter_cfg.c **** #define BS_UDB_1_1_0_CONFIG_VAL ((const uint8 CYFAR *)0x48000264u)
 218:Generated_Source\PSoC5/cyfitter_cfg.c **** 
 219:Generated_Source\PSoC5/cyfitter_cfg.c **** /* UDB_0_1_1_CONFIG Address: CYDEV_UCFG_B1_P4_U0_BASE Size (bytes): 128 */
 220:Generated_Source\PSoC5/cyfitter_cfg.c **** #define BS_UDB_0_1_1_CONFIG_VAL ((const uint8 CYFAR *)0x480002E4u)
 221:Generated_Source\PSoC5/cyfitter_cfg.c **** 
 222:Generated_Source\PSoC5/cyfitter_cfg.c **** /* UDB_0_1_0_CONFIG Address: CYDEV_UCFG_B1_P4_U1_BASE Size (bytes): 128 */
 223:Generated_Source\PSoC5/cyfitter_cfg.c **** #define BS_UDB_0_1_0_CONFIG_VAL ((const uint8 CYFAR *)0x48000364u)
 224:Generated_Source\PSoC5/cyfitter_cfg.c **** 
 225:Generated_Source\PSoC5/cyfitter_cfg.c **** /* UDB_0_0_0_CONFIG Address: CYDEV_UCFG_B1_P5_U0_BASE Size (bytes): 128 */
 226:Generated_Source\PSoC5/cyfitter_cfg.c **** #define BS_UDB_0_0_0_CONFIG_VAL ((const uint8 CYFAR *)0x480003E4u)
 227:Generated_Source\PSoC5/cyfitter_cfg.c **** 
 228:Generated_Source\PSoC5/cyfitter_cfg.c **** /* UDB_0_0_1_CONFIG Address: CYDEV_UCFG_B1_P5_U1_BASE Size (bytes): 128 */
 229:Generated_Source\PSoC5/cyfitter_cfg.c **** #define BS_UDB_0_0_1_CONFIG_VAL ((const uint8 CYFAR *)0x48000464u)
 230:Generated_Source\PSoC5/cyfitter_cfg.c **** 
 231:Generated_Source\PSoC5/cyfitter_cfg.c **** /* UWRK_B0_WRK_STATCTL_BITS Address: CYDEV_UWRK_UWRK8_B0_BASE + 0x00000070u Size (bytes): 32 */
 232:Generated_Source\PSoC5/cyfitter_cfg.c **** #define BS_UWRK_B0_WRK_STATCTL_BITS_VAL ((const uint8 CYFAR *)0x480004E4u)
 233:Generated_Source\PSoC5/cyfitter_cfg.c **** 
 234:Generated_Source\PSoC5/cyfitter_cfg.c **** /* UWRK_B1_WRK_STATCTL_BITS Address: CYDEV_UWRK_UWRK8_B1_BASE + 0x00000070u Size (bytes): 32 */
 235:Generated_Source\PSoC5/cyfitter_cfg.c **** #define BS_UWRK_B1_WRK_STATCTL_BITS_VAL ((const uint8 CYFAR *)0x48000504u)
 236:Generated_Source\PSoC5/cyfitter_cfg.c **** 
 237:Generated_Source\PSoC5/cyfitter_cfg.c **** /* UCFG_BCTL1 Address: CYREG_BCTL1_MDCLK_EN Size (bytes): 16 */
ARM GAS  C:\Users\rens_\AppData\Local\Temp\cc35mTjg.s 			page 16


 238:Generated_Source\PSoC5/cyfitter_cfg.c **** #define BS_UCFG_BCTL1_VAL ((const uint8 CYFAR *)0x48000524u)
 239:Generated_Source\PSoC5/cyfitter_cfg.c **** 
 240:Generated_Source\PSoC5/cyfitter_cfg.c **** /* UCFG_BCTL0 Address: CYREG_BCTL0_MDCLK_EN Size (bytes): 16 */
 241:Generated_Source\PSoC5/cyfitter_cfg.c **** #define BS_UCFG_BCTL0_VAL ((const uint8 CYFAR *)0x48000534u)
 242:Generated_Source\PSoC5/cyfitter_cfg.c **** 
 243:Generated_Source\PSoC5/cyfitter_cfg.c **** /* DSISWITCH_0_0 Address: CYDEV_UCFG_DSI13_BASE Size (bytes): 128 */
 244:Generated_Source\PSoC5/cyfitter_cfg.c **** #define BS_DSISWITCH_0_0_VAL ((const uint8 CYFAR *)0x48000544u)
 245:Generated_Source\PSoC5/cyfitter_cfg.c **** 
 246:Generated_Source\PSoC5/cyfitter_cfg.c **** /* DSI0_0_HV_ROUTING Address: CYDEV_UCFG_DSI13_BASE + 0x00000080u Size (bytes): 128 */
 247:Generated_Source\PSoC5/cyfitter_cfg.c **** #define BS_DSI0_0_HV_ROUTING_VAL ((const uint8 CYFAR *)0x480005C4u)
 248:Generated_Source\PSoC5/cyfitter_cfg.c **** 
 249:Generated_Source\PSoC5/cyfitter_cfg.c **** /* DSISWITCH_0_1 Address: CYDEV_UCFG_DSI12_BASE Size (bytes): 128 */
 250:Generated_Source\PSoC5/cyfitter_cfg.c **** #define BS_DSISWITCH_0_1_VAL ((const uint8 CYFAR *)0x48000644u)
 251:Generated_Source\PSoC5/cyfitter_cfg.c **** 
 252:Generated_Source\PSoC5/cyfitter_cfg.c **** /* DSI0_1_HV_ROUTING Address: CYDEV_UCFG_DSI12_BASE + 0x00000080u Size (bytes): 128 */
 253:Generated_Source\PSoC5/cyfitter_cfg.c **** #define BS_DSI0_1_HV_ROUTING_VAL ((const uint8 CYFAR *)0x480006C4u)
 254:Generated_Source\PSoC5/cyfitter_cfg.c **** 
 255:Generated_Source\PSoC5/cyfitter_cfg.c **** /* DSISWITCH_0_2 Address: CYDEV_UCFG_DSI7_BASE Size (bytes): 128 */
 256:Generated_Source\PSoC5/cyfitter_cfg.c **** #define BS_DSISWITCH_0_2_VAL ((const uint8 CYFAR *)0x48000744u)
 257:Generated_Source\PSoC5/cyfitter_cfg.c **** 
 258:Generated_Source\PSoC5/cyfitter_cfg.c **** /* DSI0_2_HV_ROUTING Address: CYDEV_UCFG_DSI7_BASE + 0x00000080u Size (bytes): 128 */
 259:Generated_Source\PSoC5/cyfitter_cfg.c **** #define BS_DSI0_2_HV_ROUTING_VAL ((const uint8 CYFAR *)0x480007C4u)
 260:Generated_Source\PSoC5/cyfitter_cfg.c **** 
 261:Generated_Source\PSoC5/cyfitter_cfg.c **** /* DSISWITCH_0_3 Address: CYDEV_UCFG_DSI6_BASE Size (bytes): 128 */
 262:Generated_Source\PSoC5/cyfitter_cfg.c **** #define BS_DSISWITCH_0_3_VAL ((const uint8 CYFAR *)0x48000844u)
 263:Generated_Source\PSoC5/cyfitter_cfg.c **** 
 264:Generated_Source\PSoC5/cyfitter_cfg.c **** /* DSI0_3_HV_ROUTING Address: CYDEV_UCFG_DSI6_BASE + 0x00000080u Size (bytes): 128 */
 265:Generated_Source\PSoC5/cyfitter_cfg.c **** #define BS_DSI0_3_HV_ROUTING_VAL ((const uint8 CYFAR *)0x480008C4u)
 266:Generated_Source\PSoC5/cyfitter_cfg.c **** 
 267:Generated_Source\PSoC5/cyfitter_cfg.c **** /* DSISWITCH_0_4 Address: CYDEV_UCFG_DSI5_BASE Size (bytes): 128 */
 268:Generated_Source\PSoC5/cyfitter_cfg.c **** #define BS_DSISWITCH_0_4_VAL ((const uint8 CYFAR *)0x48000944u)
 269:Generated_Source\PSoC5/cyfitter_cfg.c **** 
 270:Generated_Source\PSoC5/cyfitter_cfg.c **** /* DSI0_4_HV_ROUTING Address: CYDEV_UCFG_DSI5_BASE + 0x00000080u Size (bytes): 128 */
 271:Generated_Source\PSoC5/cyfitter_cfg.c **** #define BS_DSI0_4_HV_ROUTING_VAL ((const uint8 CYFAR *)0x480009C4u)
 272:Generated_Source\PSoC5/cyfitter_cfg.c **** 
 273:Generated_Source\PSoC5/cyfitter_cfg.c **** /* DSISWITCH_0_5 Address: CYDEV_UCFG_DSI4_BASE Size (bytes): 128 */
 274:Generated_Source\PSoC5/cyfitter_cfg.c **** #define BS_DSISWITCH_0_5_VAL ((const uint8 CYFAR *)0x48000A44u)
 275:Generated_Source\PSoC5/cyfitter_cfg.c **** 
 276:Generated_Source\PSoC5/cyfitter_cfg.c **** /* DSI0_5_HV_ROUTING Address: CYDEV_UCFG_DSI4_BASE + 0x00000080u Size (bytes): 128 */
 277:Generated_Source\PSoC5/cyfitter_cfg.c **** #define BS_DSI0_5_HV_ROUTING_VAL ((const uint8 CYFAR *)0x48000AC4u)
 278:Generated_Source\PSoC5/cyfitter_cfg.c **** 
 279:Generated_Source\PSoC5/cyfitter_cfg.c **** /* UDBSWITCH_0_0 Address: CYDEV_UCFG_B1_P5_ROUTE_BASE Size (bytes): 128 */
 280:Generated_Source\PSoC5/cyfitter_cfg.c **** #define BS_UDBSWITCH_0_0_VAL ((const uint8 CYFAR *)0x48000B44u)
 281:Generated_Source\PSoC5/cyfitter_cfg.c **** 
 282:Generated_Source\PSoC5/cyfitter_cfg.c **** /* UDB_1_0_HV_ROUTING Address: CYDEV_UCFG_B1_P5_ROUTE_BASE + 0x00000080u Size (bytes): 128 */
 283:Generated_Source\PSoC5/cyfitter_cfg.c **** #define BS_UDB_1_0_HV_ROUTING_VAL ((const uint8 CYFAR *)0x48000BC4u)
 284:Generated_Source\PSoC5/cyfitter_cfg.c **** 
 285:Generated_Source\PSoC5/cyfitter_cfg.c **** /* UDB_2_0_HV_ROUTING Address: CYDEV_UCFG_B1_P2_ROUTE_BASE + 0x00000080u Size (bytes): 128 */
 286:Generated_Source\PSoC5/cyfitter_cfg.c **** #define BS_UDB_2_0_HV_ROUTING_VAL ((const uint8 CYFAR *)0x48000C44u)
 287:Generated_Source\PSoC5/cyfitter_cfg.c **** 
 288:Generated_Source\PSoC5/cyfitter_cfg.c **** /* UDBSWITCH_0_1 Address: CYDEV_UCFG_B1_P4_ROUTE_BASE Size (bytes): 128 */
 289:Generated_Source\PSoC5/cyfitter_cfg.c **** #define BS_UDBSWITCH_0_1_VAL ((const uint8 CYFAR *)0x48000CC4u)
 290:Generated_Source\PSoC5/cyfitter_cfg.c **** 
 291:Generated_Source\PSoC5/cyfitter_cfg.c **** /* UDB_1_1_HV_ROUTING Address: CYDEV_UCFG_B1_P4_ROUTE_BASE + 0x00000080u Size (bytes): 128 */
 292:Generated_Source\PSoC5/cyfitter_cfg.c **** #define BS_UDB_1_1_HV_ROUTING_VAL ((const uint8 CYFAR *)0x48000D44u)
 293:Generated_Source\PSoC5/cyfitter_cfg.c **** 
 294:Generated_Source\PSoC5/cyfitter_cfg.c **** /* UDBSWITCH_1_1 Address: CYDEV_UCFG_B1_P3_ROUTE_BASE Size (bytes): 128 */
ARM GAS  C:\Users\rens_\AppData\Local\Temp\cc35mTjg.s 			page 17


 295:Generated_Source\PSoC5/cyfitter_cfg.c **** #define BS_UDBSWITCH_1_1_VAL ((const uint8 CYFAR *)0x48000DC4u)
 296:Generated_Source\PSoC5/cyfitter_cfg.c **** 
 297:Generated_Source\PSoC5/cyfitter_cfg.c **** /* UDB_2_1_HV_ROUTING Address: CYDEV_UCFG_B1_P3_ROUTE_BASE + 0x00000080u Size (bytes): 128 */
 298:Generated_Source\PSoC5/cyfitter_cfg.c **** #define BS_UDB_2_1_HV_ROUTING_VAL ((const uint8 CYFAR *)0x48000E44u)
 299:Generated_Source\PSoC5/cyfitter_cfg.c **** 
 300:Generated_Source\PSoC5/cyfitter_cfg.c **** /* UDBSWITCH_0_2 Address: CYDEV_UCFG_B0_P4_ROUTE_BASE Size (bytes): 128 */
 301:Generated_Source\PSoC5/cyfitter_cfg.c **** #define BS_UDBSWITCH_0_2_VAL ((const uint8 CYFAR *)0x48000EC4u)
 302:Generated_Source\PSoC5/cyfitter_cfg.c **** 
 303:Generated_Source\PSoC5/cyfitter_cfg.c **** /* UDB_1_2_HV_ROUTING Address: CYDEV_UCFG_B0_P4_ROUTE_BASE + 0x00000080u Size (bytes): 128 */
 304:Generated_Source\PSoC5/cyfitter_cfg.c **** #define BS_UDB_1_2_HV_ROUTING_VAL ((const uint8 CYFAR *)0x48000F44u)
 305:Generated_Source\PSoC5/cyfitter_cfg.c **** 
 306:Generated_Source\PSoC5/cyfitter_cfg.c **** /* UDB_2_2_HV_ROUTING Address: CYDEV_UCFG_B0_P3_ROUTE_BASE + 0x00000080u Size (bytes): 128 */
 307:Generated_Source\PSoC5/cyfitter_cfg.c **** #define BS_UDB_2_2_HV_ROUTING_VAL ((const uint8 CYFAR *)0x48000FC4u)
 308:Generated_Source\PSoC5/cyfitter_cfg.c **** 
 309:Generated_Source\PSoC5/cyfitter_cfg.c **** /* UDB_1_3_HV_ROUTING Address: CYDEV_UCFG_B0_P5_ROUTE_BASE + 0x00000080u Size (bytes): 128 */
 310:Generated_Source\PSoC5/cyfitter_cfg.c **** #define BS_UDB_1_3_HV_ROUTING_VAL ((const uint8 CYFAR *)0x48001044u)
 311:Generated_Source\PSoC5/cyfitter_cfg.c **** 
 312:Generated_Source\PSoC5/cyfitter_cfg.c **** /* UDB_2_3_HV_ROUTING Address: CYDEV_UCFG_B0_P2_ROUTE_BASE + 0x00000080u Size (bytes): 128 */
 313:Generated_Source\PSoC5/cyfitter_cfg.c **** #define BS_UDB_2_3_HV_ROUTING_VAL ((const uint8 CYFAR *)0x480010C4u)
 314:Generated_Source\PSoC5/cyfitter_cfg.c **** 
 315:Generated_Source\PSoC5/cyfitter_cfg.c **** /* UDBSWITCH_0_4 Address: CYDEV_UCFG_B0_P6_ROUTE_BASE Size (bytes): 128 */
 316:Generated_Source\PSoC5/cyfitter_cfg.c **** #define BS_UDBSWITCH_0_4_VAL ((const uint8 CYFAR *)0x48001144u)
 317:Generated_Source\PSoC5/cyfitter_cfg.c **** 
 318:Generated_Source\PSoC5/cyfitter_cfg.c **** /* UDB_1_4_HV_ROUTING Address: CYDEV_UCFG_B0_P6_ROUTE_BASE + 0x00000080u Size (bytes): 128 */
 319:Generated_Source\PSoC5/cyfitter_cfg.c **** #define BS_UDB_1_4_HV_ROUTING_VAL ((const uint8 CYFAR *)0x480011C4u)
 320:Generated_Source\PSoC5/cyfitter_cfg.c **** 
 321:Generated_Source\PSoC5/cyfitter_cfg.c **** /* UDB_2_4_HV_ROUTING Address: CYDEV_UCFG_B0_P1_ROUTE_BASE + 0x00000080u Size (bytes): 128 */
 322:Generated_Source\PSoC5/cyfitter_cfg.c **** #define BS_UDB_2_4_HV_ROUTING_VAL ((const uint8 CYFAR *)0x48001244u)
 323:Generated_Source\PSoC5/cyfitter_cfg.c **** 
 324:Generated_Source\PSoC5/cyfitter_cfg.c **** /* UDB_1_5_HV_ROUTING Address: CYDEV_UCFG_B0_P7_ROUTE_BASE + 0x00000080u Size (bytes): 128 */
 325:Generated_Source\PSoC5/cyfitter_cfg.c **** #define BS_UDB_1_5_HV_ROUTING_VAL ((const uint8 CYFAR *)0x480012C4u)
 326:Generated_Source\PSoC5/cyfitter_cfg.c **** 
 327:Generated_Source\PSoC5/cyfitter_cfg.c **** /* DSISWITCH_1_0 Address: CYDEV_UCFG_DSI9_BASE Size (bytes): 128 */
 328:Generated_Source\PSoC5/cyfitter_cfg.c **** #define BS_DSISWITCH_1_0_VAL ((const uint8 CYFAR *)0x48001344u)
 329:Generated_Source\PSoC5/cyfitter_cfg.c **** 
 330:Generated_Source\PSoC5/cyfitter_cfg.c **** /* DSI3_0_HV_ROUTING Address: CYDEV_UCFG_DSI9_BASE + 0x00000080u Size (bytes): 128 */
 331:Generated_Source\PSoC5/cyfitter_cfg.c **** #define BS_DSI3_0_HV_ROUTING_VAL ((const uint8 CYFAR *)0x480013C4u)
 332:Generated_Source\PSoC5/cyfitter_cfg.c **** 
 333:Generated_Source\PSoC5/cyfitter_cfg.c **** /* DSISWITCH_1_1 Address: CYDEV_UCFG_DSI8_BASE Size (bytes): 128 */
 334:Generated_Source\PSoC5/cyfitter_cfg.c **** #define BS_DSISWITCH_1_1_VAL ((const uint8 CYFAR *)0x48001444u)
 335:Generated_Source\PSoC5/cyfitter_cfg.c **** 
 336:Generated_Source\PSoC5/cyfitter_cfg.c **** /* DSI3_1_HV_ROUTING Address: CYDEV_UCFG_DSI8_BASE + 0x00000080u Size (bytes): 128 */
 337:Generated_Source\PSoC5/cyfitter_cfg.c **** #define BS_DSI3_1_HV_ROUTING_VAL ((const uint8 CYFAR *)0x480014C4u)
 338:Generated_Source\PSoC5/cyfitter_cfg.c **** 
 339:Generated_Source\PSoC5/cyfitter_cfg.c **** /* DSI3_2_HV_ROUTING Address: CYDEV_UCFG_DSI3_BASE + 0x00000080u Size (bytes): 128 */
 340:Generated_Source\PSoC5/cyfitter_cfg.c **** #define BS_DSI3_2_HV_ROUTING_VAL ((const uint8 CYFAR *)0x48001544u)
 341:Generated_Source\PSoC5/cyfitter_cfg.c **** 
 342:Generated_Source\PSoC5/cyfitter_cfg.c **** /* DSISWITCH_1_3 Address: CYDEV_UCFG_DSI2_BASE Size (bytes): 128 */
 343:Generated_Source\PSoC5/cyfitter_cfg.c **** #define BS_DSISWITCH_1_3_VAL ((const uint8 CYFAR *)0x480015C4u)
 344:Generated_Source\PSoC5/cyfitter_cfg.c **** 
 345:Generated_Source\PSoC5/cyfitter_cfg.c **** /* DSI3_3_HV_ROUTING Address: CYDEV_UCFG_DSI2_BASE + 0x00000080u Size (bytes): 128 */
 346:Generated_Source\PSoC5/cyfitter_cfg.c **** #define BS_DSI3_3_HV_ROUTING_VAL ((const uint8 CYFAR *)0x48001644u)
 347:Generated_Source\PSoC5/cyfitter_cfg.c **** 
 348:Generated_Source\PSoC5/cyfitter_cfg.c **** /* DSI3_4_HV_ROUTING Address: CYDEV_UCFG_DSI1_BASE + 0x00000080u Size (bytes): 128 */
 349:Generated_Source\PSoC5/cyfitter_cfg.c **** #define BS_DSI3_4_HV_ROUTING_VAL ((const uint8 CYFAR *)0x480016C4u)
 350:Generated_Source\PSoC5/cyfitter_cfg.c **** 
 351:Generated_Source\PSoC5/cyfitter_cfg.c **** /* DSISWITCH_1_5 Address: CYDEV_UCFG_DSI0_BASE Size (bytes): 128 */
ARM GAS  C:\Users\rens_\AppData\Local\Temp\cc35mTjg.s 			page 18


 352:Generated_Source\PSoC5/cyfitter_cfg.c **** #define BS_DSISWITCH_1_5_VAL ((const uint8 CYFAR *)0x48001744u)
 353:Generated_Source\PSoC5/cyfitter_cfg.c **** 
 354:Generated_Source\PSoC5/cyfitter_cfg.c **** /* DSI3_5_HV_ROUTING Address: CYDEV_UCFG_DSI0_BASE + 0x00000080u Size (bytes): 128 */
 355:Generated_Source\PSoC5/cyfitter_cfg.c **** #define BS_DSI3_5_HV_ROUTING_VAL ((const uint8 CYFAR *)0x480017C4u)
 356:Generated_Source\PSoC5/cyfitter_cfg.c **** 
 357:Generated_Source\PSoC5/cyfitter_cfg.c **** /* IOPINS0_0 Address: CYREG_PRT0_DM0 Size (bytes): 8 */
 358:Generated_Source\PSoC5/cyfitter_cfg.c **** #define BS_IOPINS0_0_VAL ((const uint8 CYFAR *)0x48001844u)
 359:Generated_Source\PSoC5/cyfitter_cfg.c **** 
 360:Generated_Source\PSoC5/cyfitter_cfg.c **** /* IOPINS0_7 Address: CYREG_PRT12_DR Size (bytes): 10 */
 361:Generated_Source\PSoC5/cyfitter_cfg.c **** #define BS_IOPINS0_7_VAL ((const uint8 CYFAR *)0x4800184Cu)
 362:Generated_Source\PSoC5/cyfitter_cfg.c **** 
 363:Generated_Source\PSoC5/cyfitter_cfg.c **** /* IOPINS0_8 Address: CYREG_PRT15_DM0 Size (bytes): 8 */
 364:Generated_Source\PSoC5/cyfitter_cfg.c **** #define BS_IOPINS0_8_VAL ((const uint8 CYFAR *)0x48001858u)
 365:Generated_Source\PSoC5/cyfitter_cfg.c **** 
 366:Generated_Source\PSoC5/cyfitter_cfg.c **** /* IOPINS0_1 Address: CYREG_PRT1_DM0 Size (bytes): 8 */
 367:Generated_Source\PSoC5/cyfitter_cfg.c **** #define BS_IOPINS0_1_VAL ((const uint8 CYFAR *)0x48001860u)
 368:Generated_Source\PSoC5/cyfitter_cfg.c **** 
 369:Generated_Source\PSoC5/cyfitter_cfg.c **** /* IOPINS0_2 Address: CYREG_PRT2_DR Size (bytes): 10 */
 370:Generated_Source\PSoC5/cyfitter_cfg.c **** #define BS_IOPINS0_2_VAL ((const uint8 CYFAR *)0x48001868u)
 371:Generated_Source\PSoC5/cyfitter_cfg.c **** 
 372:Generated_Source\PSoC5/cyfitter_cfg.c **** /* CYDEV_CLKDIST_ACFG0_CFG0 Address: CYREG_CLKDIST_ACFG0_CFG0 Size (bytes): 8 */
 373:Generated_Source\PSoC5/cyfitter_cfg.c **** #define BS_CYDEV_CLKDIST_ACFG0_CFG0_VAL ((const uint8 CYFAR *)0x48001874u)
 374:Generated_Source\PSoC5/cyfitter_cfg.c **** 
 375:Generated_Source\PSoC5/cyfitter_cfg.c **** /* PHUB_CFGMEM1 Address: CYREG_PHUB_CFGMEM1_CFG0 Size (bytes): 4 */
 376:Generated_Source\PSoC5/cyfitter_cfg.c **** #define BS_PHUB_CFGMEM1_VAL ((const uint8 CYFAR *)0x4800187Cu)
 377:Generated_Source\PSoC5/cyfitter_cfg.c **** 
 378:Generated_Source\PSoC5/cyfitter_cfg.c **** 
 379:Generated_Source\PSoC5/cyfitter_cfg.c **** /*******************************************************************************
 380:Generated_Source\PSoC5/cyfitter_cfg.c **** * Function Name: cfg_dma_init
 381:Generated_Source\PSoC5/cyfitter_cfg.c **** ********************************************************************************
 382:Generated_Source\PSoC5/cyfitter_cfg.c **** * Summary:
 383:Generated_Source\PSoC5/cyfitter_cfg.c **** *  This function is used to copy device configuration data from constant values
 384:Generated_Source\PSoC5/cyfitter_cfg.c **** *  stored in memory into the proper chip configuration registers using DMA.  It
 385:Generated_Source\PSoC5/cyfitter_cfg.c **** *  pulls data out of the CFG_TD_LISTs to know exactly how/what to configure.
 386:Generated_Source\PSoC5/cyfitter_cfg.c **** *
 387:Generated_Source\PSoC5/cyfitter_cfg.c **** * Parameters:  
 388:Generated_Source\PSoC5/cyfitter_cfg.c **** *   void
 389:Generated_Source\PSoC5/cyfitter_cfg.c **** *
 390:Generated_Source\PSoC5/cyfitter_cfg.c **** * Return:
 391:Generated_Source\PSoC5/cyfitter_cfg.c **** *   void
 392:Generated_Source\PSoC5/cyfitter_cfg.c **** *
 393:Generated_Source\PSoC5/cyfitter_cfg.c **** *******************************************************************************/
 394:Generated_Source\PSoC5/cyfitter_cfg.c **** static void cfg_dma_init(void);
 395:Generated_Source\PSoC5/cyfitter_cfg.c **** static void cfg_dma_init(void)
 396:Generated_Source\PSoC5/cyfitter_cfg.c **** {
 619              		.loc 1 396 0
 620              		.cfi_startproc
 621              		@ args = 0, pretend = 0, frame = 8
 622              		@ frame_needed = 1, uses_anonymous_args = 0
 623 0000 80B5     		push	{r7, lr}
 624              		.cfi_def_cfa_offset 8
 625              		.cfi_offset 7, -8
 626              		.cfi_offset 14, -4
 627 0002 82B0     		sub	sp, sp, #8
 628              		.cfi_def_cfa_offset 16
 629 0004 00AF     		add	r7, sp, #0
 630              		.cfi_def_cfa_register 7
ARM GAS  C:\Users\rens_\AppData\Local\Temp\cc35mTjg.s 			page 19


 397:Generated_Source\PSoC5/cyfitter_cfg.c **** 	/* TD structure for little-endian systems. Does not require endian swap */
 398:Generated_Source\PSoC5/cyfitter_cfg.c **** 	CYPACKED struct td_t {
 399:Generated_Source\PSoC5/cyfitter_cfg.c **** 		uint16 size;
 400:Generated_Source\PSoC5/cyfitter_cfg.c **** 		uint8 next_td_ptr;
 401:Generated_Source\PSoC5/cyfitter_cfg.c **** 		uint8 flags;
 402:Generated_Source\PSoC5/cyfitter_cfg.c **** 		uint16 src;
 403:Generated_Source\PSoC5/cyfitter_cfg.c **** 		uint16 dest;
 404:Generated_Source\PSoC5/cyfitter_cfg.c **** 	} CYPACKED_ATTR;
 405:Generated_Source\PSoC5/cyfitter_cfg.c **** 
 406:Generated_Source\PSoC5/cyfitter_cfg.c **** 	/* PHUB_CH1_CFGMEM_CFG0/1 initialization data */
 407:Generated_Source\PSoC5/cyfitter_cfg.c **** 	DMAINITSEC static const uint8 CYCODE CH1_ADDR_DATA0[] = { 0x01u, 0x00u, 0x00u, 0x00u, 0x00u, 0x20u
 408:Generated_Source\PSoC5/cyfitter_cfg.c **** 
 409:Generated_Source\PSoC5/cyfitter_cfg.c **** 	/* PHUB_CH2_CFGMEM_CFG0/1 initialization data */
 410:Generated_Source\PSoC5/cyfitter_cfg.c **** 	DMAINITSEC static const uint8 CYCODE CH2_ADDR_DATA0[] = { 0x01u, 0x00u, 0x00u, 0x00u, 0x00u, 0x20u
 411:Generated_Source\PSoC5/cyfitter_cfg.c **** 
 412:Generated_Source\PSoC5/cyfitter_cfg.c **** 	/* PHUB_CH5_CFGMEM_CFG0/1 initialization data */
 413:Generated_Source\PSoC5/cyfitter_cfg.c **** 	DMAINITSEC static const uint8 CYCODE CH5_ADDR_DATA0[] = { 0x01u, 0x00u, 0x00u, 0x00u, 0x00u, 0x48u
 414:Generated_Source\PSoC5/cyfitter_cfg.c **** 
 415:Generated_Source\PSoC5/cyfitter_cfg.c **** 	/* PHUB_CH6_CFGMEM_CFG0/1 initialization data */
 416:Generated_Source\PSoC5/cyfitter_cfg.c **** 	DMAINITSEC static const uint8 CYCODE CH6_ADDR_DATA0[] = { 0x01u, 0x00u, 0x00u, 0x00u, 0x00u, 0x48u
 417:Generated_Source\PSoC5/cyfitter_cfg.c **** 
 418:Generated_Source\PSoC5/cyfitter_cfg.c **** 	/* Initialization data for each DMA channel's TD registers */
 419:Generated_Source\PSoC5/cyfitter_cfg.c **** 	DMAINITSEC static const uint8 CYCODE DMA_TD_START_CMD[] = { 0x01u, 0x00u, 0x00u, 0x00u, 0x01u };
 420:Generated_Source\PSoC5/cyfitter_cfg.c **** 
 421:Generated_Source\PSoC5/cyfitter_cfg.c **** 	CYALIGNED static uint32 CYXDATA DMA_ZERO_VAL;
 422:Generated_Source\PSoC5/cyfitter_cfg.c **** 
 423:Generated_Source\PSoC5/cyfitter_cfg.c **** 	/* This table holds all of the initialization data necessary for the DMA
 424:Generated_Source\PSoC5/cyfitter_cfg.c **** 	   process to transfer data from the source location to the destination. */
 425:Generated_Source\PSoC5/cyfitter_cfg.c **** 	/* Source addresses can be relocated, but only when in 32bit addresses.
 426:Generated_Source\PSoC5/cyfitter_cfg.c **** 	   Because the standard TD table only has 16bit addresses, we generate a
 427:Generated_Source\PSoC5/cyfitter_cfg.c **** 	   separate CFG_TD_ADDR table for the source addresses that supports 32bit
 428:Generated_Source\PSoC5/cyfitter_cfg.c **** 	   addresses. */
 429:Generated_Source\PSoC5/cyfitter_cfg.c **** 	DMAINITSEC static const struct td_t CYCODE CFG_TD_LIST0[] = {
 430:Generated_Source\PSoC5/cyfitter_cfg.c **** 		/* Size, Next, Flags, Source, Destination */
 431:Generated_Source\PSoC5/cyfitter_cfg.c **** 		{ 8u, 0x02u, 0x23u, (uint16)(uint32)(0u), (uint16)(CYREG_PHUB_CFGMEM1_CFG0) },	/* TD 1 */
 432:Generated_Source\PSoC5/cyfitter_cfg.c **** 		{ 8u, 0x03u, 0x23u, (uint16)(uint32)(0u), (uint16)(CYREG_PHUB_CFGMEM2_CFG0) },	/* TD 2 */
 433:Generated_Source\PSoC5/cyfitter_cfg.c **** 		{ 8u, 0x04u, 0x23u, (uint16)(uint32)(0u), (uint16)(CYREG_PHUB_CFGMEM5_CFG0) },	/* TD 3 */
 434:Generated_Source\PSoC5/cyfitter_cfg.c **** 		{ 8u, 0x05u, 0x23u, (uint16)(uint32)(0u), (uint16)(CYREG_PHUB_CFGMEM6_CFG0) },	/* TD 4 */
 435:Generated_Source\PSoC5/cyfitter_cfg.c **** 		{ 5u, 0x06u, 0x23u, (uint16)(uint32)(0u), (uint16)(CYREG_PHUB_CH1_BASIC_CFG) },	/* TD 5 */
 436:Generated_Source\PSoC5/cyfitter_cfg.c **** 		{ 5u, 0x07u, 0x23u, (uint16)(uint32)(0u), (uint16)(CYREG_PHUB_CH2_BASIC_CFG) },	/* TD 6 */
 437:Generated_Source\PSoC5/cyfitter_cfg.c **** 		{ 5u, 0x08u, 0x23u, (uint16)(uint32)(0u), (uint16)(CYREG_PHUB_CH5_BASIC_CFG) },	/* TD 7 */
 438:Generated_Source\PSoC5/cyfitter_cfg.c **** 		{ 5u, 0xFEu, 0x23u, (uint16)(uint32)(0u), (uint16)(CYREG_PHUB_CH6_BASIC_CFG) },	/* TD 8 */
 439:Generated_Source\PSoC5/cyfitter_cfg.c **** 		{ 64u, 0xFEu, 0x22u, (uint16)(uint32)(0u), (uint16)(CYREG_PRT3_DR) },	/* TD 9 */
 440:Generated_Source\PSoC5/cyfitter_cfg.c **** 		{ 896u, 0x0Bu, 0x22u, (uint16)(uint32)(0u), (uint16)(CYDEV_UCFG_B0_P0_U0_BASE) },	/* TD 10 */
 441:Generated_Source\PSoC5/cyfitter_cfg.c **** 		{ 384u, 0x0Cu, 0x22u, (uint16)(uint32)(0u), (uint16)(CYDEV_UCFG_B0_P2_U0_BASE) },	/* TD 11 */
 442:Generated_Source\PSoC5/cyfitter_cfg.c **** 		{ 384u, 0x0Du, 0x22u, (uint16)(uint32)(0u), (uint16)(CYDEV_UCFG_B0_P3_U0_BASE) },	/* TD 12 */
 443:Generated_Source\PSoC5/cyfitter_cfg.c **** 		{ 384u, 0x0Eu, 0x22u, (uint16)(uint32)(0u), (uint16)(CYDEV_UCFG_B0_P5_U0_BASE) },	/* TD 13 */
 444:Generated_Source\PSoC5/cyfitter_cfg.c **** 		{ 128u, 0x0Fu, 0x22u, (uint16)(uint32)(0u), (uint16)(CYDEV_UCFG_B0_P6_U1_BASE) },	/* TD 14 */
 445:Generated_Source\PSoC5/cyfitter_cfg.c **** 		{ 384u, 0x10u, 0x22u, (uint16)(uint32)(0u), (uint16)(CYDEV_UCFG_B0_P7_U0_BASE) },	/* TD 15 */
 446:Generated_Source\PSoC5/cyfitter_cfg.c **** 		{ 384u, 0x11u, 0x22u, (uint16)(uint32)(0u), (uint16)(CYDEV_UCFG_B1_P2_U0_BASE) },	/* TD 16 */
 447:Generated_Source\PSoC5/cyfitter_cfg.c **** 		{ 128u, 0x12u, 0x22u, (uint16)(uint32)(0u), (uint16)(CYDEV_UCFG_DSI1_BASE) },	/* TD 17 */
 448:Generated_Source\PSoC5/cyfitter_cfg.c **** 		{ 128u, 0xFEu, 0x22u, (uint16)(uint32)(0u), (uint16)(CYDEV_UCFG_DSI3_BASE) },	/* TD 18 */
 449:Generated_Source\PSoC5/cyfitter_cfg.c **** 		{ 6u, 0x14u, 0x23u, (uint16)(uint32)(0u), (uint16)(CYDEV_PRTDSI_PRT12_BASE) },	/* TD 19 */
 450:Generated_Source\PSoC5/cyfitter_cfg.c **** 		{ 8u, 0x15u, 0x23u, (uint16)(uint32)(0u), (uint16)(CYDEV_PICU_INTTYPE_PICU12_BASE) },	/* TD 20 */
 451:Generated_Source\PSoC5/cyfitter_cfg.c **** 		{ 8u, 0x16u, 0x23u, (uint16)(uint32)(0u), (uint16)(CYREG_CMP0_SW0) },	/* TD 21 */
 452:Generated_Source\PSoC5/cyfitter_cfg.c **** 		{ 8u, 0x17u, 0x23u, (uint16)(uint32)(0u), (uint16)(CYREG_CMP1_SW0) },	/* TD 22 */
 453:Generated_Source\PSoC5/cyfitter_cfg.c **** 		{ 13u, 0x18u, 0x23u, (uint16)(uint32)(0u), (uint16)(CYREG_SC0_SW0) },	/* TD 23 */
ARM GAS  C:\Users\rens_\AppData\Local\Temp\cc35mTjg.s 			page 20


 454:Generated_Source\PSoC5/cyfitter_cfg.c **** 		{ 13u, 0x19u, 0x23u, (uint16)(uint32)(0u), (uint16)(CYREG_SC2_SW0) },	/* TD 24 */
 455:Generated_Source\PSoC5/cyfitter_cfg.c **** 		{ 12u, 0x1Au, 0x23u, (uint16)(uint32)(0u), (uint16)(CYREG_TMR0_CFG0) },	/* TD 25 */
 456:Generated_Source\PSoC5/cyfitter_cfg.c **** 		{ 8u, 0x1Bu, 0x23u, (uint16)(uint32)(0u), (uint16)(CYREG_SAR0_SW0) },	/* TD 26 */
 457:Generated_Source\PSoC5/cyfitter_cfg.c **** 		{ 32u, 0x1Cu, 0x23u, (uint16)(uint32)(0u), (uint16)(CYDEV_UWRK_UWRK8_B0_BASE + 0x00000070u) },	/*
 458:Generated_Source\PSoC5/cyfitter_cfg.c **** 		{ 32u, 0xFEu, 0x23u, (uint16)(uint32)(0u), (uint16)(CYDEV_UWRK_UWRK8_B1_BASE + 0x00000070u) },	/*
 459:Generated_Source\PSoC5/cyfitter_cfg.c **** 		{ 8u, 0x1Eu, 0x23u, (uint16)(uint32)(0u), (uint16)(CYREG_IDMUX_IRQ_CTL0) },	/* TD 29 */
 460:Generated_Source\PSoC5/cyfitter_cfg.c **** 		{ 128u, 0x1Fu, 0x23u, (uint16)(uint32)(0u), (uint16)(CYDEV_UCFG_B0_P4_U0_BASE) },	/* TD 30 */
 461:Generated_Source\PSoC5/cyfitter_cfg.c **** 		{ 128u, 0x20u, 0x23u, (uint16)(uint32)(0u), (uint16)(CYDEV_UCFG_B0_P4_U1_BASE) },	/* TD 31 */
 462:Generated_Source\PSoC5/cyfitter_cfg.c **** 		{ 128u, 0x21u, 0x23u, (uint16)(uint32)(0u), (uint16)(CYDEV_UCFG_B0_P6_U0_BASE) },	/* TD 32 */
 463:Generated_Source\PSoC5/cyfitter_cfg.c **** 		{ 128u, 0x22u, 0x23u, (uint16)(uint32)(0u), (uint16)(CYDEV_UCFG_B1_P3_U0_BASE) },	/* TD 33 */
 464:Generated_Source\PSoC5/cyfitter_cfg.c **** 		{ 128u, 0x23u, 0x23u, (uint16)(uint32)(0u), (uint16)(CYDEV_UCFG_B1_P3_U1_BASE) },	/* TD 34 */
 465:Generated_Source\PSoC5/cyfitter_cfg.c **** 		{ 128u, 0x24u, 0x23u, (uint16)(uint32)(0u), (uint16)(CYDEV_UCFG_B1_P4_U0_BASE) },	/* TD 35 */
 466:Generated_Source\PSoC5/cyfitter_cfg.c **** 		{ 128u, 0x25u, 0x23u, (uint16)(uint32)(0u), (uint16)(CYDEV_UCFG_B1_P4_U1_BASE) },	/* TD 36 */
 467:Generated_Source\PSoC5/cyfitter_cfg.c **** 		{ 128u, 0x26u, 0x23u, (uint16)(uint32)(0u), (uint16)(CYDEV_UCFG_B1_P5_U0_BASE) },	/* TD 37 */
 468:Generated_Source\PSoC5/cyfitter_cfg.c **** 		{ 128u, 0x27u, 0x23u, (uint16)(uint32)(0u), (uint16)(CYDEV_UCFG_B1_P5_U1_BASE) },	/* TD 38 */
 469:Generated_Source\PSoC5/cyfitter_cfg.c **** 		{ 16u, 0x28u, 0x23u, (uint16)(uint32)(0u), (uint16)(CYREG_BCTL1_MDCLK_EN) },	/* TD 39 */
 470:Generated_Source\PSoC5/cyfitter_cfg.c **** 		{ 16u, 0x29u, 0x23u, (uint16)(uint32)(0u), (uint16)(CYREG_BCTL0_MDCLK_EN) },	/* TD 40 */
 471:Generated_Source\PSoC5/cyfitter_cfg.c **** 		{ 128u, 0x2Au, 0x23u, (uint16)(uint32)(0u), (uint16)(CYDEV_UCFG_DSI13_BASE) },	/* TD 41 */
 472:Generated_Source\PSoC5/cyfitter_cfg.c **** 		{ 128u, 0x2Bu, 0x23u, (uint16)(uint32)(0u), (uint16)(CYDEV_UCFG_DSI13_BASE + 0x00000080u) },	/* T
 473:Generated_Source\PSoC5/cyfitter_cfg.c **** 		{ 128u, 0x2Cu, 0x23u, (uint16)(uint32)(0u), (uint16)(CYDEV_UCFG_DSI12_BASE) },	/* TD 43 */
 474:Generated_Source\PSoC5/cyfitter_cfg.c **** 		{ 128u, 0x2Du, 0x23u, (uint16)(uint32)(0u), (uint16)(CYDEV_UCFG_DSI12_BASE + 0x00000080u) },	/* T
 475:Generated_Source\PSoC5/cyfitter_cfg.c **** 		{ 128u, 0x2Eu, 0x23u, (uint16)(uint32)(0u), (uint16)(CYDEV_UCFG_DSI7_BASE) },	/* TD 45 */
 476:Generated_Source\PSoC5/cyfitter_cfg.c **** 		{ 128u, 0x2Fu, 0x23u, (uint16)(uint32)(0u), (uint16)(CYDEV_UCFG_DSI7_BASE + 0x00000080u) },	/* TD
 477:Generated_Source\PSoC5/cyfitter_cfg.c **** 		{ 128u, 0x30u, 0x23u, (uint16)(uint32)(0u), (uint16)(CYDEV_UCFG_DSI6_BASE) },	/* TD 47 */
 478:Generated_Source\PSoC5/cyfitter_cfg.c **** 		{ 128u, 0x31u, 0x23u, (uint16)(uint32)(0u), (uint16)(CYDEV_UCFG_DSI6_BASE + 0x00000080u) },	/* TD
 479:Generated_Source\PSoC5/cyfitter_cfg.c **** 		{ 128u, 0x32u, 0x23u, (uint16)(uint32)(0u), (uint16)(CYDEV_UCFG_DSI5_BASE) },	/* TD 49 */
 480:Generated_Source\PSoC5/cyfitter_cfg.c **** 		{ 128u, 0x33u, 0x23u, (uint16)(uint32)(0u), (uint16)(CYDEV_UCFG_DSI5_BASE + 0x00000080u) },	/* TD
 481:Generated_Source\PSoC5/cyfitter_cfg.c **** 		{ 128u, 0x34u, 0x23u, (uint16)(uint32)(0u), (uint16)(CYDEV_UCFG_DSI4_BASE) },	/* TD 51 */
 482:Generated_Source\PSoC5/cyfitter_cfg.c **** 		{ 128u, 0x35u, 0x23u, (uint16)(uint32)(0u), (uint16)(CYDEV_UCFG_DSI4_BASE + 0x00000080u) },	/* TD
 483:Generated_Source\PSoC5/cyfitter_cfg.c **** 		{ 128u, 0x36u, 0x23u, (uint16)(uint32)(0u), (uint16)(CYDEV_UCFG_B1_P5_ROUTE_BASE) },	/* TD 53 */
 484:Generated_Source\PSoC5/cyfitter_cfg.c **** 		{ 128u, 0x37u, 0x23u, (uint16)(uint32)(0u), (uint16)(CYDEV_UCFG_B1_P5_ROUTE_BASE + 0x00000080u) }
 485:Generated_Source\PSoC5/cyfitter_cfg.c **** 		{ 128u, 0x38u, 0x23u, (uint16)(uint32)(0u), (uint16)(CYDEV_UCFG_B1_P2_ROUTE_BASE + 0x00000080u) }
 486:Generated_Source\PSoC5/cyfitter_cfg.c **** 		{ 128u, 0x39u, 0x23u, (uint16)(uint32)(0u), (uint16)(CYDEV_UCFG_B1_P4_ROUTE_BASE) },	/* TD 56 */
 487:Generated_Source\PSoC5/cyfitter_cfg.c **** 		{ 128u, 0x3Au, 0x23u, (uint16)(uint32)(0u), (uint16)(CYDEV_UCFG_B1_P4_ROUTE_BASE + 0x00000080u) }
 488:Generated_Source\PSoC5/cyfitter_cfg.c **** 		{ 128u, 0x3Bu, 0x23u, (uint16)(uint32)(0u), (uint16)(CYDEV_UCFG_B1_P3_ROUTE_BASE) },	/* TD 58 */
 489:Generated_Source\PSoC5/cyfitter_cfg.c **** 		{ 128u, 0x3Cu, 0x23u, (uint16)(uint32)(0u), (uint16)(CYDEV_UCFG_B1_P3_ROUTE_BASE + 0x00000080u) }
 490:Generated_Source\PSoC5/cyfitter_cfg.c **** 		{ 128u, 0x3Du, 0x23u, (uint16)(uint32)(0u), (uint16)(CYDEV_UCFG_B0_P4_ROUTE_BASE) },	/* TD 60 */
 491:Generated_Source\PSoC5/cyfitter_cfg.c **** 		{ 128u, 0x3Eu, 0x23u, (uint16)(uint32)(0u), (uint16)(CYDEV_UCFG_B0_P4_ROUTE_BASE + 0x00000080u) }
 492:Generated_Source\PSoC5/cyfitter_cfg.c **** 		{ 128u, 0x3Fu, 0x23u, (uint16)(uint32)(0u), (uint16)(CYDEV_UCFG_B0_P3_ROUTE_BASE + 0x00000080u) }
 493:Generated_Source\PSoC5/cyfitter_cfg.c **** 		{ 128u, 0x40u, 0x23u, (uint16)(uint32)(0u), (uint16)(CYDEV_UCFG_B0_P5_ROUTE_BASE + 0x00000080u) }
 494:Generated_Source\PSoC5/cyfitter_cfg.c **** 		{ 128u, 0x41u, 0x23u, (uint16)(uint32)(0u), (uint16)(CYDEV_UCFG_B0_P2_ROUTE_BASE + 0x00000080u) }
 495:Generated_Source\PSoC5/cyfitter_cfg.c **** 		{ 128u, 0x42u, 0x23u, (uint16)(uint32)(0u), (uint16)(CYDEV_UCFG_B0_P6_ROUTE_BASE) },	/* TD 65 */
 496:Generated_Source\PSoC5/cyfitter_cfg.c **** 		{ 128u, 0x43u, 0x23u, (uint16)(uint32)(0u), (uint16)(CYDEV_UCFG_B0_P6_ROUTE_BASE + 0x00000080u) }
 497:Generated_Source\PSoC5/cyfitter_cfg.c **** 		{ 128u, 0x44u, 0x23u, (uint16)(uint32)(0u), (uint16)(CYDEV_UCFG_B0_P1_ROUTE_BASE + 0x00000080u) }
 498:Generated_Source\PSoC5/cyfitter_cfg.c **** 		{ 128u, 0x45u, 0x23u, (uint16)(uint32)(0u), (uint16)(CYDEV_UCFG_B0_P7_ROUTE_BASE + 0x00000080u) }
 499:Generated_Source\PSoC5/cyfitter_cfg.c **** 		{ 128u, 0x46u, 0x23u, (uint16)(uint32)(0u), (uint16)(CYDEV_UCFG_DSI9_BASE) },	/* TD 69 */
 500:Generated_Source\PSoC5/cyfitter_cfg.c **** 		{ 128u, 0x47u, 0x23u, (uint16)(uint32)(0u), (uint16)(CYDEV_UCFG_DSI9_BASE + 0x00000080u) },	/* TD
 501:Generated_Source\PSoC5/cyfitter_cfg.c **** 		{ 128u, 0x48u, 0x23u, (uint16)(uint32)(0u), (uint16)(CYDEV_UCFG_DSI8_BASE) },	/* TD 71 */
 502:Generated_Source\PSoC5/cyfitter_cfg.c **** 		{ 128u, 0x49u, 0x23u, (uint16)(uint32)(0u), (uint16)(CYDEV_UCFG_DSI8_BASE + 0x00000080u) },	/* TD
 503:Generated_Source\PSoC5/cyfitter_cfg.c **** 		{ 128u, 0x4Au, 0x23u, (uint16)(uint32)(0u), (uint16)(CYDEV_UCFG_DSI3_BASE + 0x00000080u) },	/* TD
 504:Generated_Source\PSoC5/cyfitter_cfg.c **** 		{ 128u, 0x4Bu, 0x23u, (uint16)(uint32)(0u), (uint16)(CYDEV_UCFG_DSI2_BASE) },	/* TD 74 */
 505:Generated_Source\PSoC5/cyfitter_cfg.c **** 		{ 128u, 0x4Cu, 0x23u, (uint16)(uint32)(0u), (uint16)(CYDEV_UCFG_DSI2_BASE + 0x00000080u) },	/* TD
 506:Generated_Source\PSoC5/cyfitter_cfg.c **** 		{ 128u, 0x4Du, 0x23u, (uint16)(uint32)(0u), (uint16)(CYDEV_UCFG_DSI1_BASE + 0x00000080u) },	/* TD
 507:Generated_Source\PSoC5/cyfitter_cfg.c **** 		{ 128u, 0x4Eu, 0x23u, (uint16)(uint32)(0u), (uint16)(CYDEV_UCFG_DSI0_BASE) },	/* TD 77 */
 508:Generated_Source\PSoC5/cyfitter_cfg.c **** 		{ 128u, 0xFEu, 0x23u, (uint16)(uint32)(0u), (uint16)(CYDEV_UCFG_DSI0_BASE + 0x00000080u) },	/* TD
 509:Generated_Source\PSoC5/cyfitter_cfg.c **** 	};
 510:Generated_Source\PSoC5/cyfitter_cfg.c **** 
ARM GAS  C:\Users\rens_\AppData\Local\Temp\cc35mTjg.s 			page 21


 511:Generated_Source\PSoC5/cyfitter_cfg.c **** 	/* Source addresses can be relocated, but only when in 32bit addresses.
 512:Generated_Source\PSoC5/cyfitter_cfg.c **** 	   Because the standard TD table only has 16bit addresses, we generate a
 513:Generated_Source\PSoC5/cyfitter_cfg.c **** 	   separate table for the source addresses that does use 32bit addresses. This
 514:Generated_Source\PSoC5/cyfitter_cfg.c **** 	   table will be re-merged with the corresponding CFG_TD_LIST table during
 515:Generated_Source\PSoC5/cyfitter_cfg.c **** 	   initialization. */
 516:Generated_Source\PSoC5/cyfitter_cfg.c **** 	static const void * const CFG_TD_ADDR0[] = {
 517:Generated_Source\PSoC5/cyfitter_cfg.c **** 		(const void *)(CH1_ADDR_DATA0),	/* TD 1 */
 518:Generated_Source\PSoC5/cyfitter_cfg.c **** 		(const void *)(CH2_ADDR_DATA0),	/* TD 2 */
 519:Generated_Source\PSoC5/cyfitter_cfg.c **** 		(const void *)(CH5_ADDR_DATA0),	/* TD 3 */
 520:Generated_Source\PSoC5/cyfitter_cfg.c **** 		(const void *)(CH6_ADDR_DATA0),	/* TD 4 */
 521:Generated_Source\PSoC5/cyfitter_cfg.c **** 		(const void *)(DMA_TD_START_CMD),	/* TD 5 */
 522:Generated_Source\PSoC5/cyfitter_cfg.c **** 		(const void *)(DMA_TD_START_CMD),	/* TD 6 */
 523:Generated_Source\PSoC5/cyfitter_cfg.c **** 		(const void *)(DMA_TD_START_CMD),	/* TD 7 */
 524:Generated_Source\PSoC5/cyfitter_cfg.c **** 		(const void *)(DMA_TD_START_CMD),	/* TD 8 */
 525:Generated_Source\PSoC5/cyfitter_cfg.c **** 		(const void *)(&DMA_ZERO_VAL),	/* TD 9 */
 526:Generated_Source\PSoC5/cyfitter_cfg.c **** 		(const void *)(&DMA_ZERO_VAL),	/* TD 10 */
 527:Generated_Source\PSoC5/cyfitter_cfg.c **** 		(const void *)(&DMA_ZERO_VAL),	/* TD 11 */
 528:Generated_Source\PSoC5/cyfitter_cfg.c **** 		(const void *)(&DMA_ZERO_VAL),	/* TD 12 */
 529:Generated_Source\PSoC5/cyfitter_cfg.c **** 		(const void *)(&DMA_ZERO_VAL),	/* TD 13 */
 530:Generated_Source\PSoC5/cyfitter_cfg.c **** 		(const void *)(&DMA_ZERO_VAL),	/* TD 14 */
 531:Generated_Source\PSoC5/cyfitter_cfg.c **** 		(const void *)(&DMA_ZERO_VAL),	/* TD 15 */
 532:Generated_Source\PSoC5/cyfitter_cfg.c **** 		(const void *)(&DMA_ZERO_VAL),	/* TD 16 */
 533:Generated_Source\PSoC5/cyfitter_cfg.c **** 		(const void *)(&DMA_ZERO_VAL),	/* TD 17 */
 534:Generated_Source\PSoC5/cyfitter_cfg.c **** 		(const void *)(&DMA_ZERO_VAL),	/* TD 18 */
 535:Generated_Source\PSoC5/cyfitter_cfg.c **** 		(const void *)(BS_IOPORT_7_VAL),	/* TD 19 */
 536:Generated_Source\PSoC5/cyfitter_cfg.c **** 		(const void *)(BS_PICU_7_VAL),	/* TD 20 */
 537:Generated_Source\PSoC5/cyfitter_cfg.c **** 		(const void *)(BS_CMP0_VAL),	/* TD 21 */
 538:Generated_Source\PSoC5/cyfitter_cfg.c **** 		(const void *)(BS_CMP1_VAL),	/* TD 22 */
 539:Generated_Source\PSoC5/cyfitter_cfg.c **** 		(const void *)(BS_SC0_VAL),	/* TD 23 */
 540:Generated_Source\PSoC5/cyfitter_cfg.c **** 		(const void *)(BS_SC2_VAL),	/* TD 24 */
 541:Generated_Source\PSoC5/cyfitter_cfg.c **** 		(const void *)(BS_TMR0_VAL),	/* TD 25 */
 542:Generated_Source\PSoC5/cyfitter_cfg.c **** 		(const void *)(BS_SAR0_VAL),	/* TD 26 */
 543:Generated_Source\PSoC5/cyfitter_cfg.c **** 		(const void *)(BS_UWRK_B0_WRK_STATCTL_BITS_VAL),	/* TD 27 */
 544:Generated_Source\PSoC5/cyfitter_cfg.c **** 		(const void *)(BS_UWRK_B1_WRK_STATCTL_BITS_VAL),	/* TD 28 */
 545:Generated_Source\PSoC5/cyfitter_cfg.c **** 		(const void *)(BS_IDMUX_IRQ_VAL),	/* TD 29 */
 546:Generated_Source\PSoC5/cyfitter_cfg.c **** 		(const void *)(BS_UDB_0_2_1_CONFIG_VAL),	/* TD 30 */
 547:Generated_Source\PSoC5/cyfitter_cfg.c **** 		(const void *)(BS_UDB_0_2_0_CONFIG_VAL),	/* TD 31 */
 548:Generated_Source\PSoC5/cyfitter_cfg.c **** 		(const void *)(BS_UDB_0_4_1_CONFIG_VAL),	/* TD 32 */
 549:Generated_Source\PSoC5/cyfitter_cfg.c **** 		(const void *)(BS_UDB_1_1_1_CONFIG_VAL),	/* TD 33 */
 550:Generated_Source\PSoC5/cyfitter_cfg.c **** 		(const void *)(BS_UDB_1_1_0_CONFIG_VAL),	/* TD 34 */
 551:Generated_Source\PSoC5/cyfitter_cfg.c **** 		(const void *)(BS_UDB_0_1_1_CONFIG_VAL),	/* TD 35 */
 552:Generated_Source\PSoC5/cyfitter_cfg.c **** 		(const void *)(BS_UDB_0_1_0_CONFIG_VAL),	/* TD 36 */
 553:Generated_Source\PSoC5/cyfitter_cfg.c **** 		(const void *)(BS_UDB_0_0_0_CONFIG_VAL),	/* TD 37 */
 554:Generated_Source\PSoC5/cyfitter_cfg.c **** 		(const void *)(BS_UDB_0_0_1_CONFIG_VAL),	/* TD 38 */
 555:Generated_Source\PSoC5/cyfitter_cfg.c **** 		(const void *)(BS_UCFG_BCTL1_VAL),	/* TD 39 */
 556:Generated_Source\PSoC5/cyfitter_cfg.c **** 		(const void *)(BS_UCFG_BCTL0_VAL),	/* TD 40 */
 557:Generated_Source\PSoC5/cyfitter_cfg.c **** 		(const void *)(BS_DSISWITCH_0_0_VAL),	/* TD 41 */
 558:Generated_Source\PSoC5/cyfitter_cfg.c **** 		(const void *)(BS_DSI0_0_HV_ROUTING_VAL),	/* TD 42 */
 559:Generated_Source\PSoC5/cyfitter_cfg.c **** 		(const void *)(BS_DSISWITCH_0_1_VAL),	/* TD 43 */
 560:Generated_Source\PSoC5/cyfitter_cfg.c **** 		(const void *)(BS_DSI0_1_HV_ROUTING_VAL),	/* TD 44 */
 561:Generated_Source\PSoC5/cyfitter_cfg.c **** 		(const void *)(BS_DSISWITCH_0_2_VAL),	/* TD 45 */
 562:Generated_Source\PSoC5/cyfitter_cfg.c **** 		(const void *)(BS_DSI0_2_HV_ROUTING_VAL),	/* TD 46 */
 563:Generated_Source\PSoC5/cyfitter_cfg.c **** 		(const void *)(BS_DSISWITCH_0_3_VAL),	/* TD 47 */
 564:Generated_Source\PSoC5/cyfitter_cfg.c **** 		(const void *)(BS_DSI0_3_HV_ROUTING_VAL),	/* TD 48 */
 565:Generated_Source\PSoC5/cyfitter_cfg.c **** 		(const void *)(BS_DSISWITCH_0_4_VAL),	/* TD 49 */
 566:Generated_Source\PSoC5/cyfitter_cfg.c **** 		(const void *)(BS_DSI0_4_HV_ROUTING_VAL),	/* TD 50 */
 567:Generated_Source\PSoC5/cyfitter_cfg.c **** 		(const void *)(BS_DSISWITCH_0_5_VAL),	/* TD 51 */
ARM GAS  C:\Users\rens_\AppData\Local\Temp\cc35mTjg.s 			page 22


 568:Generated_Source\PSoC5/cyfitter_cfg.c **** 		(const void *)(BS_DSI0_5_HV_ROUTING_VAL),	/* TD 52 */
 569:Generated_Source\PSoC5/cyfitter_cfg.c **** 		(const void *)(BS_UDBSWITCH_0_0_VAL),	/* TD 53 */
 570:Generated_Source\PSoC5/cyfitter_cfg.c **** 		(const void *)(BS_UDB_1_0_HV_ROUTING_VAL),	/* TD 54 */
 571:Generated_Source\PSoC5/cyfitter_cfg.c **** 		(const void *)(BS_UDB_2_0_HV_ROUTING_VAL),	/* TD 55 */
 572:Generated_Source\PSoC5/cyfitter_cfg.c **** 		(const void *)(BS_UDBSWITCH_0_1_VAL),	/* TD 56 */
 573:Generated_Source\PSoC5/cyfitter_cfg.c **** 		(const void *)(BS_UDB_1_1_HV_ROUTING_VAL),	/* TD 57 */
 574:Generated_Source\PSoC5/cyfitter_cfg.c **** 		(const void *)(BS_UDBSWITCH_1_1_VAL),	/* TD 58 */
 575:Generated_Source\PSoC5/cyfitter_cfg.c **** 		(const void *)(BS_UDB_2_1_HV_ROUTING_VAL),	/* TD 59 */
 576:Generated_Source\PSoC5/cyfitter_cfg.c **** 		(const void *)(BS_UDBSWITCH_0_2_VAL),	/* TD 60 */
 577:Generated_Source\PSoC5/cyfitter_cfg.c **** 		(const void *)(BS_UDB_1_2_HV_ROUTING_VAL),	/* TD 61 */
 578:Generated_Source\PSoC5/cyfitter_cfg.c **** 		(const void *)(BS_UDB_2_2_HV_ROUTING_VAL),	/* TD 62 */
 579:Generated_Source\PSoC5/cyfitter_cfg.c **** 		(const void *)(BS_UDB_1_3_HV_ROUTING_VAL),	/* TD 63 */
 580:Generated_Source\PSoC5/cyfitter_cfg.c **** 		(const void *)(BS_UDB_2_3_HV_ROUTING_VAL),	/* TD 64 */
 581:Generated_Source\PSoC5/cyfitter_cfg.c **** 		(const void *)(BS_UDBSWITCH_0_4_VAL),	/* TD 65 */
 582:Generated_Source\PSoC5/cyfitter_cfg.c **** 		(const void *)(BS_UDB_1_4_HV_ROUTING_VAL),	/* TD 66 */
 583:Generated_Source\PSoC5/cyfitter_cfg.c **** 		(const void *)(BS_UDB_2_4_HV_ROUTING_VAL),	/* TD 67 */
 584:Generated_Source\PSoC5/cyfitter_cfg.c **** 		(const void *)(BS_UDB_1_5_HV_ROUTING_VAL),	/* TD 68 */
 585:Generated_Source\PSoC5/cyfitter_cfg.c **** 		(const void *)(BS_DSISWITCH_1_0_VAL),	/* TD 69 */
 586:Generated_Source\PSoC5/cyfitter_cfg.c **** 		(const void *)(BS_DSI3_0_HV_ROUTING_VAL),	/* TD 70 */
 587:Generated_Source\PSoC5/cyfitter_cfg.c **** 		(const void *)(BS_DSISWITCH_1_1_VAL),	/* TD 71 */
 588:Generated_Source\PSoC5/cyfitter_cfg.c **** 		(const void *)(BS_DSI3_1_HV_ROUTING_VAL),	/* TD 72 */
 589:Generated_Source\PSoC5/cyfitter_cfg.c **** 		(const void *)(BS_DSI3_2_HV_ROUTING_VAL),	/* TD 73 */
 590:Generated_Source\PSoC5/cyfitter_cfg.c **** 		(const void *)(BS_DSISWITCH_1_3_VAL),	/* TD 74 */
 591:Generated_Source\PSoC5/cyfitter_cfg.c **** 		(const void *)(BS_DSI3_3_HV_ROUTING_VAL),	/* TD 75 */
 592:Generated_Source\PSoC5/cyfitter_cfg.c **** 		(const void *)(BS_DSI3_4_HV_ROUTING_VAL),	/* TD 76 */
 593:Generated_Source\PSoC5/cyfitter_cfg.c **** 		(const void *)(BS_DSISWITCH_1_5_VAL),	/* TD 77 */
 594:Generated_Source\PSoC5/cyfitter_cfg.c **** 		(const void *)(BS_DSI3_5_HV_ROUTING_VAL),	/* TD 78 */
 595:Generated_Source\PSoC5/cyfitter_cfg.c **** 	};
 596:Generated_Source\PSoC5/cyfitter_cfg.c **** 
 597:Generated_Source\PSoC5/cyfitter_cfg.c **** 
 598:Generated_Source\PSoC5/cyfitter_cfg.c **** 	uint32 i;
 599:Generated_Source\PSoC5/cyfitter_cfg.c **** 
 600:Generated_Source\PSoC5/cyfitter_cfg.c **** 	DMA_ZERO_VAL = 0u;
 631              		.loc 1 600 0
 632 0006 454B     		ldr	r3, .L15
 633 0008 0022     		movs	r2, #0
 634 000a 1A60     		str	r2, [r3]
 601:Generated_Source\PSoC5/cyfitter_cfg.c **** 	CY_SET_REG8((void CYXDATA *)CYREG_PHUB_CFGMEM0_CFG0, 0x10u);	/* set burstcnt */
 635              		.loc 1 601 0
 636 000c 444B     		ldr	r3, .L15+4
 637 000e 1022     		movs	r2, #16
 638 0010 1A70     		strb	r2, [r3]
 602:Generated_Source\PSoC5/cyfitter_cfg.c **** 	CY_SET_REG8((void CYXDATA *)CYREG_PHUB_CH0_BASIC_CFG, 0x01u);	/* enable ch0 */
 639              		.loc 1 602 0
 640 0012 444B     		ldr	r3, .L15+8
 641 0014 0122     		movs	r2, #1
 642 0016 1A70     		strb	r2, [r3]
 603:Generated_Source\PSoC5/cyfitter_cfg.c **** 	CY_SET_REG8((void CYXDATA *)(CYREG_PHUB_CH0_BASIC_STATUS+1u), 0x00u);	/* set first TD to 0 */
 643              		.loc 1 603 0
 644 0018 434B     		ldr	r3, .L15+12
 645 001a 0022     		movs	r2, #0
 646 001c 1A70     		strb	r2, [r3]
 604:Generated_Source\PSoC5/cyfitter_cfg.c **** 	CY_SET_REG16((void CYXDATA *)CYREG_PHUB_TDMEM0_ORIG_TD0, 78u*8u);	/* transfer size */
 647              		.loc 1 604 0
 648 001e 434B     		ldr	r3, .L15+16
 649 0020 4FF41C72 		mov	r2, #624
 650 0024 1A80     		strh	r2, [r3]	@ movhi
ARM GAS  C:\Users\rens_\AppData\Local\Temp\cc35mTjg.s 			page 23


 605:Generated_Source\PSoC5/cyfitter_cfg.c **** 	CY_SET_REG8((void CYXDATA *)(CYREG_PHUB_TDMEM0_ORIG_TD0+2u), 0x01u);	/* set next TD to 1 */
 651              		.loc 1 605 0
 652 0026 424B     		ldr	r3, .L15+20
 653 0028 0122     		movs	r2, #1
 654 002a 1A70     		strb	r2, [r3]
 606:Generated_Source\PSoC5/cyfitter_cfg.c **** 	CY_SET_REG8((void CYXDATA *)(CYREG_PHUB_TDMEM0_ORIG_TD0+3u), 0x03u);	/* set TD flags */
 655              		.loc 1 606 0
 656 002c 414B     		ldr	r3, .L15+24
 657 002e 0322     		movs	r2, #3
 658 0030 1A70     		strb	r2, [r3]
 607:Generated_Source\PSoC5/cyfitter_cfg.c **** 	CY_SET_REG16((void CYXDATA *)CYREG_PHUB_TDMEM0_ORIG_TD1, (uint16)((uint32)CFG_TD_LIST0 & 0x0000FFF
 659              		.loc 1 607 0
 660 0032 414B     		ldr	r3, .L15+28
 661 0034 414A     		ldr	r2, .L15+32
 662 0036 92B2     		uxth	r2, r2
 663 0038 1A80     		strh	r2, [r3]	@ movhi
 608:Generated_Source\PSoC5/cyfitter_cfg.c **** 	CY_SET_REG16((void CYXDATA *)(CYREG_PHUB_TDMEM0_ORIG_TD1+2u), CYDEV_PHUB_TDMEM1_BASE);	/* set td0'
 664              		.loc 1 608 0
 665 003a 414B     		ldr	r3, .L15+36
 666 003c 47F60802 		movw	r2, #30728
 667 0040 1A80     		strh	r2, [r3]	@ movhi
 609:Generated_Source\PSoC5/cyfitter_cfg.c **** 	CY_SET_REG16((void CYXDATA *)CYREG_PHUB_CFGMEM0_CFG1, (uint16)(CYDEV_FLASH_BASE >> 16));	/* set ch
 668              		.loc 1 609 0
 669 0042 404B     		ldr	r3, .L15+40
 670 0044 0022     		movs	r2, #0
 671 0046 1A80     		strh	r2, [r3]	@ movhi
 610:Generated_Source\PSoC5/cyfitter_cfg.c **** 	CY_SET_REG16((void CYXDATA *)(CYREG_PHUB_CFGMEM0_CFG1+2u), (uint16)(CYDEV_PHUB_TDMEM1_BASE >> 16))
 672              		.loc 1 610 0
 673 0048 3F4B     		ldr	r3, .L15+44
 674 004a 4FF48042 		mov	r2, #16384
 675 004e 1A80     		strh	r2, [r3]	@ movhi
 611:Generated_Source\PSoC5/cyfitter_cfg.c **** 	CY_SET_REG8((void CYXDATA *)(CYREG_PHUB_CH1_BASIC_STATUS+1u), 0x09u);	/* ch1 first TD: 9 */
 676              		.loc 1 611 0
 677 0050 3E4B     		ldr	r3, .L15+48
 678 0052 0922     		movs	r2, #9
 679 0054 1A70     		strb	r2, [r3]
 612:Generated_Source\PSoC5/cyfitter_cfg.c **** 	CY_SET_REG8((void CYXDATA *)(CYREG_PHUB_CH2_BASIC_STATUS+1u), 0x0Au);	/* ch2 first TD: 10 */
 680              		.loc 1 612 0
 681 0056 3E4B     		ldr	r3, .L15+52
 682 0058 0A22     		movs	r2, #10
 683 005a 1A70     		strb	r2, [r3]
 613:Generated_Source\PSoC5/cyfitter_cfg.c **** 	CY_SET_REG8((void CYXDATA *)(CYREG_PHUB_CH5_BASIC_STATUS+1u), 0x13u);	/* ch5 first TD: 19 */
 684              		.loc 1 613 0
 685 005c 3D4B     		ldr	r3, .L15+56
 686 005e 1322     		movs	r2, #19
 687 0060 1A70     		strb	r2, [r3]
 614:Generated_Source\PSoC5/cyfitter_cfg.c **** 	CY_SET_REG8((void CYXDATA *)(CYREG_PHUB_CH6_BASIC_STATUS+1u), 0x1Du);	/* ch6 first TD: 29 */
 688              		.loc 1 614 0
 689 0062 3D4B     		ldr	r3, .L15+60
 690 0064 1D22     		movs	r2, #29
 691 0066 1A70     		strb	r2, [r3]
 615:Generated_Source\PSoC5/cyfitter_cfg.c **** 
 616:Generated_Source\PSoC5/cyfitter_cfg.c **** 	CY_CFG_MEMORY_BARRIER();
 692              		.loc 1 616 0
 693 0068 BFF35F8F 		dmb	sy
 617:Generated_Source\PSoC5/cyfitter_cfg.c **** 	CY_SET_REG8((void CYXDATA *)CYREG_PHUB_CH0_ACTION, 0x01u); /* cpu_req */
 694              		.loc 1 617 0
ARM GAS  C:\Users\rens_\AppData\Local\Temp\cc35mTjg.s 			page 24


 695 006c 3B4B     		ldr	r3, .L15+64
 696 006e 0122     		movs	r2, #1
 697 0070 1A70     		strb	r2, [r3]
 618:Generated_Source\PSoC5/cyfitter_cfg.c **** 	CY_CFG_MEMORY_BARRIER();
 698              		.loc 1 618 0
 699 0072 BFF35F8F 		dmb	sy
 619:Generated_Source\PSoC5/cyfitter_cfg.c **** 
 620:Generated_Source\PSoC5/cyfitter_cfg.c **** 	/* Wait for TDs to be copied into TDMEM */
 621:Generated_Source\PSoC5/cyfitter_cfg.c **** 	while (CY_GET_REG16((void CYXDATA *)CYREG_PHUB_TDMEM0_ORIG_TD0) != 0u) { }
 700              		.loc 1 621 0
 701 0076 00BF     		nop
 702              	.L7:
 703              		.loc 1 621 0 is_stmt 0 discriminator 1
 704 0078 2C4B     		ldr	r3, .L15+16
 705 007a 1B88     		ldrh	r3, [r3]	@ movhi
 706 007c 9BB2     		uxth	r3, r3
 707 007e 002B     		cmp	r3, #0
 708 0080 FAD1     		bne	.L7
 622:Generated_Source\PSoC5/cyfitter_cfg.c **** 
 623:Generated_Source\PSoC5/cyfitter_cfg.c **** 	/* Recombine TD source table (CFG_TD_ADDR0) with full TD table (CFG_TD_LIST0) */
 624:Generated_Source\PSoC5/cyfitter_cfg.c **** 	for (i = 0u; i < 78u; i++)
 709              		.loc 1 624 0 is_stmt 1
 710 0082 0023     		movs	r3, #0
 711 0084 7B60     		str	r3, [r7, #4]
 712 0086 0DE0     		b	.L8
 713              	.L9:
 625:Generated_Source\PSoC5/cyfitter_cfg.c **** 	{
 626:Generated_Source\PSoC5/cyfitter_cfg.c **** 		CY_SET_REG16((void CYXDATA *)(CYREG_PHUB_TDMEM1_ORIG_TD1 + (sizeof(struct td_t)*i)), (uint16)(uin
 714              		.loc 1 626 0 discriminator 3
 715 0088 7B68     		ldr	r3, [r7, #4]
 716 008a DA00     		lsls	r2, r3, #3
 717 008c 344B     		ldr	r3, .L15+68
 718 008e 1344     		add	r3, r3, r2
 719 0090 1946     		mov	r1, r3
 720 0092 344A     		ldr	r2, .L15+72
 721 0094 7B68     		ldr	r3, [r7, #4]
 722 0096 52F82330 		ldr	r3, [r2, r3, lsl #2]
 723 009a 9BB2     		uxth	r3, r3
 724 009c 0B80     		strh	r3, [r1]	@ movhi
 624:Generated_Source\PSoC5/cyfitter_cfg.c **** 	{
 725              		.loc 1 624 0 discriminator 3
 726 009e 7B68     		ldr	r3, [r7, #4]
 727 00a0 0133     		adds	r3, r3, #1
 728 00a2 7B60     		str	r3, [r7, #4]
 729              	.L8:
 624:Generated_Source\PSoC5/cyfitter_cfg.c **** 	{
 730              		.loc 1 624 0 is_stmt 0 discriminator 1
 731 00a4 7B68     		ldr	r3, [r7, #4]
 732 00a6 4D2B     		cmp	r3, #77
 733 00a8 EED9     		bls	.L9
 627:Generated_Source\PSoC5/cyfitter_cfg.c **** 	}
 628:Generated_Source\PSoC5/cyfitter_cfg.c **** 
 629:Generated_Source\PSoC5/cyfitter_cfg.c **** 	CY_CFG_MEMORY_BARRIER();
 734              		.loc 1 629 0 is_stmt 1
 735 00aa BFF35F8F 		dmb	sy
 630:Generated_Source\PSoC5/cyfitter_cfg.c **** 	CY_SET_REG8((void CYXDATA *)CYREG_PHUB_CH0_ACTION, 0x01u); /* cpu_req */
 736              		.loc 1 630 0
ARM GAS  C:\Users\rens_\AppData\Local\Temp\cc35mTjg.s 			page 25


 737 00ae 2B4B     		ldr	r3, .L15+64
 738 00b0 0122     		movs	r2, #1
 739 00b2 1A70     		strb	r2, [r3]
 631:Generated_Source\PSoC5/cyfitter_cfg.c **** 	CY_CFG_MEMORY_BARRIER();
 740              		.loc 1 631 0
 741 00b4 BFF35F8F 		dmb	sy
 632:Generated_Source\PSoC5/cyfitter_cfg.c **** 
 633:Generated_Source\PSoC5/cyfitter_cfg.c **** 	/* Wait for all DMA transfers to complete */
 634:Generated_Source\PSoC5/cyfitter_cfg.c **** 	while(0u != (CY_GET_REG8((void CYXDATA *)CYREG_PHUB_CH0_BASIC_STATUS) & 0x01u)){}
 742              		.loc 1 634 0
 743 00b8 00BF     		nop
 744              	.L10:
 745              		.loc 1 634 0 is_stmt 0 discriminator 1
 746 00ba 2B4B     		ldr	r3, .L15+76
 747 00bc 1B78     		ldrb	r3, [r3]
 748 00be DBB2     		uxtb	r3, r3
 749 00c0 03F00103 		and	r3, r3, #1
 750 00c4 002B     		cmp	r3, #0
 751 00c6 F8D1     		bne	.L10
 635:Generated_Source\PSoC5/cyfitter_cfg.c **** 	while(0u != (CY_GET_REG8((void CYXDATA *)CYREG_PHUB_CH1_BASIC_STATUS) & 0x01u)){}
 752              		.loc 1 635 0 is_stmt 1
 753 00c8 00BF     		nop
 754              	.L11:
 755              		.loc 1 635 0 is_stmt 0 discriminator 1
 756 00ca 284B     		ldr	r3, .L15+80
 757 00cc 1B78     		ldrb	r3, [r3]
 758 00ce DBB2     		uxtb	r3, r3
 759 00d0 03F00103 		and	r3, r3, #1
 760 00d4 002B     		cmp	r3, #0
 761 00d6 F8D1     		bne	.L11
 636:Generated_Source\PSoC5/cyfitter_cfg.c **** 	while(0u != (CY_GET_REG8((void CYXDATA *)CYREG_PHUB_CH2_BASIC_STATUS) & 0x01u)){}
 762              		.loc 1 636 0 is_stmt 1
 763 00d8 00BF     		nop
 764              	.L12:
 765              		.loc 1 636 0 is_stmt 0 discriminator 1
 766 00da 254B     		ldr	r3, .L15+84
 767 00dc 1B78     		ldrb	r3, [r3]
 768 00de DBB2     		uxtb	r3, r3
 769 00e0 03F00103 		and	r3, r3, #1
 770 00e4 002B     		cmp	r3, #0
 771 00e6 F8D1     		bne	.L12
 637:Generated_Source\PSoC5/cyfitter_cfg.c **** 	while(0u != (CY_GET_REG8((void CYXDATA *)CYREG_PHUB_CH5_BASIC_STATUS) & 0x01u)){}
 772              		.loc 1 637 0 is_stmt 1
 773 00e8 00BF     		nop
 774              	.L13:
 775              		.loc 1 637 0 is_stmt 0 discriminator 1
 776 00ea 224B     		ldr	r3, .L15+88
 777 00ec 1B78     		ldrb	r3, [r3]
 778 00ee DBB2     		uxtb	r3, r3
 779 00f0 03F00103 		and	r3, r3, #1
 780 00f4 002B     		cmp	r3, #0
 781 00f6 F8D1     		bne	.L13
 638:Generated_Source\PSoC5/cyfitter_cfg.c **** 	while(0u != (CY_GET_REG8((void CYXDATA *)CYREG_PHUB_CH6_BASIC_STATUS) & 0x01u)){}
 782              		.loc 1 638 0 is_stmt 1
 783 00f8 00BF     		nop
 784              	.L14:
 785              		.loc 1 638 0 is_stmt 0 discriminator 1
ARM GAS  C:\Users\rens_\AppData\Local\Temp\cc35mTjg.s 			page 26


 786 00fa 1F4B     		ldr	r3, .L15+92
 787 00fc 1B78     		ldrb	r3, [r3]
 788 00fe DBB2     		uxtb	r3, r3
 789 0100 03F00103 		and	r3, r3, #1
 790 0104 002B     		cmp	r3, #0
 791 0106 F8D1     		bne	.L14
 639:Generated_Source\PSoC5/cyfitter_cfg.c **** 
 640:Generated_Source\PSoC5/cyfitter_cfg.c **** 
 641:Generated_Source\PSoC5/cyfitter_cfg.c **** 	CYCONFIGCPY((void CYFAR *)(CYREG_IDMUX_DRQ_CTL0), (const void CYFAR *)(BS_IDMUX_VAL), 6u);
 792              		.loc 1 641 0 is_stmt 1
 793 0108 0622     		movs	r2, #6
 794 010a 4FF09041 		mov	r1, #1207959552
 795 010e 1B48     		ldr	r0, .L15+96
 796 0110 FFF7FEFF 		bl	CYCONFIGCPY
 642:Generated_Source\PSoC5/cyfitter_cfg.c **** 
 643:Generated_Source\PSoC5/cyfitter_cfg.c **** }
 797              		.loc 1 643 0
 798 0114 00BF     		nop
 799 0116 0837     		adds	r7, r7, #8
 800              		.cfi_def_cfa_offset 8
 801 0118 BD46     		mov	sp, r7
 802              		.cfi_def_cfa_register 13
 803              		@ sp needed
 804 011a 80BD     		pop	{r7, pc}
 805              	.L16:
 806              		.align	2
 807              	.L15:
 808 011c 00000000 		.word	DMA_ZERO_VAL.4966
 809 0120 00760040 		.word	1073772032
 810 0124 10700040 		.word	1073770512
 811 0128 19700040 		.word	1073770521
 812 012c 00780040 		.word	1073772544
 813 0130 02780040 		.word	1073772546
 814 0134 03780040 		.word	1073772547
 815 0138 04780040 		.word	1073772548
 816 013c 28000000 		.word	CFG_TD_LIST0.4967
 817 0140 06780040 		.word	1073772550
 818 0144 04760040 		.word	1073772036
 819 0148 06760040 		.word	1073772038
 820 014c 29700040 		.word	1073770537
 821 0150 39700040 		.word	1073770553
 822 0154 69700040 		.word	1073770601
 823 0158 79700040 		.word	1073770617
 824 015c 14700040 		.word	1073770516
 825 0160 0C780040 		.word	1073772556
 826 0164 00000000 		.word	CFG_TD_ADDR0.4968
 827 0168 18700040 		.word	1073770520
 828 016c 28700040 		.word	1073770536
 829 0170 38700040 		.word	1073770552
 830 0174 68700040 		.word	1073770600
 831 0178 78700040 		.word	1073770616
 832 017c 10510140 		.word	1073828112
 833              		.cfi_endproc
 834              	.LFE4:
 835              		.size	cfg_dma_init, .-cfg_dma_init
 836              		.section	.text.ClockSetup,"ax",%progbits
 837              		.align	2
ARM GAS  C:\Users\rens_\AppData\Local\Temp\cc35mTjg.s 			page 27


 838              		.thumb
 839              		.thumb_func
 840              		.type	ClockSetup, %function
 841              	ClockSetup:
 842              	.LFB5:
 644:Generated_Source\PSoC5/cyfitter_cfg.c **** /*******************************************************************************
 645:Generated_Source\PSoC5/cyfitter_cfg.c **** * Function Name: ClockSetup
 646:Generated_Source\PSoC5/cyfitter_cfg.c **** ********************************************************************************
 647:Generated_Source\PSoC5/cyfitter_cfg.c **** *
 648:Generated_Source\PSoC5/cyfitter_cfg.c **** * Summary:
 649:Generated_Source\PSoC5/cyfitter_cfg.c **** *  Performs the initialization of all of the clocks in the device based on the
 650:Generated_Source\PSoC5/cyfitter_cfg.c **** *  settings in the Clock tab of the DWR.  This includes enabling the requested
 651:Generated_Source\PSoC5/cyfitter_cfg.c **** *  clocks and setting the necessary dividers to produce the desired frequency. 
 652:Generated_Source\PSoC5/cyfitter_cfg.c **** *
 653:Generated_Source\PSoC5/cyfitter_cfg.c **** * Parameters:
 654:Generated_Source\PSoC5/cyfitter_cfg.c **** *  void
 655:Generated_Source\PSoC5/cyfitter_cfg.c **** *
 656:Generated_Source\PSoC5/cyfitter_cfg.c **** * Return:
 657:Generated_Source\PSoC5/cyfitter_cfg.c **** *  void
 658:Generated_Source\PSoC5/cyfitter_cfg.c **** *
 659:Generated_Source\PSoC5/cyfitter_cfg.c **** *******************************************************************************/
 660:Generated_Source\PSoC5/cyfitter_cfg.c **** static void ClockSetup(void);
 661:Generated_Source\PSoC5/cyfitter_cfg.c **** static void ClockSetup(void)
 662:Generated_Source\PSoC5/cyfitter_cfg.c **** {
 843              		.loc 1 662 0
 844              		.cfi_startproc
 845              		@ args = 0, pretend = 0, frame = 8
 846              		@ frame_needed = 1, uses_anonymous_args = 0
 847 0000 80B5     		push	{r7, lr}
 848              		.cfi_def_cfa_offset 8
 849              		.cfi_offset 7, -8
 850              		.cfi_offset 14, -4
 851 0002 82B0     		sub	sp, sp, #8
 852              		.cfi_def_cfa_offset 16
 853 0004 00AF     		add	r7, sp, #0
 854              		.cfi_def_cfa_register 7
 663:Generated_Source\PSoC5/cyfitter_cfg.c **** 	uint32 timeout;
 664:Generated_Source\PSoC5/cyfitter_cfg.c **** 	uint8 pllLock;
 665:Generated_Source\PSoC5/cyfitter_cfg.c **** 
 666:Generated_Source\PSoC5/cyfitter_cfg.c **** 
 667:Generated_Source\PSoC5/cyfitter_cfg.c **** 	/* Configure Digital Clocks based on settings from Clock DWR */
 668:Generated_Source\PSoC5/cyfitter_cfg.c **** 	CY_SET_XTND_REG16((void CYFAR *)(CYREG_CLKDIST_DCFG0_CFG0), 0x0000u);
 855              		.loc 1 668 0
 856 0006 484B     		ldr	r3, .L22
 857 0008 0022     		movs	r2, #0
 858 000a 1A80     		strh	r2, [r3]	@ movhi
 669:Generated_Source\PSoC5/cyfitter_cfg.c **** 	CY_SET_XTND_REG8((void CYFAR *)(CYREG_CLKDIST_DCFG0_CFG0 + 0x2u), 0x50u);
 859              		.loc 1 669 0
 860 000c 474B     		ldr	r3, .L22+4
 861 000e 5022     		movs	r2, #80
 862 0010 1A70     		strb	r2, [r3]
 670:Generated_Source\PSoC5/cyfitter_cfg.c **** 	CY_SET_XTND_REG16((void CYFAR *)(CYREG_CLKDIST_DCFG1_CFG0), 0x0000u);
 863              		.loc 1 670 0
 864 0012 474B     		ldr	r3, .L22+8
 865 0014 0022     		movs	r2, #0
 866 0016 1A80     		strh	r2, [r3]	@ movhi
 671:Generated_Source\PSoC5/cyfitter_cfg.c **** 	CY_SET_XTND_REG8((void CYFAR *)(CYREG_CLKDIST_DCFG1_CFG0 + 0x2u), 0x50u);
ARM GAS  C:\Users\rens_\AppData\Local\Temp\cc35mTjg.s 			page 28


 867              		.loc 1 671 0
 868 0018 464B     		ldr	r3, .L22+12
 869 001a 5022     		movs	r2, #80
 870 001c 1A70     		strb	r2, [r3]
 672:Generated_Source\PSoC5/cyfitter_cfg.c **** 	CY_SET_XTND_REG16((void CYFAR *)(CYREG_CLKDIST_DCFG2_CFG0), 0x000Bu);
 871              		.loc 1 672 0
 872 001e 464B     		ldr	r3, .L22+16
 873 0020 0B22     		movs	r2, #11
 874 0022 1A80     		strh	r2, [r3]	@ movhi
 673:Generated_Source\PSoC5/cyfitter_cfg.c **** 	CY_SET_XTND_REG8((void CYFAR *)(CYREG_CLKDIST_DCFG2_CFG0 + 0x2u), 0x18u);
 875              		.loc 1 673 0
 876 0024 454B     		ldr	r3, .L22+20
 877 0026 1822     		movs	r2, #24
 878 0028 1A70     		strb	r2, [r3]
 674:Generated_Source\PSoC5/cyfitter_cfg.c **** 	CY_SET_XTND_REG16((void CYFAR *)(CYREG_CLKDIST_DCFG3_CFG0), 0x0019u);
 879              		.loc 1 674 0
 880 002a 454B     		ldr	r3, .L22+24
 881 002c 1922     		movs	r2, #25
 882 002e 1A80     		strh	r2, [r3]	@ movhi
 675:Generated_Source\PSoC5/cyfitter_cfg.c **** 	CY_SET_XTND_REG8((void CYFAR *)(CYREG_CLKDIST_DCFG3_CFG0 + 0x2u), 0x18u);
 883              		.loc 1 675 0
 884 0030 444B     		ldr	r3, .L22+28
 885 0032 1822     		movs	r2, #24
 886 0034 1A70     		strb	r2, [r3]
 676:Generated_Source\PSoC5/cyfitter_cfg.c **** 	CY_SET_XTND_REG16((void CYFAR *)(CYREG_CLKDIST_DCFG4_CFG0), 0x012Bu);
 887              		.loc 1 676 0
 888 0036 444B     		ldr	r3, .L22+32
 889 0038 40F22B12 		movw	r2, #299
 890 003c 1A80     		strh	r2, [r3]	@ movhi
 677:Generated_Source\PSoC5/cyfitter_cfg.c **** 	CY_SET_XTND_REG8((void CYFAR *)(CYREG_CLKDIST_DCFG4_CFG0 + 0x2u), 0x19u);
 891              		.loc 1 677 0
 892 003e 434B     		ldr	r3, .L22+36
 893 0040 1922     		movs	r2, #25
 894 0042 1A70     		strb	r2, [r3]
 678:Generated_Source\PSoC5/cyfitter_cfg.c **** 
 679:Generated_Source\PSoC5/cyfitter_cfg.c **** 	/* Configure Analog Clocks based on settings from Clock DWR */
 680:Generated_Source\PSoC5/cyfitter_cfg.c **** 	CYCONFIGCPY((void CYFAR *)(CYREG_CLKDIST_ACFG0_CFG0), (const void CYFAR *)(BS_CYDEV_CLKDIST_ACFG0_
 895              		.loc 1 680 0
 896 0044 0822     		movs	r2, #8
 897 0046 4249     		ldr	r1, .L22+40
 898 0048 4248     		ldr	r0, .L22+44
 899 004a FFF7FEFF 		bl	CYCONFIGCPY
 681:Generated_Source\PSoC5/cyfitter_cfg.c **** 
 682:Generated_Source\PSoC5/cyfitter_cfg.c **** 	/* Configure ILO based on settings from Clock DWR */
 683:Generated_Source\PSoC5/cyfitter_cfg.c **** 	CY_SET_XTND_REG8((void CYFAR *)(CYREG_SLOWCLK_ILO_CR0), 0x02u);
 900              		.loc 1 683 0
 901 004e 424B     		ldr	r3, .L22+48
 902 0050 0222     		movs	r2, #2
 903 0052 1A70     		strb	r2, [r3]
 684:Generated_Source\PSoC5/cyfitter_cfg.c **** 	CY_SET_XTND_REG8((void CYFAR *)(CYREG_CLKDIST_CR), 0x08u);
 904              		.loc 1 684 0
 905 0054 4FF04023 		mov	r3, #1073758208
 906 0058 0822     		movs	r2, #8
 907 005a 1A70     		strb	r2, [r3]
 685:Generated_Source\PSoC5/cyfitter_cfg.c **** 
 686:Generated_Source\PSoC5/cyfitter_cfg.c **** 	/* Configure IMO based on settings from Clock DWR */
 687:Generated_Source\PSoC5/cyfitter_cfg.c **** 	CY_SET_XTND_REG8((void CYFAR *)(CYREG_FASTCLK_IMO_CR), 0x03u);
ARM GAS  C:\Users\rens_\AppData\Local\Temp\cc35mTjg.s 			page 29


 908              		.loc 1 687 0
 909 005c 3F4B     		ldr	r3, .L22+52
 910 005e 0322     		movs	r2, #3
 911 0060 1A70     		strb	r2, [r3]
 688:Generated_Source\PSoC5/cyfitter_cfg.c **** 	CY_SET_XTND_REG8((void CYFAR *)(CYREG_IMO_TR1), (CY_GET_XTND_REG8((void CYFAR *)CYREG_FLSHID_CUST_
 912              		.loc 1 688 0
 913 0062 3F4B     		ldr	r3, .L22+56
 914 0064 3F4A     		ldr	r2, .L22+60
 915 0066 1278     		ldrb	r2, [r2]
 916 0068 D2B2     		uxtb	r2, r2
 917 006a 1A70     		strb	r2, [r3]
 689:Generated_Source\PSoC5/cyfitter_cfg.c **** 
 690:Generated_Source\PSoC5/cyfitter_cfg.c **** 	/* Configure PLL based on settings from Clock DWR */
 691:Generated_Source\PSoC5/cyfitter_cfg.c **** 	CY_SET_XTND_REG16((void CYFAR *)(CYREG_FASTCLK_PLL_P), 0x0008u);
 918              		.loc 1 691 0
 919 006c 3E4B     		ldr	r3, .L22+64
 920 006e 0822     		movs	r2, #8
 921 0070 1A80     		strh	r2, [r3]	@ movhi
 692:Generated_Source\PSoC5/cyfitter_cfg.c **** 	CY_SET_XTND_REG16((void CYFAR *)(CYREG_FASTCLK_PLL_CFG0), 0x1251u);
 922              		.loc 1 692 0
 923 0072 3E4B     		ldr	r3, .L22+68
 924 0074 41F25122 		movw	r2, #4689
 925 0078 1A80     		strh	r2, [r3]	@ movhi
 693:Generated_Source\PSoC5/cyfitter_cfg.c **** 	/* Wait up to 250us for the PLL to lock */
 694:Generated_Source\PSoC5/cyfitter_cfg.c **** 	pllLock = 0u;
 926              		.loc 1 694 0
 927 007a 0023     		movs	r3, #0
 928 007c FB70     		strb	r3, [r7, #3]
 695:Generated_Source\PSoC5/cyfitter_cfg.c **** 	for (timeout = 250u / 10u; (timeout > 0u) && (pllLock != 0x03u); timeout--)
 929              		.loc 1 695 0
 930 007e 1923     		movs	r3, #25
 931 0080 7B60     		str	r3, [r7, #4]
 932 0082 13E0     		b	.L18
 933              	.L20:
 696:Generated_Source\PSoC5/cyfitter_cfg.c **** 	{ 
 697:Generated_Source\PSoC5/cyfitter_cfg.c **** 		pllLock = 0x03u & ((uint8)((uint8)pllLock << 1) | ((CY_GET_XTND_REG8((void CYFAR *)CYREG_FASTCLK_
 934              		.loc 1 697 0 discriminator 4
 935 0084 FB78     		ldrb	r3, [r7, #3]
 936 0086 5B00     		lsls	r3, r3, #1
 937 0088 DAB2     		uxtb	r2, r3
 938 008a 394B     		ldr	r3, .L22+72
 939 008c 1B78     		ldrb	r3, [r3]
 940 008e DBB2     		uxtb	r3, r3
 941 0090 03F00103 		and	r3, r3, #1
 942 0094 DBB2     		uxtb	r3, r3
 943 0096 1343     		orrs	r3, r3, r2
 944 0098 DBB2     		uxtb	r3, r3
 945 009a 03F00303 		and	r3, r3, #3
 946 009e FB70     		strb	r3, [r7, #3]
 698:Generated_Source\PSoC5/cyfitter_cfg.c **** 		CyDelayCycles(10u * 12u); /* Delay 10us based on 12MHz clock */
 947              		.loc 1 698 0 discriminator 4
 948 00a0 7820     		movs	r0, #120
 949 00a2 FFF7FEFF 		bl	CyDelayCycles
 695:Generated_Source\PSoC5/cyfitter_cfg.c **** 	for (timeout = 250u / 10u; (timeout > 0u) && (pllLock != 0x03u); timeout--)
 950              		.loc 1 695 0 discriminator 4
 951 00a6 7B68     		ldr	r3, [r7, #4]
 952 00a8 013B     		subs	r3, r3, #1
ARM GAS  C:\Users\rens_\AppData\Local\Temp\cc35mTjg.s 			page 30


 953 00aa 7B60     		str	r3, [r7, #4]
 954              	.L18:
 695:Generated_Source\PSoC5/cyfitter_cfg.c **** 	for (timeout = 250u / 10u; (timeout > 0u) && (pllLock != 0x03u); timeout--)
 955              		.loc 1 695 0 is_stmt 0 discriminator 1
 956 00ac 7B68     		ldr	r3, [r7, #4]
 957 00ae 002B     		cmp	r3, #0
 958 00b0 02D0     		beq	.L19
 695:Generated_Source\PSoC5/cyfitter_cfg.c **** 	for (timeout = 250u / 10u; (timeout > 0u) && (pllLock != 0x03u); timeout--)
 959              		.loc 1 695 0 discriminator 3
 960 00b2 FB78     		ldrb	r3, [r7, #3]	@ zero_extendqisi2
 961 00b4 032B     		cmp	r3, #3
 962 00b6 E5D1     		bne	.L20
 963              	.L19:
 699:Generated_Source\PSoC5/cyfitter_cfg.c **** 	}
 700:Generated_Source\PSoC5/cyfitter_cfg.c **** 	/* If we ran out of time the PLL didn't lock so go to the error function */
 701:Generated_Source\PSoC5/cyfitter_cfg.c **** 	if (timeout == 0u)
 964              		.loc 1 701 0 is_stmt 1
 965 00b8 7B68     		ldr	r3, [r7, #4]
 966 00ba 002B     		cmp	r3, #0
 967 00bc 02D1     		bne	.L21
 702:Generated_Source\PSoC5/cyfitter_cfg.c **** 	{
 703:Generated_Source\PSoC5/cyfitter_cfg.c **** 		CyClockStartupError(CYCLOCKSTART_PLL_ERROR);
 968              		.loc 1 703 0
 969 00be 0320     		movs	r0, #3
 970 00c0 FFF7FEFF 		bl	CyClockStartupError
 971              	.L21:
 704:Generated_Source\PSoC5/cyfitter_cfg.c **** 	}
 705:Generated_Source\PSoC5/cyfitter_cfg.c **** 
 706:Generated_Source\PSoC5/cyfitter_cfg.c **** 	/* Configure Bus/Master Clock based on settings from Clock DWR */
 707:Generated_Source\PSoC5/cyfitter_cfg.c **** 	CY_SET_XTND_REG16((void CYFAR *)(CYREG_CLKDIST_MSTR0), 0x0100u);
 972              		.loc 1 707 0
 973 00c4 2B4B     		ldr	r3, .L22+76
 974 00c6 4FF48072 		mov	r2, #256
 975 00ca 1A80     		strh	r2, [r3]	@ movhi
 708:Generated_Source\PSoC5/cyfitter_cfg.c **** 	CY_SET_XTND_REG8((void CYFAR *)(CYREG_CLKDIST_MSTR0), 0x07u);
 976              		.loc 1 708 0
 977 00cc 294B     		ldr	r3, .L22+76
 978 00ce 0722     		movs	r2, #7
 979 00d0 1A70     		strb	r2, [r3]
 709:Generated_Source\PSoC5/cyfitter_cfg.c **** 	CY_SET_XTND_REG8((void CYFAR *)(CYREG_CLKDIST_BCFG0), 0x00u);
 980              		.loc 1 709 0
 981 00d2 294B     		ldr	r3, .L22+80
 982 00d4 0022     		movs	r2, #0
 983 00d6 1A70     		strb	r2, [r3]
 710:Generated_Source\PSoC5/cyfitter_cfg.c **** 	CY_SET_XTND_REG8((void CYFAR *)(CYREG_CLKDIST_BCFG2), 0x48u);
 984              		.loc 1 710 0
 985 00d8 284B     		ldr	r3, .L22+84
 986 00da 4822     		movs	r2, #72
 987 00dc 1A70     		strb	r2, [r3]
 711:Generated_Source\PSoC5/cyfitter_cfg.c **** 	CY_SET_XTND_REG8((void CYFAR *)(CYREG_CLKDIST_MSTR0), 0x00u);
 988              		.loc 1 711 0
 989 00de 254B     		ldr	r3, .L22+76
 990 00e0 0022     		movs	r2, #0
 991 00e2 1A70     		strb	r2, [r3]
 712:Generated_Source\PSoC5/cyfitter_cfg.c **** 	CY_SET_XTND_REG8((void CYFAR *)(CYREG_CLKDIST_LD), 0x02u);
 992              		.loc 1 712 0
 993 00e4 264B     		ldr	r3, .L22+88
ARM GAS  C:\Users\rens_\AppData\Local\Temp\cc35mTjg.s 			page 31


 994 00e6 0222     		movs	r2, #2
 995 00e8 1A70     		strb	r2, [r3]
 713:Generated_Source\PSoC5/cyfitter_cfg.c **** 	CY_SET_XTND_REG8((void CYFAR *)(CYREG_CLKDIST_DLY1), 0x04u);
 996              		.loc 1 713 0
 997 00ea 264B     		ldr	r3, .L22+92
 998 00ec 0422     		movs	r2, #4
 999 00ee 1A70     		strb	r2, [r3]
 714:Generated_Source\PSoC5/cyfitter_cfg.c **** 
 715:Generated_Source\PSoC5/cyfitter_cfg.c **** 	CY_SET_XTND_REG8((void CYFAR *)(CYREG_PM_ACT_CFG2), ((CY_GET_XTND_REG8((void CYFAR *)CYREG_PM_ACT_
 1000              		.loc 1 715 0
 1001 00f0 254A     		ldr	r2, .L22+96
 1002 00f2 254B     		ldr	r3, .L22+96
 1003 00f4 1B78     		ldrb	r3, [r3]
 1004 00f6 DBB2     		uxtb	r3, r3
 1005 00f8 43F01F03 		orr	r3, r3, #31
 1006 00fc DBB2     		uxtb	r3, r3
 1007 00fe 1370     		strb	r3, [r2]
 716:Generated_Source\PSoC5/cyfitter_cfg.c **** 	CY_SET_XTND_REG8((void CYFAR *)(CYREG_PM_ACT_CFG1), ((CY_GET_XTND_REG8((void CYFAR *)CYREG_PM_ACT_
 1008              		.loc 1 716 0
 1009 0100 224A     		ldr	r2, .L22+100
 1010 0102 224B     		ldr	r3, .L22+100
 1011 0104 1B78     		ldrb	r3, [r3]
 1012 0106 DBB2     		uxtb	r3, r3
 1013 0108 43F00303 		orr	r3, r3, #3
 1014 010c DBB2     		uxtb	r3, r3
 1015 010e 1370     		strb	r3, [r2]
 717:Generated_Source\PSoC5/cyfitter_cfg.c **** 	CY_SET_XTND_REG8((void CYFAR *)(CYREG_PM_ACT_CFG0), ((CY_GET_XTND_REG8((void CYFAR *)CYREG_PM_ACT_
 1016              		.loc 1 717 0
 1017 0110 1F4A     		ldr	r2, .L22+104
 1018 0112 1F4B     		ldr	r3, .L22+104
 1019 0114 1B78     		ldrb	r3, [r3]
 1020 0116 DBB2     		uxtb	r3, r3
 1021 0118 63F07F03 		orn	r3, r3, #127
 1022 011c DBB2     		uxtb	r3, r3
 1023 011e 1370     		strb	r3, [r2]
 718:Generated_Source\PSoC5/cyfitter_cfg.c **** }
 1024              		.loc 1 718 0
 1025 0120 00BF     		nop
 1026 0122 0837     		adds	r7, r7, #8
 1027              		.cfi_def_cfa_offset 8
 1028 0124 BD46     		mov	sp, r7
 1029              		.cfi_def_cfa_register 13
 1030              		@ sp needed
 1031 0126 80BD     		pop	{r7, pc}
 1032              	.L23:
 1033              		.align	2
 1034              	.L22:
 1035 0128 80400040 		.word	1073758336
 1036 012c 82400040 		.word	1073758338
 1037 0130 84400040 		.word	1073758340
 1038 0134 86400040 		.word	1073758342
 1039 0138 88400040 		.word	1073758344
 1040 013c 8A400040 		.word	1073758346
 1041 0140 8C400040 		.word	1073758348
 1042 0144 8E400040 		.word	1073758350
 1043 0148 90400040 		.word	1073758352
 1044 014c 92400040 		.word	1073758354
ARM GAS  C:\Users\rens_\AppData\Local\Temp\cc35mTjg.s 			page 32


 1045 0150 74180048 		.word	1207965812
 1046 0154 00410040 		.word	1073758464
 1047 0158 00430040 		.word	1073758976
 1048 015c 00420040 		.word	1073758720
 1049 0160 A1460040 		.word	1073759905
 1050 0164 08010049 		.word	1224737032
 1051 0168 22420040 		.word	1073758754
 1052 016c 20420040 		.word	1073758752
 1053 0170 25420040 		.word	1073758757
 1054 0174 04400040 		.word	1073758212
 1055 0178 06400040 		.word	1073758214
 1056 017c 08400040 		.word	1073758216
 1057 0180 01400040 		.word	1073758209
 1058 0184 0B400040 		.word	1073758219
 1059 0188 A2430040 		.word	1073759138
 1060 018c A1430040 		.word	1073759137
 1061 0190 A0430040 		.word	1073759136
 1062              		.cfi_endproc
 1063              	.LFE5:
 1064              		.size	ClockSetup, .-ClockSetup
 1065              		.section	.text.AnalogSetDefault,"ax",%progbits
 1066              		.align	2
 1067              		.thumb
 1068              		.thumb_func
 1069              		.type	AnalogSetDefault, %function
 1070              	AnalogSetDefault:
 1071              	.LFB6:
 719:Generated_Source\PSoC5/cyfitter_cfg.c **** 
 720:Generated_Source\PSoC5/cyfitter_cfg.c **** 
 721:Generated_Source\PSoC5/cyfitter_cfg.c **** /* Analog API Functions */
 722:Generated_Source\PSoC5/cyfitter_cfg.c **** 
 723:Generated_Source\PSoC5/cyfitter_cfg.c **** 
 724:Generated_Source\PSoC5/cyfitter_cfg.c **** /*******************************************************************************
 725:Generated_Source\PSoC5/cyfitter_cfg.c **** * Function Name: AnalogSetDefault
 726:Generated_Source\PSoC5/cyfitter_cfg.c **** ********************************************************************************
 727:Generated_Source\PSoC5/cyfitter_cfg.c **** *
 728:Generated_Source\PSoC5/cyfitter_cfg.c **** * Summary:
 729:Generated_Source\PSoC5/cyfitter_cfg.c **** *  Sets up the analog portions of the chip to default values based on chip
 730:Generated_Source\PSoC5/cyfitter_cfg.c **** *  configuration options from the project.
 731:Generated_Source\PSoC5/cyfitter_cfg.c **** *
 732:Generated_Source\PSoC5/cyfitter_cfg.c **** * Parameters:
 733:Generated_Source\PSoC5/cyfitter_cfg.c **** *  void
 734:Generated_Source\PSoC5/cyfitter_cfg.c **** *
 735:Generated_Source\PSoC5/cyfitter_cfg.c **** * Return:
 736:Generated_Source\PSoC5/cyfitter_cfg.c **** *  void
 737:Generated_Source\PSoC5/cyfitter_cfg.c **** *
 738:Generated_Source\PSoC5/cyfitter_cfg.c **** *******************************************************************************/
 739:Generated_Source\PSoC5/cyfitter_cfg.c **** static void AnalogSetDefault(void);
 740:Generated_Source\PSoC5/cyfitter_cfg.c **** static void AnalogSetDefault(void)
 741:Generated_Source\PSoC5/cyfitter_cfg.c **** {
 1072              		.loc 1 741 0
 1073              		.cfi_startproc
 1074              		@ args = 0, pretend = 0, frame = 8
 1075              		@ frame_needed = 1, uses_anonymous_args = 0
 1076 0000 80B5     		push	{r7, lr}
 1077              		.cfi_def_cfa_offset 8
 1078              		.cfi_offset 7, -8
ARM GAS  C:\Users\rens_\AppData\Local\Temp\cc35mTjg.s 			page 33


 1079              		.cfi_offset 14, -4
 1080 0002 82B0     		sub	sp, sp, #8
 1081              		.cfi_def_cfa_offset 16
 1082 0004 00AF     		add	r7, sp, #0
 1083              		.cfi_def_cfa_register 7
 742:Generated_Source\PSoC5/cyfitter_cfg.c **** 	uint8 bg_xover_inl_trim = CY_GET_XTND_REG8((void CYFAR *)(CYREG_FLSHID_MFG_CFG_BG_XOVER_INL_TRIM +
 1084              		.loc 1 742 0
 1085 0006 3C4B     		ldr	r3, .L25
 1086 0008 1B78     		ldrb	r3, [r3]
 1087 000a FB71     		strb	r3, [r7, #7]
 743:Generated_Source\PSoC5/cyfitter_cfg.c **** 	uint8 cr4 = CY_GET_XTND_REG8((void CYFAR *)(CYREG_RESET_CR4));
 1088              		.loc 1 743 0
 1089 000c 3B4B     		ldr	r3, .L25+4
 1090 000e 1B78     		ldrb	r3, [r3]
 1091 0010 BB71     		strb	r3, [r7, #6]
 744:Generated_Source\PSoC5/cyfitter_cfg.c **** 	uint8 cr5 = CY_GET_XTND_REG8((void CYFAR *)(CYREG_RESET_CR5));
 1092              		.loc 1 744 0
 1093 0012 3B4B     		ldr	r3, .L25+8
 1094 0014 1B78     		ldrb	r3, [r3]
 1095 0016 7B71     		strb	r3, [r7, #5]
 745:Generated_Source\PSoC5/cyfitter_cfg.c **** 	CY_SET_XTND_REG8((void CYFAR *)(CYREG_BG_DFT0), (bg_xover_inl_trim & 0x07u));
 1096              		.loc 1 745 0
 1097 0018 3A4A     		ldr	r2, .L25+12
 1098 001a FB79     		ldrb	r3, [r7, #7]
 1099 001c 03F00703 		and	r3, r3, #7
 1100 0020 DBB2     		uxtb	r3, r3
 1101 0022 1370     		strb	r3, [r2]
 746:Generated_Source\PSoC5/cyfitter_cfg.c **** 	CY_SET_XTND_REG8((void CYFAR *)(CYREG_BG_DFT1), ((bg_xover_inl_trim >> 4) & 0x0Fu));
 1102              		.loc 1 746 0
 1103 0024 384A     		ldr	r2, .L25+16
 1104 0026 FB79     		ldrb	r3, [r7, #7]	@ zero_extendqisi2
 1105 0028 1B09     		lsrs	r3, r3, #4
 1106 002a DBB2     		uxtb	r3, r3
 1107 002c 1370     		strb	r3, [r2]
 747:Generated_Source\PSoC5/cyfitter_cfg.c **** 	/* Disable PRES while setting up SAR voltage reference */
 748:Generated_Source\PSoC5/cyfitter_cfg.c **** 	CY_SET_XTND_REG8((void CYFAR *)(CYREG_RESET_CR4), (cr4 | 0x03u));
 1108              		.loc 1 748 0
 1109 002e 334A     		ldr	r2, .L25+4
 1110 0030 BB79     		ldrb	r3, [r7, #6]
 1111 0032 43F00303 		orr	r3, r3, #3
 1112 0036 DBB2     		uxtb	r3, r3
 1113 0038 1370     		strb	r3, [r2]
 749:Generated_Source\PSoC5/cyfitter_cfg.c **** 	CY_SET_XTND_REG8((void CYFAR *)(CYREG_RESET_CR5), (cr5 | 0x03u));
 1114              		.loc 1 749 0
 1115 003a 314A     		ldr	r2, .L25+8
 1116 003c 7B79     		ldrb	r3, [r7, #5]
 1117 003e 43F00303 		orr	r3, r3, #3
 1118 0042 DBB2     		uxtb	r3, r3
 1119 0044 1370     		strb	r3, [r2]
 750:Generated_Source\PSoC5/cyfitter_cfg.c **** 	CY_SET_XTND_REG8((void CYFAR *)CYREG_PRT0_AG, 0x03u);
 1120              		.loc 1 750 0
 1121 0046 314B     		ldr	r3, .L25+20
 1122 0048 0322     		movs	r2, #3
 1123 004a 1A70     		strb	r2, [r3]
 751:Generated_Source\PSoC5/cyfitter_cfg.c **** 	CY_SET_XTND_REG16((void CYFAR *)CYREG_PRT15_AMUX, 0x0102u);
 1124              		.loc 1 751 0
 1125 004c 304B     		ldr	r3, .L25+24
ARM GAS  C:\Users\rens_\AppData\Local\Temp\cc35mTjg.s 			page 34


 1126 004e 4FF48172 		mov	r2, #258
 1127 0052 1A80     		strh	r2, [r3]	@ movhi
 752:Generated_Source\PSoC5/cyfitter_cfg.c **** 	CY_SET_XTND_REG8((void CYFAR *)CYREG_SAR0_CSR1, 0x80u);
 1128              		.loc 1 752 0
 1129 0054 2F4B     		ldr	r3, .L25+28
 1130 0056 8022     		movs	r2, #128
 1131 0058 1A70     		strb	r2, [r3]
 753:Generated_Source\PSoC5/cyfitter_cfg.c **** 	CY_SET_XTND_REG8((void CYFAR *)CYREG_SAR1_CSR1, 0x80u);
 1132              		.loc 1 753 0
 1133 005a 2F4B     		ldr	r3, .L25+32
 1134 005c 8022     		movs	r2, #128
 1135 005e 1A70     		strb	r2, [r3]
 754:Generated_Source\PSoC5/cyfitter_cfg.c **** 	CY_SET_XTND_REG8((void CYFAR *)CYREG_SC0_SW0, 0x20u);
 1136              		.loc 1 754 0
 1137 0060 2E4B     		ldr	r3, .L25+36
 1138 0062 2022     		movs	r2, #32
 1139 0064 1A70     		strb	r2, [r3]
 755:Generated_Source\PSoC5/cyfitter_cfg.c **** 	CY_SET_XTND_REG8((void CYFAR *)CYREG_SC0_SW4, 0x40u);
 1140              		.loc 1 755 0
 1141 0066 2E4B     		ldr	r3, .L25+40
 1142 0068 4022     		movs	r2, #64
 1143 006a 1A70     		strb	r2, [r3]
 756:Generated_Source\PSoC5/cyfitter_cfg.c **** 	CY_SET_XTND_REG8((void CYFAR *)CYREG_SC1_SW0, 0x10u);
 1144              		.loc 1 756 0
 1145 006c 2D4B     		ldr	r3, .L25+44
 1146 006e 1022     		movs	r2, #16
 1147 0070 1A70     		strb	r2, [r3]
 757:Generated_Source\PSoC5/cyfitter_cfg.c **** 	CY_SET_XTND_REG8((void CYFAR *)CYREG_SC1_SW7, 0x04u);
 1148              		.loc 1 757 0
 1149 0072 2D4B     		ldr	r3, .L25+48
 1150 0074 0422     		movs	r2, #4
 1151 0076 1A70     		strb	r2, [r3]
 758:Generated_Source\PSoC5/cyfitter_cfg.c **** 	CY_SET_XTND_REG8((void CYFAR *)CYREG_SC2_SW0, 0x10u);
 1152              		.loc 1 758 0
 1153 0078 2C4B     		ldr	r3, .L25+52
 1154 007a 1022     		movs	r2, #16
 1155 007c 1A70     		strb	r2, [r3]
 759:Generated_Source\PSoC5/cyfitter_cfg.c **** 	CY_SET_XTND_REG8((void CYFAR *)CYREG_SC2_SW4, 0x80u);
 1156              		.loc 1 759 0
 1157 007e 2C4B     		ldr	r3, .L25+56
 1158 0080 8022     		movs	r2, #128
 1159 0082 1A70     		strb	r2, [r3]
 760:Generated_Source\PSoC5/cyfitter_cfg.c **** 	CY_SET_XTND_REG8((void CYFAR *)CYREG_SC2_SW8, 0x04u);
 1160              		.loc 1 760 0
 1161 0084 2B4B     		ldr	r3, .L25+60
 1162 0086 0422     		movs	r2, #4
 1163 0088 1A70     		strb	r2, [r3]
 761:Generated_Source\PSoC5/cyfitter_cfg.c **** 	CY_SET_XTND_REG8((void CYFAR *)CYREG_SC3_SW3, 0x01u);
 1164              		.loc 1 761 0
 1165 008a 2B4B     		ldr	r3, .L25+64
 1166 008c 0122     		movs	r2, #1
 1167 008e 1A70     		strb	r2, [r3]
 762:Generated_Source\PSoC5/cyfitter_cfg.c **** 	CY_SET_XTND_REG8((void CYFAR *)CYREG_SC3_SW7, 0x04u);
 1168              		.loc 1 762 0
 1169 0090 2A4B     		ldr	r3, .L25+68
 1170 0092 0422     		movs	r2, #4
 1171 0094 1A70     		strb	r2, [r3]
ARM GAS  C:\Users\rens_\AppData\Local\Temp\cc35mTjg.s 			page 35


 763:Generated_Source\PSoC5/cyfitter_cfg.c **** 	CY_SET_XTND_REG8((void CYFAR *)CYREG_CMP0_SW0, 0x10u);
 1172              		.loc 1 763 0
 1173 0096 2A4B     		ldr	r3, .L25+72
 1174 0098 1022     		movs	r2, #16
 1175 009a 1A70     		strb	r2, [r3]
 764:Generated_Source\PSoC5/cyfitter_cfg.c **** 	CY_SET_XTND_REG8((void CYFAR *)CYREG_CMP0_SW4, 0x04u);
 1176              		.loc 1 764 0
 1177 009c 294B     		ldr	r3, .L25+76
 1178 009e 0422     		movs	r2, #4
 1179 00a0 1A70     		strb	r2, [r3]
 765:Generated_Source\PSoC5/cyfitter_cfg.c **** 	CY_SET_XTND_REG8((void CYFAR *)CYREG_CMP1_SW0, 0x20u);
 1180              		.loc 1 765 0
 1181 00a2 294B     		ldr	r3, .L25+80
 1182 00a4 2022     		movs	r2, #32
 1183 00a6 1A70     		strb	r2, [r3]
 766:Generated_Source\PSoC5/cyfitter_cfg.c **** 	CY_SET_XTND_REG8((void CYFAR *)CYREG_CMP1_SW4, 0x10u);
 1184              		.loc 1 766 0
 1185 00a8 284B     		ldr	r3, .L25+84
 1186 00aa 1022     		movs	r2, #16
 1187 00ac 1A70     		strb	r2, [r3]
 767:Generated_Source\PSoC5/cyfitter_cfg.c **** 	CY_SET_XTND_REG8((void CYFAR *)CYREG_DSM0_SW0, 0xC0u);
 1188              		.loc 1 767 0
 1189 00ae 284B     		ldr	r3, .L25+88
 1190 00b0 C022     		movs	r2, #192
 1191 00b2 1A70     		strb	r2, [r3]
 768:Generated_Source\PSoC5/cyfitter_cfg.c **** 	CY_SET_XTND_REG8((void CYFAR *)CYREG_DSM0_SW3, 0x04u);
 1192              		.loc 1 768 0
 1193 00b4 274B     		ldr	r3, .L25+92
 1194 00b6 0422     		movs	r2, #4
 1195 00b8 1A70     		strb	r2, [r3]
 769:Generated_Source\PSoC5/cyfitter_cfg.c **** 	CY_SET_XTND_REG8((void CYFAR *)CYREG_SAR0_SW0, 0x04u);
 1196              		.loc 1 769 0
 1197 00ba 274B     		ldr	r3, .L25+96
 1198 00bc 0422     		movs	r2, #4
 1199 00be 1A70     		strb	r2, [r3]
 770:Generated_Source\PSoC5/cyfitter_cfg.c **** 	CY_SET_XTND_REG8((void CYFAR *)CYREG_SAR0_SW3, 0x20u);
 1200              		.loc 1 770 0
 1201 00c0 264B     		ldr	r3, .L25+100
 1202 00c2 2022     		movs	r2, #32
 1203 00c4 1A70     		strb	r2, [r3]
 771:Generated_Source\PSoC5/cyfitter_cfg.c **** 	CY_SET_XTND_REG8((void CYFAR *)CYREG_SAR1_SW0, 0x10u);
 1204              		.loc 1 771 0
 1205 00c6 264B     		ldr	r3, .L25+104
 1206 00c8 1022     		movs	r2, #16
 1207 00ca 1A70     		strb	r2, [r3]
 772:Generated_Source\PSoC5/cyfitter_cfg.c **** 	CY_SET_XTND_REG8((void CYFAR *)CYREG_SAR1_SW3, 0x20u);
 1208              		.loc 1 772 0
 1209 00cc 254B     		ldr	r3, .L25+108
 1210 00ce 2022     		movs	r2, #32
 1211 00d0 1A70     		strb	r2, [r3]
 773:Generated_Source\PSoC5/cyfitter_cfg.c **** 	CY_SET_XTND_REG8((void CYFAR *)CYREG_BUS_SW0, 0x20u);
 1212              		.loc 1 773 0
 1213 00d2 254B     		ldr	r3, .L25+112
 1214 00d4 2022     		movs	r2, #32
 1215 00d6 1A70     		strb	r2, [r3]
 774:Generated_Source\PSoC5/cyfitter_cfg.c **** 	CyDelayUs(10u); /* Allow vref to settle before re-enabling PRES */
 1216              		.loc 1 774 0
ARM GAS  C:\Users\rens_\AppData\Local\Temp\cc35mTjg.s 			page 36


 1217 00d8 0A20     		movs	r0, #10
 1218 00da FFF7FEFF 		bl	CyDelayUs
 775:Generated_Source\PSoC5/cyfitter_cfg.c **** 	CY_SET_XTND_REG8((void CYFAR *)(CYREG_RESET_CR5), (cr5));
 1219              		.loc 1 775 0
 1220 00de 084A     		ldr	r2, .L25+8
 1221 00e0 7B79     		ldrb	r3, [r7, #5]
 1222 00e2 1370     		strb	r3, [r2]
 776:Generated_Source\PSoC5/cyfitter_cfg.c **** 	CY_SET_XTND_REG8((void CYFAR *)(CYREG_RESET_CR4), (cr4));
 1223              		.loc 1 776 0
 1224 00e4 054A     		ldr	r2, .L25+4
 1225 00e6 BB79     		ldrb	r3, [r7, #6]
 1226 00e8 1370     		strb	r3, [r2]
 777:Generated_Source\PSoC5/cyfitter_cfg.c **** 	CY_SET_XTND_REG8((void CYFAR *)CYREG_PUMP_CR0, 0x44u);
 1227              		.loc 1 777 0
 1228 00ea 204B     		ldr	r3, .L25+116
 1229 00ec 4422     		movs	r2, #68
 1230 00ee 1A70     		strb	r2, [r3]
 778:Generated_Source\PSoC5/cyfitter_cfg.c **** }
 1231              		.loc 1 778 0
 1232 00f0 00BF     		nop
 1233 00f2 0837     		adds	r7, r7, #8
 1234              		.cfi_def_cfa_offset 8
 1235 00f4 BD46     		mov	sp, r7
 1236              		.cfi_def_cfa_register 13
 1237              		@ sp needed
 1238 00f6 80BD     		pop	{r7, pc}
 1239              	.L26:
 1240              		.align	2
 1241              	.L25:
 1242 00f8 CF010049 		.word	1224737231
 1243 00fc F8460040 		.word	1073759992
 1244 0100 F9460040 		.word	1073759993
 1245 0104 6E580040 		.word	1073764462
 1246 0108 6F580040 		.word	1073764463
 1247 010c 0D510040 		.word	1073762573
 1248 0110 FC510040 		.word	1073762812
 1249 0114 01590040 		.word	1073764609
 1250 0118 09590040 		.word	1073764617
 1251 011c 005A0040 		.word	1073764864
 1252 0120 045A0040 		.word	1073764868
 1253 0124 105A0040 		.word	1073764880
 1254 0128 175A0040 		.word	1073764887
 1255 012c 205A0040 		.word	1073764896
 1256 0130 245A0040 		.word	1073764900
 1257 0134 285A0040 		.word	1073764904
 1258 0138 335A0040 		.word	1073764915
 1259 013c 375A0040 		.word	1073764919
 1260 0140 C05A0040 		.word	1073765056
 1261 0144 C45A0040 		.word	1073765060
 1262 0148 C85A0040 		.word	1073765064
 1263 014c CC5A0040 		.word	1073765068
 1264 0150 005B0040 		.word	1073765120
 1265 0154 035B0040 		.word	1073765123
 1266 0158 205B0040 		.word	1073765152
 1267 015c 235B0040 		.word	1073765155
 1268 0160 285B0040 		.word	1073765160
 1269 0164 2B5B0040 		.word	1073765163
ARM GAS  C:\Users\rens_\AppData\Local\Temp\cc35mTjg.s 			page 37


 1270 0168 585B0040 		.word	1073765208
 1271 016c 76580040 		.word	1073764470
 1272              		.cfi_endproc
 1273              	.LFE6:
 1274              		.size	AnalogSetDefault, .-AnalogSetDefault
 1275              		.section	.text.SetAnalogRoutingPumps,"ax",%progbits
 1276              		.align	2
 1277              		.global	SetAnalogRoutingPumps
 1278              		.thumb
 1279              		.thumb_func
 1280              		.type	SetAnalogRoutingPumps, %function
 1281              	SetAnalogRoutingPumps:
 1282              	.LFB7:
 779:Generated_Source\PSoC5/cyfitter_cfg.c **** 
 780:Generated_Source\PSoC5/cyfitter_cfg.c **** 
 781:Generated_Source\PSoC5/cyfitter_cfg.c **** /*******************************************************************************
 782:Generated_Source\PSoC5/cyfitter_cfg.c **** * Function Name: SetAnalogRoutingPumps
 783:Generated_Source\PSoC5/cyfitter_cfg.c **** ********************************************************************************
 784:Generated_Source\PSoC5/cyfitter_cfg.c **** *
 785:Generated_Source\PSoC5/cyfitter_cfg.c **** * Summary:
 786:Generated_Source\PSoC5/cyfitter_cfg.c **** * Enables or disables the analog pumps feeding analog routing switches.
 787:Generated_Source\PSoC5/cyfitter_cfg.c **** * Intended to be called at startup, based on the Vdda system configuration;
 788:Generated_Source\PSoC5/cyfitter_cfg.c **** * may be called during operation when the user informs us that the Vdda voltage
 789:Generated_Source\PSoC5/cyfitter_cfg.c **** * crossed the pump threshold.
 790:Generated_Source\PSoC5/cyfitter_cfg.c **** *
 791:Generated_Source\PSoC5/cyfitter_cfg.c **** * Parameters:
 792:Generated_Source\PSoC5/cyfitter_cfg.c **** *  enabled - 1 to enable the pumps, 0 to disable the pumps
 793:Generated_Source\PSoC5/cyfitter_cfg.c **** *
 794:Generated_Source\PSoC5/cyfitter_cfg.c **** * Return:
 795:Generated_Source\PSoC5/cyfitter_cfg.c **** *  void
 796:Generated_Source\PSoC5/cyfitter_cfg.c **** *
 797:Generated_Source\PSoC5/cyfitter_cfg.c **** *******************************************************************************/
 798:Generated_Source\PSoC5/cyfitter_cfg.c **** void SetAnalogRoutingPumps(uint8 enabled)
 799:Generated_Source\PSoC5/cyfitter_cfg.c **** {
 1283              		.loc 1 799 0
 1284              		.cfi_startproc
 1285              		@ args = 0, pretend = 0, frame = 16
 1286              		@ frame_needed = 1, uses_anonymous_args = 0
 1287              		@ link register save eliminated.
 1288 0000 80B4     		push	{r7}
 1289              		.cfi_def_cfa_offset 4
 1290              		.cfi_offset 7, -4
 1291 0002 85B0     		sub	sp, sp, #20
 1292              		.cfi_def_cfa_offset 24
 1293 0004 00AF     		add	r7, sp, #0
 1294              		.cfi_def_cfa_register 7
 1295 0006 0346     		mov	r3, r0
 1296 0008 FB71     		strb	r3, [r7, #7]
 800:Generated_Source\PSoC5/cyfitter_cfg.c **** 	uint8 regValue = CY_GET_XTND_REG8((void CYFAR *)CYREG_PUMP_CR0);
 1297              		.loc 1 800 0
 1298 000a 0B4B     		ldr	r3, .L30
 1299 000c 1B78     		ldrb	r3, [r3]
 1300 000e FB73     		strb	r3, [r7, #15]
 801:Generated_Source\PSoC5/cyfitter_cfg.c **** 	if (enabled != 0u)
 1301              		.loc 1 801 0
 1302 0010 FB79     		ldrb	r3, [r7, #7]	@ zero_extendqisi2
 1303 0012 002B     		cmp	r3, #0
ARM GAS  C:\Users\rens_\AppData\Local\Temp\cc35mTjg.s 			page 38


 1304 0014 04D0     		beq	.L28
 802:Generated_Source\PSoC5/cyfitter_cfg.c **** 	{
 803:Generated_Source\PSoC5/cyfitter_cfg.c **** 		regValue |= 0x22u;
 1305              		.loc 1 803 0
 1306 0016 FB7B     		ldrb	r3, [r7, #15]
 1307 0018 43F02203 		orr	r3, r3, #34
 1308 001c FB73     		strb	r3, [r7, #15]
 1309 001e 03E0     		b	.L29
 1310              	.L28:
 804:Generated_Source\PSoC5/cyfitter_cfg.c **** 	}
 805:Generated_Source\PSoC5/cyfitter_cfg.c **** 	else
 806:Generated_Source\PSoC5/cyfitter_cfg.c **** 	{
 807:Generated_Source\PSoC5/cyfitter_cfg.c **** 		regValue &= (uint8)~0x22u;
 1311              		.loc 1 807 0
 1312 0020 FB7B     		ldrb	r3, [r7, #15]
 1313 0022 23F02203 		bic	r3, r3, #34
 1314 0026 FB73     		strb	r3, [r7, #15]
 1315              	.L29:
 808:Generated_Source\PSoC5/cyfitter_cfg.c **** 	}
 809:Generated_Source\PSoC5/cyfitter_cfg.c **** 	CY_SET_XTND_REG8((void CYFAR *)CYREG_PUMP_CR0, regValue);
 1316              		.loc 1 809 0
 1317 0028 034A     		ldr	r2, .L30
 1318 002a FB7B     		ldrb	r3, [r7, #15]
 1319 002c 1370     		strb	r3, [r2]
 810:Generated_Source\PSoC5/cyfitter_cfg.c **** }
 1320              		.loc 1 810 0
 1321 002e 00BF     		nop
 1322 0030 1437     		adds	r7, r7, #20
 1323              		.cfi_def_cfa_offset 4
 1324 0032 BD46     		mov	sp, r7
 1325              		.cfi_def_cfa_register 13
 1326              		@ sp needed
 1327 0034 80BC     		pop	{r7}
 1328              		.cfi_restore 7
 1329              		.cfi_def_cfa_offset 0
 1330 0036 7047     		bx	lr
 1331              	.L31:
 1332              		.align	2
 1333              	.L30:
 1334 0038 76580040 		.word	1073764470
 1335              		.cfi_endproc
 1336              	.LFE7:
 1337              		.size	SetAnalogRoutingPumps, .-SetAnalogRoutingPumps
 1338              		.section	.text.cyfitter_cfg,"ax",%progbits
 1339              		.align	2
 1340              		.global	cyfitter_cfg
 1341              		.thumb
 1342              		.thumb_func
 1343              		.type	cyfitter_cfg, %function
 1344              	cyfitter_cfg:
 1345              	.LFB8:
 811:Generated_Source\PSoC5/cyfitter_cfg.c **** 
 812:Generated_Source\PSoC5/cyfitter_cfg.c **** 
 813:Generated_Source\PSoC5/cyfitter_cfg.c **** 
 814:Generated_Source\PSoC5/cyfitter_cfg.c **** 
 815:Generated_Source\PSoC5/cyfitter_cfg.c **** /*******************************************************************************
 816:Generated_Source\PSoC5/cyfitter_cfg.c **** * Function Name: cyfitter_cfg
ARM GAS  C:\Users\rens_\AppData\Local\Temp\cc35mTjg.s 			page 39


 817:Generated_Source\PSoC5/cyfitter_cfg.c **** ********************************************************************************
 818:Generated_Source\PSoC5/cyfitter_cfg.c **** * Summary:
 819:Generated_Source\PSoC5/cyfitter_cfg.c **** *  This function is called by the start-up code for the selected device. It
 820:Generated_Source\PSoC5/cyfitter_cfg.c **** *  performs all of the necessary device configuration based on the design
 821:Generated_Source\PSoC5/cyfitter_cfg.c **** *  settings.  This includes settings from the Design Wide Resources (DWR) such
 822:Generated_Source\PSoC5/cyfitter_cfg.c **** *  as Clocks and Pins as well as any component configuration that is necessary.
 823:Generated_Source\PSoC5/cyfitter_cfg.c **** *
 824:Generated_Source\PSoC5/cyfitter_cfg.c **** * Parameters:
 825:Generated_Source\PSoC5/cyfitter_cfg.c **** *   void
 826:Generated_Source\PSoC5/cyfitter_cfg.c **** *
 827:Generated_Source\PSoC5/cyfitter_cfg.c **** * Return:
 828:Generated_Source\PSoC5/cyfitter_cfg.c **** *   void
 829:Generated_Source\PSoC5/cyfitter_cfg.c **** *
 830:Generated_Source\PSoC5/cyfitter_cfg.c **** *******************************************************************************/
 831:Generated_Source\PSoC5/cyfitter_cfg.c **** 
 832:Generated_Source\PSoC5/cyfitter_cfg.c **** void cyfitter_cfg(void)
 833:Generated_Source\PSoC5/cyfitter_cfg.c **** {
 1346              		.loc 1 833 0
 1347              		.cfi_startproc
 1348              		@ args = 0, pretend = 0, frame = 0
 1349              		@ frame_needed = 1, uses_anonymous_args = 0
 1350 0000 80B5     		push	{r7, lr}
 1351              		.cfi_def_cfa_offset 8
 1352              		.cfi_offset 7, -8
 1353              		.cfi_offset 14, -4
 1354 0002 00AF     		add	r7, sp, #0
 1355              		.cfi_def_cfa_register 7
 834:Generated_Source\PSoC5/cyfitter_cfg.c **** #ifdef CYGlobalIntDisable
 835:Generated_Source\PSoC5/cyfitter_cfg.c **** 	/* Disable interrupts by default. Let user enable if/when they want. */
 836:Generated_Source\PSoC5/cyfitter_cfg.c **** 	CYGlobalIntDisable
 1356              		.loc 1 836 0
 1357              		.syntax unified
 1358              	@ 836 "Generated_Source\PSoC5\cyfitter_cfg.c" 1
 1359 0004 72B6     		CPSID   i
 1360              	@ 0 "" 2
 837:Generated_Source\PSoC5/cyfitter_cfg.c **** #endif
 838:Generated_Source\PSoC5/cyfitter_cfg.c **** 
 839:Generated_Source\PSoC5/cyfitter_cfg.c **** 
 840:Generated_Source\PSoC5/cyfitter_cfg.c **** 	/* Set Flash Cycles based on max possible frequency in case a glitch occurs during ClockSetup(). *
 841:Generated_Source\PSoC5/cyfitter_cfg.c **** 	CY_SET_XTND_REG8((void CYFAR *)(CYREG_CACHE_CC_CTL), (((CYDEV_INSTRUCT_CACHE_ENABLED) != 0) ? 0x61
 1361              		.loc 1 841 0
 1362              		.thumb
 1363              		.syntax unified
 1364 0006 374B     		ldr	r3, .L33
 1365 0008 6022     		movs	r2, #96
 1366 000a 1A70     		strb	r2, [r3]
 842:Generated_Source\PSoC5/cyfitter_cfg.c **** 	/* Setup clocks based on selections from Clock DWR */
 843:Generated_Source\PSoC5/cyfitter_cfg.c **** 	ClockSetup();
 1367              		.loc 1 843 0
 1368 000c FFF7FEFF 		bl	ClockSetup
 844:Generated_Source\PSoC5/cyfitter_cfg.c **** 	/* Set Flash Cycles based on newly configured 24.00MHz Bus Clock. */
 845:Generated_Source\PSoC5/cyfitter_cfg.c **** 	CY_SET_XTND_REG8((void CYFAR *)(CYREG_CACHE_CC_CTL), (((CYDEV_INSTRUCT_CACHE_ENABLED) != 0) ? 0x81
 1369              		.loc 1 845 0
 1370 0010 344B     		ldr	r3, .L33
 1371 0012 8022     		movs	r2, #128
 1372 0014 1A70     		strb	r2, [r3]
 846:Generated_Source\PSoC5/cyfitter_cfg.c **** 	/* Enable/Disable Debug functionality based on settings from System DWR */
ARM GAS  C:\Users\rens_\AppData\Local\Temp\cc35mTjg.s 			page 40


 847:Generated_Source\PSoC5/cyfitter_cfg.c **** 	CY_SET_XTND_REG8((void CYFAR *)CYREG_MLOGIC_DEBUG, (CY_GET_XTND_REG8((void CYFAR *)CYREG_MLOGIC_DE
 1373              		.loc 1 847 0
 1374 0016 344A     		ldr	r2, .L33+4
 1375 0018 334B     		ldr	r3, .L33+4
 1376 001a 1B78     		ldrb	r3, [r3]
 1377 001c DBB2     		uxtb	r3, r3
 1378 001e 43F00403 		orr	r3, r3, #4
 1379 0022 DBB2     		uxtb	r3, r3
 1380 0024 1370     		strb	r3, [r2]
 848:Generated_Source\PSoC5/cyfitter_cfg.c **** 
 849:Generated_Source\PSoC5/cyfitter_cfg.c **** 	{
 850:Generated_Source\PSoC5/cyfitter_cfg.c **** 		cfg_dma_init();
 1381              		.loc 1 850 0
 1382 0026 FFF7FEFF 		bl	cfg_dma_init
 851:Generated_Source\PSoC5/cyfitter_cfg.c **** 
 852:Generated_Source\PSoC5/cyfitter_cfg.c **** 		/* Perform normal device configuration. Order is not critical for these items. */
 853:Generated_Source\PSoC5/cyfitter_cfg.c **** 		CY_SET_XTND_REG16((void CYFAR *)(CYREG_LUT0_CR), 0x0003u);
 1383              		.loc 1 853 0
 1384 002a 304B     		ldr	r3, .L33+8
 1385 002c 0322     		movs	r2, #3
 1386 002e 1A80     		strh	r2, [r3]	@ movhi
 854:Generated_Source\PSoC5/cyfitter_cfg.c **** 		CY_SET_XTND_REG16((void CYFAR *)(CYREG_LUT1_CR), 0x0103u);
 1387              		.loc 1 854 0
 1388 0030 2F4B     		ldr	r3, .L33+12
 1389 0032 40F20312 		movw	r2, #259
 1390 0036 1A80     		strh	r2, [r3]	@ movhi
 855:Generated_Source\PSoC5/cyfitter_cfg.c **** 		CYMEMZERO((void CYFAR *)(CYREG_PHUB_CFGMEM0_CFG0), 4u);
 1391              		.loc 1 855 0
 1392 0038 0421     		movs	r1, #4
 1393 003a 2E48     		ldr	r0, .L33+16
 1394 003c FFF7FEFF 		bl	CYMEMZERO
 856:Generated_Source\PSoC5/cyfitter_cfg.c **** 		CYCONFIGCPY((void CYFAR *)(CYREG_PHUB_CFGMEM1_CFG0), (const void CYFAR *)(BS_PHUB_CFGMEM1_VAL), 4
 1395              		.loc 1 856 0
 1396 0040 0422     		movs	r2, #4
 1397 0042 2D49     		ldr	r1, .L33+20
 1398 0044 2D48     		ldr	r0, .L33+24
 1399 0046 FFF7FEFF 		bl	CYCONFIGCPY
 857:Generated_Source\PSoC5/cyfitter_cfg.c **** 
 858:Generated_Source\PSoC5/cyfitter_cfg.c **** 		/* Enable digital routing */
 859:Generated_Source\PSoC5/cyfitter_cfg.c **** 		CY_SET_XTND_REG8((void CYFAR *)CYREG_BCTL0_BANK_CTL, CY_GET_XTND_REG8((void CYFAR *)CYREG_BCTL0_B
 1400              		.loc 1 859 0
 1401 004a 2D4A     		ldr	r2, .L33+28
 1402 004c 2C4B     		ldr	r3, .L33+28
 1403 004e 1B78     		ldrb	r3, [r3]
 1404 0050 DBB2     		uxtb	r3, r3
 1405 0052 43F00203 		orr	r3, r3, #2
 1406 0056 DBB2     		uxtb	r3, r3
 1407 0058 1370     		strb	r3, [r2]
 860:Generated_Source\PSoC5/cyfitter_cfg.c **** 		CY_SET_XTND_REG8((void CYFAR *)CYREG_BCTL1_BANK_CTL, CY_GET_XTND_REG8((void CYFAR *)CYREG_BCTL1_B
 1408              		.loc 1 860 0
 1409 005a 2A4A     		ldr	r2, .L33+32
 1410 005c 294B     		ldr	r3, .L33+32
 1411 005e 1B78     		ldrb	r3, [r3]
 1412 0060 DBB2     		uxtb	r3, r3
 1413 0062 43F00203 		orr	r3, r3, #2
 1414 0066 DBB2     		uxtb	r3, r3
 1415 0068 1370     		strb	r3, [r2]
ARM GAS  C:\Users\rens_\AppData\Local\Temp\cc35mTjg.s 			page 41


 861:Generated_Source\PSoC5/cyfitter_cfg.c **** 
 862:Generated_Source\PSoC5/cyfitter_cfg.c **** 		/* Enable UDB array */
 863:Generated_Source\PSoC5/cyfitter_cfg.c **** 		CY_SET_XTND_REG8((void CYFAR *)CYREG_PM_ACT_CFG0, CY_GET_XTND_REG8((void CYFAR *)CYREG_PM_ACT_CFG
 1416              		.loc 1 863 0
 1417 006a 274A     		ldr	r2, .L33+36
 1418 006c 264B     		ldr	r3, .L33+36
 1419 006e 1B78     		ldrb	r3, [r3]
 1420 0070 DBB2     		uxtb	r3, r3
 1421 0072 43F04003 		orr	r3, r3, #64
 1422 0076 DBB2     		uxtb	r3, r3
 1423 0078 1370     		strb	r3, [r2]
 864:Generated_Source\PSoC5/cyfitter_cfg.c **** 		CY_SET_XTND_REG8((void CYFAR *)CYREG_PM_AVAIL_CR2, CY_GET_XTND_REG8((void CYFAR *)CYREG_PM_AVAIL_
 1424              		.loc 1 864 0
 1425 007a 244A     		ldr	r2, .L33+40
 1426 007c 234B     		ldr	r3, .L33+40
 1427 007e 1B78     		ldrb	r3, [r3]
 1428 0080 DBB2     		uxtb	r3, r3
 1429 0082 43F01003 		orr	r3, r3, #16
 1430 0086 DBB2     		uxtb	r3, r3
 1431 0088 1370     		strb	r3, [r2]
 865:Generated_Source\PSoC5/cyfitter_cfg.c **** 	}
 866:Generated_Source\PSoC5/cyfitter_cfg.c **** 
 867:Generated_Source\PSoC5/cyfitter_cfg.c **** 
 868:Generated_Source\PSoC5/cyfitter_cfg.c **** 	/* Perform second pass device configuration. These items must be configured in specific order afte
 869:Generated_Source\PSoC5/cyfitter_cfg.c **** 	CYCONFIGCPY((void CYFAR *)(CYREG_PRT0_DM0), (const void CYFAR *)(BS_IOPINS0_0_VAL), 8u);
 1432              		.loc 1 869 0
 1433 008a 0822     		movs	r2, #8
 1434 008c 2049     		ldr	r1, .L33+44
 1435 008e 2148     		ldr	r0, .L33+48
 1436 0090 FFF7FEFF 		bl	CYCONFIGCPY
 870:Generated_Source\PSoC5/cyfitter_cfg.c **** 	CYCONFIGCPY((void CYFAR *)(CYREG_PRT12_DR), (const void CYFAR *)(BS_IOPINS0_7_VAL), 10u);
 1437              		.loc 1 870 0
 1438 0094 0A22     		movs	r2, #10
 1439 0096 2049     		ldr	r1, .L33+52
 1440 0098 2048     		ldr	r0, .L33+56
 1441 009a FFF7FEFF 		bl	CYCONFIGCPY
 871:Generated_Source\PSoC5/cyfitter_cfg.c **** 	CYCONFIGCPY((void CYFAR *)(CYREG_PRT15_DM0), (const void CYFAR *)(BS_IOPINS0_8_VAL), 8u);
 1442              		.loc 1 871 0
 1443 009e 0822     		movs	r2, #8
 1444 00a0 1F49     		ldr	r1, .L33+60
 1445 00a2 2048     		ldr	r0, .L33+64
 1446 00a4 FFF7FEFF 		bl	CYCONFIGCPY
 872:Generated_Source\PSoC5/cyfitter_cfg.c **** 	CYCONFIGCPY((void CYFAR *)(CYREG_PRT1_DM0), (const void CYFAR *)(BS_IOPINS0_1_VAL), 8u);
 1447              		.loc 1 872 0
 1448 00a8 0822     		movs	r2, #8
 1449 00aa 1F49     		ldr	r1, .L33+68
 1450 00ac 1F48     		ldr	r0, .L33+72
 1451 00ae FFF7FEFF 		bl	CYCONFIGCPY
 873:Generated_Source\PSoC5/cyfitter_cfg.c **** 	CYCONFIGCPY((void CYFAR *)(CYREG_PRT2_DR), (const void CYFAR *)(BS_IOPINS0_2_VAL), 10u);
 1452              		.loc 1 873 0
 1453 00b2 0A22     		movs	r2, #10
 1454 00b4 1E49     		ldr	r1, .L33+76
 1455 00b6 1F48     		ldr	r0, .L33+80
 1456 00b8 FFF7FEFF 		bl	CYCONFIGCPY
 874:Generated_Source\PSoC5/cyfitter_cfg.c **** 	/* Switch Boost to the precision bandgap reference from its internal reference */
 875:Generated_Source\PSoC5/cyfitter_cfg.c **** 	CY_SET_REG8((void CYXDATA *)CYREG_BOOST_CR2, (CY_GET_REG8((void CYXDATA *)CYREG_BOOST_CR2) | 0x08u
 1457              		.loc 1 875 0
ARM GAS  C:\Users\rens_\AppData\Local\Temp\cc35mTjg.s 			page 42


 1458 00bc 1E4A     		ldr	r2, .L33+84
 1459 00be 1E4B     		ldr	r3, .L33+84
 1460 00c0 1B78     		ldrb	r3, [r3]
 1461 00c2 DBB2     		uxtb	r3, r3
 1462 00c4 43F00803 		orr	r3, r3, #8
 1463 00c8 DBB2     		uxtb	r3, r3
 1464 00ca 1370     		strb	r3, [r2]
 876:Generated_Source\PSoC5/cyfitter_cfg.c **** 	CY_SET_XTND_REG8((void CYFAR *)(CYREG_PANTHER_WAITPIPE), 0x01u);
 1465              		.loc 1 876 0
 1466 00cc 1B4B     		ldr	r3, .L33+88
 1467 00ce 0122     		movs	r2, #1
 1468 00d0 1A70     		strb	r2, [r3]
 877:Generated_Source\PSoC5/cyfitter_cfg.c **** 
 878:Generated_Source\PSoC5/cyfitter_cfg.c **** 	/* Perform basic analog initialization to defaults */
 879:Generated_Source\PSoC5/cyfitter_cfg.c **** 	AnalogSetDefault();
 1469              		.loc 1 879 0
 1470 00d2 FFF7FEFF 		bl	AnalogSetDefault
 880:Generated_Source\PSoC5/cyfitter_cfg.c **** 
 881:Generated_Source\PSoC5/cyfitter_cfg.c **** 	/* Configure alternate active mode */
 882:Generated_Source\PSoC5/cyfitter_cfg.c **** 	CYCONFIGCPY((void CYFAR *)CYDEV_PM_STBY_BASE, (const void CYFAR *)CYDEV_PM_ACT_BASE, 14u);
 1471              		.loc 1 882 0
 1472 00d6 0E22     		movs	r2, #14
 1473 00d8 0B49     		ldr	r1, .L33+36
 1474 00da 1948     		ldr	r0, .L33+92
 1475 00dc FFF7FEFF 		bl	CYCONFIGCPY
 883:Generated_Source\PSoC5/cyfitter_cfg.c **** }
 1476              		.loc 1 883 0
 1477 00e0 00BF     		nop
 1478 00e2 80BD     		pop	{r7, pc}
 1479              	.L34:
 1480              		.align	2
 1481              	.L33:
 1482 00e4 00480040 		.word	1073760256
 1483 00e8 E8460040 		.word	1073759976
 1484 00ec 48580040 		.word	1073764424
 1485 00f0 4A580040 		.word	1073764426
 1486 00f4 00760040 		.word	1073772032
 1487 00f8 7C180048 		.word	1207965820
 1488 00fc 08760040 		.word	1073772040
 1489 0100 03500140 		.word	1073827843
 1490 0104 13500140 		.word	1073827859
 1491 0108 A0430040 		.word	1073759136
 1492 010c C2430040 		.word	1073759170
 1493 0110 44180048 		.word	1207965764
 1494 0114 02510040 		.word	1073762562
 1495 0118 4C180048 		.word	1207965772
 1496 011c C0510040 		.word	1073762752
 1497 0120 58180048 		.word	1207965784
 1498 0124 F2510040 		.word	1073762802
 1499 0128 60180048 		.word	1207965792
 1500 012c 12510040 		.word	1073762578
 1501 0130 68180048 		.word	1207965800
 1502 0134 20510040 		.word	1073762592
 1503 0138 22430040 		.word	1073759010
 1504 013c 04000840 		.word	1074266116
 1505 0140 B0430040 		.word	1073759152
 1506              		.cfi_endproc
ARM GAS  C:\Users\rens_\AppData\Local\Temp\cc35mTjg.s 			page 43


 1507              	.LFE8:
 1508              		.size	cyfitter_cfg, .-cyfitter_cfg
 1509              		.bss
 1510              		.align	3
 1511              	DMA_ZERO_VAL.4966:
 1512 0000 00000000 		.space	4
 1513              		.section	.rodata
 1514              		.align	2
 1515              		.type	CFG_TD_ADDR0.4968, %object
 1516              		.size	CFG_TD_ADDR0.4968, 312
 1517              	CFG_TD_ADDR0.4968:
 1518 0000 00000000 		.word	CH1_ADDR_DATA0.4961
 1519 0004 08000000 		.word	CH2_ADDR_DATA0.4962
 1520 0008 10000000 		.word	CH5_ADDR_DATA0.4963
 1521 000c 18000000 		.word	CH6_ADDR_DATA0.4964
 1522 0010 20000000 		.word	DMA_TD_START_CMD.4965
 1523 0014 20000000 		.word	DMA_TD_START_CMD.4965
 1524 0018 20000000 		.word	DMA_TD_START_CMD.4965
 1525 001c 20000000 		.word	DMA_TD_START_CMD.4965
 1526 0020 00000000 		.word	DMA_ZERO_VAL.4966
 1527 0024 00000000 		.word	DMA_ZERO_VAL.4966
 1528 0028 00000000 		.word	DMA_ZERO_VAL.4966
 1529 002c 00000000 		.word	DMA_ZERO_VAL.4966
 1530 0030 00000000 		.word	DMA_ZERO_VAL.4966
 1531 0034 00000000 		.word	DMA_ZERO_VAL.4966
 1532 0038 00000000 		.word	DMA_ZERO_VAL.4966
 1533 003c 00000000 		.word	DMA_ZERO_VAL.4966
 1534 0040 00000000 		.word	DMA_ZERO_VAL.4966
 1535 0044 00000000 		.word	DMA_ZERO_VAL.4966
 1536 0048 08000048 		.word	1207959560
 1537 004c 10000048 		.word	1207959568
 1538 0050 20000048 		.word	1207959584
 1539 0054 28000048 		.word	1207959592
 1540 0058 30000048 		.word	1207959600
 1541 005c 40000048 		.word	1207959616
 1542 0060 50000048 		.word	1207959632
 1543 0064 5C000048 		.word	1207959644
 1544 0068 E4040048 		.word	1207960804
 1545 006c 04050048 		.word	1207960836
 1546 0070 18000048 		.word	1207959576
 1547 0074 64000048 		.word	1207959652
 1548 0078 E4000048 		.word	1207959780
 1549 007c 64010048 		.word	1207959908
 1550 0080 E4010048 		.word	1207960036
 1551 0084 64020048 		.word	1207960164
 1552 0088 E4020048 		.word	1207960292
 1553 008c 64030048 		.word	1207960420
 1554 0090 E4030048 		.word	1207960548
 1555 0094 64040048 		.word	1207960676
 1556 0098 24050048 		.word	1207960868
 1557 009c 34050048 		.word	1207960884
 1558 00a0 44050048 		.word	1207960900
 1559 00a4 C4050048 		.word	1207961028
 1560 00a8 44060048 		.word	1207961156
 1561 00ac C4060048 		.word	1207961284
 1562 00b0 44070048 		.word	1207961412
 1563 00b4 C4070048 		.word	1207961540
ARM GAS  C:\Users\rens_\AppData\Local\Temp\cc35mTjg.s 			page 44


 1564 00b8 44080048 		.word	1207961668
 1565 00bc C4080048 		.word	1207961796
 1566 00c0 44090048 		.word	1207961924
 1567 00c4 C4090048 		.word	1207962052
 1568 00c8 440A0048 		.word	1207962180
 1569 00cc C40A0048 		.word	1207962308
 1570 00d0 440B0048 		.word	1207962436
 1571 00d4 C40B0048 		.word	1207962564
 1572 00d8 440C0048 		.word	1207962692
 1573 00dc C40C0048 		.word	1207962820
 1574 00e0 440D0048 		.word	1207962948
 1575 00e4 C40D0048 		.word	1207963076
 1576 00e8 440E0048 		.word	1207963204
 1577 00ec C40E0048 		.word	1207963332
 1578 00f0 440F0048 		.word	1207963460
 1579 00f4 C40F0048 		.word	1207963588
 1580 00f8 44100048 		.word	1207963716
 1581 00fc C4100048 		.word	1207963844
 1582 0100 44110048 		.word	1207963972
 1583 0104 C4110048 		.word	1207964100
 1584 0108 44120048 		.word	1207964228
 1585 010c C4120048 		.word	1207964356
 1586 0110 44130048 		.word	1207964484
 1587 0114 C4130048 		.word	1207964612
 1588 0118 44140048 		.word	1207964740
 1589 011c C4140048 		.word	1207964868
 1590 0120 44150048 		.word	1207964996
 1591 0124 C4150048 		.word	1207965124
 1592 0128 44160048 		.word	1207965252
 1593 012c C4160048 		.word	1207965380
 1594 0130 44170048 		.word	1207965508
 1595 0134 C4170048 		.word	1207965636
 1596              		.text
 1597              	.Letext0:
 1598              		.file 2 "c:\\program files (x86)\\cypress\\psoc creator\\4.2\\psoc creator\\import\\gnu\\arm\\5.4.
 1599              		.file 3 "Generated_Source\\PSoC5\\cytypes.h"