ARM GAS  C:\Users\rens_\AppData\Local\Temp\ccy54pfw.s 			page 1


   1              		.syntax unified
   2              		.cpu cortex-m3
   3              		.fpu softvfp
   4              		.eabi_attribute 20, 1
   5              		.eabi_attribute 21, 1
   6              		.eabi_attribute 23, 3
   7              		.eabi_attribute 24, 1
   8              		.eabi_attribute 25, 1
   9              		.eabi_attribute 26, 1
  10              		.eabi_attribute 30, 6
  11              		.eabi_attribute 34, 1
  12              		.eabi_attribute 18, 4
  13              		.thumb
  14              		.syntax unified
  15              		.file	"Filter_PM.c"
  16              		.text
  17              	.Ltext0:
  18              		.cfi_sections	.debug_frame
  19              		.data
  20              		.align	2
  21              		.type	Filter_backup, %object
  22              		.size	Filter_backup, 68
  23              	Filter_backup:
  24 0000 00       		.byte	0
  25 0001 01       		.byte	1
  26 0002 00000000 		.space	66
  26      00000000 
  26      00000000 
  26      00000000 
  26      00000000 
  27              		.section	.text.Filter_SaveConfig,"ax",%progbits
  28              		.align	2
  29              		.global	Filter_SaveConfig
  30              		.thumb
  31              		.thumb_func
  32              		.type	Filter_SaveConfig, %function
  33              	Filter_SaveConfig:
  34              	.LFB0:
  35              		.file 1 "Generated_Source\\PSoC5\\Filter_PM.c"
   1:Generated_Source\PSoC5/Filter_PM.c **** /*******************************************************************************
   2:Generated_Source\PSoC5/Filter_PM.c **** * File Name: Filter_PM.c
   3:Generated_Source\PSoC5/Filter_PM.c **** * Version 2.30
   4:Generated_Source\PSoC5/Filter_PM.c **** *
   5:Generated_Source\PSoC5/Filter_PM.c **** * Description:
   6:Generated_Source\PSoC5/Filter_PM.c **** *  This file provides the power managaer API source code for the FILT component.
   7:Generated_Source\PSoC5/Filter_PM.c **** *
   8:Generated_Source\PSoC5/Filter_PM.c **** * Note:
   9:Generated_Source\PSoC5/Filter_PM.c **** *  
  10:Generated_Source\PSoC5/Filter_PM.c **** *******************************************************************************
  11:Generated_Source\PSoC5/Filter_PM.c **** * Copyright 2008-2013, Cypress Semiconductor Corporation.  All rights reserved.
  12:Generated_Source\PSoC5/Filter_PM.c **** * You may use this file only in accordance with the license, terms, conditions, 
  13:Generated_Source\PSoC5/Filter_PM.c **** * disclaimers, and limitations in the end user license agreement accompanying 
  14:Generated_Source\PSoC5/Filter_PM.c **** * the software package with which this file was provided.
  15:Generated_Source\PSoC5/Filter_PM.c **** ********************************************************************************/
  16:Generated_Source\PSoC5/Filter_PM.c **** 
  17:Generated_Source\PSoC5/Filter_PM.c **** #include "Filter_PVT.h"
  18:Generated_Source\PSoC5/Filter_PM.c **** 
ARM GAS  C:\Users\rens_\AppData\Local\Temp\ccy54pfw.s 			page 2


  19:Generated_Source\PSoC5/Filter_PM.c **** static Filter_backupStruct  Filter_backup = 
  20:Generated_Source\PSoC5/Filter_PM.c **** {
  21:Generated_Source\PSoC5/Filter_PM.c ****     Filter_DISABLED,
  22:Generated_Source\PSoC5/Filter_PM.c ****     Filter_RUN_MASK,
  23:Generated_Source\PSoC5/Filter_PM.c ****     
  24:Generated_Source\PSoC5/Filter_PM.c **** };
  25:Generated_Source\PSoC5/Filter_PM.c **** 
  26:Generated_Source\PSoC5/Filter_PM.c **** 
  27:Generated_Source\PSoC5/Filter_PM.c **** /*******************************************************************************
  28:Generated_Source\PSoC5/Filter_PM.c **** * Function Name: Filter_SaveConfig
  29:Generated_Source\PSoC5/Filter_PM.c **** ********************************************************************************
  30:Generated_Source\PSoC5/Filter_PM.c **** *
  31:Generated_Source\PSoC5/Filter_PM.c **** * Summary:
  32:Generated_Source\PSoC5/Filter_PM.c **** *  Saves the current user configuration.
  33:Generated_Source\PSoC5/Filter_PM.c **** *  
  34:Generated_Source\PSoC5/Filter_PM.c **** * Parameters:  
  35:Generated_Source\PSoC5/Filter_PM.c **** *  void
  36:Generated_Source\PSoC5/Filter_PM.c **** *
  37:Generated_Source\PSoC5/Filter_PM.c **** * Return: 
  38:Generated_Source\PSoC5/Filter_PM.c **** *  void
  39:Generated_Source\PSoC5/Filter_PM.c **** *
  40:Generated_Source\PSoC5/Filter_PM.c **** * Global variables:
  41:Generated_Source\PSoC5/Filter_PM.c **** *  Filter_backup:  This global structure variable is used to store 
  42:Generated_Source\PSoC5/Filter_PM.c **** *  configuration registers which are non retention whenever user wants to go 
  43:Generated_Source\PSoC5/Filter_PM.c **** *  sleep mode by calling Sleep() API.
  44:Generated_Source\PSoC5/Filter_PM.c **** *
  45:Generated_Source\PSoC5/Filter_PM.c **** *******************************************************************************/
  46:Generated_Source\PSoC5/Filter_PM.c **** void Filter_SaveConfig(void) 
  47:Generated_Source\PSoC5/Filter_PM.c **** {
  36              		.loc 1 47 0
  37              		.cfi_startproc
  38              		@ args = 0, pretend = 0, frame = 0
  39              		@ frame_needed = 1, uses_anonymous_args = 0
  40              		@ link register save eliminated.
  41 0000 B0B4     		push	{r4, r5, r7}
  42              		.cfi_def_cfa_offset 12
  43              		.cfi_offset 4, -12
  44              		.cfi_offset 5, -8
  45              		.cfi_offset 7, -4
  46 0002 00AF     		add	r7, sp, #0
  47              		.cfi_def_cfa_register 7
  48:Generated_Source\PSoC5/Filter_PM.c ****     Filter_backup.sr = Filter_SR_REG;
  48              		.loc 1 48 0
  49 0004 104B     		ldr	r3, .L2
  50 0006 1B78     		ldrb	r3, [r3]
  51 0008 DAB2     		uxtb	r2, r3
  52 000a 104B     		ldr	r3, .L2+4
  53 000c 9A70     		strb	r2, [r3, #2]
  49:Generated_Source\PSoC5/Filter_PM.c ****     Filter_backup.sema = Filter_SEMA_REG;
  54              		.loc 1 49 0
  55 000e 104B     		ldr	r3, .L2+8
  56 0010 1B78     		ldrb	r3, [r3]
  57 0012 DAB2     		uxtb	r2, r3
  58 0014 0D4B     		ldr	r3, .L2+4
  59 0016 DA70     		strb	r2, [r3, #3]
  50:Generated_Source\PSoC5/Filter_PM.c **** 
  51:Generated_Source\PSoC5/Filter_PM.c ****     /* Put DFB RAM on the bus */
ARM GAS  C:\Users\rens_\AppData\Local\Temp\ccy54pfw.s 			page 3


  52:Generated_Source\PSoC5/Filter_PM.c ****     Filter_RAM_DIR_REG = Filter_RAM_DIR_BUS;
  60              		.loc 1 52 0
  61 0018 0E4B     		ldr	r3, .L2+12
  62 001a 3F22     		movs	r2, #63
  63 001c 1A70     		strb	r2, [r3]
  53:Generated_Source\PSoC5/Filter_PM.c **** 
  54:Generated_Source\PSoC5/Filter_PM.c ****     /* Save the ACU RAM as this is not retension */
  55:Generated_Source\PSoC5/Filter_PM.c ****     (void)memcpy(Filter_backup.saveAcu,
  64              		.loc 1 55 0
  65 001e 0B4B     		ldr	r3, .L2+4
  66 0020 0D4A     		ldr	r2, .L2+16
  67 0022 1C1D     		adds	r4, r3, #4
  68 0024 1546     		mov	r5, r2
  69 0026 0FCD     		ldmia	r5!, {r0, r1, r2, r3}
  70 0028 0FC4     		stmia	r4!, {r0, r1, r2, r3}
  71 002a 0FCD     		ldmia	r5!, {r0, r1, r2, r3}
  72 002c 0FC4     		stmia	r4!, {r0, r1, r2, r3}
  73 002e 0FCD     		ldmia	r5!, {r0, r1, r2, r3}
  74 0030 0FC4     		stmia	r4!, {r0, r1, r2, r3}
  75 0032 95E80F00 		ldmia	r5, {r0, r1, r2, r3}
  76 0036 84E80F00 		stmia	r4, {r0, r1, r2, r3}
  56:Generated_Source\PSoC5/Filter_PM.c ****         Filter_ACU_RAM, Filter_ACU_RAM_SIZE); 
  57:Generated_Source\PSoC5/Filter_PM.c **** 
  58:Generated_Source\PSoC5/Filter_PM.c ****     /* Take DFB RAM off the bus */
  59:Generated_Source\PSoC5/Filter_PM.c ****     Filter_RAM_DIR_REG = Filter_RAM_DIR_DFB;
  77              		.loc 1 59 0
  78 003a 064B     		ldr	r3, .L2+12
  79 003c 0022     		movs	r2, #0
  80 003e 1A70     		strb	r2, [r3]
  60:Generated_Source\PSoC5/Filter_PM.c **** }
  81              		.loc 1 60 0
  82 0040 00BF     		nop
  83 0042 BD46     		mov	sp, r7
  84              		.cfi_def_cfa_register 13
  85              		@ sp needed
  86 0044 B0BC     		pop	{r4, r5, r7}
  87              		.cfi_restore 7
  88              		.cfi_restore 5
  89              		.cfi_restore 4
  90              		.cfi_def_cfa_offset 0
  91 0046 7047     		bx	lr
  92              	.L3:
  93              		.align	2
  94              	.L2:
  95 0048 84C70040 		.word	1073792900
  96 004c 00000000 		.word	Filter_backup
  97 0050 90C70040 		.word	1073792912
  98 0054 8CC70040 		.word	1073792908
  99 0058 00C70040 		.word	1073792768
 100              		.cfi_endproc
 101              	.LFE0:
 102              		.size	Filter_SaveConfig, .-Filter_SaveConfig
 103              		.section	.text.Filter_RestoreConfig,"ax",%progbits
 104              		.align	2
 105              		.global	Filter_RestoreConfig
 106              		.thumb
 107              		.thumb_func
ARM GAS  C:\Users\rens_\AppData\Local\Temp\ccy54pfw.s 			page 4


 108              		.type	Filter_RestoreConfig, %function
 109              	Filter_RestoreConfig:
 110              	.LFB1:
  61:Generated_Source\PSoC5/Filter_PM.c **** 
  62:Generated_Source\PSoC5/Filter_PM.c **** 
  63:Generated_Source\PSoC5/Filter_PM.c **** /*******************************************************************************
  64:Generated_Source\PSoC5/Filter_PM.c **** * Function Name: Filter_RestoreConfig
  65:Generated_Source\PSoC5/Filter_PM.c **** ********************************************************************************
  66:Generated_Source\PSoC5/Filter_PM.c **** *
  67:Generated_Source\PSoC5/Filter_PM.c **** * Summary:
  68:Generated_Source\PSoC5/Filter_PM.c **** *  Restores the current user configuration.
  69:Generated_Source\PSoC5/Filter_PM.c **** *
  70:Generated_Source\PSoC5/Filter_PM.c **** * Parameters:  
  71:Generated_Source\PSoC5/Filter_PM.c **** *  void
  72:Generated_Source\PSoC5/Filter_PM.c **** *
  73:Generated_Source\PSoC5/Filter_PM.c **** * Return: 
  74:Generated_Source\PSoC5/Filter_PM.c **** *  void
  75:Generated_Source\PSoC5/Filter_PM.c **** *
  76:Generated_Source\PSoC5/Filter_PM.c **** * Global variables:
  77:Generated_Source\PSoC5/Filter_PM.c **** *  Filter_backup:  This global structure variable is used to restore 
  78:Generated_Source\PSoC5/Filter_PM.c **** *  configuration registers which are non retention whenever user wants to switch 
  79:Generated_Source\PSoC5/Filter_PM.c **** *  to active power mode by calling Wakeup() API.
  80:Generated_Source\PSoC5/Filter_PM.c **** *
  81:Generated_Source\PSoC5/Filter_PM.c **** *******************************************************************************/
  82:Generated_Source\PSoC5/Filter_PM.c **** void Filter_RestoreConfig(void) 
  83:Generated_Source\PSoC5/Filter_PM.c **** {
 111              		.loc 1 83 0
 112              		.cfi_startproc
 113              		@ args = 0, pretend = 0, frame = 0
 114              		@ frame_needed = 1, uses_anonymous_args = 0
 115              		@ link register save eliminated.
 116 0000 B0B4     		push	{r4, r5, r7}
 117              		.cfi_def_cfa_offset 12
 118              		.cfi_offset 4, -12
 119              		.cfi_offset 5, -8
 120              		.cfi_offset 7, -4
 121 0002 00AF     		add	r7, sp, #0
 122              		.cfi_def_cfa_register 7
  84:Generated_Source\PSoC5/Filter_PM.c ****     Filter_SR_REG = Filter_backup.sr;
 123              		.loc 1 84 0
 124 0004 134B     		ldr	r3, .L5
 125 0006 144A     		ldr	r2, .L5+4
 126 0008 9278     		ldrb	r2, [r2, #2]	@ zero_extendqisi2
 127 000a 1A70     		strb	r2, [r3]
  85:Generated_Source\PSoC5/Filter_PM.c ****     Filter_SEMA_REG = Filter_backup.sema;
 128              		.loc 1 85 0
 129 000c 134B     		ldr	r3, .L5+8
 130 000e 124A     		ldr	r2, .L5+4
 131 0010 D278     		ldrb	r2, [r2, #3]	@ zero_extendqisi2
 132 0012 1A70     		strb	r2, [r3]
  86:Generated_Source\PSoC5/Filter_PM.c ****     
  87:Generated_Source\PSoC5/Filter_PM.c ****     /* Power on DFB before initializing the RAMs */
  88:Generated_Source\PSoC5/Filter_PM.c ****     Filter_PM_ACT_CFG_REG |= Filter_PM_ACT_MSK;
 133              		.loc 1 88 0
 134 0014 124A     		ldr	r2, .L5+12
 135 0016 124B     		ldr	r3, .L5+12
 136 0018 1B78     		ldrb	r3, [r3]
ARM GAS  C:\Users\rens_\AppData\Local\Temp\ccy54pfw.s 			page 5


 137 001a DBB2     		uxtb	r3, r3
 138 001c 43F01003 		orr	r3, r3, #16
 139 0020 DBB2     		uxtb	r3, r3
 140 0022 1370     		strb	r3, [r2]
  89:Generated_Source\PSoC5/Filter_PM.c **** 
  90:Generated_Source\PSoC5/Filter_PM.c ****     /* Put DFB RAM on the bus */
  91:Generated_Source\PSoC5/Filter_PM.c ****     Filter_RAM_DIR_REG = Filter_RAM_DIR_BUS;
 141              		.loc 1 91 0
 142 0024 0F4B     		ldr	r3, .L5+16
 143 0026 3F22     		movs	r2, #63
 144 0028 1A70     		strb	r2, [r3]
  92:Generated_Source\PSoC5/Filter_PM.c **** 
  93:Generated_Source\PSoC5/Filter_PM.c ****     /* Restore ACU RAM as this is not retension */
  94:Generated_Source\PSoC5/Filter_PM.c ****     (void)memcpy(Filter_ACU_RAM,
 145              		.loc 1 94 0
 146 002a 0F4A     		ldr	r2, .L5+20
 147 002c 0A4B     		ldr	r3, .L5+4
 148 002e 1546     		mov	r5, r2
 149 0030 1C1D     		adds	r4, r3, #4
 150 0032 0FCC     		ldmia	r4!, {r0, r1, r2, r3}
 151 0034 0FC5     		stmia	r5!, {r0, r1, r2, r3}
 152 0036 0FCC     		ldmia	r4!, {r0, r1, r2, r3}
 153 0038 0FC5     		stmia	r5!, {r0, r1, r2, r3}
 154 003a 0FCC     		ldmia	r4!, {r0, r1, r2, r3}
 155 003c 0FC5     		stmia	r5!, {r0, r1, r2, r3}
 156 003e 94E80F00 		ldmia	r4, {r0, r1, r2, r3}
 157 0042 85E80F00 		stmia	r5, {r0, r1, r2, r3}
  95:Generated_Source\PSoC5/Filter_PM.c ****         Filter_backup.saveAcu, Filter_ACU_RAM_SIZE); 
  96:Generated_Source\PSoC5/Filter_PM.c **** 
  97:Generated_Source\PSoC5/Filter_PM.c ****     /* Take DFB RAM off the bus */
  98:Generated_Source\PSoC5/Filter_PM.c ****     Filter_RAM_DIR_REG = Filter_RAM_DIR_DFB;
 158              		.loc 1 98 0
 159 0046 074B     		ldr	r3, .L5+16
 160 0048 0022     		movs	r2, #0
 161 004a 1A70     		strb	r2, [r3]
  99:Generated_Source\PSoC5/Filter_PM.c **** }
 162              		.loc 1 99 0
 163 004c 00BF     		nop
 164 004e BD46     		mov	sp, r7
 165              		.cfi_def_cfa_register 13
 166              		@ sp needed
 167 0050 B0BC     		pop	{r4, r5, r7}
 168              		.cfi_restore 7
 169              		.cfi_restore 5
 170              		.cfi_restore 4
 171              		.cfi_def_cfa_offset 0
 172 0052 7047     		bx	lr
 173              	.L6:
 174              		.align	2
 175              	.L5:
 176 0054 84C70040 		.word	1073792900
 177 0058 00000000 		.word	Filter_backup
 178 005c 90C70040 		.word	1073792912
 179 0060 A6430040 		.word	1073759142
 180 0064 8CC70040 		.word	1073792908
 181 0068 00C70040 		.word	1073792768
 182              		.cfi_endproc
ARM GAS  C:\Users\rens_\AppData\Local\Temp\ccy54pfw.s 			page 6


 183              	.LFE1:
 184              		.size	Filter_RestoreConfig, .-Filter_RestoreConfig
 185              		.section	.text.Filter_Sleep,"ax",%progbits
 186              		.align	2
 187              		.global	Filter_Sleep
 188              		.thumb
 189              		.thumb_func
 190              		.type	Filter_Sleep, %function
 191              	Filter_Sleep:
 192              	.LFB2:
 100:Generated_Source\PSoC5/Filter_PM.c **** 
 101:Generated_Source\PSoC5/Filter_PM.c **** 
 102:Generated_Source\PSoC5/Filter_PM.c **** /*******************************************************************************
 103:Generated_Source\PSoC5/Filter_PM.c **** * Function Name: Filter_Sleep
 104:Generated_Source\PSoC5/Filter_PM.c **** ********************************************************************************
 105:Generated_Source\PSoC5/Filter_PM.c **** *
 106:Generated_Source\PSoC5/Filter_PM.c **** * Summary:
 107:Generated_Source\PSoC5/Filter_PM.c **** *  Disables block's operation and saves its configuration. Should be called 
 108:Generated_Source\PSoC5/Filter_PM.c **** *  just prior to entering sleep.
 109:Generated_Source\PSoC5/Filter_PM.c **** *  
 110:Generated_Source\PSoC5/Filter_PM.c **** * Parameters:  
 111:Generated_Source\PSoC5/Filter_PM.c **** *  void
 112:Generated_Source\PSoC5/Filter_PM.c **** *
 113:Generated_Source\PSoC5/Filter_PM.c **** * Return: 
 114:Generated_Source\PSoC5/Filter_PM.c **** *  void
 115:Generated_Source\PSoC5/Filter_PM.c **** *
 116:Generated_Source\PSoC5/Filter_PM.c **** * Global variables:
 117:Generated_Source\PSoC5/Filter_PM.c **** *  Filter_backup:  The structure field 'enableState' is modified 
 118:Generated_Source\PSoC5/Filter_PM.c **** *  depending on the enable state of the block before entering to sleep mode.
 119:Generated_Source\PSoC5/Filter_PM.c **** *
 120:Generated_Source\PSoC5/Filter_PM.c **** *******************************************************************************/
 121:Generated_Source\PSoC5/Filter_PM.c **** void Filter_Sleep(void) 
 122:Generated_Source\PSoC5/Filter_PM.c **** {
 193              		.loc 1 122 0
 194              		.cfi_startproc
 195              		@ args = 0, pretend = 0, frame = 0
 196              		@ frame_needed = 1, uses_anonymous_args = 0
 197 0000 80B5     		push	{r7, lr}
 198              		.cfi_def_cfa_offset 8
 199              		.cfi_offset 7, -8
 200              		.cfi_offset 14, -4
 201 0002 00AF     		add	r7, sp, #0
 202              		.cfi_def_cfa_register 7
 123:Generated_Source\PSoC5/Filter_PM.c ****     /* Save Filter enable state */
 124:Generated_Source\PSoC5/Filter_PM.c ****     if(Filter_PM_ACT_MSK == (Filter_PM_ACT_CFG_REG & Filter_PM_ACT_MSK))
 203              		.loc 1 124 0
 204 0004 094B     		ldr	r3, .L10
 205 0006 1B78     		ldrb	r3, [r3]
 206 0008 DBB2     		uxtb	r3, r3
 207 000a 03F01003 		and	r3, r3, #16
 208 000e 002B     		cmp	r3, #0
 209 0010 03D0     		beq	.L8
 125:Generated_Source\PSoC5/Filter_PM.c ****     {
 126:Generated_Source\PSoC5/Filter_PM.c ****         /* Component is enabled */
 127:Generated_Source\PSoC5/Filter_PM.c ****         Filter_backup.enableState = Filter_ENABLED;
 210              		.loc 1 127 0
 211 0012 074B     		ldr	r3, .L10+4
ARM GAS  C:\Users\rens_\AppData\Local\Temp\ccy54pfw.s 			page 7


 212 0014 0122     		movs	r2, #1
 213 0016 1A70     		strb	r2, [r3]
 214 0018 02E0     		b	.L9
 215              	.L8:
 128:Generated_Source\PSoC5/Filter_PM.c ****     }
 129:Generated_Source\PSoC5/Filter_PM.c ****     else
 130:Generated_Source\PSoC5/Filter_PM.c ****     {
 131:Generated_Source\PSoC5/Filter_PM.c ****         /* Component is disabled */
 132:Generated_Source\PSoC5/Filter_PM.c ****         Filter_backup.enableState = Filter_DISABLED;
 216              		.loc 1 132 0
 217 001a 054B     		ldr	r3, .L10+4
 218 001c 0022     		movs	r2, #0
 219 001e 1A70     		strb	r2, [r3]
 220              	.L9:
 133:Generated_Source\PSoC5/Filter_PM.c ****     }
 134:Generated_Source\PSoC5/Filter_PM.c **** 
 135:Generated_Source\PSoC5/Filter_PM.c ****     /* Save the configuration */
 136:Generated_Source\PSoC5/Filter_PM.c ****     Filter_SaveConfig();
 221              		.loc 1 136 0
 222 0020 FFF7FEFF 		bl	Filter_SaveConfig
 137:Generated_Source\PSoC5/Filter_PM.c ****     
 138:Generated_Source\PSoC5/Filter_PM.c ****     /* Stop the component */
 139:Generated_Source\PSoC5/Filter_PM.c ****     Filter_Stop();
 223              		.loc 1 139 0
 224 0024 FFF7FEFF 		bl	Filter_Stop
 140:Generated_Source\PSoC5/Filter_PM.c **** }
 225              		.loc 1 140 0
 226 0028 00BF     		nop
 227 002a 80BD     		pop	{r7, pc}
 228              	.L11:
 229              		.align	2
 230              	.L10:
 231 002c A6430040 		.word	1073759142
 232 0030 00000000 		.word	Filter_backup
 233              		.cfi_endproc
 234              	.LFE2:
 235              		.size	Filter_Sleep, .-Filter_Sleep
 236              		.section	.text.Filter_Wakeup,"ax",%progbits
 237              		.align	2
 238              		.global	Filter_Wakeup
 239              		.thumb
 240              		.thumb_func
 241              		.type	Filter_Wakeup, %function
 242              	Filter_Wakeup:
 243              	.LFB3:
 141:Generated_Source\PSoC5/Filter_PM.c **** 
 142:Generated_Source\PSoC5/Filter_PM.c **** 
 143:Generated_Source\PSoC5/Filter_PM.c **** /*******************************************************************************
 144:Generated_Source\PSoC5/Filter_PM.c **** * Function Name: Filter_Wakeup
 145:Generated_Source\PSoC5/Filter_PM.c **** ********************************************************************************
 146:Generated_Source\PSoC5/Filter_PM.c **** *
 147:Generated_Source\PSoC5/Filter_PM.c **** * Summary:
 148:Generated_Source\PSoC5/Filter_PM.c **** *  Enables block's operation and restores its configuration. Should be called
 149:Generated_Source\PSoC5/Filter_PM.c **** *  just after awaking from sleep.
 150:Generated_Source\PSoC5/Filter_PM.c **** *  
 151:Generated_Source\PSoC5/Filter_PM.c **** * Parameters:  
 152:Generated_Source\PSoC5/Filter_PM.c **** *  void
ARM GAS  C:\Users\rens_\AppData\Local\Temp\ccy54pfw.s 			page 8


 153:Generated_Source\PSoC5/Filter_PM.c **** *
 154:Generated_Source\PSoC5/Filter_PM.c **** * Return: 
 155:Generated_Source\PSoC5/Filter_PM.c **** *  void
 156:Generated_Source\PSoC5/Filter_PM.c **** *
 157:Generated_Source\PSoC5/Filter_PM.c **** * Global variables:
 158:Generated_Source\PSoC5/Filter_PM.c **** *  Filter_backup:  The structure field 'enableState' is used to 
 159:Generated_Source\PSoC5/Filter_PM.c **** *  restore the enable state of block after wakeup from sleep mode.
 160:Generated_Source\PSoC5/Filter_PM.c **** *
 161:Generated_Source\PSoC5/Filter_PM.c **** *******************************************************************************/
 162:Generated_Source\PSoC5/Filter_PM.c **** void Filter_Wakeup(void) 
 163:Generated_Source\PSoC5/Filter_PM.c **** {
 244              		.loc 1 163 0
 245              		.cfi_startproc
 246              		@ args = 0, pretend = 0, frame = 0
 247              		@ frame_needed = 1, uses_anonymous_args = 0
 248 0000 80B5     		push	{r7, lr}
 249              		.cfi_def_cfa_offset 8
 250              		.cfi_offset 7, -8
 251              		.cfi_offset 14, -4
 252 0002 00AF     		add	r7, sp, #0
 253              		.cfi_def_cfa_register 7
 164:Generated_Source\PSoC5/Filter_PM.c ****     /* Restore the configuration */
 165:Generated_Source\PSoC5/Filter_PM.c ****     Filter_RestoreConfig();
 254              		.loc 1 165 0
 255 0004 FFF7FEFF 		bl	Filter_RestoreConfig
 166:Generated_Source\PSoC5/Filter_PM.c ****     
 167:Generated_Source\PSoC5/Filter_PM.c ****     /* Enable's the component operation */
 168:Generated_Source\PSoC5/Filter_PM.c ****     if(Filter_backup.enableState == Filter_ENABLED)
 256              		.loc 1 168 0
 257 0008 034B     		ldr	r3, .L15
 258 000a 1B78     		ldrb	r3, [r3]	@ zero_extendqisi2
 259 000c 012B     		cmp	r3, #1
 260 000e 01D1     		bne	.L14
 169:Generated_Source\PSoC5/Filter_PM.c ****     {
 170:Generated_Source\PSoC5/Filter_PM.c ****         Filter_Enable();
 261              		.loc 1 170 0
 262 0010 FFF7FEFF 		bl	Filter_Enable
 263              	.L14:
 171:Generated_Source\PSoC5/Filter_PM.c ****     } /* Do nothing if component was disable before */
 172:Generated_Source\PSoC5/Filter_PM.c **** }
 264              		.loc 1 172 0
 265 0014 00BF     		nop
 266 0016 80BD     		pop	{r7, pc}
 267              	.L16:
 268              		.align	2
 269              	.L15:
 270 0018 00000000 		.word	Filter_backup
 271              		.cfi_endproc
 272              	.LFE3:
 273              		.size	Filter_Wakeup, .-Filter_Wakeup
 274              		.text
 275              	.Letext0:
 276              		.file 2 "Generated_Source\\PSoC5\\cytypes.h"
 277              		.file 3 "Generated_Source\\PSoC5\\Filter.H"