ARM GAS  C:\Users\Krist\AppData\Local\Temp\ccLoJ1ic.s 			page 1


   1              		.syntax unified
   2              		.cpu cortex-m3
   3              		.fpu softvfp
   4              		.eabi_attribute 20, 1
   5              		.eabi_attribute 21, 1
   6              		.eabi_attribute 23, 3
   7              		.eabi_attribute 24, 1
   8              		.eabi_attribute 25, 1
   9              		.eabi_attribute 26, 1
  10              		.eabi_attribute 30, 6
  11              		.eabi_attribute 34, 1
  12              		.eabi_attribute 18, 4
  13              		.thumb
  14              		.syntax unified
  15              		.file	"Filter.c"
  16              		.text
  17              	.Ltext0:
  18              		.cfi_sections	.debug_frame
  19              		.global	Filter_initVar
  20              		.bss
  21              		.type	Filter_initVar, %object
  22              		.size	Filter_initVar, 1
  23              	Filter_initVar:
  24 0000 00       		.space	1
  25              		.section	.text.Filter_Init,"ax",%progbits
  26              		.align	2
  27              		.global	Filter_Init
  28              		.thumb
  29              		.thumb_func
  30              		.type	Filter_Init, %function
  31              	Filter_Init:
  32              	.LFB0:
  33              		.file 1 "Generated_Source\\PSoC5\\Filter.c"
   1:Generated_Source\PSoC5/Filter.c **** /*******************************************************************************
   2:Generated_Source\PSoC5/Filter.c **** * File Name: Filter.c
   3:Generated_Source\PSoC5/Filter.c **** * Version 2.30
   4:Generated_Source\PSoC5/Filter.c **** *
   5:Generated_Source\PSoC5/Filter.c **** * Description:
   6:Generated_Source\PSoC5/Filter.c **** *  This file provides the API source code for the FILT component.
   7:Generated_Source\PSoC5/Filter.c **** *
   8:Generated_Source\PSoC5/Filter.c **** * Note:
   9:Generated_Source\PSoC5/Filter.c **** *  
  10:Generated_Source\PSoC5/Filter.c **** *******************************************************************************
  11:Generated_Source\PSoC5/Filter.c **** * Copyright 2008-2013, Cypress Semiconductor Corporation.  All rights reserved.
  12:Generated_Source\PSoC5/Filter.c **** * You may use this file only in accordance with the license, terms, conditions, 
  13:Generated_Source\PSoC5/Filter.c **** * disclaimers, and limitations in the end user license agreement accompanying 
  14:Generated_Source\PSoC5/Filter.c **** * the software package with which this file was provided.
  15:Generated_Source\PSoC5/Filter.c **** ********************************************************************************/
  16:Generated_Source\PSoC5/Filter.c **** 
  17:Generated_Source\PSoC5/Filter.c **** #include "Filter_PVT.h"
  18:Generated_Source\PSoC5/Filter.c **** 
  19:Generated_Source\PSoC5/Filter.c **** 
  20:Generated_Source\PSoC5/Filter.c **** /*******************************************************************************
  21:Generated_Source\PSoC5/Filter.c **** * FILT component internal variables.
  22:Generated_Source\PSoC5/Filter.c **** *******************************************************************************/
  23:Generated_Source\PSoC5/Filter.c **** 
  24:Generated_Source\PSoC5/Filter.c **** uint8 Filter_initVar = 0x0u;
ARM GAS  C:\Users\Krist\AppData\Local\Temp\ccLoJ1ic.s 			page 2


  25:Generated_Source\PSoC5/Filter.c **** 
  26:Generated_Source\PSoC5/Filter.c **** 
  27:Generated_Source\PSoC5/Filter.c **** /*******************************************************************************
  28:Generated_Source\PSoC5/Filter.c **** * Function Name: Filter_Init
  29:Generated_Source\PSoC5/Filter.c **** ********************************************************************************
  30:Generated_Source\PSoC5/Filter.c **** *
  31:Generated_Source\PSoC5/Filter.c **** * Summary:
  32:Generated_Source\PSoC5/Filter.c **** *  Initialize component's parameters to the parameters set by user in the 
  33:Generated_Source\PSoC5/Filter.c **** *  customizer of the component placed onto schematic. Usually called in 
  34:Generated_Source\PSoC5/Filter.c **** *  Filter_Start().
  35:Generated_Source\PSoC5/Filter.c **** *
  36:Generated_Source\PSoC5/Filter.c **** * Parameters:  
  37:Generated_Source\PSoC5/Filter.c **** *  void
  38:Generated_Source\PSoC5/Filter.c **** *
  39:Generated_Source\PSoC5/Filter.c **** * Return: 
  40:Generated_Source\PSoC5/Filter.c **** *  void
  41:Generated_Source\PSoC5/Filter.c **** *
  42:Generated_Source\PSoC5/Filter.c **** *******************************************************************************/
  43:Generated_Source\PSoC5/Filter.c **** void Filter_Init(void) 
  44:Generated_Source\PSoC5/Filter.c **** {
  34              		.loc 1 44 0
  35              		.cfi_startproc
  36              		@ args = 0, pretend = 0, frame = 0
  37              		@ frame_needed = 1, uses_anonymous_args = 0
  38 0000 F8B5     		push	{r3, r4, r5, r6, r7, lr}
  39              		.cfi_def_cfa_offset 24
  40              		.cfi_offset 3, -24
  41              		.cfi_offset 4, -20
  42              		.cfi_offset 5, -16
  43              		.cfi_offset 6, -12
  44              		.cfi_offset 7, -8
  45              		.cfi_offset 14, -4
  46 0002 00AF     		add	r7, sp, #0
  47              		.cfi_def_cfa_register 7
  45:Generated_Source\PSoC5/Filter.c ****         /* Power on DFB before initializing the RAMs */
  46:Generated_Source\PSoC5/Filter.c ****     Filter_PM_ACT_CFG_REG |= Filter_PM_ACT_MSK;
  48              		.loc 1 46 0
  49 0004 304A     		ldr	r2, .L3
  50 0006 304B     		ldr	r3, .L3
  51 0008 1B78     		ldrb	r3, [r3]
  52 000a DBB2     		uxtb	r3, r3
  53 000c 43F01003 		orr	r3, r3, #16
  54 0010 DBB2     		uxtb	r3, r3
  55 0012 1370     		strb	r3, [r2]
  47:Generated_Source\PSoC5/Filter.c **** 
  48:Generated_Source\PSoC5/Filter.c ****     /* Turn off Run Bit */
  49:Generated_Source\PSoC5/Filter.c ****     Filter_CR_REG &= (uint8)~Filter_RUN_MASK;
  56              		.loc 1 49 0
  57 0014 2D4A     		ldr	r2, .L3+4
  58 0016 2D4B     		ldr	r3, .L3+4
  59 0018 1B78     		ldrb	r3, [r3]
  60 001a DBB2     		uxtb	r3, r3
  61 001c 23F00103 		bic	r3, r3, #1
  62 0020 DBB2     		uxtb	r3, r3
  63 0022 1370     		strb	r3, [r2]
  50:Generated_Source\PSoC5/Filter.c ****                 
  51:Generated_Source\PSoC5/Filter.c ****     /* Enable the DFB RAMS */
ARM GAS  C:\Users\Krist\AppData\Local\Temp\ccLoJ1ic.s 			page 3


  52:Generated_Source\PSoC5/Filter.c ****     Filter_RAM_EN_REG = Filter_RAM_DIR_BUS;
  64              		.loc 1 52 0
  65 0024 2A4B     		ldr	r3, .L3+8
  66 0026 3F22     		movs	r2, #63
  67 0028 1A70     		strb	r2, [r3]
  53:Generated_Source\PSoC5/Filter.c ****         
  54:Generated_Source\PSoC5/Filter.c ****     /* Put DFB RAM on the bus */
  55:Generated_Source\PSoC5/Filter.c ****     Filter_RAM_DIR_REG = Filter_RAM_DIR_BUS;
  68              		.loc 1 55 0
  69 002a 2A4B     		ldr	r3, .L3+12
  70 002c 3F22     		movs	r2, #63
  71 002e 1A70     		strb	r2, [r3]
  56:Generated_Source\PSoC5/Filter.c ****         
  57:Generated_Source\PSoC5/Filter.c ****     /* Write DFB RAMs */
  58:Generated_Source\PSoC5/Filter.c ****     /* Control Store RAMs */
  59:Generated_Source\PSoC5/Filter.c ****     (void)memcpy( Filter_CSA_RAM,
  72              		.loc 1 59 0
  73 0030 294A     		ldr	r2, .L3+16
  74 0032 2A4B     		ldr	r3, .L3+20
  75 0034 1046     		mov	r0, r2
  76 0036 1946     		mov	r1, r3
  77 0038 4FF48073 		mov	r3, #256
  78 003c 1A46     		mov	r2, r3
  79 003e FFF7FEFF 		bl	memcpy
  60:Generated_Source\PSoC5/Filter.c ****         Filter_control, Filter_CSA_RAM_SIZE); 
  61:Generated_Source\PSoC5/Filter.c ****     (void)memcpy(Filter_CSB_RAM,
  80              		.loc 1 61 0
  81 0042 274A     		ldr	r2, .L3+24
  82 0044 254B     		ldr	r3, .L3+20
  83 0046 1046     		mov	r0, r2
  84 0048 1946     		mov	r1, r3
  85 004a 4FF48073 		mov	r3, #256
  86 004e 1A46     		mov	r2, r3
  87 0050 FFF7FEFF 		bl	memcpy
  62:Generated_Source\PSoC5/Filter.c ****         Filter_control, Filter_CSB_RAM_SIZE); 
  63:Generated_Source\PSoC5/Filter.c ****     /* CFSM RAM */
  64:Generated_Source\PSoC5/Filter.c ****     (void)memcpy(Filter_CFSM_RAM,
  88              		.loc 1 64 0
  89 0054 234A     		ldr	r2, .L3+28
  90 0056 244B     		ldr	r3, .L3+32
  91 0058 1046     		mov	r0, r2
  92 005a 1946     		mov	r1, r3
  93 005c 4FF48073 		mov	r3, #256
  94 0060 1A46     		mov	r2, r3
  95 0062 FFF7FEFF 		bl	memcpy
  65:Generated_Source\PSoC5/Filter.c ****         Filter_cfsm, Filter_CFSM_RAM_SIZE); 
  66:Generated_Source\PSoC5/Filter.c ****     /* Data RAMs */
  67:Generated_Source\PSoC5/Filter.c ****     (void)memcpy(Filter_DA_RAM,
  96              		.loc 1 67 0
  97 0066 214A     		ldr	r2, .L3+36
  98 0068 214B     		ldr	r3, .L3+40
  99 006a 1046     		mov	r0, r2
 100 006c 1946     		mov	r1, r3
 101 006e 4FF40073 		mov	r3, #512
 102 0072 1A46     		mov	r2, r3
 103 0074 FFF7FEFF 		bl	memcpy
  68:Generated_Source\PSoC5/Filter.c ****         Filter_data_a, Filter_DA_RAM_SIZE); 
ARM GAS  C:\Users\Krist\AppData\Local\Temp\ccLoJ1ic.s 			page 4


  69:Generated_Source\PSoC5/Filter.c ****     (void)memcpy(Filter_DB_RAM,
 104              		.loc 1 69 0
 105 0078 1E4A     		ldr	r2, .L3+44
 106 007a 1F4B     		ldr	r3, .L3+48
 107 007c 1046     		mov	r0, r2
 108 007e 1946     		mov	r1, r3
 109 0080 4FF40073 		mov	r3, #512
 110 0084 1A46     		mov	r2, r3
 111 0086 FFF7FEFF 		bl	memcpy
  70:Generated_Source\PSoC5/Filter.c ****         Filter_data_b, Filter_DB_RAM_SIZE); 
  71:Generated_Source\PSoC5/Filter.c ****     /* ACU RAM */
  72:Generated_Source\PSoC5/Filter.c ****     (void)memcpy(Filter_ACU_RAM,
 112              		.loc 1 72 0
 113 008a 1C4B     		ldr	r3, .L3+52
 114 008c 1C4A     		ldr	r2, .L3+56
 115 008e 1446     		mov	r4, r2
 116 0090 1E46     		mov	r6, r3
 117 0092 04F1400E 		add	lr, r4, #64
 118              	.L2:
 119 0096 3546     		mov	r5, r6
 120 0098 2346     		mov	r3, r4
 121 009a 1868     		ldr	r0, [r3]	@ unaligned
 122 009c 5968     		ldr	r1, [r3, #4]	@ unaligned
 123 009e 9A68     		ldr	r2, [r3, #8]	@ unaligned
 124 00a0 DB68     		ldr	r3, [r3, #12]	@ unaligned
 125 00a2 0FC5     		stmia	r5!, {r0, r1, r2, r3}
 126 00a4 1034     		adds	r4, r4, #16
 127 00a6 1036     		adds	r6, r6, #16
 128 00a8 7445     		cmp	r4, lr
 129 00aa F4D1     		bne	.L2
  73:Generated_Source\PSoC5/Filter.c ****         Filter_acu, Filter_ACU_RAM_SIZE); 
  74:Generated_Source\PSoC5/Filter.c **** 
  75:Generated_Source\PSoC5/Filter.c ****     /* Take DFB RAM off the bus */
  76:Generated_Source\PSoC5/Filter.c ****     Filter_RAM_DIR_REG = Filter_RAM_DIR_DFB;
 130              		.loc 1 76 0
 131 00ac 094B     		ldr	r3, .L3+12
 132 00ae 0022     		movs	r2, #0
 133 00b0 1A70     		strb	r2, [r3]
  77:Generated_Source\PSoC5/Filter.c **** 
  78:Generated_Source\PSoC5/Filter.c ****     /* Set up interrupt and DMA events */
  79:Generated_Source\PSoC5/Filter.c ****     Filter_SetInterruptMode(Filter_INIT_INTERRUPT_MODE);
 134              		.loc 1 79 0
 135 00b2 0020     		movs	r0, #0
 136 00b4 FFF7FEFF 		bl	Filter_SetInterruptMode
  80:Generated_Source\PSoC5/Filter.c ****     Filter_SetDMAMode(Filter_INIT_DMA_MODE);
 137              		.loc 1 80 0
 138 00b8 0520     		movs	r0, #5
 139 00ba FFF7FEFF 		bl	Filter_SetDMAMode
  81:Generated_Source\PSoC5/Filter.c ****         
  82:Generated_Source\PSoC5/Filter.c ****     /* Clear any pending interrupts */
  83:Generated_Source\PSoC5/Filter.c ****     /* Bits [2..0] of this register are readonly. */
  84:Generated_Source\PSoC5/Filter.c ****     Filter_SR_REG = 0xf8u;   
 140              		.loc 1 84 0
 141 00be 114B     		ldr	r3, .L3+60
 142 00c0 F822     		movs	r2, #248
 143 00c2 1A70     		strb	r2, [r3]
  85:Generated_Source\PSoC5/Filter.c **** }
ARM GAS  C:\Users\Krist\AppData\Local\Temp\ccLoJ1ic.s 			page 5


 144              		.loc 1 85 0
 145 00c4 00BF     		nop
 146 00c6 F8BD     		pop	{r3, r4, r5, r6, r7, pc}
 147              	.L4:
 148              		.align	2
 149              	.L3:
 150 00c8 A6430040 		.word	1073759142
 151 00cc 80C70040 		.word	1073792896
 152 00d0 88C70040 		.word	1073792904
 153 00d4 8CC70040 		.word	1073792908
 154 00d8 00C40040 		.word	1073792000
 155 00dc 00000000 		.word	Filter_control
 156 00e0 00C50040 		.word	1073792256
 157 00e4 00C60040 		.word	1073792512
 158 00e8 00000000 		.word	Filter_cfsm
 159 00ec 00C00040 		.word	1073790976
 160 00f0 00000000 		.word	Filter_data_a
 161 00f4 00C20040 		.word	1073791488
 162 00f8 00000000 		.word	Filter_data_b
 163 00fc 00C70040 		.word	1073792768
 164 0100 00000000 		.word	Filter_acu
 165 0104 84C70040 		.word	1073792900
 166              		.cfi_endproc
 167              	.LFE0:
 168              		.size	Filter_Init, .-Filter_Init
 169              		.section	.text.Filter_Enable,"ax",%progbits
 170              		.align	2
 171              		.global	Filter_Enable
 172              		.thumb
 173              		.thumb_func
 174              		.type	Filter_Enable, %function
 175              	Filter_Enable:
 176              	.LFB1:
  86:Generated_Source\PSoC5/Filter.c **** 
  87:Generated_Source\PSoC5/Filter.c **** 
  88:Generated_Source\PSoC5/Filter.c **** /*******************************************************************************
  89:Generated_Source\PSoC5/Filter.c **** * Function Name: Filter_Enable
  90:Generated_Source\PSoC5/Filter.c **** ********************************************************************************
  91:Generated_Source\PSoC5/Filter.c **** *  
  92:Generated_Source\PSoC5/Filter.c **** * Summary: 
  93:Generated_Source\PSoC5/Filter.c **** *  Enables the DFB run bit.
  94:Generated_Source\PSoC5/Filter.c **** *
  95:Generated_Source\PSoC5/Filter.c **** * Parameters:  
  96:Generated_Source\PSoC5/Filter.c **** *  void
  97:Generated_Source\PSoC5/Filter.c **** *
  98:Generated_Source\PSoC5/Filter.c **** * Return: 
  99:Generated_Source\PSoC5/Filter.c **** *  void
 100:Generated_Source\PSoC5/Filter.c **** *
 101:Generated_Source\PSoC5/Filter.c **** *******************************************************************************/
 102:Generated_Source\PSoC5/Filter.c **** void Filter_Enable(void) 
 103:Generated_Source\PSoC5/Filter.c **** {
 177              		.loc 1 103 0
 178              		.cfi_startproc
 179              		@ args = 0, pretend = 0, frame = 0
 180              		@ frame_needed = 1, uses_anonymous_args = 0
 181              		@ link register save eliminated.
 182 0000 80B4     		push	{r7}
ARM GAS  C:\Users\Krist\AppData\Local\Temp\ccLoJ1ic.s 			page 6


 183              		.cfi_def_cfa_offset 4
 184              		.cfi_offset 7, -4
 185 0002 00AF     		add	r7, sp, #0
 186              		.cfi_def_cfa_register 7
 104:Generated_Source\PSoC5/Filter.c ****     /* Power on DFB in Active mode */
 105:Generated_Source\PSoC5/Filter.c ****     Filter_PM_ACT_CFG_REG |= Filter_PM_ACT_MSK;
 187              		.loc 1 105 0
 188 0004 0D4A     		ldr	r2, .L6
 189 0006 0D4B     		ldr	r3, .L6
 190 0008 1B78     		ldrb	r3, [r3]
 191 000a DBB2     		uxtb	r3, r3
 192 000c 43F01003 		orr	r3, r3, #16
 193 0010 DBB2     		uxtb	r3, r3
 194 0012 1370     		strb	r3, [r2]
 106:Generated_Source\PSoC5/Filter.c ****         
 107:Generated_Source\PSoC5/Filter.c ****     /* Power on DFB in Alternative Active mode */
 108:Generated_Source\PSoC5/Filter.c ****     Filter_PM_STBY_CFG_REG |= Filter_PM_STBY_MSK;
 195              		.loc 1 108 0
 196 0014 0A4A     		ldr	r2, .L6+4
 197 0016 0A4B     		ldr	r3, .L6+4
 198 0018 1B78     		ldrb	r3, [r3]
 199 001a DBB2     		uxtb	r3, r3
 200 001c 43F01003 		orr	r3, r3, #16
 201 0020 DBB2     		uxtb	r3, r3
 202 0022 1370     		strb	r3, [r2]
 109:Generated_Source\PSoC5/Filter.c **** 
 110:Generated_Source\PSoC5/Filter.c ****     /* Turn on Run Bit */
 111:Generated_Source\PSoC5/Filter.c ****     Filter_CR_REG |= Filter_RUN_MASK;
 203              		.loc 1 111 0
 204 0024 074A     		ldr	r2, .L6+8
 205 0026 074B     		ldr	r3, .L6+8
 206 0028 1B78     		ldrb	r3, [r3]
 207 002a DBB2     		uxtb	r3, r3
 208 002c 43F00103 		orr	r3, r3, #1
 209 0030 DBB2     		uxtb	r3, r3
 210 0032 1370     		strb	r3, [r2]
 112:Generated_Source\PSoC5/Filter.c **** }
 211              		.loc 1 112 0
 212 0034 00BF     		nop
 213 0036 BD46     		mov	sp, r7
 214              		.cfi_def_cfa_register 13
 215              		@ sp needed
 216 0038 80BC     		pop	{r7}
 217              		.cfi_restore 7
 218              		.cfi_def_cfa_offset 0
 219 003a 7047     		bx	lr
 220              	.L7:
 221              		.align	2
 222              	.L6:
 223 003c A6430040 		.word	1073759142
 224 0040 B6430040 		.word	1073759158
 225 0044 80C70040 		.word	1073792896
 226              		.cfi_endproc
 227              	.LFE1:
 228              		.size	Filter_Enable, .-Filter_Enable
 229              		.section	.text.Filter_Start,"ax",%progbits
 230              		.align	2
ARM GAS  C:\Users\Krist\AppData\Local\Temp\ccLoJ1ic.s 			page 7


 231              		.global	Filter_Start
 232              		.thumb
 233              		.thumb_func
 234              		.type	Filter_Start, %function
 235              	Filter_Start:
 236              	.LFB2:
 113:Generated_Source\PSoC5/Filter.c **** 
 114:Generated_Source\PSoC5/Filter.c **** 
 115:Generated_Source\PSoC5/Filter.c **** /*******************************************************************************
 116:Generated_Source\PSoC5/Filter.c **** * Function Name: Filter_Start
 117:Generated_Source\PSoC5/Filter.c **** ********************************************************************************
 118:Generated_Source\PSoC5/Filter.c **** *
 119:Generated_Source\PSoC5/Filter.c **** * Summary:
 120:Generated_Source\PSoC5/Filter.c **** *  This method does the prep work necessary to setup DFB.  This includes loading 
 121:Generated_Source\PSoC5/Filter.c **** *
 122:Generated_Source\PSoC5/Filter.c **** * Parameters:  
 123:Generated_Source\PSoC5/Filter.c **** *  void
 124:Generated_Source\PSoC5/Filter.c **** * 
 125:Generated_Source\PSoC5/Filter.c **** * Return: 
 126:Generated_Source\PSoC5/Filter.c **** *  void
 127:Generated_Source\PSoC5/Filter.c **** *
 128:Generated_Source\PSoC5/Filter.c **** * Global variables:
 129:Generated_Source\PSoC5/Filter.c **** *  Filter_initVar:  Used to check the initial configuration,
 130:Generated_Source\PSoC5/Filter.c **** *  modified when this function is called for the first time.
 131:Generated_Source\PSoC5/Filter.c **** *
 132:Generated_Source\PSoC5/Filter.c **** * Note: 
 133:Generated_Source\PSoC5/Filter.c **** *  Use Filter_InterruptConfig to control which events trigger 
 134:Generated_Source\PSoC5/Filter.c **** *  interrupts in the DFB. 
 135:Generated_Source\PSoC5/Filter.c **** *
 136:Generated_Source\PSoC5/Filter.c **** *******************************************************************************/
 137:Generated_Source\PSoC5/Filter.c **** void Filter_Start(void) 
 138:Generated_Source\PSoC5/Filter.c **** {
 237              		.loc 1 138 0
 238              		.cfi_startproc
 239              		@ args = 0, pretend = 0, frame = 0
 240              		@ frame_needed = 1, uses_anonymous_args = 0
 241 0000 80B5     		push	{r7, lr}
 242              		.cfi_def_cfa_offset 8
 243              		.cfi_offset 7, -8
 244              		.cfi_offset 14, -4
 245 0002 00AF     		add	r7, sp, #0
 246              		.cfi_def_cfa_register 7
 139:Generated_Source\PSoC5/Filter.c ****      /* If not Initialized then initialize all required hardware and software */
 140:Generated_Source\PSoC5/Filter.c ****     if(Filter_initVar == 0u)
 247              		.loc 1 140 0
 248 0004 064B     		ldr	r3, .L10
 249 0006 1B78     		ldrb	r3, [r3]	@ zero_extendqisi2
 250 0008 002B     		cmp	r3, #0
 251 000a 04D1     		bne	.L9
 141:Generated_Source\PSoC5/Filter.c ****     {
 142:Generated_Source\PSoC5/Filter.c ****         Filter_Init();
 252              		.loc 1 142 0
 253 000c FFF7FEFF 		bl	Filter_Init
 143:Generated_Source\PSoC5/Filter.c ****         Filter_initVar = 1u;
 254              		.loc 1 143 0
 255 0010 034B     		ldr	r3, .L10
 256 0012 0122     		movs	r2, #1
ARM GAS  C:\Users\Krist\AppData\Local\Temp\ccLoJ1ic.s 			page 8


 257 0014 1A70     		strb	r2, [r3]
 258              	.L9:
 144:Generated_Source\PSoC5/Filter.c ****     }
 145:Generated_Source\PSoC5/Filter.c **** 
 146:Generated_Source\PSoC5/Filter.c ****     /* Enable the DFB block */
 147:Generated_Source\PSoC5/Filter.c ****     Filter_Enable();
 259              		.loc 1 147 0
 260 0016 FFF7FEFF 		bl	Filter_Enable
 148:Generated_Source\PSoC5/Filter.c **** }
 261              		.loc 1 148 0
 262 001a 00BF     		nop
 263 001c 80BD     		pop	{r7, pc}
 264              	.L11:
 265 001e 00BF     		.align	2
 266              	.L10:
 267 0020 00000000 		.word	Filter_initVar
 268              		.cfi_endproc
 269              	.LFE2:
 270              		.size	Filter_Start, .-Filter_Start
 271              		.section	.text.Filter_Stop,"ax",%progbits
 272              		.align	2
 273              		.global	Filter_Stop
 274              		.thumb
 275              		.thumb_func
 276              		.type	Filter_Stop, %function
 277              	Filter_Stop:
 278              	.LFB3:
 149:Generated_Source\PSoC5/Filter.c **** 
 150:Generated_Source\PSoC5/Filter.c **** 
 151:Generated_Source\PSoC5/Filter.c **** /*******************************************************************************
 152:Generated_Source\PSoC5/Filter.c **** * Function Name: Filter_Stop
 153:Generated_Source\PSoC5/Filter.c **** ********************************************************************************
 154:Generated_Source\PSoC5/Filter.c **** *
 155:Generated_Source\PSoC5/Filter.c **** * Summary:
 156:Generated_Source\PSoC5/Filter.c **** *  Turn off the run bit.  If DMA control is used to feed the channels, allow 
 157:Generated_Source\PSoC5/Filter.c **** *  arguments to turn one of the TD channels off. 
 158:Generated_Source\PSoC5/Filter.c **** *
 159:Generated_Source\PSoC5/Filter.c **** * Parameters:  
 160:Generated_Source\PSoC5/Filter.c **** *  void
 161:Generated_Source\PSoC5/Filter.c **** *
 162:Generated_Source\PSoC5/Filter.c **** * Return: 
 163:Generated_Source\PSoC5/Filter.c **** *  void
 164:Generated_Source\PSoC5/Filter.c **** *
 165:Generated_Source\PSoC5/Filter.c **** *******************************************************************************/
 166:Generated_Source\PSoC5/Filter.c **** void Filter_Stop(void) 
 167:Generated_Source\PSoC5/Filter.c **** {
 279              		.loc 1 167 0
 280              		.cfi_startproc
 281              		@ args = 0, pretend = 0, frame = 0
 282              		@ frame_needed = 1, uses_anonymous_args = 0
 283              		@ link register save eliminated.
 284 0000 80B4     		push	{r7}
 285              		.cfi_def_cfa_offset 4
 286              		.cfi_offset 7, -4
 287 0002 00AF     		add	r7, sp, #0
 288              		.cfi_def_cfa_register 7
 168:Generated_Source\PSoC5/Filter.c ****     Filter_CR_REG &= (uint8)~(Filter_RUN_MASK);
ARM GAS  C:\Users\Krist\AppData\Local\Temp\ccLoJ1ic.s 			page 9


 289              		.loc 1 168 0
 290 0004 0D4A     		ldr	r2, .L13
 291 0006 0D4B     		ldr	r3, .L13
 292 0008 1B78     		ldrb	r3, [r3]
 293 000a DBB2     		uxtb	r3, r3
 294 000c 23F00103 		bic	r3, r3, #1
 295 0010 DBB2     		uxtb	r3, r3
 296 0012 1370     		strb	r3, [r2]
 169:Generated_Source\PSoC5/Filter.c **** 
 170:Generated_Source\PSoC5/Filter.c ****     /* Power off DFB in Active mode */
 171:Generated_Source\PSoC5/Filter.c ****     Filter_PM_ACT_CFG_REG &= (uint8)~Filter_PM_ACT_MSK;
 297              		.loc 1 171 0
 298 0014 0A4A     		ldr	r2, .L13+4
 299 0016 0A4B     		ldr	r3, .L13+4
 300 0018 1B78     		ldrb	r3, [r3]
 301 001a DBB2     		uxtb	r3, r3
 302 001c 23F01003 		bic	r3, r3, #16
 303 0020 DBB2     		uxtb	r3, r3
 304 0022 1370     		strb	r3, [r2]
 172:Generated_Source\PSoC5/Filter.c ****     
 173:Generated_Source\PSoC5/Filter.c ****     /* Power off DFB in Alternative Active mode */
 174:Generated_Source\PSoC5/Filter.c ****     Filter_PM_STBY_CFG_REG &= (uint8)~Filter_PM_STBY_MSK;
 305              		.loc 1 174 0
 306 0024 074A     		ldr	r2, .L13+8
 307 0026 074B     		ldr	r3, .L13+8
 308 0028 1B78     		ldrb	r3, [r3]
 309 002a DBB2     		uxtb	r3, r3
 310 002c 23F01003 		bic	r3, r3, #16
 311 0030 DBB2     		uxtb	r3, r3
 312 0032 1370     		strb	r3, [r2]
 175:Generated_Source\PSoC5/Filter.c **** }
 313              		.loc 1 175 0
 314 0034 00BF     		nop
 315 0036 BD46     		mov	sp, r7
 316              		.cfi_def_cfa_register 13
 317              		@ sp needed
 318 0038 80BC     		pop	{r7}
 319              		.cfi_restore 7
 320              		.cfi_def_cfa_offset 0
 321 003a 7047     		bx	lr
 322              	.L14:
 323              		.align	2
 324              	.L13:
 325 003c 80C70040 		.word	1073792896
 326 0040 A6430040 		.word	1073759142
 327 0044 B6430040 		.word	1073759158
 328              		.cfi_endproc
 329              	.LFE3:
 330              		.size	Filter_Stop, .-Filter_Stop
 331              		.section	.text.Filter_Read8,"ax",%progbits
 332              		.align	2
 333              		.global	Filter_Read8
 334              		.thumb
 335              		.thumb_func
 336              		.type	Filter_Read8, %function
 337              	Filter_Read8:
 338              	.LFB4:
ARM GAS  C:\Users\Krist\AppData\Local\Temp\ccLoJ1ic.s 			page 10


 176:Generated_Source\PSoC5/Filter.c **** 
 177:Generated_Source\PSoC5/Filter.c **** 
 178:Generated_Source\PSoC5/Filter.c **** /*******************************************************************************
 179:Generated_Source\PSoC5/Filter.c **** * Function Name: Filter_Read8
 180:Generated_Source\PSoC5/Filter.c **** ********************************************************************************
 181:Generated_Source\PSoC5/Filter.c **** *
 182:Generated_Source\PSoC5/Filter.c **** * Summary:
 183:Generated_Source\PSoC5/Filter.c **** *  Get the value in one of the DFB Output Holding Registers 
 184:Generated_Source\PSoC5/Filter.c **** *
 185:Generated_Source\PSoC5/Filter.c **** * Parameters:  
 186:Generated_Source\PSoC5/Filter.c **** *  channel:  Filter_CHANNEL_A or Filter_CHANNEL_B
 187:Generated_Source\PSoC5/Filter.c **** *            
 188:Generated_Source\PSoC5/Filter.c **** * Return: 
 189:Generated_Source\PSoC5/Filter.c **** *  The most significant 8 bits of the current output value sitting in the 
 190:Generated_Source\PSoC5/Filter.c **** *  selected channel's holding register or 0x00 for invalid channel numbers.
 191:Generated_Source\PSoC5/Filter.c **** *
 192:Generated_Source\PSoC5/Filter.c **** *******************************************************************************/
 193:Generated_Source\PSoC5/Filter.c **** uint8 Filter_Read8(uint8 channel) 
 194:Generated_Source\PSoC5/Filter.c **** {
 339              		.loc 1 194 0
 340              		.cfi_startproc
 341              		@ args = 0, pretend = 0, frame = 16
 342              		@ frame_needed = 1, uses_anonymous_args = 0
 343              		@ link register save eliminated.
 344 0000 80B4     		push	{r7}
 345              		.cfi_def_cfa_offset 4
 346              		.cfi_offset 7, -4
 347 0002 85B0     		sub	sp, sp, #20
 348              		.cfi_def_cfa_offset 24
 349 0004 00AF     		add	r7, sp, #0
 350              		.cfi_def_cfa_register 7
 351 0006 0346     		mov	r3, r0
 352 0008 FB71     		strb	r3, [r7, #7]
 195:Generated_Source\PSoC5/Filter.c ****     uint8 value;
 196:Generated_Source\PSoC5/Filter.c **** 
 197:Generated_Source\PSoC5/Filter.c ****     if (channel == Filter_CHANNEL_A)
 353              		.loc 1 197 0
 354 000a FB79     		ldrb	r3, [r7, #7]	@ zero_extendqisi2
 355 000c 002B     		cmp	r3, #0
 356 000e 03D1     		bne	.L16
 198:Generated_Source\PSoC5/Filter.c ****     {
 199:Generated_Source\PSoC5/Filter.c ****         value = Filter_HOLDAH_REG;
 357              		.loc 1 199 0
 358 0010 094B     		ldr	r3, .L20
 359 0012 1B78     		ldrb	r3, [r3]
 360 0014 FB73     		strb	r3, [r7, #15]
 361 0016 08E0     		b	.L17
 362              	.L16:
 200:Generated_Source\PSoC5/Filter.c ****     }
 201:Generated_Source\PSoC5/Filter.c ****     else if (channel == Filter_CHANNEL_B)
 363              		.loc 1 201 0
 364 0018 FB79     		ldrb	r3, [r7, #7]	@ zero_extendqisi2
 365 001a 012B     		cmp	r3, #1
 366 001c 03D1     		bne	.L18
 202:Generated_Source\PSoC5/Filter.c ****     {
 203:Generated_Source\PSoC5/Filter.c ****         value = Filter_HOLDBH_REG;
 367              		.loc 1 203 0
ARM GAS  C:\Users\Krist\AppData\Local\Temp\ccLoJ1ic.s 			page 11


 368 001e 074B     		ldr	r3, .L20+4
 369 0020 1B78     		ldrb	r3, [r3]
 370 0022 FB73     		strb	r3, [r7, #15]
 371 0024 01E0     		b	.L17
 372              	.L18:
 204:Generated_Source\PSoC5/Filter.c ****     }
 205:Generated_Source\PSoC5/Filter.c ****     else
 206:Generated_Source\PSoC5/Filter.c ****     {
 207:Generated_Source\PSoC5/Filter.c ****         value = 0x0u;
 373              		.loc 1 207 0
 374 0026 0023     		movs	r3, #0
 375 0028 FB73     		strb	r3, [r7, #15]
 376              	.L17:
 208:Generated_Source\PSoC5/Filter.c ****     }
 209:Generated_Source\PSoC5/Filter.c ****     return value;
 377              		.loc 1 209 0
 378 002a FB7B     		ldrb	r3, [r7, #15]	@ zero_extendqisi2
 210:Generated_Source\PSoC5/Filter.c **** }
 379              		.loc 1 210 0
 380 002c 1846     		mov	r0, r3
 381 002e 1437     		adds	r7, r7, #20
 382              		.cfi_def_cfa_offset 4
 383 0030 BD46     		mov	sp, r7
 384              		.cfi_def_cfa_register 13
 385              		@ sp needed
 386 0032 80BC     		pop	{r7}
 387              		.cfi_restore 7
 388              		.cfi_def_cfa_offset 0
 389 0034 7047     		bx	lr
 390              	.L21:
 391 0036 00BF     		.align	2
 392              	.L20:
 393 0038 AAC70040 		.word	1073792938
 394 003c AEC70040 		.word	1073792942
 395              		.cfi_endproc
 396              	.LFE4:
 397              		.size	Filter_Read8, .-Filter_Read8
 398              		.section	.text.Filter_Read16,"ax",%progbits
 399              		.align	2
 400              		.global	Filter_Read16
 401              		.thumb
 402              		.thumb_func
 403              		.type	Filter_Read16, %function
 404              	Filter_Read16:
 405              	.LFB5:
 211:Generated_Source\PSoC5/Filter.c **** 
 212:Generated_Source\PSoC5/Filter.c **** 
 213:Generated_Source\PSoC5/Filter.c **** /*******************************************************************************
 214:Generated_Source\PSoC5/Filter.c **** * Function Name: Filter_Read16
 215:Generated_Source\PSoC5/Filter.c **** ********************************************************************************
 216:Generated_Source\PSoC5/Filter.c **** *
 217:Generated_Source\PSoC5/Filter.c **** * Summary:
 218:Generated_Source\PSoC5/Filter.c **** *  Get the value in one of the DFB Output Holding Registers 
 219:Generated_Source\PSoC5/Filter.c **** *
 220:Generated_Source\PSoC5/Filter.c **** * Parameters:  
 221:Generated_Source\PSoC5/Filter.c **** *  channel:  Filter_CHANNEL_A or Filter_CHANNEL_B
 222:Generated_Source\PSoC5/Filter.c **** *            
ARM GAS  C:\Users\Krist\AppData\Local\Temp\ccLoJ1ic.s 			page 12


 223:Generated_Source\PSoC5/Filter.c **** * Return: 
 224:Generated_Source\PSoC5/Filter.c **** *  The most significant 16 bits of the current output value sitting in the 
 225:Generated_Source\PSoC5/Filter.c **** *  selected channel's holding register or 0x0000 for invalid channel numbers
 226:Generated_Source\PSoC5/Filter.c **** *
 227:Generated_Source\PSoC5/Filter.c **** * Note:
 228:Generated_Source\PSoC5/Filter.c **** *  Order of the read is important.  On the read of the high byte, the DFB clears
 229:Generated_Source\PSoC5/Filter.c **** *  the data ready bit.
 230:Generated_Source\PSoC5/Filter.c **** *
 231:Generated_Source\PSoC5/Filter.c **** *******************************************************************************/
 232:Generated_Source\PSoC5/Filter.c **** #if defined(__C51__) || defined(__CX51__) 
 233:Generated_Source\PSoC5/Filter.c **** 
 234:Generated_Source\PSoC5/Filter.c ****     uint16 Filter_Read16(uint8 channel) 
 235:Generated_Source\PSoC5/Filter.c ****     {
 236:Generated_Source\PSoC5/Filter.c ****         uint16 val;
 237:Generated_Source\PSoC5/Filter.c ****     
 238:Generated_Source\PSoC5/Filter.c ****         if (channel == Filter_CHANNEL_A)
 239:Generated_Source\PSoC5/Filter.c ****         {        
 240:Generated_Source\PSoC5/Filter.c ****             val = Filter_HOLDAM_REG;
 241:Generated_Source\PSoC5/Filter.c ****             val |= (uint16)(Filter_HOLDAH_REG) << 8u;
 242:Generated_Source\PSoC5/Filter.c ****         }
 243:Generated_Source\PSoC5/Filter.c ****         else if (channel == Filter_CHANNEL_B)
 244:Generated_Source\PSoC5/Filter.c ****         {      
 245:Generated_Source\PSoC5/Filter.c ****             val = Filter_HOLDBM_REG;
 246:Generated_Source\PSoC5/Filter.c ****             val |= (uint16)Filter_HOLDBH_REG << 8u;
 247:Generated_Source\PSoC5/Filter.c ****         }
 248:Generated_Source\PSoC5/Filter.c ****         else
 249:Generated_Source\PSoC5/Filter.c ****         {
 250:Generated_Source\PSoC5/Filter.c ****             val = 0x0u;
 251:Generated_Source\PSoC5/Filter.c ****         }
 252:Generated_Source\PSoC5/Filter.c ****         return val;
 253:Generated_Source\PSoC5/Filter.c ****     }
 254:Generated_Source\PSoC5/Filter.c **** 
 255:Generated_Source\PSoC5/Filter.c **** #else
 256:Generated_Source\PSoC5/Filter.c **** 
 257:Generated_Source\PSoC5/Filter.c ****     uint16 Filter_Read16(uint8 channel) 
 258:Generated_Source\PSoC5/Filter.c ****     {
 406              		.loc 1 258 0
 407              		.cfi_startproc
 408              		@ args = 0, pretend = 0, frame = 16
 409              		@ frame_needed = 1, uses_anonymous_args = 0
 410              		@ link register save eliminated.
 411 0000 80B4     		push	{r7}
 412              		.cfi_def_cfa_offset 4
 413              		.cfi_offset 7, -4
 414 0002 85B0     		sub	sp, sp, #20
 415              		.cfi_def_cfa_offset 24
 416 0004 00AF     		add	r7, sp, #0
 417              		.cfi_def_cfa_register 7
 418 0006 0346     		mov	r3, r0
 419 0008 FB71     		strb	r3, [r7, #7]
 259:Generated_Source\PSoC5/Filter.c ****         uint16 val;
 260:Generated_Source\PSoC5/Filter.c **** 
 261:Generated_Source\PSoC5/Filter.c ****         if (channel == Filter_CHANNEL_A)
 420              		.loc 1 261 0
 421 000a FB79     		ldrb	r3, [r7, #7]	@ zero_extendqisi2
 422 000c 002B     		cmp	r3, #0
 423 000e 03D1     		bne	.L23
ARM GAS  C:\Users\Krist\AppData\Local\Temp\ccLoJ1ic.s 			page 13


 262:Generated_Source\PSoC5/Filter.c ****         {        
 263:Generated_Source\PSoC5/Filter.c ****             val = Filter_HOLDA16_REG;
 424              		.loc 1 263 0
 425 0010 094B     		ldr	r3, .L27
 426 0012 1B88     		ldrh	r3, [r3]	@ movhi
 427 0014 FB81     		strh	r3, [r7, #14]	@ movhi
 428 0016 08E0     		b	.L24
 429              	.L23:
 264:Generated_Source\PSoC5/Filter.c ****         }
 265:Generated_Source\PSoC5/Filter.c ****         else if (channel == Filter_CHANNEL_B)
 430              		.loc 1 265 0
 431 0018 FB79     		ldrb	r3, [r7, #7]	@ zero_extendqisi2
 432 001a 012B     		cmp	r3, #1
 433 001c 03D1     		bne	.L25
 266:Generated_Source\PSoC5/Filter.c ****         {      
 267:Generated_Source\PSoC5/Filter.c ****             val = Filter_HOLDB16_REG;
 434              		.loc 1 267 0
 435 001e 074B     		ldr	r3, .L27+4
 436 0020 1B88     		ldrh	r3, [r3]	@ movhi
 437 0022 FB81     		strh	r3, [r7, #14]	@ movhi
 438 0024 01E0     		b	.L24
 439              	.L25:
 268:Generated_Source\PSoC5/Filter.c ****         }
 269:Generated_Source\PSoC5/Filter.c ****         else
 270:Generated_Source\PSoC5/Filter.c ****         {
 271:Generated_Source\PSoC5/Filter.c ****             val = 0x0u;
 440              		.loc 1 271 0
 441 0026 0023     		movs	r3, #0
 442 0028 FB81     		strh	r3, [r7, #14]	@ movhi
 443              	.L24:
 272:Generated_Source\PSoC5/Filter.c ****         }
 273:Generated_Source\PSoC5/Filter.c ****         return val;
 444              		.loc 1 273 0
 445 002a FB89     		ldrh	r3, [r7, #14]
 274:Generated_Source\PSoC5/Filter.c ****     }
 446              		.loc 1 274 0
 447 002c 1846     		mov	r0, r3
 448 002e 1437     		adds	r7, r7, #20
 449              		.cfi_def_cfa_offset 4
 450 0030 BD46     		mov	sp, r7
 451              		.cfi_def_cfa_register 13
 452              		@ sp needed
 453 0032 80BC     		pop	{r7}
 454              		.cfi_restore 7
 455              		.cfi_def_cfa_offset 0
 456 0034 7047     		bx	lr
 457              	.L28:
 458 0036 00BF     		.align	2
 459              	.L27:
 460 0038 A9C70040 		.word	1073792937
 461 003c ADC70040 		.word	1073792941
 462              		.cfi_endproc
 463              	.LFE5:
 464              		.size	Filter_Read16, .-Filter_Read16
 465              		.section	.text.Filter_Read24,"ax",%progbits
 466              		.align	2
 467              		.global	Filter_Read24
ARM GAS  C:\Users\Krist\AppData\Local\Temp\ccLoJ1ic.s 			page 14


 468              		.thumb
 469              		.thumb_func
 470              		.type	Filter_Read24, %function
 471              	Filter_Read24:
 472              	.LFB6:
 275:Generated_Source\PSoC5/Filter.c **** 
 276:Generated_Source\PSoC5/Filter.c **** #endif /* defined(__C51__) || defined(__CX51__) */
 277:Generated_Source\PSoC5/Filter.c **** 
 278:Generated_Source\PSoC5/Filter.c **** 
 279:Generated_Source\PSoC5/Filter.c **** /*******************************************************************************
 280:Generated_Source\PSoC5/Filter.c **** * Function Name: Filter_Read24
 281:Generated_Source\PSoC5/Filter.c **** ********************************************************************************
 282:Generated_Source\PSoC5/Filter.c **** *
 283:Generated_Source\PSoC5/Filter.c **** * Summary:
 284:Generated_Source\PSoC5/Filter.c **** *  Get the value in one of the DFB Output Holding Registers 
 285:Generated_Source\PSoC5/Filter.c **** *
 286:Generated_Source\PSoC5/Filter.c **** * Parameters:  
 287:Generated_Source\PSoC5/Filter.c **** *  channel:  Filter_CHANNEL_A or Filter_CHANNEL_B
 288:Generated_Source\PSoC5/Filter.c **** *            
 289:Generated_Source\PSoC5/Filter.c **** * Return: 
 290:Generated_Source\PSoC5/Filter.c **** *  The current 24-bit output value sitting in the selected channel's
 291:Generated_Source\PSoC5/Filter.c **** *  holding register or 0x00000000 for invalid channel numbers
 292:Generated_Source\PSoC5/Filter.c **** *
 293:Generated_Source\PSoC5/Filter.c **** * Note:
 294:Generated_Source\PSoC5/Filter.c **** *  Order of the read is important.  On the read of the high byte, the DFB clears
 295:Generated_Source\PSoC5/Filter.c **** *  the data ready bit.
 296:Generated_Source\PSoC5/Filter.c **** *
 297:Generated_Source\PSoC5/Filter.c **** *******************************************************************************/
 298:Generated_Source\PSoC5/Filter.c **** #if defined(__C51__) || defined(__CX51__)
 299:Generated_Source\PSoC5/Filter.c **** 
 300:Generated_Source\PSoC5/Filter.c ****     uint32 Filter_Read24(uint8 channel) 
 301:Generated_Source\PSoC5/Filter.c ****     {
 302:Generated_Source\PSoC5/Filter.c ****         uint32 val;
 303:Generated_Source\PSoC5/Filter.c ****     
 304:Generated_Source\PSoC5/Filter.c ****         if (channel == Filter_CHANNEL_A)
 305:Generated_Source\PSoC5/Filter.c ****         {        
 306:Generated_Source\PSoC5/Filter.c ****             val = Filter_HOLDA_REG;
 307:Generated_Source\PSoC5/Filter.c ****             val |= (uint32)(Filter_HOLDAM_REG) << 8u;
 308:Generated_Source\PSoC5/Filter.c ****             val |= (uint32)(Filter_HOLDAH_REG) << 16u;
 309:Generated_Source\PSoC5/Filter.c ****             
 310:Generated_Source\PSoC5/Filter.c ****             /* SignExtend */
 311:Generated_Source\PSoC5/Filter.c ****             if((val & Filter_SIGN_BIT) == Filter_SIGN_BIT)
 312:Generated_Source\PSoC5/Filter.c ****             {    
 313:Generated_Source\PSoC5/Filter.c **** 				val |= Filter_SIGN_BYTE;
 314:Generated_Source\PSoC5/Filter.c **** 			}
 315:Generated_Source\PSoC5/Filter.c ****         }
 316:Generated_Source\PSoC5/Filter.c ****         else if (channel == Filter_CHANNEL_B)
 317:Generated_Source\PSoC5/Filter.c ****         {      
 318:Generated_Source\PSoC5/Filter.c ****             val = Filter_HOLDB_REG;
 319:Generated_Source\PSoC5/Filter.c ****             val |= (uint32)Filter_HOLDBM_REG << 8u;
 320:Generated_Source\PSoC5/Filter.c ****             val |= (uint32)Filter_HOLDBH_REG << 16u;
 321:Generated_Source\PSoC5/Filter.c ****             
 322:Generated_Source\PSoC5/Filter.c ****             /* SignExtend */
 323:Generated_Source\PSoC5/Filter.c ****             if((val & Filter_SIGN_BIT) == Filter_SIGN_BIT)
 324:Generated_Source\PSoC5/Filter.c ****             {
 325:Generated_Source\PSoC5/Filter.c **** 				val |= Filter_SIGN_BYTE;
 326:Generated_Source\PSoC5/Filter.c **** 			}
ARM GAS  C:\Users\Krist\AppData\Local\Temp\ccLoJ1ic.s 			page 15


 327:Generated_Source\PSoC5/Filter.c ****         }
 328:Generated_Source\PSoC5/Filter.c ****         else
 329:Generated_Source\PSoC5/Filter.c ****         {
 330:Generated_Source\PSoC5/Filter.c ****             val = 0x0u;
 331:Generated_Source\PSoC5/Filter.c ****         }
 332:Generated_Source\PSoC5/Filter.c ****         return val;
 333:Generated_Source\PSoC5/Filter.c ****     }
 334:Generated_Source\PSoC5/Filter.c **** 
 335:Generated_Source\PSoC5/Filter.c **** #else
 336:Generated_Source\PSoC5/Filter.c **** 
 337:Generated_Source\PSoC5/Filter.c ****     uint32 Filter_Read24(uint8 channel) 
 338:Generated_Source\PSoC5/Filter.c ****     {
 473              		.loc 1 338 0
 474              		.cfi_startproc
 475              		@ args = 0, pretend = 0, frame = 16
 476              		@ frame_needed = 1, uses_anonymous_args = 0
 477              		@ link register save eliminated.
 478 0000 80B4     		push	{r7}
 479              		.cfi_def_cfa_offset 4
 480              		.cfi_offset 7, -4
 481 0002 85B0     		sub	sp, sp, #20
 482              		.cfi_def_cfa_offset 24
 483 0004 00AF     		add	r7, sp, #0
 484              		.cfi_def_cfa_register 7
 485 0006 0346     		mov	r3, r0
 486 0008 FB71     		strb	r3, [r7, #7]
 339:Generated_Source\PSoC5/Filter.c ****         uint32 val;
 340:Generated_Source\PSoC5/Filter.c ****          
 341:Generated_Source\PSoC5/Filter.c ****         if (channel == Filter_CHANNEL_A)
 487              		.loc 1 341 0
 488 000a FB79     		ldrb	r3, [r7, #7]	@ zero_extendqisi2
 489 000c 002B     		cmp	r3, #0
 490 000e 03D1     		bne	.L30
 342:Generated_Source\PSoC5/Filter.c ****         {        
 343:Generated_Source\PSoC5/Filter.c ****             val = Filter_HOLDA24_REG;
 491              		.loc 1 343 0
 492 0010 094B     		ldr	r3, .L34
 493 0012 1B68     		ldr	r3, [r3]
 494 0014 FB60     		str	r3, [r7, #12]
 495 0016 08E0     		b	.L31
 496              	.L30:
 344:Generated_Source\PSoC5/Filter.c ****         }
 345:Generated_Source\PSoC5/Filter.c ****         else if (channel == Filter_CHANNEL_B)
 497              		.loc 1 345 0
 498 0018 FB79     		ldrb	r3, [r7, #7]	@ zero_extendqisi2
 499 001a 012B     		cmp	r3, #1
 500 001c 03D1     		bne	.L32
 346:Generated_Source\PSoC5/Filter.c ****         {      
 347:Generated_Source\PSoC5/Filter.c ****             val = Filter_HOLDB24_REG;
 501              		.loc 1 347 0
 502 001e 074B     		ldr	r3, .L34+4
 503 0020 1B68     		ldr	r3, [r3]
 504 0022 FB60     		str	r3, [r7, #12]
 505 0024 01E0     		b	.L31
 506              	.L32:
 348:Generated_Source\PSoC5/Filter.c ****         }
 349:Generated_Source\PSoC5/Filter.c ****         else
ARM GAS  C:\Users\Krist\AppData\Local\Temp\ccLoJ1ic.s 			page 16


 350:Generated_Source\PSoC5/Filter.c ****         {
 351:Generated_Source\PSoC5/Filter.c ****             val = 0x0u;
 507              		.loc 1 351 0
 508 0026 0023     		movs	r3, #0
 509 0028 FB60     		str	r3, [r7, #12]
 510              	.L31:
 352:Generated_Source\PSoC5/Filter.c ****         }
 353:Generated_Source\PSoC5/Filter.c ****         return val;
 511              		.loc 1 353 0
 512 002a FB68     		ldr	r3, [r7, #12]
 354:Generated_Source\PSoC5/Filter.c ****     }
 513              		.loc 1 354 0
 514 002c 1846     		mov	r0, r3
 515 002e 1437     		adds	r7, r7, #20
 516              		.cfi_def_cfa_offset 4
 517 0030 BD46     		mov	sp, r7
 518              		.cfi_def_cfa_register 13
 519              		@ sp needed
 520 0032 80BC     		pop	{r7}
 521              		.cfi_restore 7
 522              		.cfi_def_cfa_offset 0
 523 0034 7047     		bx	lr
 524              	.L35:
 525 0036 00BF     		.align	2
 526              	.L34:
 527 0038 A8C70040 		.word	1073792936
 528 003c ACC70040 		.word	1073792940
 529              		.cfi_endproc
 530              	.LFE6:
 531              		.size	Filter_Read24, .-Filter_Read24
 532              		.section	.text.Filter_Write8,"ax",%progbits
 533              		.align	2
 534              		.global	Filter_Write8
 535              		.thumb
 536              		.thumb_func
 537              		.type	Filter_Write8, %function
 538              	Filter_Write8:
 539              	.LFB7:
 355:Generated_Source\PSoC5/Filter.c **** 
 356:Generated_Source\PSoC5/Filter.c **** #endif /* defined(__C51__) || defined(__CX51__) */
 357:Generated_Source\PSoC5/Filter.c **** 
 358:Generated_Source\PSoC5/Filter.c **** 
 359:Generated_Source\PSoC5/Filter.c **** /*******************************************************************************
 360:Generated_Source\PSoC5/Filter.c **** * Function Name: Filter_Write8
 361:Generated_Source\PSoC5/Filter.c **** ********************************************************************************
 362:Generated_Source\PSoC5/Filter.c **** *
 363:Generated_Source\PSoC5/Filter.c **** * Summary:
 364:Generated_Source\PSoC5/Filter.c **** *  Set the value in one of the DFB Input Staging Registers 
 365:Generated_Source\PSoC5/Filter.c **** *
 366:Generated_Source\PSoC5/Filter.c **** * Parameters:  
 367:Generated_Source\PSoC5/Filter.c **** *  channel:  Use either Filter_CHANNEL_A or 
 368:Generated_Source\PSoC5/Filter.c **** *            Filter_CHANNEL_B as arguments to the function.  
 369:Generated_Source\PSoC5/Filter.c **** *  sample:   The 8-bit, right justified input sample. 
 370:Generated_Source\PSoC5/Filter.c **** *
 371:Generated_Source\PSoC5/Filter.c **** * Return: 
 372:Generated_Source\PSoC5/Filter.c **** *  void
 373:Generated_Source\PSoC5/Filter.c **** *
ARM GAS  C:\Users\Krist\AppData\Local\Temp\ccLoJ1ic.s 			page 17


 374:Generated_Source\PSoC5/Filter.c **** * Note:
 375:Generated_Source\PSoC5/Filter.c **** *  Order of the write is important.  On the load of the high byte, the DFB sets
 376:Generated_Source\PSoC5/Filter.c **** *  the input ready bit.
 377:Generated_Source\PSoC5/Filter.c **** *
 378:Generated_Source\PSoC5/Filter.c **** *******************************************************************************/
 379:Generated_Source\PSoC5/Filter.c **** void Filter_Write8(uint8 channel, uint8 sample) 
 380:Generated_Source\PSoC5/Filter.c **** {
 540              		.loc 1 380 0
 541              		.cfi_startproc
 542              		@ args = 0, pretend = 0, frame = 8
 543              		@ frame_needed = 1, uses_anonymous_args = 0
 544              		@ link register save eliminated.
 545 0000 80B4     		push	{r7}
 546              		.cfi_def_cfa_offset 4
 547              		.cfi_offset 7, -4
 548 0002 83B0     		sub	sp, sp, #12
 549              		.cfi_def_cfa_offset 16
 550 0004 00AF     		add	r7, sp, #0
 551              		.cfi_def_cfa_register 7
 552 0006 0346     		mov	r3, r0
 553 0008 0A46     		mov	r2, r1
 554 000a FB71     		strb	r3, [r7, #7]
 555 000c 1346     		mov	r3, r2
 556 000e BB71     		strb	r3, [r7, #6]
 381:Generated_Source\PSoC5/Filter.c ****     if (channel == Filter_CHANNEL_A)
 557              		.loc 1 381 0
 558 0010 FB79     		ldrb	r3, [r7, #7]	@ zero_extendqisi2
 559 0012 002B     		cmp	r3, #0
 560 0014 03D1     		bne	.L37
 382:Generated_Source\PSoC5/Filter.c ****     {
 383:Generated_Source\PSoC5/Filter.c ****         Filter_STAGEAH_REG = sample;
 561              		.loc 1 383 0
 562 0016 074A     		ldr	r2, .L40
 563 0018 BB79     		ldrb	r3, [r7, #6]
 564 001a 1370     		strb	r3, [r2]
 384:Generated_Source\PSoC5/Filter.c ****     }
 385:Generated_Source\PSoC5/Filter.c ****     else if (channel == Filter_CHANNEL_B)
 386:Generated_Source\PSoC5/Filter.c ****     {
 387:Generated_Source\PSoC5/Filter.c ****         Filter_STAGEBH_REG = sample;
 388:Generated_Source\PSoC5/Filter.c ****     }
 389:Generated_Source\PSoC5/Filter.c **** 	else
 390:Generated_Source\PSoC5/Filter.c **** 	{
 391:Generated_Source\PSoC5/Filter.c **** 		/* No value is loaded on bad channel input */
 392:Generated_Source\PSoC5/Filter.c **** 	}
 393:Generated_Source\PSoC5/Filter.c **** }
 565              		.loc 1 393 0
 566 001c 05E0     		b	.L39
 567              	.L37:
 385:Generated_Source\PSoC5/Filter.c ****     {
 568              		.loc 1 385 0
 569 001e FB79     		ldrb	r3, [r7, #7]	@ zero_extendqisi2
 570 0020 012B     		cmp	r3, #1
 571 0022 02D1     		bne	.L39
 387:Generated_Source\PSoC5/Filter.c ****     }
 572              		.loc 1 387 0
 573 0024 044A     		ldr	r2, .L40+4
 574 0026 BB79     		ldrb	r3, [r7, #6]
ARM GAS  C:\Users\Krist\AppData\Local\Temp\ccLoJ1ic.s 			page 18


 575 0028 1370     		strb	r3, [r2]
 576              	.L39:
 577              		.loc 1 393 0
 578 002a 00BF     		nop
 579 002c 0C37     		adds	r7, r7, #12
 580              		.cfi_def_cfa_offset 4
 581 002e BD46     		mov	sp, r7
 582              		.cfi_def_cfa_register 13
 583              		@ sp needed
 584 0030 80BC     		pop	{r7}
 585              		.cfi_restore 7
 586              		.cfi_def_cfa_offset 0
 587 0032 7047     		bx	lr
 588              	.L41:
 589              		.align	2
 590              	.L40:
 591 0034 A2C70040 		.word	1073792930
 592 0038 A6C70040 		.word	1073792934
 593              		.cfi_endproc
 594              	.LFE7:
 595              		.size	Filter_Write8, .-Filter_Write8
 596              		.section	.text.Filter_Write16,"ax",%progbits
 597              		.align	2
 598              		.global	Filter_Write16
 599              		.thumb
 600              		.thumb_func
 601              		.type	Filter_Write16, %function
 602              	Filter_Write16:
 603              	.LFB8:
 394:Generated_Source\PSoC5/Filter.c **** 
 395:Generated_Source\PSoC5/Filter.c **** 
 396:Generated_Source\PSoC5/Filter.c **** /*******************************************************************************
 397:Generated_Source\PSoC5/Filter.c **** * Function Name: Filter_Write16
 398:Generated_Source\PSoC5/Filter.c **** ********************************************************************************
 399:Generated_Source\PSoC5/Filter.c **** *
 400:Generated_Source\PSoC5/Filter.c **** * Summary:
 401:Generated_Source\PSoC5/Filter.c **** *  Set the value in one of the DFB Input Staging Registers 
 402:Generated_Source\PSoC5/Filter.c **** *
 403:Generated_Source\PSoC5/Filter.c **** * Parameters:  
 404:Generated_Source\PSoC5/Filter.c **** *  channel:  Use either Filter_CHANNEL_A or 
 405:Generated_Source\PSoC5/Filter.c **** *            Filter_CHANNEL_B as arguments to the function.  
 406:Generated_Source\PSoC5/Filter.c **** *  sample:   The 16-bit, right justified input sample. 
 407:Generated_Source\PSoC5/Filter.c **** *
 408:Generated_Source\PSoC5/Filter.c **** * Return: 
 409:Generated_Source\PSoC5/Filter.c **** *  void
 410:Generated_Source\PSoC5/Filter.c **** *
 411:Generated_Source\PSoC5/Filter.c **** * Note:
 412:Generated_Source\PSoC5/Filter.c **** *  Order of the write is important.  On the load of the high byte, the DFB sets
 413:Generated_Source\PSoC5/Filter.c **** *  the input ready bit.
 414:Generated_Source\PSoC5/Filter.c **** *
 415:Generated_Source\PSoC5/Filter.c **** *******************************************************************************/
 416:Generated_Source\PSoC5/Filter.c **** #if defined(__C51__) || defined(__CX51__)
 417:Generated_Source\PSoC5/Filter.c **** 
 418:Generated_Source\PSoC5/Filter.c ****     void Filter_Write16(uint8 channel, uint16 sample) 
 419:Generated_Source\PSoC5/Filter.c ****     {
 420:Generated_Source\PSoC5/Filter.c ****         /* Write the STAGE MSB reg last as it signals a complete wrote to the 
 421:Generated_Source\PSoC5/Filter.c ****            DFB.*/
ARM GAS  C:\Users\Krist\AppData\Local\Temp\ccLoJ1ic.s 			page 19


 422:Generated_Source\PSoC5/Filter.c ****         if (channel == Filter_CHANNEL_A)
 423:Generated_Source\PSoC5/Filter.c ****         {
 424:Generated_Source\PSoC5/Filter.c ****             Filter_STAGEAM_REG = (uint8)(sample);
 425:Generated_Source\PSoC5/Filter.c ****             Filter_STAGEAH_REG = (uint8)(sample >> 8u);
 426:Generated_Source\PSoC5/Filter.c ****         }
 427:Generated_Source\PSoC5/Filter.c ****         else if (channel == Filter_CHANNEL_B)
 428:Generated_Source\PSoC5/Filter.c ****         {
 429:Generated_Source\PSoC5/Filter.c ****             Filter_STAGEBM_REG = (uint8)(sample);
 430:Generated_Source\PSoC5/Filter.c ****             Filter_STAGEBH_REG = (uint8)(sample >> 8u);
 431:Generated_Source\PSoC5/Filter.c ****         }
 432:Generated_Source\PSoC5/Filter.c ****         else
 433:Generated_Source\PSoC5/Filter.c **** 		{
 434:Generated_Source\PSoC5/Filter.c **** 			/* No value is loaded on bad channel input */
 435:Generated_Source\PSoC5/Filter.c **** 		}
 436:Generated_Source\PSoC5/Filter.c ****     }
 437:Generated_Source\PSoC5/Filter.c **** 
 438:Generated_Source\PSoC5/Filter.c **** #else
 439:Generated_Source\PSoC5/Filter.c **** 
 440:Generated_Source\PSoC5/Filter.c ****     void Filter_Write16(uint8 channel, uint16 sample) 
 441:Generated_Source\PSoC5/Filter.c ****     {
 604              		.loc 1 441 0
 605              		.cfi_startproc
 606              		@ args = 0, pretend = 0, frame = 8
 607              		@ frame_needed = 1, uses_anonymous_args = 0
 608              		@ link register save eliminated.
 609 0000 80B4     		push	{r7}
 610              		.cfi_def_cfa_offset 4
 611              		.cfi_offset 7, -4
 612 0002 83B0     		sub	sp, sp, #12
 613              		.cfi_def_cfa_offset 16
 614 0004 00AF     		add	r7, sp, #0
 615              		.cfi_def_cfa_register 7
 616 0006 0346     		mov	r3, r0
 617 0008 0A46     		mov	r2, r1
 618 000a FB71     		strb	r3, [r7, #7]
 619 000c 1346     		mov	r3, r2	@ movhi
 620 000e BB80     		strh	r3, [r7, #4]	@ movhi
 442:Generated_Source\PSoC5/Filter.c ****         if (channel == Filter_CHANNEL_A)
 621              		.loc 1 442 0
 622 0010 FB79     		ldrb	r3, [r7, #7]	@ zero_extendqisi2
 623 0012 002B     		cmp	r3, #0
 624 0014 03D1     		bne	.L43
 443:Generated_Source\PSoC5/Filter.c ****         {
 444:Generated_Source\PSoC5/Filter.c ****             Filter_STAGEA16_REG = sample;
 625              		.loc 1 444 0
 626 0016 074A     		ldr	r2, .L46
 627 0018 BB88     		ldrh	r3, [r7, #4]	@ movhi
 628 001a 1380     		strh	r3, [r2]	@ movhi
 445:Generated_Source\PSoC5/Filter.c ****         }
 446:Generated_Source\PSoC5/Filter.c ****         else if (channel == Filter_CHANNEL_B)
 447:Generated_Source\PSoC5/Filter.c ****         {
 448:Generated_Source\PSoC5/Filter.c ****             Filter_STAGEB16_REG = sample;
 449:Generated_Source\PSoC5/Filter.c ****         }
 450:Generated_Source\PSoC5/Filter.c ****         else
 451:Generated_Source\PSoC5/Filter.c **** 		{
 452:Generated_Source\PSoC5/Filter.c **** 			/* No value is loaded on bad channel input */
 453:Generated_Source\PSoC5/Filter.c **** 		}
ARM GAS  C:\Users\Krist\AppData\Local\Temp\ccLoJ1ic.s 			page 20


 454:Generated_Source\PSoC5/Filter.c ****     }
 629              		.loc 1 454 0
 630 001c 05E0     		b	.L45
 631              	.L43:
 446:Generated_Source\PSoC5/Filter.c ****         {
 632              		.loc 1 446 0
 633 001e FB79     		ldrb	r3, [r7, #7]	@ zero_extendqisi2
 634 0020 012B     		cmp	r3, #1
 635 0022 02D1     		bne	.L45
 448:Generated_Source\PSoC5/Filter.c ****         }
 636              		.loc 1 448 0
 637 0024 044A     		ldr	r2, .L46+4
 638 0026 BB88     		ldrh	r3, [r7, #4]	@ movhi
 639 0028 1380     		strh	r3, [r2]	@ movhi
 640              	.L45:
 641              		.loc 1 454 0
 642 002a 00BF     		nop
 643 002c 0C37     		adds	r7, r7, #12
 644              		.cfi_def_cfa_offset 4
 645 002e BD46     		mov	sp, r7
 646              		.cfi_def_cfa_register 13
 647              		@ sp needed
 648 0030 80BC     		pop	{r7}
 649              		.cfi_restore 7
 650              		.cfi_def_cfa_offset 0
 651 0032 7047     		bx	lr
 652              	.L47:
 653              		.align	2
 654              	.L46:
 655 0034 A1C70040 		.word	1073792929
 656 0038 A5C70040 		.word	1073792933
 657              		.cfi_endproc
 658              	.LFE8:
 659              		.size	Filter_Write16, .-Filter_Write16
 660              		.section	.text.Filter_Write24,"ax",%progbits
 661              		.align	2
 662              		.global	Filter_Write24
 663              		.thumb
 664              		.thumb_func
 665              		.type	Filter_Write24, %function
 666              	Filter_Write24:
 667              	.LFB9:
 455:Generated_Source\PSoC5/Filter.c **** 
 456:Generated_Source\PSoC5/Filter.c **** #endif /* defined(__C51__) || defined(__CX51__) */
 457:Generated_Source\PSoC5/Filter.c **** 
 458:Generated_Source\PSoC5/Filter.c **** 
 459:Generated_Source\PSoC5/Filter.c **** /*******************************************************************************
 460:Generated_Source\PSoC5/Filter.c **** * Function Name: Filter_Write24
 461:Generated_Source\PSoC5/Filter.c **** ********************************************************************************
 462:Generated_Source\PSoC5/Filter.c **** *
 463:Generated_Source\PSoC5/Filter.c **** * Summary:
 464:Generated_Source\PSoC5/Filter.c **** *  Set the value in one of the DFB Input Staging Registers 
 465:Generated_Source\PSoC5/Filter.c **** *
 466:Generated_Source\PSoC5/Filter.c **** * Parameters:  
 467:Generated_Source\PSoC5/Filter.c **** *  channel:  Use either Filter_CHANNEL_A or 
 468:Generated_Source\PSoC5/Filter.c **** *            Filter_CHANNEL_B as arguments to the function.  
 469:Generated_Source\PSoC5/Filter.c **** *  sample:   The 24-bit, right justified input sample inside of a uint32. 
ARM GAS  C:\Users\Krist\AppData\Local\Temp\ccLoJ1ic.s 			page 21


 470:Generated_Source\PSoC5/Filter.c **** *
 471:Generated_Source\PSoC5/Filter.c **** * Return: 
 472:Generated_Source\PSoC5/Filter.c **** *  void
 473:Generated_Source\PSoC5/Filter.c **** *
 474:Generated_Source\PSoC5/Filter.c **** * Note:
 475:Generated_Source\PSoC5/Filter.c **** *  Order of the write is important.  On the load of the high byte, the DFB sets
 476:Generated_Source\PSoC5/Filter.c **** *  the input ready bit.
 477:Generated_Source\PSoC5/Filter.c **** *
 478:Generated_Source\PSoC5/Filter.c **** *******************************************************************************/
 479:Generated_Source\PSoC5/Filter.c **** #if defined(__C51__) || defined(__CX51__)
 480:Generated_Source\PSoC5/Filter.c **** 
 481:Generated_Source\PSoC5/Filter.c ****     void Filter_Write24(uint8 channel, uint32 sample) 
 482:Generated_Source\PSoC5/Filter.c ****     {
 483:Generated_Source\PSoC5/Filter.c ****         /* Write the STAGE LSB reg last as it signals a complete wrote to 
 484:Generated_Source\PSoC5/Filter.c ****            the DFB.*/
 485:Generated_Source\PSoC5/Filter.c ****         if (channel == Filter_CHANNEL_A)
 486:Generated_Source\PSoC5/Filter.c ****         {
 487:Generated_Source\PSoC5/Filter.c ****             Filter_STAGEA_REG  = (uint8)(sample);
 488:Generated_Source\PSoC5/Filter.c ****             Filter_STAGEAM_REG = (uint8)(sample >> 8u);
 489:Generated_Source\PSoC5/Filter.c ****             Filter_STAGEAH_REG = (uint8)(sample >> 16u);
 490:Generated_Source\PSoC5/Filter.c ****         }
 491:Generated_Source\PSoC5/Filter.c ****         else if (channel == Filter_CHANNEL_B)
 492:Generated_Source\PSoC5/Filter.c ****         {
 493:Generated_Source\PSoC5/Filter.c ****             Filter_STAGEB_REG = (uint8)(sample);
 494:Generated_Source\PSoC5/Filter.c ****             Filter_STAGEBM_REG = (uint8)(sample >> 8u);
 495:Generated_Source\PSoC5/Filter.c ****             Filter_STAGEBH_REG = (uint8)(sample >> 16u);
 496:Generated_Source\PSoC5/Filter.c ****         }
 497:Generated_Source\PSoC5/Filter.c ****         else
 498:Generated_Source\PSoC5/Filter.c **** 		{
 499:Generated_Source\PSoC5/Filter.c **** 			/* No value is loaded on bad channel input */
 500:Generated_Source\PSoC5/Filter.c **** 		}
 501:Generated_Source\PSoC5/Filter.c ****     }
 502:Generated_Source\PSoC5/Filter.c **** 
 503:Generated_Source\PSoC5/Filter.c **** #else
 504:Generated_Source\PSoC5/Filter.c **** 
 505:Generated_Source\PSoC5/Filter.c ****     void Filter_Write24(uint8 channel, uint32 sample) 
 506:Generated_Source\PSoC5/Filter.c ****     {
 668              		.loc 1 506 0
 669              		.cfi_startproc
 670              		@ args = 0, pretend = 0, frame = 8
 671              		@ frame_needed = 1, uses_anonymous_args = 0
 672              		@ link register save eliminated.
 673 0000 80B4     		push	{r7}
 674              		.cfi_def_cfa_offset 4
 675              		.cfi_offset 7, -4
 676 0002 83B0     		sub	sp, sp, #12
 677              		.cfi_def_cfa_offset 16
 678 0004 00AF     		add	r7, sp, #0
 679              		.cfi_def_cfa_register 7
 680 0006 0346     		mov	r3, r0
 681 0008 3960     		str	r1, [r7]
 682 000a FB71     		strb	r3, [r7, #7]
 507:Generated_Source\PSoC5/Filter.c ****         if (channel == Filter_CHANNEL_A)
 683              		.loc 1 507 0
 684 000c FB79     		ldrb	r3, [r7, #7]	@ zero_extendqisi2
 685 000e 002B     		cmp	r3, #0
 686 0010 03D1     		bne	.L49
ARM GAS  C:\Users\Krist\AppData\Local\Temp\ccLoJ1ic.s 			page 22


 508:Generated_Source\PSoC5/Filter.c ****         {
 509:Generated_Source\PSoC5/Filter.c ****             Filter_STAGEA24_REG = sample;
 687              		.loc 1 509 0
 688 0012 074A     		ldr	r2, .L52
 689 0014 3B68     		ldr	r3, [r7]
 690 0016 1360     		str	r3, [r2]
 510:Generated_Source\PSoC5/Filter.c ****         }
 511:Generated_Source\PSoC5/Filter.c ****         else if (channel == Filter_CHANNEL_B)
 512:Generated_Source\PSoC5/Filter.c ****         {
 513:Generated_Source\PSoC5/Filter.c ****             Filter_STAGEB24_REG = sample;
 514:Generated_Source\PSoC5/Filter.c ****         }
 515:Generated_Source\PSoC5/Filter.c ****         else
 516:Generated_Source\PSoC5/Filter.c **** 		{
 517:Generated_Source\PSoC5/Filter.c **** 			/* No value is loaded on bad channel input */
 518:Generated_Source\PSoC5/Filter.c **** 		}
 519:Generated_Source\PSoC5/Filter.c ****     }
 691              		.loc 1 519 0
 692 0018 05E0     		b	.L51
 693              	.L49:
 511:Generated_Source\PSoC5/Filter.c ****         {
 694              		.loc 1 511 0
 695 001a FB79     		ldrb	r3, [r7, #7]	@ zero_extendqisi2
 696 001c 012B     		cmp	r3, #1
 697 001e 02D1     		bne	.L51
 513:Generated_Source\PSoC5/Filter.c ****         }
 698              		.loc 1 513 0
 699 0020 044A     		ldr	r2, .L52+4
 700 0022 3B68     		ldr	r3, [r7]
 701 0024 1360     		str	r3, [r2]
 702              	.L51:
 703              		.loc 1 519 0
 704 0026 00BF     		nop
 705 0028 0C37     		adds	r7, r7, #12
 706              		.cfi_def_cfa_offset 4
 707 002a BD46     		mov	sp, r7
 708              		.cfi_def_cfa_register 13
 709              		@ sp needed
 710 002c 80BC     		pop	{r7}
 711              		.cfi_restore 7
 712              		.cfi_def_cfa_offset 0
 713 002e 7047     		bx	lr
 714              	.L53:
 715              		.align	2
 716              	.L52:
 717 0030 A0C70040 		.word	1073792928
 718 0034 A4C70040 		.word	1073792932
 719              		.cfi_endproc
 720              	.LFE9:
 721              		.size	Filter_Write24, .-Filter_Write24
 722              		.section	.text.Filter_SetCoherency,"ax",%progbits
 723              		.align	2
 724              		.global	Filter_SetCoherency
 725              		.thumb
 726              		.thumb_func
 727              		.type	Filter_SetCoherency, %function
 728              	Filter_SetCoherency:
 729              	.LFB10:
ARM GAS  C:\Users\Krist\AppData\Local\Temp\ccLoJ1ic.s 			page 23


 520:Generated_Source\PSoC5/Filter.c **** 
 521:Generated_Source\PSoC5/Filter.c **** #endif /* defined(__C51__) || defined(__CX51__) */
 522:Generated_Source\PSoC5/Filter.c **** 
 523:Generated_Source\PSoC5/Filter.c **** 
 524:Generated_Source\PSoC5/Filter.c **** /*******************************************************************************
 525:Generated_Source\PSoC5/Filter.c **** * Function Name: Filter_SetCoherency
 526:Generated_Source\PSoC5/Filter.c **** ********************************************************************************
 527:Generated_Source\PSoC5/Filter.c **** *
 528:Generated_Source\PSoC5/Filter.c **** * Summary:
 529:Generated_Source\PSoC5/Filter.c **** *  Sets the DFB coherency register with the user provided input 
 530:Generated_Source\PSoC5/Filter.c **** *
 531:Generated_Source\PSoC5/Filter.c **** * Parameters:  
 532:Generated_Source\PSoC5/Filter.c **** *  channel:  Filter_CHANNEL_A or Filter_CHANNEL_B
 533:Generated_Source\PSoC5/Filter.c **** *  byteSelect:  High byte, Middle byte or Low byte as the key coherency byte.
 534:Generated_Source\PSoC5/Filter.c **** *            
 535:Generated_Source\PSoC5/Filter.c **** * Return: 
 536:Generated_Source\PSoC5/Filter.c **** *  None.
 537:Generated_Source\PSoC5/Filter.c **** *
 538:Generated_Source\PSoC5/Filter.c **** *******************************************************************************/
 539:Generated_Source\PSoC5/Filter.c **** void Filter_SetCoherency(uint8 channel, uint8 byteSelect) 
 540:Generated_Source\PSoC5/Filter.c **** {
 730              		.loc 1 540 0
 731              		.cfi_startproc
 732              		@ args = 0, pretend = 0, frame = 8
 733              		@ frame_needed = 1, uses_anonymous_args = 0
 734              		@ link register save eliminated.
 735 0000 80B4     		push	{r7}
 736              		.cfi_def_cfa_offset 4
 737              		.cfi_offset 7, -4
 738 0002 83B0     		sub	sp, sp, #12
 739              		.cfi_def_cfa_offset 16
 740 0004 00AF     		add	r7, sp, #0
 741              		.cfi_def_cfa_register 7
 742 0006 0346     		mov	r3, r0
 743 0008 0A46     		mov	r2, r1
 744 000a FB71     		strb	r3, [r7, #7]
 745 000c 1346     		mov	r3, r2
 746 000e BB71     		strb	r3, [r7, #6]
 541:Generated_Source\PSoC5/Filter.c ****     if (channel == Filter_CHANNEL_A)
 747              		.loc 1 541 0
 748 0010 FB79     		ldrb	r3, [r7, #7]	@ zero_extendqisi2
 749 0012 002B     		cmp	r3, #0
 750 0014 1AD1     		bne	.L55
 542:Generated_Source\PSoC5/Filter.c ****     {
 543:Generated_Source\PSoC5/Filter.c ****         Filter_COHER_REG &= 
 751              		.loc 1 543 0
 752 0016 1F4A     		ldr	r2, .L58
 753 0018 1E4B     		ldr	r3, .L58
 754 001a 1B78     		ldrb	r3, [r3]
 755 001c DBB2     		uxtb	r3, r3
 756 001e 23F03303 		bic	r3, r3, #51
 757 0022 DBB2     		uxtb	r3, r3
 758 0024 1370     		strb	r3, [r2]
 544:Generated_Source\PSoC5/Filter.c ****                 (uint8)(~(uint8)(Filter_STAGEA_COHER_MASK | Filter_HOLDA_COHER_MASK));
 545:Generated_Source\PSoC5/Filter.c ****         Filter_COHER_REG |= byteSelect;
 759              		.loc 1 545 0
 760 0026 1B49     		ldr	r1, .L58
ARM GAS  C:\Users\Krist\AppData\Local\Temp\ccLoJ1ic.s 			page 24


 761 0028 1A4B     		ldr	r3, .L58
 762 002a 1B78     		ldrb	r3, [r3]
 763 002c DAB2     		uxtb	r2, r3
 764 002e BB79     		ldrb	r3, [r7, #6]
 765 0030 1343     		orrs	r3, r3, r2
 766 0032 DBB2     		uxtb	r3, r3
 767 0034 0B70     		strb	r3, [r1]
 546:Generated_Source\PSoC5/Filter.c ****         Filter_COHER_REG |= (uint8)((uint8)byteSelect << 4u);
 768              		.loc 1 546 0
 769 0036 1749     		ldr	r1, .L58
 770 0038 164B     		ldr	r3, .L58
 771 003a 1B78     		ldrb	r3, [r3]
 772 003c DAB2     		uxtb	r2, r3
 773 003e BB79     		ldrb	r3, [r7, #6]
 774 0040 1B01     		lsls	r3, r3, #4
 775 0042 DBB2     		uxtb	r3, r3
 776 0044 1343     		orrs	r3, r3, r2
 777 0046 DBB2     		uxtb	r3, r3
 778 0048 0B70     		strb	r3, [r1]
 547:Generated_Source\PSoC5/Filter.c ****     }
 548:Generated_Source\PSoC5/Filter.c ****     else if (channel == Filter_CHANNEL_B)
 549:Generated_Source\PSoC5/Filter.c ****     {
 550:Generated_Source\PSoC5/Filter.c ****         Filter_COHER_REG &= 
 551:Generated_Source\PSoC5/Filter.c ****                 (uint8)(~(uint8)(Filter_STAGEB_COHER_MASK | Filter_HOLDB_COHER_MASK));
 552:Generated_Source\PSoC5/Filter.c ****         Filter_COHER_REG |= (uint8)((uint8)byteSelect << 2u);
 553:Generated_Source\PSoC5/Filter.c ****         Filter_COHER_REG |= (uint8)((uint8)byteSelect << 6u);
 554:Generated_Source\PSoC5/Filter.c ****     }
 555:Generated_Source\PSoC5/Filter.c ****     else
 556:Generated_Source\PSoC5/Filter.c ****     {
 557:Generated_Source\PSoC5/Filter.c ****         /* Invalid channel value */
 558:Generated_Source\PSoC5/Filter.c ****     }
 559:Generated_Source\PSoC5/Filter.c **** }
 779              		.loc 1 559 0
 780 004a 1EE0     		b	.L57
 781              	.L55:
 548:Generated_Source\PSoC5/Filter.c ****     {
 782              		.loc 1 548 0
 783 004c FB79     		ldrb	r3, [r7, #7]	@ zero_extendqisi2
 784 004e 012B     		cmp	r3, #1
 785 0050 1BD1     		bne	.L57
 550:Generated_Source\PSoC5/Filter.c ****                 (uint8)(~(uint8)(Filter_STAGEB_COHER_MASK | Filter_HOLDB_COHER_MASK));
 786              		.loc 1 550 0
 787 0052 104A     		ldr	r2, .L58
 788 0054 0F4B     		ldr	r3, .L58
 789 0056 1B78     		ldrb	r3, [r3]
 790 0058 DBB2     		uxtb	r3, r3
 791 005a 03F03303 		and	r3, r3, #51
 792 005e DBB2     		uxtb	r3, r3
 793 0060 1370     		strb	r3, [r2]
 552:Generated_Source\PSoC5/Filter.c ****         Filter_COHER_REG |= (uint8)((uint8)byteSelect << 6u);
 794              		.loc 1 552 0
 795 0062 0C49     		ldr	r1, .L58
 796 0064 0B4B     		ldr	r3, .L58
 797 0066 1B78     		ldrb	r3, [r3]
 798 0068 DAB2     		uxtb	r2, r3
 799 006a BB79     		ldrb	r3, [r7, #6]
 800 006c 9B00     		lsls	r3, r3, #2
ARM GAS  C:\Users\Krist\AppData\Local\Temp\ccLoJ1ic.s 			page 25


 801 006e DBB2     		uxtb	r3, r3
 802 0070 1343     		orrs	r3, r3, r2
 803 0072 DBB2     		uxtb	r3, r3
 804 0074 0B70     		strb	r3, [r1]
 553:Generated_Source\PSoC5/Filter.c ****     }
 805              		.loc 1 553 0
 806 0076 0749     		ldr	r1, .L58
 807 0078 064B     		ldr	r3, .L58
 808 007a 1B78     		ldrb	r3, [r3]
 809 007c DAB2     		uxtb	r2, r3
 810 007e BB79     		ldrb	r3, [r7, #6]
 811 0080 9B01     		lsls	r3, r3, #6
 812 0082 DBB2     		uxtb	r3, r3
 813 0084 1343     		orrs	r3, r3, r2
 814 0086 DBB2     		uxtb	r3, r3
 815 0088 0B70     		strb	r3, [r1]
 816              	.L57:
 817              		.loc 1 559 0
 818 008a 00BF     		nop
 819 008c 0C37     		adds	r7, r7, #12
 820              		.cfi_def_cfa_offset 4
 821 008e BD46     		mov	sp, r7
 822              		.cfi_def_cfa_register 13
 823              		@ sp needed
 824 0090 80BC     		pop	{r7}
 825              		.cfi_restore 7
 826              		.cfi_def_cfa_offset 0
 827 0092 7047     		bx	lr
 828              	.L59:
 829              		.align	2
 830              	.L58:
 831 0094 B0C70040 		.word	1073792944
 832              		.cfi_endproc
 833              	.LFE10:
 834              		.size	Filter_SetCoherency, .-Filter_SetCoherency
 835              		.section	.text.Filter_SetCoherencyEx,"ax",%progbits
 836              		.align	2
 837              		.global	Filter_SetCoherencyEx
 838              		.thumb
 839              		.thumb_func
 840              		.type	Filter_SetCoherencyEx, %function
 841              	Filter_SetCoherencyEx:
 842              	.LFB11:
 560:Generated_Source\PSoC5/Filter.c **** 
 561:Generated_Source\PSoC5/Filter.c **** 
 562:Generated_Source\PSoC5/Filter.c **** /*******************************************************************************
 563:Generated_Source\PSoC5/Filter.c **** * Function Name: Filter_SetCoherencyEx
 564:Generated_Source\PSoC5/Filter.c **** ********************************************************************************
 565:Generated_Source\PSoC5/Filter.c **** * 
 566:Generated_Source\PSoC5/Filter.c **** * Summary:
 567:Generated_Source\PSoC5/Filter.c **** *  Configures the DFB coherency register for each of the staging and holding 
 568:Generated_Source\PSoC5/Filter.c **** *  registers. Allows multiple registers with the same configuration to be set 
 569:Generated_Source\PSoC5/Filter.c **** *  at the same time. This API should be used when the coherency of the staging 
 570:Generated_Source\PSoC5/Filter.c **** *  and holding register of a channel is different. 
 571:Generated_Source\PSoC5/Filter.c **** *
 572:Generated_Source\PSoC5/Filter.c **** * Parameters:  
 573:Generated_Source\PSoC5/Filter.c **** *  regSelect: This parameter is used to specify the registers that will undergo
ARM GAS  C:\Users\Krist\AppData\Local\Temp\ccLoJ1ic.s 			page 26


 574:Generated_Source\PSoC5/Filter.c **** *             the change in coherency. These are maskable and multiple registers
 575:Generated_Source\PSoC5/Filter.c **** *             with the same configuration can passed by performing an OR 
 576:Generated_Source\PSoC5/Filter.c **** *             operation on the following definitions. 
 577:Generated_Source\PSoC5/Filter.c **** *            Filter_STAGEA_COHER, 
 578:Generated_Source\PSoC5/Filter.c **** *            Filter_STAGEB_COHER,
 579:Generated_Source\PSoC5/Filter.c **** *            Filter_HOLDA_COHER,
 580:Generated_Source\PSoC5/Filter.c **** *            Filter_HOLDB_COHER.
 581:Generated_Source\PSoC5/Filter.c **** *  key: The key coherency byte that will be chosen for the register(s).
 582:Generated_Source\PSoC5/Filter.c **** *       Filter_KEY_LOW, 
 583:Generated_Source\PSoC5/Filter.c **** *       Filter_KEY_MID,
 584:Generated_Source\PSoC5/Filter.c **** *       Filter_KEY_HIGH.
 585:Generated_Source\PSoC5/Filter.c **** *            
 586:Generated_Source\PSoC5/Filter.c **** * Return: 
 587:Generated_Source\PSoC5/Filter.c **** *  None.
 588:Generated_Source\PSoC5/Filter.c **** *
 589:Generated_Source\PSoC5/Filter.c **** *******************************************************************************/
 590:Generated_Source\PSoC5/Filter.c **** void Filter_SetCoherencyEx(uint8 regSelect, uint8 key) 
 591:Generated_Source\PSoC5/Filter.c **** {
 843              		.loc 1 591 0
 844              		.cfi_startproc
 845              		@ args = 0, pretend = 0, frame = 16
 846              		@ frame_needed = 1, uses_anonymous_args = 0
 847              		@ link register save eliminated.
 848 0000 80B4     		push	{r7}
 849              		.cfi_def_cfa_offset 4
 850              		.cfi_offset 7, -4
 851 0002 85B0     		sub	sp, sp, #20
 852              		.cfi_def_cfa_offset 24
 853 0004 00AF     		add	r7, sp, #0
 854              		.cfi_def_cfa_register 7
 855 0006 0346     		mov	r3, r0
 856 0008 0A46     		mov	r2, r1
 857 000a FB71     		strb	r3, [r7, #7]
 858 000c 1346     		mov	r3, r2
 859 000e BB71     		strb	r3, [r7, #6]
 592:Generated_Source\PSoC5/Filter.c ****     uint8 keyReg;
 593:Generated_Source\PSoC5/Filter.c ****     
 594:Generated_Source\PSoC5/Filter.c ****     keyReg = (uint8)(key << 2u) | key;
 860              		.loc 1 594 0
 861 0010 BB79     		ldrb	r3, [r7, #6]
 862 0012 9B00     		lsls	r3, r3, #2
 863 0014 DAB2     		uxtb	r2, r3
 864 0016 BB79     		ldrb	r3, [r7, #6]
 865 0018 1343     		orrs	r3, r3, r2
 866 001a FB73     		strb	r3, [r7, #15]
 595:Generated_Source\PSoC5/Filter.c ****     keyReg |= (uint8)(keyReg << 4u);
 867              		.loc 1 595 0
 868 001c FB7B     		ldrb	r3, [r7, #15]
 869 001e 1B01     		lsls	r3, r3, #4
 870 0020 DAB2     		uxtb	r2, r3
 871 0022 FB7B     		ldrb	r3, [r7, #15]
 872 0024 1343     		orrs	r3, r3, r2
 873 0026 FB73     		strb	r3, [r7, #15]
 596:Generated_Source\PSoC5/Filter.c ****     
 597:Generated_Source\PSoC5/Filter.c ****     Filter_COHER_REG &= (uint8)~regSelect;
 874              		.loc 1 597 0
 875 0028 0C49     		ldr	r1, .L61
ARM GAS  C:\Users\Krist\AppData\Local\Temp\ccLoJ1ic.s 			page 27


 876 002a 0C4B     		ldr	r3, .L61
 877 002c 1B78     		ldrb	r3, [r3]
 878 002e DAB2     		uxtb	r2, r3
 879 0030 FB79     		ldrb	r3, [r7, #7]
 880 0032 DB43     		mvns	r3, r3
 881 0034 DBB2     		uxtb	r3, r3
 882 0036 1340     		ands	r3, r3, r2
 883 0038 DBB2     		uxtb	r3, r3
 884 003a 0B70     		strb	r3, [r1]
 598:Generated_Source\PSoC5/Filter.c ****     Filter_COHER_REG |= keyReg & regSelect;
 885              		.loc 1 598 0
 886 003c 0748     		ldr	r0, .L61
 887 003e 074B     		ldr	r3, .L61
 888 0040 1B78     		ldrb	r3, [r3]
 889 0042 DAB2     		uxtb	r2, r3
 890 0044 F97B     		ldrb	r1, [r7, #15]
 891 0046 FB79     		ldrb	r3, [r7, #7]
 892 0048 0B40     		ands	r3, r3, r1
 893 004a DBB2     		uxtb	r3, r3
 894 004c 1343     		orrs	r3, r3, r2
 895 004e DBB2     		uxtb	r3, r3
 896 0050 0370     		strb	r3, [r0]
 599:Generated_Source\PSoC5/Filter.c **** }
 897              		.loc 1 599 0
 898 0052 00BF     		nop
 899 0054 1437     		adds	r7, r7, #20
 900              		.cfi_def_cfa_offset 4
 901 0056 BD46     		mov	sp, r7
 902              		.cfi_def_cfa_register 13
 903              		@ sp needed
 904 0058 80BC     		pop	{r7}
 905              		.cfi_restore 7
 906              		.cfi_def_cfa_offset 0
 907 005a 7047     		bx	lr
 908              	.L62:
 909              		.align	2
 910              	.L61:
 911 005c B0C70040 		.word	1073792944
 912              		.cfi_endproc
 913              	.LFE11:
 914              		.size	Filter_SetCoherencyEx, .-Filter_SetCoherencyEx
 915              		.section	.text.Filter_SetDalign,"ax",%progbits
 916              		.align	2
 917              		.global	Filter_SetDalign
 918              		.thumb
 919              		.thumb_func
 920              		.type	Filter_SetDalign, %function
 921              	Filter_SetDalign:
 922              	.LFB12:
 600:Generated_Source\PSoC5/Filter.c **** 
 601:Generated_Source\PSoC5/Filter.c **** 
 602:Generated_Source\PSoC5/Filter.c **** /*******************************************************************************
 603:Generated_Source\PSoC5/Filter.c **** * Function Name: Filter_SetDalign
 604:Generated_Source\PSoC5/Filter.c **** ********************************************************************************
 605:Generated_Source\PSoC5/Filter.c **** * 
 606:Generated_Source\PSoC5/Filter.c **** * Summary:
 607:Generated_Source\PSoC5/Filter.c **** *  Configures the DFB dalign register for each of the staging and holding 
ARM GAS  C:\Users\Krist\AppData\Local\Temp\ccLoJ1ic.s 			page 28


 608:Generated_Source\PSoC5/Filter.c **** *  registers. Allows multiple registers with the same configuration to be set
 609:Generated_Source\PSoC5/Filter.c **** *  at the same time. 
 610:Generated_Source\PSoC5/Filter.c **** *
 611:Generated_Source\PSoC5/Filter.c **** * Parameters:  
 612:Generated_Source\PSoC5/Filter.c **** *  regSelect: This parameter is used to specify the registers that will undergo
 613:Generated_Source\PSoC5/Filter.c **** *             the change in data alignment. These are maskable and multiple 
 614:Generated_Source\PSoC5/Filter.c **** *             registers with the same configuration can passed by performing 
 615:Generated_Source\PSoC5/Filter.c **** *             an OR operation on the following definitions.
 616:Generated_Source\PSoC5/Filter.c **** *             Filter_STAGEA_DALIGN, 
 617:Generated_Source\PSoC5/Filter.c **** *             Filter_STAGEB_DALIGN,
 618:Generated_Source\PSoC5/Filter.c **** *             Filter_HOLDA_DALIGN,
 619:Generated_Source\PSoC5/Filter.c **** *             Filter_HOLDB_DALIGN.
 620:Generated_Source\PSoC5/Filter.c **** *  state: The state is use to either enable the data alignment bits for the 
 621:Generated_Source\PSoC5/Filter.c **** *         corresponding registers or to disable them.
 622:Generated_Source\PSoC5/Filter.c **** *         Filter_ENABLED,
 623:Generated_Source\PSoC5/Filter.c **** *         Filter_DISABLED
 624:Generated_Source\PSoC5/Filter.c **** *            
 625:Generated_Source\PSoC5/Filter.c **** * Return: 
 626:Generated_Source\PSoC5/Filter.c **** *  None.
 627:Generated_Source\PSoC5/Filter.c **** *
 628:Generated_Source\PSoC5/Filter.c **** *******************************************************************************/
 629:Generated_Source\PSoC5/Filter.c **** void Filter_SetDalign(uint8 regSelect, uint8 state) 
 630:Generated_Source\PSoC5/Filter.c **** {    
 923              		.loc 1 630 0
 924              		.cfi_startproc
 925              		@ args = 0, pretend = 0, frame = 8
 926              		@ frame_needed = 1, uses_anonymous_args = 0
 927              		@ link register save eliminated.
 928 0000 80B4     		push	{r7}
 929              		.cfi_def_cfa_offset 4
 930              		.cfi_offset 7, -4
 931 0002 83B0     		sub	sp, sp, #12
 932              		.cfi_def_cfa_offset 16
 933 0004 00AF     		add	r7, sp, #0
 934              		.cfi_def_cfa_register 7
 935 0006 0346     		mov	r3, r0
 936 0008 0A46     		mov	r2, r1
 937 000a FB71     		strb	r3, [r7, #7]
 938 000c 1346     		mov	r3, r2
 939 000e BB71     		strb	r3, [r7, #6]
 631:Generated_Source\PSoC5/Filter.c ****     if (state == Filter_ENABLED)
 940              		.loc 1 631 0
 941 0010 BB79     		ldrb	r3, [r7, #6]	@ zero_extendqisi2
 942 0012 012B     		cmp	r3, #1
 943 0014 08D1     		bne	.L64
 632:Generated_Source\PSoC5/Filter.c ****     {
 633:Generated_Source\PSoC5/Filter.c ****         Filter_DALIGN_REG |= regSelect;
 944              		.loc 1 633 0
 945 0016 0D49     		ldr	r1, .L67
 946 0018 0C4B     		ldr	r3, .L67
 947 001a 1B78     		ldrb	r3, [r3]
 948 001c DAB2     		uxtb	r2, r3
 949 001e FB79     		ldrb	r3, [r7, #7]
 950 0020 1343     		orrs	r3, r3, r2
 951 0022 DBB2     		uxtb	r3, r3
 952 0024 0B70     		strb	r3, [r1]
 634:Generated_Source\PSoC5/Filter.c ****     }
ARM GAS  C:\Users\Krist\AppData\Local\Temp\ccLoJ1ic.s 			page 29


 635:Generated_Source\PSoC5/Filter.c ****     else if (state == Filter_DISABLED)
 636:Generated_Source\PSoC5/Filter.c ****     {
 637:Generated_Source\PSoC5/Filter.c ****         Filter_DALIGN_REG &= (uint8)(~regSelect);
 638:Generated_Source\PSoC5/Filter.c ****     }
 639:Generated_Source\PSoC5/Filter.c ****     else
 640:Generated_Source\PSoC5/Filter.c ****     {
 641:Generated_Source\PSoC5/Filter.c ****         /* Invalid state */
 642:Generated_Source\PSoC5/Filter.c ****     }
 643:Generated_Source\PSoC5/Filter.c **** }
 953              		.loc 1 643 0
 954 0026 0CE0     		b	.L66
 955              	.L64:
 635:Generated_Source\PSoC5/Filter.c ****     {
 956              		.loc 1 635 0
 957 0028 BB79     		ldrb	r3, [r7, #6]	@ zero_extendqisi2
 958 002a 002B     		cmp	r3, #0
 959 002c 09D1     		bne	.L66
 637:Generated_Source\PSoC5/Filter.c ****     }
 960              		.loc 1 637 0
 961 002e 0749     		ldr	r1, .L67
 962 0030 064B     		ldr	r3, .L67
 963 0032 1B78     		ldrb	r3, [r3]
 964 0034 DAB2     		uxtb	r2, r3
 965 0036 FB79     		ldrb	r3, [r7, #7]
 966 0038 DB43     		mvns	r3, r3
 967 003a DBB2     		uxtb	r3, r3
 968 003c 1340     		ands	r3, r3, r2
 969 003e DBB2     		uxtb	r3, r3
 970 0040 0B70     		strb	r3, [r1]
 971              	.L66:
 972              		.loc 1 643 0
 973 0042 00BF     		nop
 974 0044 0C37     		adds	r7, r7, #12
 975              		.cfi_def_cfa_offset 4
 976 0046 BD46     		mov	sp, r7
 977              		.cfi_def_cfa_register 13
 978              		@ sp needed
 979 0048 80BC     		pop	{r7}
 980              		.cfi_restore 7
 981              		.cfi_def_cfa_offset 0
 982 004a 7047     		bx	lr
 983              	.L68:
 984              		.align	2
 985              	.L67:
 986 004c B4C70040 		.word	1073792948
 987              		.cfi_endproc
 988              	.LFE12:
 989              		.size	Filter_SetDalign, .-Filter_SetDalign
 990              		.text
 991              	.Letext0:
 992              		.file 2 "Generated_Source\\PSoC5\\cytypes.h"
 993              		.file 3 "Generated_Source\\PSoC5\\Filter_PVT.h"