ARM GAS  C:\Users\Krist\AppData\Local\Temp\ccLoJ1ic.s 			page 1


   1              		.syntax unified
   2              		.cpu cortex-m3
   3              		.fpu softvfp
   4              		.eabi_attribute 20, 1
   5              		.eabi_attribute 21, 1
   6              		.eabi_attribute 23, 3
   7              		.eabi_attribute 24, 1
   8              		.eabi_attribute 25, 1
   9              		.eabi_attribute 26, 1
  10              		.eabi_attribute 30, 6
  11              		.eabi_attribute 34, 1
  12              		.eabi_attribute 18, 4
  13              		.thumb
  14              		.syntax unified
  15              		.file	"Filter.c"
  16              		.text
  17              	.Ltext0:
  18              		.cfi_sections	.debug_frame
  19              		.global	Filter_initVar
  20              		.bss
  21              		.type	Filter_initVar, %object
  22              		.size	Filter_initVar, 1
  23              	Filter_initVar:
  24 0000 00       		.space	1
  25              		.section	.text.Filter_Init,"ax",%progbits
  26              		.align	2
  27              		.global	Filter_Init
  28              		.thumb
  29              		.thumb_func
  30              		.type	Filter_Init, %function
  31              	Filter_Init:
  32              	.LFB0:
  33              		.file 1 "Generated_Source\\PSoC5\\Filter.c"
   1:Generated_Source\PSoC5/Filter.c **** /*******************************************************************************
   2:Generated_Source\PSoC5/Filter.c **** * File Name: Filter.c
   3:Generated_Source\PSoC5/Filter.c **** * Version 2.30
   4:Generated_Source\PSoC5/Filter.c **** *
   5:Generated_Source\PSoC5/Filter.c **** * Description:
   6:Generated_Source\PSoC5/Filter.c **** *  This file provides the API source code for the FILT component.
   7:Generated_Source\PSoC5/Filter.c **** *
   8:Generated_Source\PSoC5/Filter.c **** * Note:
   9:Generated_Source\PSoC5/Filter.c **** *  
  10:Generated_Source\PSoC5/Filter.c **** *******************************************************************************
  11:Generated_Source\PSoC5/Filter.c **** * Copyright 2008-2013, Cypress Semiconductor Corporation.  All rights reserved.
  12:Generated_Source\PSoC5/Filter.c **** * You may use this file only in accordance with the license, terms, conditions, 
  13:Generated_Source\PSoC5/Filter.c **** * disclaimers, and limitations in the end user license agreement accompanying 
  14:Generated_Source\PSoC5/Filter.c **** * the software package with which this file was provided.
  15:Generated_Source\PSoC5/Filter.c **** ********************************************************************************/
  16:Generated_Source\PSoC5/Filter.c **** 
  17:Generated_Source\PSoC5/Filter.c **** #include "Filter_PVT.h"
  18:Generated_Source\PSoC5/Filter.c **** 
  19:Generated_Source\PSoC5/Filter.c **** 
  20:Generated_Source\PSoC5/Filter.c **** /*******************************************************************************
  21:Generated_Source\PSoC5/Filter.c **** * FILT component internal variables.
  22:Generated_Source\PSoC5/Filter.c **** *******************************************************************************/
  23:Generated_Source\PSoC5/Filter.c **** 
  24:Generated_Source\PSoC5/Filter.c **** uint8 Filter_initVar = 0x0u;
ARM GAS  C:\Users\Krist\AppData\Local\Temp\ccLoJ1ic.s 			page 2


  25:Generated_Source\PSoC5/Filter.c **** 
  26:Generated_Source\PSoC5/Filter.c **** 
  27:Generated_Source\PSoC5/Filter.c **** /*******************************************************************************
  28:Generated_Source\PSoC5/Filter.c **** * Function Name: Filter_Init
  29:Generated_Source\PSoC5/Filter.c **** ********************************************************************************
  30:Generated_Source\PSoC5/Filter.c **** *
  31:Generated_Source\PSoC5/Filter.c **** * Summary:
  32:Generated_Source\PSoC5/Filter.c **** *  Initialize component's parameters to the parameters set by user in the 
  33:Generated_Source\PSoC5/Filter.c **** *  customizer of the component placed onto schematic. Usually called in 
  34:Generated_Source\PSoC5/Filter.c **** *  Filter_Start().
  35:Generated_Source\PSoC5/Filter.c **** *
  36:Generated_Source\PSoC5/Filter.c **** * Parameters:  
  37:Generated_Source\PSoC5/Filter.c **** *  void
  38:Generated_Source\PSoC5/Filter.c **** *
  39:Generated_Source\PSoC5/Filter.c **** * Return: 
  40:Generated_Source\PSoC5/Filter.c **** *  void
  41:Generated_Source\PSoC5/Filter.c **** *
  42:Generated_Source\PSoC5/Filter.c **** *******************************************************************************/
  43:Generated_Source\PSoC5/Filter.c **** void Filter_Init(void) 
  44:Generated_Source\PSoC5/Filter.c **** {
  34              		.loc 1 44 0
  35              		.cfi_startproc
  36              		@ args = 0, pretend = 0, frame = 0
  37              		@ frame_needed = 1, uses_anonymous_args = 0
  38 0000 F8B5     		push	{r3, r4, r5, r6, r7, lr}
  39              		.cfi_def_cfa_offset 24
  40              		.cfi_offset 3, -24
  41              		.cfi_offset 4, -20
  42              		.cfi_offset 5, -16
  43              		.cfi_offset 6, -12
  44              		.cfi_offset 7, -8
  45              		.cfi_offset 14, -4
  46 0002 00AF     		add	r7, sp, #0
  47              		.cfi_def_cfa_register 7
  45:Generated_Source\PSoC5/Filter.c ****         /* Power on DFB before initializing the RAMs */
  46:Generated_Source\PSoC5/Filter.c ****     Filter_PM_ACT_CFG_REG |= Filter_PM_ACT_MSK;
  48              		.loc 1 46 0
  49 0004 304A     		ldr	r2, .L3
  50 0006 304B     		ldr	r3, .L3
  51 0008 1B78     		ldrb	r3, [r3]
  52 000a DBB2     		uxtb	r3, r3
  53 000c 43F01003 		orr	r3, r3, #16
  54 0010 DBB2     		uxtb	r3, r3
  55 0012 1370     		strb	r3, [r2]
  47:Generated_Source\PSoC5/Filter.c **** 
  48:Generated_Source\PSoC5/Filter.c ****     /* Turn off Run Bit */
  49:Generated_Source\PSoC5/Filter.c ****     Filter_CR_REG &= (uint8)~Filter_RUN_MASK;
  56              		.loc 1 49 0
  57 0014 2D4A     		ldr	r2, .L3+4
  58 0016 2D4B     		ldr	r3, .L3+4
  59 0018 1B78     		ldrb	r3, [r3]
  60 001a DBB2     		uxtb	r3, r3
  61 001c 23F00103 		bic	r3, r3, #1
  62 0020 DBB2     		uxtb	r3, r3
  63 0022 1370     		strb	r3, [r2]
  50:Generated_Source\PSoC5/Filter.c ****                 
  51:Generated_Source\PSoC5/Filter.c ****     /* Enable the DFB RAMS */
ARM GAS  C:\Users\Krist\AppData\Local\Temp\ccLoJ1ic.s 			page 3


  52:Generated_Source\PSoC5/Filter.c ****     Filter_RAM_EN_REG = Filter_RAM_DIR_BUS;
  64              		.loc 1 52 0
  65 0024 2A4B     		ldr	r3, .L3+8
  66 0026 3F22     		movs	r2, #63
  67 0028 1A70     		strb	r2, [r3]
  53:Generated_Source\PSoC5/Filter.c ****         
  54:Generated_Source\PSoC5/Filter.c ****     /* Put DFB RAM on the bus */
  55:Generated_Source\PSoC5/Filter.c ****     Filter_RAM_DIR_REG = Filter_RAM_DIR_BUS;
  68              		.loc 1 55 0
  69 002a 2A4B     		ldr	r3, .L3+12
  70 002c 3F22     		movs	r2, #63
  71 002e 1A70     		strb	r2, [r3]
  56:Generated_Source\PSoC5/Filter.c ****         
  57:Generated_Source\PSoC5/Filter.c ****     /* Write DFB RAMs */
  58:Generated_Source\PSoC5/Filter.c ****     /* Control Store RAMs */
  59:Generated_Source\PSoC5/Filter.c ****     (void)memcpy( Filter_CSA_RAM,
  72              		.loc 1 59 0
  73 0030 294A     		ldr	r2, .L3+16
  74 0032 2A4B     		ldr	r3, .L3+20
  75 0034 1046     		mov	r0, r2
  76 0036 1946     		mov	r1, r3
  77 0038 4FF48073 		mov	r3, #256
  78 003c 1A46     		mov	r2, r3
  79 003e FFF7FEFF 		bl	memcpy
  60:Generated_Source\PSoC5/Filter.c ****         Filter_control, Filter_CSA_RAM_SIZE); 
  61:Generated_Source\PSoC5/Filter.c ****     (void)memcpy(Filter_CSB_RAM,
  80              		.loc 1 61 0
  81 0042 274A     		ldr	r2, .L3+24
  82 0044 254B     		ldr	r3, .L3+20
  83 0046 1046     		mov	r0, r2
  84 0048 1946     		mov	r1, r3
  85 004a 4FF48073 		mov	r3, #256
  86 004e 1A46     		mov	r2, r3
  87 0050 FFF7FEFF 		bl	memcpy
  62:Generated_Source\PSoC5/Filter.c ****         Filter_control, Filter_CSB_RAM_SIZE); 
  63:Generated_Source\PSoC5/Filter.c ****     /* CFSM RAM */
  64:Generated_Source\PSoC5/Filter.c ****     (void)memcpy(Filter_CFSM_RAM,
  88              		.loc 1 64 0
  89 0054 234A     		ldr	r2, .L3+28
  90 0056 244B     		ldr	r3, .L3+32
  91 0058 1046     		mov	r0, r2
  92 005a 1946     		mov	r1, r3
  93 005c 4FF48073 		mov	r3, #256
  94 0060 1A46     		mov	r2, r3
  95 0062 FFF7FEFF 		bl	memcpy
  65:Generated_Source\PSoC5/Filter.c ****         Filter_cfsm, Filter_CFSM_RAM_SIZE); 
  66:Generated_Source\PSoC5/Filter.c ****     /* Data RAMs */
  67:Generated_Source\PSoC5/Filter.c ****     (void)memcpy(Filter_DA_RAM,
  96              		.loc 1 67 0
  97 0066 214A     		ldr	r2, .L3+36
  98 0068 214B     		ldr	r3, .L3+40
  99 006a 1046     		mov	r0, r2
 100 006c 1946     		mov	r1, r3
 101 006e 4FF40073 		mov	r3, #512
 102 0072 1A46     		mov	r2, r3
 103 0074 FFF7FEFF 		bl	memcpy
  68:Generated_Source\PSoC5/Filter.c ****         Filter_data_a, Filter_DA_RAM_SIZE); 
ARM GAS  C:\Users\Krist\AppData\Local\Temp\ccLoJ1ic.s 			page 4


  69:Generated_Source\PSoC5/Filter.c ****     (void)memcpy(Filter_DB_RAM,
 104              		.loc 1 69 0
 105 0078 1E4A     		ldr	r2, .L3+44
 106 007a 1F4B     		ldr	r3, .L3+48
 107 007c 1046     		mov	r0, r2
 108 007e 1946     		mov	r1, r3
 109 0080 4FF40073 		mov	r3, #512
 110 0084 1A46     		mov	r2, r3
 111 0086 FFF7FEFF 		bl	memcpy
  70:Generated_Source\PSoC5/Filter.c ****         Filter_data_b, Filter_DB_RAM_SIZE); 
  71:Generated_Source\PSoC5/Filter.c ****     /* ACU RAM */
  72:Generated_Source\PSoC5/Filter.c ****     (void)memcpy(Filter_ACU_RAM,
 112              		.loc 1 72 0
 113 008a 1C4B     		ldr	r3, .L3+52
 114 008c 1C4A     		ldr	r2, .L3+56
 115 008e 1446     		mov	r4, r2
 116 0090 1E46     		mov	r6, r3
 117 0092 04F1400E 		add	lr, r4, #64
 118              	.L2:
 119 0096 3546     		mov	r5, r6
 120 0098 2346     		mov	r3, r4
 121 009a 1868     		ldr	r0, [r3]	@ unaligned
 122 009c 5968     		ldr	r1, [r3, #4]	@ unaligned
 123 009e 9A68     		ldr	r2, [r3, #8]	@ unaligned
 124 00a0 DB68     		ldr	r3, [r3, #12]	@ unaligned
 125 00a2 0FC5     		stmia	r5!, {r0, r1, r2, r3}
 126 00a4 1034     		adds	r4, r4, #16
 127 00a6 1036     		adds	r6, r6, #16
 128 00a8 7445     		cmp	r4, lr
 129 00aa F4D1     		bne	.L2
  73:Generated_Source\PSoC5/Filter.c ****         Filter_acu, Filter_ACU_RAM_SIZE); 
  74:Generated_Source\PSoC5/Filter.c **** 
  75:Generated_Source\PSoC5/Filter.c ****     /* Take DFB RAM off the bus */
  76:Generated_Source\PSoC5/Filter.c ****     Filter_RAM_DIR_REG = Filter_RAM_DIR_DFB;
 130              		.loc 1 76 0
 131 00ac 094B     		ldr	r3, .L3+12
 132 00ae 0022     		movs	r2, #0
 133 00b0 1A70     		strb	r2, [r3]
  77:Generated_Source\PSoC5/Filter.c **** 
  78:Generated_Source\PSoC5/Filter.c ****     /* Set up interrupt and DMA events */
  79:Generated_Source\PSoC5/Filter.c ****     Filter_SetInterruptMode(Filter_INIT_INTERRUPT_MODE);
 134              		.loc 1 79 0
 135 00b2 0020     		movs	r0, #0
 136 00b4 FFF7FEFF 		bl	Filter_SetInterruptMode
  80:Generated_Source\PSoC5/Filter.c ****     Filter_SetDMAMode(Filter_INIT_DMA_MODE);
 137              		.loc 1 80 0
 138 00b8 0520     		movs	r0, #5
 139 00ba FFF7FEFF 		bl	Filter_SetDMAMode
  81:Generated_Source\PSoC5/Filter.c ****         
  82:Generated_Source\PSoC5/Filter.c ****     /* Clear any pending interrupts */
  83:Generated_Source\PSoC5/Filter.c ****     /* Bits [2..0] of this register are readonly. */
  84:Generated_Source\PSoC5/Filter.c ****     Filter_SR_REG = 0xf8u;   
 140              		.loc 1 84 0
 141 00be 114B     		ldr	r3, .L3+60
 142 00c0 F822     		movs	r2, #248
 143 00c2 1A70     		strb	r2, [r3]
  85:Generated_Source\PSoC5/Filter.c **** }
ARM GAS  C:\Users\Krist\AppData\Local\Temp\ccLoJ1ic.s 			page 5


 144              		.loc 1 85 0
 145 00c4 00BF     		nop
 146 00c6 F8BD     		pop	{r3, r4, r5, r6, r7, pc}
 147              	.L4:
 148              		.align	2
 149              	.L3:
 150 00c8 A6430040 		.word	1073759142
 151 00cc 80C70040 		.word	1073792896
 152 00d0 88C70040 		.word	1073792904
 153 00d4 8CC70040 		.word	1073792908
 154 00d8 00C40040 		.word	1073792000
 155 00dc 00000000 		.word	Filter_control
 156 00e0 00C50040 		.word	1073792256
 157 00e4 00C60040 		.word	1073792512
 158 00e8 00000000 		.word	Filter_cfsm
 159 00ec 00C00040 		.word	1073790976
 160 00f0 00000000 		.word	Filter_data_a
 161 00f4 00C20040 		.word	1073791488
 162 00f8 00000000 		.word	Filter_data_b
 163 00fc 00C70040 		.word	1073792768
 164 0100 00000000 		.word	Filter_acu
 165 0104 84C70040 		.word	1073792900
 166              		.cfi_endproc
 167              	.LFE0:
 168              		.size	Filter_Init, .-Filter_Init
 169              		.section	.text.Filter_Enable,"ax",%progbits
 170              		.align	2
 171              		.global	Filter_Enable
 172              		.thumb
 173              		.thumb_func
 174              		.type	Filter_Enable, %function
 175              	Filter_Enable:
 176              	.LFB1:
  86:Generated_Source\PSoC5/Filter.c **** 
  87:Generated_Source\PSoC5/Filter.c **** 
  88:Generated_Source\PSoC5/Filter.c **** /*******************************************************************************
  89:Generated_Source\PSoC5/Filter.c **** * Function Name: Filter_Enable
  90:Generated_Source\PSoC5/Filter.c **** ********************************************************************************
  91:Generated_Source\PSoC5/Filter.c **** *  
  92:Generated_Source\PSoC5/Filter.c **** * Summary: 
  93:Generated_Source\PSoC5/Filter.c **** *  Enables the DFB run bit.
  94:Generated_Source\PSoC5/Filter.c **** *
  95:Generated_Source\PSoC5/Filter.c **** * Parameters:  
  96:Generated_Source\PSoC5/Filter.c **** *  void
  97:Generated_Source\PSoC5/Filter.c **** *
  98:Generated_Source\PSoC5/Filter.c **** * Return: 
  99:Generated_Source\PSoC5/Filter.c **** *  void
 100:Generated_Source\PSoC5/Filter.c **** *
 101:Generated_Source\PSoC5/Filter.c **** *******************************************************************************/
 102:Generated_Source\PSoC5/Filter.c **** void Filter_Enable(void) 
 103:Generated_Source\PSoC5/Filter.c **** {
 177              		.loc 1 103 0
 178              		.cfi_startproc
 179              		@ args = 0, pretend = 0, frame = 0
 180              		@ frame_needed = 1, uses_anonymous_args = 0
 181              		@ link register save eliminated.
 182 0000 80B4     		push	{r7}
ARM GAS  C:\Users\Krist\AppData\Local\Temp\ccLoJ1ic.s 			page 6


 183              		.cfi_def_cfa_offset 4
 184              		.cfi_offset 7, -4
 185 0002 00AF     		add	r7, sp, #0
 186              		.cfi_def_cfa_register 7
 104:Generated_Source\PSoC5/Filter.c ****     /* Power on DFB in Active mode */
 105:Generated_Source\PSoC5/Filter.c ****     Filter_PM_ACT_CFG_REG |= Filter_PM_ACT_MSK;
 187              		.loc 1 105 0
 188 0004 0D4A     		ldr	r2, .L6
 189 0006 0D4B     		ldr	r3, .L6
 190 0008 1B78     		ldrb	r3, [r3]
 191 000a DBB2     		uxtb	r3, r3
 192 000c 43F01003 		orr	r3, r3, #16
 193 0010 DBB2     		uxtb	r3, r3
 194 0012 1370     		strb	r3, [r2]
 106:Generated_Source\PSoC5/Filter.c ****         
 107:Generated_Source\PSoC5/Filter.c ****     /* Power on DFB in Alternative Active mode */
 108:Generated_Source\PSoC5/Filter.c ****     Filter_PM_STBY_CFG_REG |= Filter_PM_STBY_MSK;
 195              		.loc 1 108 0
 196 0014 0A4A     		ldr	r2, .L6+4
 197 0016 0A4B     		ldr	r3, .L6+4
 198 0018 1B78     		ldrb	r3, [r3]
 199 001a DBB2     		uxtb	r3, r3
 200 001c 43F01003 		orr	r3, r3, #16
 201 0020 DBB2     		uxtb	r3, r3
 202 0022 1370     		strb	r3, [r2]
 109:Generated_Source\PSoC5/Filter.c **** 
 110:Generated_Source\PSoC5/Filter.c ****     /* Turn on Run Bit */
 111:Generated_Source\PSoC5/Filter.c ****     Filter_CR_REG |= Filter_RUN_MASK;
 203              		.loc 1 111 0
 204 0024 074A     		ldr	r2, .L6+8
 205 0026 074B     		ldr	r3, .L6+8
 206 0028 1B78     		ldrb	r3, [r3]
 207 002a DBB2     		uxtb	r3, r3
 208 002c 43F00103 		orr	r3, r3, #1
 209 0030 DBB2     		uxtb	r3, r3
 210 0032 1370     		strb	r3, [r2]
 112:Generated_Source\PSoC5/Filter.c **** }
 211              		.loc 1 112 0
 212 0034 00BF     		nop
 213 0036 BD46     		mov	sp, r7
 214              		.cfi_def_cfa_register 13
 215              		@ sp needed
 216 0038 80BC     		pop	{r7}
 217              		.cfi_restore 7
 218              		.cfi_def_cfa_offset 0
 219 003a 7047     		bx	lr
 220              	.L7:
 221              		.align	2
 222              	.L6:
 223 003c A6430040 		.word	1073759142
 224 0040 B6430040 		.word	1073759158
 225 0044 80C70040 		.word	1073792896
 226              		.cfi_endproc
 227              	.LFE1:
 228              		.size	Filter_Enable, .-Filter_Enable
 229              		.section	.text.Filter_Start,"ax",%progbits
 230              		.align	2
ARM GAS  C:\Users\Krist\AppData\Local\Temp\ccLoJ1ic.s 			page 7


 231              		.global	Filter_Start
 232              		.thumb
 233              		.thumb_func
 234              		.type	Filter_Start, %function
 235              	Filter_Start:
 236              	.LFB2:
 113:Generated_Source\PSoC5/Filter.c **** 
 114:Generated_Source\PSoC5/Filter.c **** 
 115:Generated_Source\PSoC5/Filter.c **** /*******************************************************************************
 116:Generated_Source\PSoC5/Filter.c **** * Function Name: Filter_Start
 117:Generated_Source\PSoC5/Filter.c **** ********************************************************************************
 118:Generated_Source\PSoC5/Filter.c **** *
 119:Generated_Source\PSoC5/Filter.c **** * Summary:
 120:Generated_Source\PSoC5/Filter.c **** *  This method does the prep work necessary to setup DFB.  This includes loading 
 121:Generated_Source\PSoC5/Filter.c **** *
 122:Generated_Source\PSoC5/Filter.c **** * Parameters:  
 123:Generated_Source\PSoC5/Filter.c **** *  void
 124:Generated_Source\PSoC5/Filter.c **** * 
 125:Generated_Source\PSoC5/Filter.c **** * Return: 
 126:Generated_Source\PSoC5/Filter.c **** *  void
 127:Generated_Source\PSoC5/Filter.c **** *
 128:Generated_Source\PSoC5/Filter.c **** * Global variables:
 129:Generated_Source\PSoC5/Filter.c **** *  Filter_initVar:  Used to check the initial configuration,
 130:Generated_Source\PSoC5/Filter.c **** *  modified when this function is called for the first time.
 131:Generated_Source\PSoC5/Filter.c **** *
 132:Generated_Source\PSoC5/Filter.c **** * Note: 
 133:Generated_Source\PSoC5/Filter.c **** *  Use Filter_InterruptConfig to control which events trigger 
 134:Generated_Source\PSoC5/Filter.c **** *  interrupts in the DFB. 
 135:Generated_Source\PSoC5/Filter.c **** *
 136:Generated_Source\PSoC5/Filter.c **** *******************************************************************************/
 137:Generated_Source\PSoC5/Filter.c **** void Filter_Start(void) 
 138:Generated_Source\PSoC5/Filter.c **** {
 237              		.loc 1 138 0
 238              		.cfi_startproc
 239              		@ args = 0, pretend = 0, frame = 0
 240              		@ frame_needed = 1, uses_anonymous_args = 0
 241 0000 80B5     		push	{r7, lr}
 242              		.cfi_def_cfa_offset 8
 243              		.cfi_offset 7, -8
 244              		.cfi_offset 14, -4
 245 0002 00AF     		add	r7, sp, #0
 246              		.cfi_def_cfa_register 7
 139:Generated_Source\PSoC5/Filter.c ****      /* If not Initialized then initialize all required hardware and software */
 140:Generated_Source\PSoC5/Filter.c ****     if(Filter_initVar == 0u)
 247              		.loc 1 140 0
 248 0004 064B     		ldr	r3, .L10
 249 0006 1B78     		ldrb	r3, [r3]	@ zero_extendqisi2
 250 0008 002B     		cmp	r3, #0
 251 000a 04D1     		bne	.L9
 141:Generated_Source\PSoC5/Filter.c ****     {
 142:Generated_Source\PSoC5/Filter.c ****         Filter_Init();
 252              		.loc 1 142 0
 253 000c FFF7FEFF 		bl	Filter_Init
 143:Generated_Source\PSoC5/Filter.c ****         Filter_initVar = 1u;
 254              		.loc 1 143 0
 255 0010 034B     		ldr	r3, .L10
 256 0012 0122     		movs	r2, #1
ARM GAS  C:\Users\Krist\AppData\Local\Temp\ccLoJ1ic.s 			page 8


 257 0014 1A70     		strb	r2, [r3]
 258              	.L9:
 144:Generated_Source\PSoC5/Filter.c ****     }
 145:Generated_Source\PSoC5/Filter.c **** 
 146:Generated_Source\PSoC5/Filter.c ****     /* Enable the DFB block */
 147:Generated_Source\PSoC5/Filter.c ****     Filter_Enable();
 259              		.loc 1 147 0
 260 0016 FFF7FEFF 		bl	Filter_Enable
 148:Generated_Source\PSoC5/Filter.c **** }
 261              		.loc 1 148 0
 262 001a 00BF     		nop
 263 001c 80BD     		pop	{r7, pc}
 264              	.L11:
 265 001e 00BF     		.align	2
 266              	.L10:
 267 0020 00000000 		.word	Filter_initVar
 268              		.cfi_endproc
 269              	.LFE2:
 270              		.size	Filter_Start, .-Filter_Start
 271              		.section	.text.Filter_Stop,"ax",%progbits
 272              		.align	2
 273              		.global	Filter_Stop
 274              		.thumb
 275              		.thumb_func
 276              		.type	Filter_Stop, %function
 277              	Filter_Stop:
 278              	.LFB3:
 149:Generated_Source\PSoC5/Filter.c **** 
 150:Generated_Source\PSoC5/Filter.c **** 
 151:Generated_Source\PSoC5/Filter.c **** /*******************************************************************************
 152:Generated_Source\PSoC5/Filter.c **** * Function Name: Filter_Stop
 153:Generated_Source\PSoC5/Filter.c **** ********************************************************************************
 154:Generated_Source\PSoC5/Filter.c **** *
 155:Generated_Source\PSoC5/Filter.c **** * Summary:
 156:Generated_Source\PSoC5/Filter.c **** *  Turn off the run bit.  If DMA control is used to feed the channels, allow 
 157:Generated_Source\PSoC5/Filter.c **** *  arguments to turn one of the TD channels off. 
 158:Generated_Source\PSoC5/Filter.c **** *
 159:Generated_Source\PSoC5/Filter.c **** * Parameters:  
 160:Generated_Source\PSoC5/Filter.c **** *  void
 161:Generated_Source\PSoC5/Filter.c **** *
 162:Generated_Source\PSoC5/Filter.c **** * Return: 
 163:Generated_Source\PSoC5/Filter.c **** *  void
 164:Generated_Source\PSoC5/Filter.c **** *
 165:Generated_Source\PSoC5/Filter.c **** *******************************************************************************/
 166:Generated_Source\PSoC5/Filter.c **** void Filter_Stop(void) 
 167:Generated_Source\PSoC5/Filter.c **** {
 279              		.loc 1 167 0
 280              		.cfi_startproc
 281              		@ args = 0, pretend = 0, frame = 0
 282              		@ frame_needed = 1, uses_anonymous_args = 0
 283              		@ link register save eliminated.
 284 0000 80B4     		push	{r7}
 285              		.cfi_def_cfa_offset 4
 286              		.cfi_offset 7, -4
 287 0002 00AF     		add	r7, sp, #0
 288              		.cfi_def_cfa_register 7
 168:Generated_Source\PSoC5/Filter.c ****     Filter_CR_REG &= (uint8)~(Filter_RUN_MASK);
ARM GAS  C:\Users\Krist\AppData\Local\Temp\ccLoJ1ic.s 			page 9


 289              		.loc 1 168 0
 290 0004 0D4A     		ldr	r2, .L13
 291 0006 0D4B     		ldr	r3, .L13
 292 0008 1B78     		ldrb	r3, [r3]
 293 000a DBB2     		uxtb	r3, r3
 294 000c 23F00103 		bic	r3, r3, #1
 295 0010 DBB2     		uxtb	r3, r3
 296 0012 1370     		strb	r3, [r2]
 169:Generated_Source\PSoC5/Filter.c **** 
 170:Generated_Source\PSoC5/Filter.c ****     /* Power off DFB in Active mode */
 171:Generated_Source\PSoC5/Filter.c ****     Filter_PM_ACT_CFG_REG &= (uint8)~Filter_PM_ACT_MSK;
 297              		.loc 1 171 0
 298 0014 0A4A     		ldr	r2, .L13+4
 299 0016 0A4B     		ldr	r3, .L13+4
 300 0018 1B78     		ldrb	r3, [r3]
 301 001a DBB2     		uxtb	r3, r3
 302 001c 23F01003 		bic	r3, r3, #16
 303 0020 DBB2     		uxtb	r3, r3
 304 0022 1370     		strb	r3, [r2]
 172:Generated_Source\PSoC5/Filter.c ****     
 173:Generated_Source\PSoC5/Filter.c ****     /* Power off DFB in Alternative Active mode */
 174:Generated_Source\PSoC5/Filter.c ****     Filter_PM_STBY_CFG_REG &= (uint8)~Filter_PM_STBY_MSK;
 305              		.loc 1 174 0
 306 0024 074A     		ldr	r2, .L13+8
 307 0026 074B     		ldr	r3, .L13+8
 308 0028 1B78     		ldrb	r3, [r3]
 309 002a DBB2     		uxtb	r3, r3
 310 002c 23F01003 		bic	r3, r3, #16
 311 0030 DBB2     		uxtb	r3, r3
 312 0032 1370     		strb	r3, [r2]
 175:Generated_Source\PSoC5/Filter.c **** }
 313              		.loc 1 175 0
 314 0034 00BF     		nop
 315 0036 BD46     		mov	sp, r7
 316              		.cfi_def_cfa_register 13
 317              		@ sp needed
 318 0038 80BC     		pop	{r7}
 319              		.cfi_restore 7
 320              		.cfi_def_cfa_offset 0
 321 003a 7047     		bx	lr
 322              	.L14:
 323              		.align	2
 324              	.L13:
 325 003c 80C70040 		.word	1073792896
 326 0040 A6430040 		.word	1073759142
 327 0044 B6430040 		.word	1073759158
 328              		.cfi_endproc
 329              	.LFE3:
 330              		.size	Filter_Stop, .-Filter_Stop
 331              		.section	.text.Filter_Read8,"ax",%progbits
 332              		.align	2
 333              		.global	Filter_Read8
 334              		.thumb
 335              		.thumb_func
 336              		.type	Filter_Read8, %function
 337              	Filter_Read8:
 338              	.LFB4:
ARM GAS  C:\Users\Krist\AppData\Local\Temp\ccLoJ1ic.s 			page 10


 176:Generated_Source\PSoC5/Filter.c **** 
 177:Generated_Source\PSoC5/Filter.c **** 
 178:Generated_Source\PSoC5/Filter.c **** /*******************************************************************************
 179:Generated_Source\PSoC5/Filter.c **** * Function Name: Filter_Read8
 180:Generated_Source\PSoC5/Filter.c **** ********************************************************************************
 181:Generated_Source\PSoC5/Filter.c **** *
 182:Generated_Source\PSoC5/Filter.c **** * Summary:
 183:Generated_Source\PSoC5/Filter.c **** *  Get the value in one of the DFB Output Holding Registers 
 184:Generated_Source\PSoC5/Filter.c **** *
 185:Generated_Source\PSoC5/Filter.c **** * Parameters:  
 186:Generated_Source\PSoC5/Filter.c **** *  channel:  Filter_CHANNEL_A or Filter_CHANNEL_B
 187:Generated_Source\PSoC5/Filter.c **** *            
 188:Generated_Source\PSoC5/Filter.c **** * Return: 
 189:Generated_Source\PSoC5/Filter.c **** *  The most significant 8 bits of the current output value sitting in the 
 190:Generated_Source\PSoC5/Filter.c **** *  selected channel's holding register or 0x00 for invalid channel numbers.
 191:Generated_Source\PSoC5/Filter.c **** *
 192:Generated_Source\PSoC5/Filter.c **** *******************************************************************************/
 193:Generated_Source\PSoC5/Filter.c **** uint8 Filter_Read8(uint8 channel) 
 194:Generated_Source\PSoC5/Filter.c **** {
 339              		.loc 1 194 0
 340              		.cfi_startproc
 341              		@ args = 0, pretend = 0, frame = 16
 342              		@ frame_needed = 1, uses_anonymous_args = 0
 343              		@ link register save eliminated.
 344 0000 80B4     		push	{r7}
 345              		.cfi_def_cfa_offset 4
 346              		.cfi_offset 7, -4
 347 0002 85B0     		sub	sp, sp, #20
 348              		.cfi_def_cfa_offset 24
 349 0004 00AF     		add	r7, sp, #0
 350              		.cfi_def_cfa_register 7
 351 0006 0346     		mov	r3, r0
 352 0008 FB71     		strb	r3, [r7, #7]
 195:Generated_Source\PSoC5/Filter.c ****     uint8 value;
 196:Generated_Source\PSoC5/Filter.c **** 
 197:Generated_Source\PSoC5/Filter.c ****     if (channel == Filter_CHANNEL_A)
 353              		.loc 1 197 0
 354 000a FB79     		ldrb	r3, [r7, #7]	@ zero_extendqisi2
 355 000c 002B     		cmp	r3, #0
 356 000e 03D1     		bne	.L16
 198:Generated_Source\PSoC5/Filter.c ****     {
 199:Generated_Source\PSoC5/Filter.c ****         value = Filter_HOLDAH_REG;
 357              		.loc 1 199 0
 358 0010 094B     		ldr	r3, .L20
 359 0012 1B78     		ldrb	r3, [r3]
 360 0014 FB73     		strb	r3, [r7, #15]
 361 0016 08E0     		b	.L17
 362              	.L16:
 200:Generated_Source\PSoC5/Filter.c ****     }
 201:Generated_Source\PSoC5/Filter.c ****     else if (channel == Filter_CHANNEL_B)
 363              		.loc 1 201 0
 364 0018 FB79     		ldrb	r3, [r7, #7]	@ zero_extendqisi2
 365 001a 012B     		cmp	r3, #1
 366 001c 03D1     		bne	.L18
 202:Generated_Source\PSoC5/Filter.c ****     {
 203:Generated_Source\PSoC5/Filter.c ****         value = Filter_HOLDBH_REG;
 367              		.loc 1 203 0
ARM GAS  C:\Users\Krist\AppData\Local\Temp\ccLoJ1ic.s 			page 11


 368 001e 074B     		ldr	r3, .L20+4
 369 0020 1B78     		ldrb	r3, [r3]
 370 0022 FB73     		strb	r3, [r7, #15]
 371 0024 01E0     		b	.L17
 372              	.L18:
 204:Generated_Source\PSoC5/Filter.c ****     }
 205:Generated_Source\PSoC5/Filter.c ****     else
 206:Generated_Source\PSoC5/Filter.c ****     {
 207:Generated_Source\PSoC5/Filter.c ****         value = 0x0u;
 373              		.loc 1 207 0
 374 0026 0023     		movs	r3, #0
 375 0028 FB73     		strb	r3, [r7, #15]
 376              	.L17:
 208:Generated_Source\PSoC5/Filter.c ****     }
 209:Generated_Source\PSoC5/Filter.c ****     return value;
 377              		.loc 1 209 0
 378 002a FB7B     		ldrb	r3, [r7, #15]	@ zero_extendqisi2
 210:Generated_Source\PSoC5/Filter.c **** }
 379              		.loc 1 210 0
 380 002c 1846     		mov	r0, r3
 381 002e 1437     		adds	r7, r7, #20
 382              		.cfi_def_cfa_offset 4
 383 0030 BD46     		mov	sp, r7
 384              		.cfi_def_cfa_register 13
 385              		@ sp needed
 386 0032 80BC     		pop	{r7}
 387              		.cfi_restore 7
 388              		.cfi_def_cfa_offset 0
 389 0034 7047     		bx	lr
 390              	.L21:
 391 0036 00BF     		.align	2
 392              	.L20:
 393 0038 AAC70040 		.word	1073792938
 394 003c AEC70040 		.word	1073792942
 395              		.cfi_endproc
 396              	.LFE4:
 397              		.size	Filter_Read8, .-Filter_Read8
 398              		.section	.text.Filter_Read16,"ax",%progbits
 399              		.align	2
 400              		.global	Filter_Read16
 401              		.thumb
 402              		.thumb_func
 403              		.type	Filter_Read16, %function
 404              	Filter_Read16:
 405              	.LFB5:
 211:Generated_Source\PSoC5/Filter.c **** 
 212:Generated_Source\PSoC5/Filter.c **** 
 213:Generated_Source\PSoC5/Filter.c **** /*******************************************************************************
 214:Generated_Source\PSoC5/Filter.c **** * Function Name: Filter_Read16
 215:Generated_Source\PSoC5/Filter.c **** ********************************************************************************
 216:Generated_Source\PSoC5/Filter.c **** *
 217:Generated_Source\PSoC5/Filter.c **** * Summary:
 218:Generated_Source\PSoC5/Filter.c **** *  Get the value in one of the DFB Output Holding Registers 
 219:Generated_Source\PSoC5/Filter.c **** *
 220:Generated_Source\PSoC5/Filter.c **** * Parameters:  
 221:Generated_Source\PSoC5/Filter.c **** *  channel:  Filter_CHANNEL_A or Filter_CHANNEL_B
 222:Generated_Source\PSoC5/Filter.c **** *            
ARM GAS  C:\Users\Krist\AppData\Local\Temp\ccLoJ1ic.s 			page 12


 223:Generated_Source\PSoC5/Filter.c **** * Return: 
 224:Generated_Source\PSoC5/Filter.c **** *  The most significant 16 bits of the current output value sitting in the 
 225:Generated_Source\PSoC5/Filter.c **** *  selected channel's holding register or 0x0000 for invalid channel numbers
 226:Generated_Source\PSoC5/Filter.c **** *
 227:Generated_Source\PSoC5/Filter.c **** * Note:
 228:Generated_Source\PSoC5/Filter.c **** *  Order of the read is important.  On the read of the high byte, the DFB clears
 229:Generated_Source\PSoC5/Filter.c **** *  the data ready bit.
 230:Generated_Source\PSoC5/Filter.c **** *
 231:Generated_Source\PSoC5/Filter.c **** *******************************************************************************/
 232:Generated_Source\PSoC5/Filter.c **** #if defined(__C51__) || defined(__CX51__) 
 233:Generated_Source\PSoC5/Filter.c **** 
 234:Generated_Source\PSoC5/Filter.c ****     uint16 Filter_Read16(uint8 channel) 
 235:Generated_Source\PSoC5/Filter.c ****     {
 236:Generated_Source\PSoC5/Filter.c ****         uint16 val;
 237:Generated_Source\PSoC5/Filter.c ****     
 238:Generated_Source\PSoC5/Filter.c ****         if (channel == Filter_CHANNEL_A)
 239:Generated_Source\PSoC5/Filter.c ****         {        
 240:Generated_Source\PSoC5/Filter.c ****             val = Filter_HOLDAM_REG;
 241:Generated_Source\PSoC5/Filter.c ****             val |= (uint16)(Filter_HOLDAH_REG) << 8u;
 242:Generated_Source\PSoC5/Filter.c ****         }
 243:Generated_Source\PSoC5/Filter.c ****         else if (channel == Filter_CHANNEL_B)
 244:Generated_Source\PSoC5/Filter.c ****         {      
 245:Generated_Source\PSoC5/Filter.c ****             val = Filter_HOLDBM_REG;
 246:Generated_Source\PSoC5/Filter.c ****             val |= (uint16)Filter_HOLDBH_REG << 8u;
 247:Generated_Source\PSoC5/Filter.c ****         }
 248:Generated_Source\PSoC5/Filter.c ****         else
 249:Generated_Source\PSoC5/Filter.c ****         {
 250:Generated_Source\PSoC5/Filter.c ****             val = 0x0u;
 251:Generated_Source\PSoC5/Filter.c ****         }
 252:Generated_Source\PSoC5/Filter.c ****         return val;
 253:Generated_Source\PSoC5/Filter.c ****     }
 254:Generated_Source\PSoC5/Filter.c **** 
 255:Generated_Source\PSoC5/Filter.c **** #else
 256:Generated_Source\PSoC5/Filter.c **** 
 257:Generated_Source\PSoC5/Filter.c ****     uint16 Filter_Read16(uint8 channel) 
 258:Generated_Source\PSoC5/Filter.c ****     {
 406              		.loc 1 258 0
 407              		.cfi_startproc
 408              		@ args = 0, pretend = 0, frame = 16
 409              		@ frame_needed = 1, uses_anonymous_args = 0
 410              		@ link register save eliminated.
 411 0000 80B4     		push	{r7}
 412              		.cfi_def_cfa_offset 4
 413              		.cfi_offset 7, -4
 414 0002 85B0     		sub	sp, sp, #20
 415              		.cfi_def_cfa_offset 24
 416 0004 00AF     		add	r7, sp, #0
 417              		.cfi_def_cfa_register 7
 418 0006 0346     		mov	r3, r0
 419 0008 FB71     		strb	r3, [r7, #7]
 259:Generated_Source\PSoC5/Filter.c ****         uint16 val;
 260:Generated_Source\PSoC5/Filter.c **** 
 261:Generated_Source\PSoC5/Filter.c ****         if (channel == Filter_CHANNEL_A)
 420              		.loc 1 261 0
 421 000a FB79     		ldrb	r3, [r7, #7]	@ zero_extendqisi2
 422 000c 002B     		cmp	r3, #0
 423 000e 03D1     		bne	.L23
ARM GAS  C:\Users\Krist\AppData\Local\Temp\ccLoJ1ic.s 			page 13


 262:Generated_Source\PSoC5/Filter.c ****         {        
 263:Generated_Source\PSoC5/Filter.c ****             val = Filter_HOLDA16_REG;
 424              		.loc 1 263 0
 425 0010 094B     		ldr	r3, .L27
 426 0012 1B88     		ldrh	r3, [r3]	@ movhi
 427 0014 FB81     		strh	r3, [r7, #14]	@ movhi
 428 0016 08E0     		b	.L24
 429              	.L23:
 264:Generated_Source\PSoC5/Filter.c ****         }
 265:Generated_Source\PSoC5/Filter.c ****         else if (channel == Filter_CHANNEL_B)
 430              		.loc 1 265 0
 431 0018 FB79     		ldrb	r3, [r7, #7]	@ zero_extendqisi2
 432 001a 012B     		cmp	r3, #1
 433 001c 03D1     		bne	.L25
 266:Generated_Source\PSoC5/Filter.c ****         {      
 267:Generated_Source\PSoC5/Filter.c ****             val = Filter_HOLDB16_REG;
 434              		.loc 1 267 0
 435 001e 074B     		ldr	r3, .L27+4
 436 0020 1B88     		ldrh	r3, [r3]	@ movhi
 437 0022 FB81     		strh	r3, [r7, #14]	@ movhi
 438 0024 01E0     		b	.L24
 439              	.L25:
 268:Generated_Source\PSoC5/Filter.c ****         }
 269:Generated_Source\PSoC5/Filter.c ****         else
 270:Generated_Source\PSoC5/Filter.c ****         {
 271:Generated_Source\PSoC5/Filter.c ****             val = 0x0u;
 440              		.loc 1 271 0
 441 0026 0023     		movs	r3, #0
 442 0028 FB81     		strh	r3, [r7, #14]	@ movhi
 443              	.L24:
 272:Generated_Source\PSoC5/Filter.c ****         }
 273:Generated_Source\PSoC5/Filter.c ****         return val;
 444              		.loc 1 273 0
 445 002a FB89     		ldrh	r3, [r7, #14]
 274:Generated_Source\PSoC5/Filter.c ****     }
 446              		.loc 1 274 0
 447 002c 1846     		mov	r0, r3
 448 002e 1437     		adds	r7, r7, #20
 449              		.cfi_def_cfa_offset 4
 450 0030 BD46     		mov	sp, r7
 451              		.cfi_def_cfa_register 13
 452              		@ sp needed
 453 0032 80BC     		pop	{r7}
 454              		.cfi_restore 7
 455              		.cfi_def_cfa_offset 0
 456 0034 7047     		bx	lr
 457              	.L28:
 458 0036 00BF     		.align	2
 459              	.L27:
 460 0038 A9C70040 		.word	1073792937
 461 003c ADC70040 		.word	1073792941
 462              		.cfi_endproc
 463              	.LFE5:
 464              		.size	Filter_Read16, .-Filter_Read16
 465              		.section	.text.Filter_Read24,"ax",%progbits
 466              		.align	2
 467              		.global	Filter_Read24
ARM GAS  C:\Users\Krist\AppData\Local\Temp\ccLoJ1ic.s 			page 14


 468              		.thumb
 469              		.thumb_func
 470              		.type	Filter_Read24, %function
 471              	Filter_Read24:
 472              	.LFB6:
 275:Generated_Source\PSoC5/Filter.c **** 
 276:Generated_Source\PSoC5/Filter.c **** #endif /* defined(__C51__) || defined(__CX51__) */
 277:Generated_Source\PSoC5/Filter.c **** 
 278:Generated_Source\PSoC5/Filter.c **** 
 279:Generated_Source\PSoC5/Filter.c **** /*******************************************************************************
 280:Generated_Source\PSoC5/Filter.c **** * Function Name: Filter_Read24
 281:Generated_Source\PSoC5/Filter.c **** ********************************************************************************
 282:Generated_Source\PSoC5/Filter.c **** *
 283:Generated_Source\PSoC5/Filter.c **** * Summary:
 284:Generated_Source\PSoC5/Filter.c **** *  Get the value in one of the DFB Output Holding Registers 
 285:Generated_Source\PSoC5/Filter.c **** *
 286:Generated_Source\PSoC5/Filter.c **** * Parameters:  
 287:Generated_Source\PSoC5/Filter.c **** *  channel:  Filter_CHANNEL_A or Filter_CHANNEL_B
 288:Generated_Source\PSoC5/Filter.c **** *            
 289:Generated_Source\PSoC5/Filter.c **** * Return: 
 290:Generated_Source\PSoC5/Filter.c **** *  The current 24-bit output value sitting in the selected channel's
 291:Generated_Source\PSoC5/Filter.c **** *  holding register or 0x00000000 for invalid channel numbers
 292:Generated_Source\PSoC5/Filter.c **** *
 293:Generated_Source\PSoC5/Filter.c **** * Note:
 294:Generated_Source\PSoC5/Filter.c **** *  Order of the read is important.  On the read of the high byte, the DFB clears
 295:Generated_Source\PSoC5/Filter.c **** *  the data ready bit.
 296:Generated_Source\PSoC5/Filter.c **** *
 297:Generated_Source\PSoC5/Filter.c **** *******************************************************************************/
 298:Generated_Source\PSoC5/Filter.c **** #if defined(__C51__) || defined(__CX51__)
 299:Generated_Source\PSoC5/Filter.c **** 
 300:Generated_Source\PSoC5/Filter.c ****     uint32 Filter_Read24(uint8 channel) 
 301:Generated_Source\PSoC5/Filter.c ****     {
 302:Generated_Source\PSoC5/Filter.c ****         uint32 val;
 303:Generated_Source\PSoC5/Filter.c ****     
 304:Generated_Source\PSoC5/Filter.c ****         if (channel == Filter_CHANNEL_A)
 305:Generated_Source\PSoC5/Filter.c ****         {        
 306:Generated_Source\PSoC5/Filter.c ****             val = Filter_HOLDA_REG;
 307:Generated_Source\PSoC5/Filter.c ****             val |= (uint32)(Filter_HOLDAM_REG) << 8u;
 308:Generated_Source\PSoC5/Filter.c ****             val |= (uint32)(Filter_HOLDAH_REG) << 16u;
 309:Generated_Source\PSoC5/Filter.c ****             
 310:Generated_Source\PSoC5/Filter.c ****             /* SignExtend */
 311:Generated_Source\PSoC5/Filter.c ****             if((val & Filter_SIGN_BIT) == Filter_SIGN_BIT)
 312:Generated_Source\PSoC5/Filter.c ****             {    
 313:Generated_Source\PSoC5/Filter.c **** 				val |= Filter_SIGN_BYTE;
 314:Generated_Source\PSoC5/Filter.c **** 			}
 315:Generated_Source\PSoC5/Filter.c ****         }
 316:Generated_Source\PSoC5/Filter.c ****         else if (channel == Filter_CHANNEL_B)
 317:Generated_Source\PSoC5/Filter.c ****         {      
 318:Generated_Source\PSoC5/Filter.c ****             val = Filter_HOLDB_REG;
 319:Generated_Source\PSoC5/Filter.c ****             val |= (uint32)Filter_HOLDBM_REG << 8u;
 320:Generated_Source\PSoC5/Filter.c ****             val |= (uint32)Filter_HOLDBH_REG << 16u;
 321:Generated_Source\PSoC5/Filter.c ****             
 322:Generated_Source\PSoC5/Filter.c ****             /* SignExtend */
 323:Generated_Source\PSoC5/Filter.c ****             if((val & Filter_SIGN_BIT) == Filter_SIGN_BIT)
 324:Generated_Source\PSoC5/Filter.c ****             {
 325:Generated_Source\PSoC5/Filter.c **** 				val |= Filter_SIGN_BYTE;
 326:Generated_Source\PSoC5/Filter.c **** 			}
ARM GAS  C:\Users\Krist\AppData\Local\Temp\ccLoJ1ic.s 			page 15


 327:Generated_Source\PSoC5/Filter.c ****         }
 328:Generated_Source\PSoC5/Filter.c ****         else
 329:Generated_Source\PSoC5/Filter.c ****         {
 330:Generated_Source\PSoC5/Filter.c ****             val = 0x0u;
 331:Generated_Source\PSoC5/Filter.c ****         }
 332:Generated_Source\PSoC5/Filter.c ****         return val;
 333:Generated_Source\PSoC5/Filter.c ****     }
 334:Generated_Source\PSoC5/Filter.c **** 
 335:Generated_Source\PSoC5/Filter.c **** #else
 336:Generated_Source\PSoC5/Filter.c **** 
 337:Generated_Source\PSoC5/Filter.c ****     uint32 Filter_Read24(uint8 channel) 
 338:Generated_Source\PSoC5/Filter.c ****     {
 473              		.loc 1 338 0
 474              		.cfi_startproc
 475              		@ args = 0, pretend = 0, frame = 16
 476              		@ frame_needed = 1, uses_anonymous_args = 0
 477              		@ link register save eliminated.
 478 0000 80B4     		push	{r7}
 479              		.cfi_def_cfa_offset 4
 480              		.cfi_offset 7, -4
 481 0002 85B0     		sub	sp, sp, #20
 482              		.cfi_def_cfa_offset 24
 483 0004 00AF     		add	r7, sp, #0
 484              		.cfi_def_cfa_register 7
 485 0006 0346     		mov	r3, r0
 486 0008 FB71     		strb	r3, [r7, #7]
 339:Generated_Source\PSoC5/Filter.c ****         uint32 val;
 340:Generated_Source\PSoC5/Filter.c ****          
 341:Generated_Source\PSoC5/Filter.c ****         if (channel == Filter_CHANNEL_A)
 487              		.loc 1 341 0
 488 000a FB79     		ldrb	r3, [r7, #7]	@ zero_extendqisi2
 489 000c 002B     		cmp	r3, #0
 490 000e 03D1     		bne	.L30
 342:Generated_Source\PSoC5/Filter.c ****         {        
 343:Generated_Source\PSoC5/Filter.c ****             val = Filter_HOLDA24_REG;
 491              		.loc 1 343 0
 492 0010 094B     		ldr	r3, .L34
 493 0012 1B68     		ldr	r3, [r3]
 494 0014 FB60     		str	r3, [r7, #12]
 495 0016 08E0     		b	.L31
 496              	.L30:
 344:Generated_Source\PSoC5/Filter.c ****         }
 345:Generated_Source\PSoC5/Filter.c ****         else if (channel == Filter_CHANNEL_B)
 497              		.loc 1 345 0
 498 0018 FB79     		ldrb	r3, [r7, #7]	@ zero_extendqisi2
 499 001a 012B     		cmp	r3, #1
 500 001c 03D1     		bne	.L32
 346:Generated_Source\PSoC5/Filter.c ****         {      
 347:Generated_Source\PSoC5/Filter.c ****             val = Filter_HOLDB24_REG;
 501              		.loc 1 347 0
 502 001e 074B     		ldr	r3, .L34+4
 503 0020 1B68     		ldr	r3, [r3]
 504 0022 FB60     		str	r3, [r7, #12]
 505 0024 01E0     		b	.L31
 506              	.L32:
 348:Generated_Source\PSoC5/Filter.c ****         }
 349:Generated_Source\PSoC5/Filter.c ****         else
ARM GAS  C:\Users\Krist\AppData\Local\Temp\ccLoJ1ic.s 			page 16


 350:Generated_Source\PSoC5/Filter.c ****         {
 351:Generated_Source\PSoC5/Filter.c ****             val = 0x0u;
 507              		.loc 1 351 0
 508 0026 0023     		movs	r3, #0
 509 0028 FB60     		str	r3, [r7, #12]
 510              	.L31:
 352:Generated_Source\PSoC5/Filter.c ****         }
 353:Generated_Source\PSoC5/Filter.c ****         return val;
 511              		.loc 1 353 0
 512 002a FB68     		ldr	r3, [r7, #12]
 354:Generated_Source\PSoC5/Filter.c ****     }
 513              		.loc 1 354 0
 514 002c 1846     		mov	r0, r3
 515 002e 1437     		adds	r7, r7, #20
 516              		.cfi_def_cfa_offset 4
 517 0030 BD46     		mov	sp, r7
 518              		.cfi_def_cfa_register 13
 519              		@ sp needed
 520 0032 80BC     		pop	{r7}
 521              		.cfi_restore 7
 522              		.cfi_def_cfa_offset 0
 523 0034 7047     		bx	lr
 524              	.L35:
 525 0036 00BF     		.align	2
 526              	.L34:
 527 0038 A8C70040 		.word	1073792936
 528 003c ACC70040 		.word	1073792940
 529              		.cfi_endproc
 530              	.LFE6:
 531              		.size	Filter_Read24, .-Filter_Read24
 532              		.section	.text.Filter_Write8,"ax",%progbits
 533              		.align	2
 534              		.global	Filter_Write8
 535              		.thumb
 536              		.thumb_func
 537              		.type	Filter_Write8, %function
 538              	Filter_Write8:
 539              	.LFB7:
 355:Generated_Source\PSoC5/Filter.c **** 
 356:Generated_Source\PSoC5/Filter.c **** #endif /* defined(__C51__) || defined(__CX51__) */
 357:Generated_Source\PSoC5/Filter.c **** 
 358:Generated_Source\PSoC5/Filter.c **** 
 359:Generated_Source\PSoC5/Filter.c **** /*******************************************************************************
 360:Generated_Source\PSoC5/Filter.c **** * Function Name: Filter_Write8
 361:Generated_Source\PSoC5/Filter.c **** ********************************************************************************
 362:Generated_Source\PSoC5/Filter.c **** *
 363:Generated_Source\PSoC5/Filter.c **** * Summary:
 364:Generated_Source\PSoC5/Filter.c **** *  Set the value in one of the DFB Input Staging Registers 
 365:Generated_Source\PSoC5/Filter.c **** *
 366:Generated_Source\PSoC5/Filter.c **** * Parameters:  
 367:Generated_Source\PSoC5/Filter.c **** *  channel:  Use either Filter_CHANNEL_A or 
 368:Generated_Source\PSoC5/Filter.c **** *            Filter_CHANNEL_B as arguments to the function.  
 369:Generated_Source\PSoC5/Filter.c **** *  sample:   The 8-bit, right justified input sample. 
 370:Generated_Source\PSoC5/Filter.c **** *
 371:Generated_Source\PSoC5/Filter.c **** * Return: 
 372:Generated_Source\PSoC5/Filter.c **** *  void
 373:Generated_Source\PSoC5/Filter.c **** *
ARM GAS  C:\Users\Krist\AppData\Local\Temp\ccLoJ1ic.s 			page 17


 374:Generated_Source\PSoC5/Filter.c **** * Note:
 375:Generated_Source\PSoC5/Filter.c **** *  Order of the write is important.  On the load of the high byte, the DFB sets
 376:Generated_Source\PSoC5/Filter.c **** *  the input ready bit.
 377:Generated_Source\PSoC5/Filter.c **** *
 378:Generated_Source\PSoC5/Filter.c **** *******************************************************************************/
 379:Generated_Source\PSoC5/Filter.c **** void Filter_Write8(uint8 channel, uint8 sample) 
 380:Generated_Source\PSoC5/Filter.c **** {
 540              		.loc 1 380 0
 541              		.cfi_startproc
 542              		@ args = 0, pretend = 0, frame = 8
 543              		@ frame_needed = 1, uses_anonymous_args = 0
 544              		@ link register save eliminated.
 545 0000 80B4     		push	{r7}
 546              		.cfi_def_cfa_offset 4
 547              		.cfi_offset 7, -4
 548 0002 83B0     		sub	sp, sp, #12
 549              		.cfi_def_cfa_offset 16
 550 0004 00AF     		add	r7, sp, #0
 551              		.cfi_def_cfa_register 7
 552 0006 0346     		mov	r3, r0
 553 0008 0A46     		mov	r2, r1
 554 000a FB71     		strb	r3, [r7, #7]
 555 000c 1346     		mov	r3, r2
 556 000e BB71     		strb	r3, [r7, #6]
 381:Generated_Source\PSoC5/Filter.c ****     if (channel == Filter_CHANNEL_A)
 557              		.loc 1 381 0
 558 0010 FB79     		ldrb	r3, [r7, #7]	@ zero_extendqisi2
 559 0012 002B     		cmp	r3, #0
 560 0014 03D1     		bne	.L37
 382:Generated_Source\PSoC5/Filter.c ****     {
 383:Generated_Source\PSoC5/Filter.c ****         Filter_STAGEAH_REG = sample;
 561              		.loc 1 383 0
 562 0016 074A     		ldr	r2, .L40
 563 0018 BB79     		ldrb	r3, [r7, #6]
 564 001a 1370     		strb	r3, [r2]
 384:Generated_Source\PSoC5/Filter.c ****     }
 385:Generated_Source\PSoC5/Filter.c ****     else if (channel == Filter_CHANNEL_B)
 386:Generated_Source\PSoC5/Filter.c ****     {
 387:Generated_Source\PSoC5/Filter.c ****         Filter_STAGEBH_REG = sample;
 388:Generated_Source\PSoC5/Filter.c ****     }
 389:Generated_Source\PSoC5/Filter.c **** 	else
 390:Generated_Source\PSoC5/Filter.c **** 	{
 391:Generated_Source\PSoC5/Filter.c **** 		/* No value is loaded on bad channel input */
 392:Generated_Source\PSoC5/Filter.c **** 	}
 393:Generated_Source\PSoC5/Filter.c **** }
 565              		.loc 1 393 0
 566 001c 05E0     		b	.L39
 567              	.L37:
 385:Generated_Source\PSoC5/Filter.c ****     {
 568              		.loc 1 385 0
 569 001e FB79     		ldrb	r3, [r7, #7]	@ zero_extendqisi2
 570 0020 012B     		cmp	r3, #1
 571 0022 02D1     		bne	.L39
 387:Generated_Source\PSoC5/Filter.c ****     }
 572              		.loc 1 387 0
 573 0024 044A     		ldr	r2, .L40+4
 574 0026 BB79     		ldrb	r3, [r7, #6]
ARM GAS  C:\Users\Krist\AppData\Local\Temp\ccLoJ1ic.s 			page 18


 575 0028 1370     		strb	r3, [r2]
 576              	.L39:
 577              		.loc 1 393 0
 578 002a 00BF     		nop
 579 002c 0C37     		adds	r7, r7, #12
 580              		.cfi_def_cfa_offset 4
 581 002e BD46     		mov	sp, r7
 582              		.cfi_def_cfa_register 13
 583              		@ sp needed
 584 0030 80BC     		pop	{r7}
 585              		.cfi_restore 7
 586              		.cfi_def_cfa_offset 0
 587 0032 7047     		bx	lr
 588              	.L41:
 589              		.align	2
 590              	.L40:
 591 0034 A2C70040 		.word	1073792930
 592 0038 A6C70040 		.word	1073792934
 593              		.cfi_endproc
 594              	.LFE7:
 595              		.size	Filter_Write8, .-Filter_Write8
 596              		.section	.text.Filter_Write16,"ax",%progbits
 597              		.align	2
 598              		.global	Filter_Write16
 599              		.thumb
 600              		.thumb_func
 601              		.type	Filter_Write16, %function
 602              	Filter_Write16:
 603              	.LFB8:
 394:Generated_Source\PSoC5/Filter.c **** 
 395:Generated_Source\PSoC5/Filter.c **** 
 396:Generated_Source\PSoC5/Filter.c **** /*******************************************************************************
 397:Generated_Source\PSoC5/Filter.c **** * Function Name: Filter_Write16
 398:Generated_Source\PSoC5/Filter.c **** ********************************************************************************
 399:Generated_Source\PSoC5/Filter.c **** *
 400:Generated_Source\PSoC5/Filter.c **** * Summary:
 401:Generated_Source\PSoC5/Filter.c **** *  Set the value in one of the DFB Input Staging Registers 
 402:Generated_Source\PSoC5/Filter.c **** *
 403:Generated_Source\PSoC5/Filter.c **** * Parameters:  
 404:Generated_Source\PSoC5/Filter.c **** *  channel:  Use either Filter_CHANNEL_A or 
 405:Generated_Source\PSoC5/Filter.c **** *            Filter_CHANNEL_B as arguments to the function.  
 406:Generated_Source\PSoC5/Filter.c **** *  sample:   The 16-bit, right justified input sample. 
 407:Generated_Source\PSoC5/Filter.c **** *
 408:Generated_Source\PSoC5/Filter.c **** * Return: 
 409:Generated_Source\PSoC5/Filter.c **** *  void
 410:Generated_Source\PSoC5/Filter.c **** *
 411:Generated_Source\PSoC5/Filter.c **** * Note:
 412:Generated_Source\PSoC5/Filter.c **** *  Order of the write is important.  On the load of the high byte, the DFB sets
 413:Generated_Source\PSoC5/Filter.c **** *  the input ready bit.
 414:Generated_Source\PSoC5/Filter.c **** *
 415:Generated_Source\PSoC5/Filter.c **** *******************************************************************************/
 416:Generated_Source\PSoC5/Filter.c **** #if defined(__C51__) || defined(__CX51__)
 417:Generated_Source\PSoC5/Filter.c **** 
 418:Generated_Source\PSoC5/Filter.c ****     void Filter_Write16(uint8 channel, uint16 sample) 
 419:Generated_Source\PSoC5/Filter.c ****     {
 420:Generated_Source\PSoC5/Filter.c ****         /* Write the STAGE MSB reg last as it signals a complete wrote to the 
 421:Generated_Source\PSoC5/Filter.c ****            DFB.*/
ARM GAS  C:\Users\Krist\AppData\Local\Temp\ccLoJ1ic.s 			page 19


 422:Generated_Source\PSoC5/Filter.c ****         if (channel == Filter_CHANNEL_A)
 423:Generated_Source\PSoC5/Filter.c ****         {
 424:Generated_Source\PSoC5/Filter.c ****             Filter_STAGEAM_REG = (uint8)(sample);
 425:Generated_Source\PSoC5/Filter.c ****             Filter_STAGEAH_REG = (uint8)(sample >> 8u);
 426:Generated_Source\PSoC5/Filter.c ****         }
 427:Generated_Source\PSoC5/Filter.c ****         else if (channel == Filter_CHANNEL_B)
 428:Generated_Source\PSoC5/Filter.c ****         {
 429:Generated_Source\PSoC5/Filter.c ****             Filter_STAGEBM_REG = (uint8)(sample);
 430:Generated_Source\PSoC5/Filter.c ****             Filter_STAGEBH_REG = (uint8)(sample >> 8u);
 431:Generated_Source\PSoC5/Filter.c ****         }
 432:Generated_Source\PSoC5/Filter.c ****         else
 433:Generated_Source\PSoC5/Filter.c **** 		{
 434:Generated_Source\PSoC5/Filter.c **** 			/* No value is loaded on bad channel input */
 435:Generated_Source\PSoC5/Filter.c **** 		}
 436:Generated_Source\PSoC5/Filter.c ****     }
 437:Generated_Source\PSoC5/Filter.c **** 
 438:Generated_Source\PSoC5/Filter.c **** #else
 439:Generated_Source\PSoC5/Filter.c **** 
 440:Generated_Source\PSoC5/Filter.c ****     void Filter_Write16(uint8 channel, uint16 sample) 
 441:Generated_Source\PSoC5/Filter.c ****     {
 604              		.loc 1 441 0
 605              		.cfi_startproc
 606              		@ args = 0, pretend = 0, frame = 8
 607              		@ frame_needed = 1, uses_anonymous_args = 0
 608              		@ link register save eliminated.
 609 0000 80B4     		push	{r7}
 610              		.cfi_def_cfa_offset 4
 611              		.cfi_offset 7, -4
 612 0002 83B0     		sub	sp, sp, #12
 613              		.cfi_def_cfa_offset 16
 614 0004 00AF     		add	r7, sp, #0
 615              		.cfi_def_cfa_register 7
 616 0006 0346     		mov	r3, r0
 617 0008 0A46     		mov	r2, r1
 618 000a FB71     		strb	r3, [r7, #7]
 619 000c 1346     		mov	r3, r2	@ movhi
 620 000e BB80     		strh	r3, [r7, #4]	@ movhi
 442:Generated_Source\PSoC5/Filter.c ****         if (channel == Filter_CHANNEL_A)
 621              		.loc 1 442 0
 622 0010 FB79     		ldrb	r3, [r7, #7]	@ zero_extendqisi2
 623 0012 002B     		cmp	r3, #0
 624 0014 03D1     		bne	.L43
 443:Generated_Source\PSoC5/Filter.c ****         {
 444:Generated_Source\PSoC5/Filter.c ****             Filter_STAGEA16_REG = sample;
 625              		.loc 1 444 0
 626 0016 074A     		ldr	r2, .L46
 627 0018 BB88     		ldrh	r3, [r7, #4]	@ movhi
 628 001a 1380     		strh	r3, [r2]	@ movhi
 445:Generated_Source\PSoC5/Filter.c ****         }
 446:Generated_Source\PSoC5/Filter.c ****         else if (channel == Filter_CHANNEL_B)
 447:Generated_Source\PSoC5/Filter.c ****         {
 448:Generated_Source\PSoC5/Filter.c ****             Filter_STAGEB16_REG = sample;
 449:Generated_Source\PSoC5/Filter.c ****         }
 450:Generated_Source\PSoC5/Filter.c ****         else
 451:Generated_Source\PSoC5/Filter.c **** 		{
 452:Generated_Source\PSoC5/Filter.c **** 			/* No value is loaded on bad channel input */
 453:Generated_Source\PSoC5/Filter.c **** 		}
ARM GAS  C:\Users\Krist\AppData\Local\Temp\ccLoJ1ic.s 			page 20


 454:Generated_Source\PSoC5/Filter.c ****     }
 629              		.loc 1 454 0
 630 001c 05E0     		b	.L45
 631              	.L43:
 446:Generated_Source\PSoC5/Filter.c ****         {
 632              		.loc 1 446 0
 633 001e FB79     		ldrb	r3, [r7, #7]	@ zero_extendqisi2
 634 0020 012B     		cmp	r3, #1
 635 0022 02D1     		bne	.L45
 448:Generated_Source\PSoC5/Filter.c ****         }
 636              		.loc 1 448 0
 637 0024 044A     		ldr	r2, .L46+4
 638 0026 BB88     		ldrh	r3, [r7, #4]	@ movhi
 639 0028 1380     		strh	r3, [r2]	@ movhi
 640              	.L45:
 641              		.loc 1 454 0
 642 002a 00BF     		nop
 643 002c 0C37     		adds	r7, r7, #12
 644              		.cfi_def_cfa_offset 4
 645 002e BD46     		mov	sp, r7
 646              		.cfi_def_cfa_register 13
 647              		@ sp needed
 648 0030 80BC     		pop	{r7}
 649              		.cfi_restore 7
 650              		.cfi_def_cfa_offset 0
 651 0032 7047     		bx	lr
 652              	.L47:
 653              		.align	2
 654              	.L46:
 655 0034 A1C70040 		.word	1073792929
 656 0038 A5C70040 		.word	1073792933
 657              		.cfi_endproc
 658              	.LFE8:
 659              		.size	Filter_Write16, .-Filter_Write16
 660              		.section	.text.Filter_Write24,"ax",%progbits
 661              		.align	2
 662              		.global	Filter_Write24
 663              		.thumb
 664              		.thumb_func
 665              		.type	Filter_Write24, %function
 666              	Filter_Write24:
 667              	.LFB9:
 455:Generated_Source\PSoC5/Filter.c **** 
 456:Generated_Source\PSoC5/Filter.c **** #endif /* defined(__C51__) || defined(__CX51__) */
 457:Generated_Source\PSoC5/Filter.c **** 
 458:Generated_Source\PSoC5/Filter.c **** 
 459:Generated_Source\PSoC5/Filter.c **** /*******************************************************************************
 460:Generated_Source\PSoC5/Filter.c **** * Function Name: Filter_Write24
 461:Generated_Source\PSoC5/Filter.c **** ********************************************************************************
 462:Generated_Source\PSoC5/Filter.c **** *
 463:Generated_Source\PSoC5/Filter.c **** * Summary:
 464:Generated_Source\PSoC5/Filter.c **** *  Set the value in one of the DFB Input Staging Registers 
 465:Generated_Source\PSoC5/Filter.c **** *
 466:Generated_Source\PSoC5/Filter.c **** * Parameters:  
 467:Generated_Source\PSoC5/Filter.c **** *  channel:  Use either Filter_CHANNEL_A or 
 468:Generated_Source\PSoC5/Filter.c **** *            Filter_CHANNEL_B as arguments to the function.  
 469:Generated_Source\PSoC5/Filter.c **** *  sample:   The 24-bit, right justified input sample inside of a uint32. 
ARM GAS  C:\Users\Krist\AppData\Local\Temp\ccLoJ1ic.s 			page 21


 470:Generated_Source\PSoC5/Filter.c **** *
 471:Generated_Source\PSoC5/Filter.c **** * Return: 
 472:Generated_Source\PSoC5/Filter.c **** *  void
 473:Generated_Source\PSoC5/Filter.c **** *
 474:Generated_Source\PSoC5/Filter.c **** * Note:
 475:Generated_Source\PSoC5/Filter.c **** *  Order of the write is important.  On the load of the high byte, the DFB sets
 476:Generated_Source\PSoC5/Filter.c **** *  the input ready bit.
 477:Generated_Source\PSoC5/Filter.c **** *
 478:Generated_Source\PSoC5/Filter.c **** *******************************************************************************/
 479:Generated_Source\PSoC5/Filter.c **** #if defined(__C51__) || defined(__CX51__)
 480:Generated_Source\PSoC5/Filter.c **** 
 481:Generated_Source\PSoC5/Filter.c ****     void Filter_Write24(uint8 channel, uint32 sample) 
 482:Generated_Source\PSoC5/Filter.c ****     {
 483:Generated_Source\PSoC5/Filter.c ****         /* Write the STAGE LSB reg last as it signals a complete wrote to 
 484:Generated_Source\PSoC5/Filter.c ****            the DFB.*/
 485:Generated_Source\PSoC5/Filter.c ****         if (channel == Filter_CHANNEL_A)
 486:Generated_Source\PSoC5/Filter.c ****         {
 487:Generated_Source\PSoC5/Filter.c ****             Filter_STAGEA_REG  = (uint8)(sample);
 488:Generated_Source\PSoC5/Filter.c ****             Filter_STAGEAM_REG = (uint8)(sample >> 8u);
 489:Generated_Source\PSoC5/Filter.c ****             Filter_STAGEAH_REG = (uint8)(sample >> 16u);
 490:Generated_Source\PSoC5/Filter.c ****         }
 491:Generated_Source\PSoC5/Filter.c ****         else if (channel == Filter_CHANNEL_B)
 492:Generated_Source\PSoC5/Filter.c ****         {
 493:Generated_Source\PSoC5/Filter.c ****             Filter_STAGEB_REG = (uint8)(sample);
 494:Generated_Source\PSoC5/Filter.c ****             Filter_STAGEBM_REG = (uint8)(sample >> 8u);
 495:Generated_Source\PSoC5/Filter.c ****             Filter_STAGEBH_REG = (uint8)(sample >> 16u);
 496:Generated_Source\PSoC5/Filter.c ****         }
 497:Generated_Source\PSoC5/Filter.c ****         else
 498:Generated_Source\PSoC5/Filter.c **** 		{
 499:Generated_Source\PSoC5/Filter.c **** 			/* No value is loaded on bad channel input */
 500:Generated_Source\PSoC5/Filter.c **** 		}
 501:Generated_Source\PSoC5/Filter.c ****     }
 502:Generated_Source\PSoC5/Filter.c **** 
 503:Generated_Source\PSoC5/Filter.c **** #else
 504:Generated_Source\PSoC5/Filter.c **** 
 505:Generated_Source\PSoC5/Filter.c ****     void Filter_Write24(uint8 channel, uint32 sample) 
 506:Generated_Source\PSoC5/Filter.c ****     {
 668              		.loc 1 506 0
 669              		.cfi_startproc
 670              		@ args = 0, pretend = 0, frame = 8
 671              		@ frame_needed = 1, uses_anonymous_args = 0
 672              		@ link register save eliminated.
 673 0000 80B4     		push	{r7}
 674              		.cfi_def_cfa_offset 4
 675              		.cfi_offset 7, -4
 676 0002 83B0     		sub	sp, sp, #12
 677              		.cfi_def_cfa_offset 16
 678 0004 00AF     		add	r7, sp, #0
 679              		.cfi_def_cfa_register 7
 680 0006 0346     		mov	r3, r0
 681 0008 3960     		str	r1, [r7]
 682 000a FB71     		strb	r3, [r7, #7]
 507:Generated_Source\PSoC5/Filter.c ****         if (channel == Filter_CHANNEL_A)
 683              		.loc 1 507 0
 684 000c FB79     		ldrb	r3, [r7, #7]	@ zero_extendqisi2
 685 000e 002B     		cmp	r3, #0
 686 0010 03D1     		bne	.L49
ARM GAS  C:\Users\Krist\AppData\Local\Temp\ccLoJ1ic.s 			page 22


 508:Generated_Source\PSoC5/Filter.c ****         {
 509:Generated_Source\PSoC5/Filter.c ****             Filter_STAGEA24_REG = sample;
 687              		.loc 1 509 0
 688 0012 074A     		ldr	r2, .L52
 689 0014 3B68     		ldr	r3, [r7]
 690 0016 1360     		str	r3, [r2]
 510:Generated_Source\PSoC5/Filter.c ****         }
 511:Generated_Source\PSoC5/Filter.c ****         else if (channel == Filter_CHANNEL_B)
 512:Generated_Source\PSoC5/Filter.c ****         {
 513:Generated_Source\PSoC5/Filter.c ****             Filter_STAGEB24_REG = sample;
 514:Generated_Source\PSoC5/Filter.c ****         }
 515:Generated_Source\PSoC5/Filter.c ****         else
 516:Generated_Source\PSoC5/Filter.c **** 		{
 517:Generated_Source\PSoC5/Filter.c **** 			/* No value is loaded on bad channel input */
 518:Generated_Source\PSoC5/Filter.c **** 		}
 519:Generated_Source\PSoC5/Filter.c ****     }
 691              		.loc 1 519 0
 692 0018 05E0     		b	.L51
 693              	.L49:
 511:Generated_Source\PSoC5/Filter.c ****         {
 694              		.loc 1 511 0
 695 001a FB79     		ldrb	r3, [r7, #7]	@ zero_extendqisi2
 696 001c 012B     		cmp	r3, #1
 697 001e 02D1     		bne	.L51
 513:Generated_Source\PSoC5/Filter.c ****         }
 698              		.loc 1 513 0
 699 0020 044A     		ldr	r2, .L52+4
 700 0022 3B68     		ldr	r3, [r7]
 701 0024 1360     		str	r3, [r2]
 702              	.L51:
 703              		.loc 1 519 0
 704 0026 00BF     		nop
 705 0028 0C37     		adds	r7, r7, #12
 706              		.cfi_def_cfa_offset 4
 707 002a BD46     		mov	sp, r7
 708              		.cfi_def_cfa_register 13
 709              		@ sp needed
 710 002c 80BC     		pop	{r7}
 711              		.cfi_restore 7
 712              		.cfi_def_cfa_offset 0
 713 002e 7047     		bx	lr
 714              	.L53:
 715              		.align	2
 716              	.L52:
 717 0030 A0C70040 		.word	1073792928
 718 0034 A4C70040 		.word	1073792932
 719              		.cfi_endproc
 720              	.LFE9:
 721              		.size	Filter_Write24, .-Filter_Write24
 722              		.section	.text.Filter_SetCoherency,"ax",%progbits
 723              		.align	2
 724              		.global	Filter_SetCoherency
 725              		.thumb
 726              		.thumb_func
 727              		.type	Filter_SetCoherency, %function
 728              	Filter_SetCoherency:
 729              	.LFB10:
ARM GAS  C:\Users\Krist\AppData\Local\Temp\ccLoJ1ic.s 			page 23


 520:Generated_Source\PSoC5/Filter.c **** 
 521:Generated_Source\PSoC5/Filter.c **** #endif /* defined(__C51__) || defined(__CX51__) */
 522:Generated_Source\PSoC5/Filter.c **** 
 523:Generated_Source\PSoC5/Filter.c **** 
 524:Generated_Source\PSoC5/Filter.c **** /*******************************************************************************
 525:Generated_Source\PSoC5/Filter.c **** * Function Name: Filter_SetCoherency
 526:Generated_Source\PSoC5/Filter.c **** ********************************************************************************
 527:Generated_Source\PSoC5/Filter.c **** *
 528:Generated_Source\PSoC5/Filter.c **** * Summary:
 529:Generated_Source\PSoC5/Filter.c **** *  Sets the DFB coherency register with the user provided input 
 530:Generated_Source\PSoC5/Filter.c **** *
 531:Generated_Source\PSoC5/Filter.c **** * Parameters:  
 532:Generated_Source\PSoC5/Filter.c **** *  channel:  Filter_CHANNEL_A or Filter_CHANNEL_B
 533:Generated_Source\PSoC5/Filter.c **** *  byteSelect:  High byte, Middle byte or Low byte as the key coherency byte.
 534:Generated_Source\PSoC5/Filter.c **** *            
 535:Generated_Source\PSoC5/Filter.c **** * Return: 
 536:Generated_Source\PSoC5/Filter.c **** *  None.
 537:Generated_Source\PSoC5/Filter.c **** *
 538:Generated_Source\PSoC5/Filter.c **** *******************************************************************************/
 539:Generated_Source\PSoC5/Filter.c **** void Filter_SetCoherency(uint8 channel, uint8 byteSelect) 
 540:Generated_Source\PSoC5/Filter.c **** {
 730              		.loc 1 540 0
 731              		.cfi_startproc
 732              		@ args = 0, pretend = 0, frame = 8
 733              		@ frame_needed = 1, uses_anonymous_args = 0
 734              		@ link register save eliminated.
 735 0000 80B4     		push	{r7}
 736              		.cfi_def_cfa_offset 4
 737              		.cfi_offset 7, -4
 738 0002 83B0     		sub	sp, sp, #12
 739              		.cfi_def_cfa_offset 16
 740 0004 00AF     		add	r7, sp, #0
 741              		.cfi_def_cfa_register 7
 742 0006 0346     		mov	r3, r0
 743 0008 0A46     		mov	r2, r1
 744 000a FB71     		strb	r3, [r7, #7]
 745 000c 1346     		mov	r3, r2
 746 000e BB71     		strb	r3, [r7, #6]
 541:Generated_Source\PSoC5/Filter.c ****     if (channel == Filter_CHANNEL_A)
 747              		.loc 1 541 0
 748 0010 FB79     		ldrb	r3, [r7, #7]	@ zero_extendqisi2
 749 0012 002B     		cmp	r3, #0
 750 0014 1AD1     		bne	.L55
 542:Generated_Source\PSoC5/Filter.c ****     {
 543:Generated_Source\PSoC5/Filter.c ****         Filter_COHER_REG &= 
 751              		.loc 1 543 0
 752 0016 1F4A     		ldr	r2, .L58
 753 0018 1E4B     		ldr	r3, .L58
 754 001a 1B78     		ldrb	r3, [r3]
 755 001c DBB2     		uxtb	r3, r3
 756 001e 23F03303 		bic	r3, r3, #51
 757 0022 DBB2     		uxtb	r3, r3
 758 0024 1370     		strb	r3, [r2]
 544:Generated_Source\PSoC5/Filter.c ****                 (uint8)(~(uint8)(Filter_STAGEA_COHER_MASK | Filter_HOLDA_COHER_MASK));
 545:Generated_Source\PSoC5/Filter.c ****         Filter_COHER_REG |= byteSelect;
 759              		.loc 1 545 0
 760 0026 1B49     		ldr	r1, .L58
ARM GAS  C:\Users\Krist\AppData\Local\Temp\ccLoJ1ic.s 			page 24


 761 0028 1A4B     		ldr	r3, .L58
 762 002a 1B78     		ldrb	r3, [r3]
 763 002c DAB2     		uxtb	r2, r3
 764 002e BB79     		ldrb	r3, [r7, #6]
 765 0030 1343     		orrs	r3, r3, r2
 766 0032 DBB2     		uxtb	r3, r3
 767 0034 0B70     		strb	r3, [r1]
 546:Generated_Source\PSoC5/Filter.c ****         Filter_COHER_REG |= (uint8)((uint8)byteSelect << 4u);
 768              		.loc 1 546 0
 769 0036 1749     		ldr	r1, .L58
 770 0038 164B     		ldr	r3, .L58
 771 003a 1B78     		ldrb	r3, [r3]
 772 003c DAB2     		uxtb	r2, r3
 773 003e BB79     		ldrb	r3, [r7, #6]
 774 0040 1B01     		lsls	r3, r3, #4
 775 0042 DBB2     		uxtb	r3, r3
 776 0044 1343     		orrs	r3, r3, r2
 777 0046 DBB2     		uxtb	r3, r3
 778 0048 0B70     		strb	r3, [r1]
 547:Generated_Source\PSoC5/Filter.c ****     }
 548:Generated_Source\PSoC5/Filter.c ****     else if (channel == Filter_CHANNEL_B)
 549:Generated_Source\PSoC5/Filter.c ****     {
 550:Generated_Source\PSoC5/Filter.c ****         Filter_COHER_REG &= 
 551:Generated_Source\PSoC5/Filter.c ****                 (uint8)(~(uint8)(Filter_STAGEB_COHER_MASK | Filter_HOLDB_COHER_MASK));
 552:Generated_Source\PSoC5/Filter.c ****         Filter_COHER_REG |= (uint8)((uint8)byteSelect << 2u);
 553:Generated_Source\PSoC5/Filter.c ****         Filter_COHER_REG |= (uint8)((uint8)byteSelect << 6u);
 554:Generated_Source\PSoC5/Filter.c ****     }
 555:Generated_Source\PSoC5/Filter.c ****     else
 556:Generated_Source\PSoC5/Filter.c ****     {
 557:Generated_Source\PSoC5/Filter.c ****         /* Invalid channel value */
 558:Generated_Source\PSoC5/Filter.c ****     }
 559:Generated_Source\PSoC5/Filter.c **** }
 779              		.loc 1 559 0
 780 004a 1EE0     		b	.L57
 781              	.L55:
 548:Generated_Source\PSoC5/Filter.c ****     {
 782              		.loc 1 548 0
 783 004c FB79     		ldrb	r3, [r7, #7]	@ zero_extendqisi2
 784 004e 012B     		cmp	r3, #1
 785 0050 1BD1     		bne	.L57
 550:Generated_Source\PSoC5/Filter.c ****                 (uint8)(~(uint8)(Filter_STAGEB_COHER_MASK | Filter_HOLDB_COHER_MASK));
 786              		.loc 1 550 0
 787 0052 104A     		ldr	r2, .L58
 788 0054 0F4B     		ldr	r3, .L58
 789 0056 1B78     		ldrb	r3, [r3]
 790 0058 DBB2     		uxtb	r3, r3
 791 005a 03F03303 		and	r3, r3, #51
 792 005e DBB2     		uxtb	r3, r3
 793 0060 1370     		strb	r3, [r2]
 552:Generated_Source\PSoC5/Filter.c ****         Filter_COHER_REG |= (uint8)((uint8)byteSelect << 6u);
 794              		.loc 1 552 0
 795 0062 0C49     		ldr	r1, .L58
 796 0064 0B4B     		ldr	r3, .L58
 797 0066 1B78     		ldrb	r3, [r3]
 798 0068 DAB2     		uxtb	r2, r3
 799 006a BB79     		ldrb	r3, [r7, #6]
 800 006c 9B00     		lsls	r3, r3, #2
ARM GAS  C:\Users\Krist\AppData\Local\Temp\ccLoJ1ic.s 			page 25


 801 006e DBB2     		uxtb	r3, r3
 802 0070 1343     		orrs	r3, r3, r2
 803 0072 DBB2     		uxtb	r3, r3
 804 0074 0B70     		strb	r3, [r1]
 553:Generated_Source\PSoC5/Filter.c ****     }
 805              		.loc 1 553 0
 806 0076 0749     		ldr	r1, .L58
 807 0078 064B     		ldr	r3, .L58
 808 007a 1B78     		ldrb	r3, [r3]
 809 007c DAB2     		uxtb	r2, r3
 810 007e BB79     		ldrb	r3, [r7, #6]
 811 0080 9B01     		lsls	r3, r3, #6
 812 0082 DBB2     		uxtb	r3, r3
 813 0084 1343     		orrs	r3, r3, r2
 814 0086 DBB2     		uxtb	r3, r3
 815 0088 0B70     		strb	r3, [r1]
 816              	.L57:
 817              		.loc 1 559 0
 818 008a 00BF     		nop
 819 008c 0C37     		adds	r7, r7, #12
 820              		.cfi_def_cfa_offset 4
 821 008e BD46     		mov	sp, r7
 822              		.cfi_def_cfa_register 13
 823              		@ sp needed
 824 0090 80BC     		pop	{r7}
 825              		.cfi_restore 7
 826              		.cfi_def_cfa_offset 0
 827 0092 7047     		bx	lr
 828              	.L59:
 829              		.align	2
 830              	.L58:
 831 0094 B0C70040 		.word	1073792944
 832              		.cfi_endproc
 833              	.LFE10:
 834              		.size	Filter_SetCoherency, .-Filter_SetCoherency
 835              		.section	.text.Filter_SetCoherencyEx,"ax",%progbits
 836              		.align	2
 837              		.global	Filter_SetCoherencyEx
 838              		.thumb
 839              		.thumb_func
 840              		.type	Filter_SetCoherencyEx, %function
 841              	Filter_SetCoherencyEx:
 842              	.LFB11:
 560:Generated_Source\PSoC5/Filter.c **** 
 561:Generated_Source\PSoC5/Filter.c **** 
 562:Generated_Source\PSoC5/Filter.c **** /*******************************************************************************
 563:Generated_Source\PSoC5/Filter.c **** * Function Name: Filter_SetCoherencyEx
 564:Generated_Source\PSoC5/Filter.c **** ********************************************************************************
 565:Generated_Source\PSoC5/Filter.c **** * 
 566:Generated_Source\PSoC5/Filter.c **** * Summary:
 567:Generated_Source\PSoC5/Filter.c **** *  Configures the DFB coherency register for each of the staging and holding 
 568:Generated_Source\PSoC5/Filter.c **** *  registers. Allows multiple registers with the same configuration to be set 
 569:Generated_Source\PSoC5/Filter.c **** *  at the same time. This API should be used when the coherency of the staging 
 570:Generated_Source\PSoC5/Filter.c **** *  and holding register of a channel is different. 
 571:Generated_Source\PSoC5/Filter.c **** *
 572:Generated_Source\PSoC5/Filter.c **** * Parameters:  
 573:Generated_Source\PSoC5/Filter.c **** *  regSelect: This parameter is used to specify the registers that will undergo
ARM GAS  C:\Users\Krist\AppData\Local\Temp\ccLoJ1ic.s 			page 26


 574:Generated_Source\PSoC5/Filter.c **** *             the change in coherency. These are maskable and multiple registers
 575:Generated_Source\PSoC5/Filter.c **** *             with the same configuration can passed by performing an OR 
 576:Generated_Source\PSoC5/Filter.c **** *             operation on the following definitions. 
 577:Generated_Source\PSoC5/Filter.c **** *            Filter_STAGEA_COHER, 
 578:Generated_Source\PSoC5/Filter.c **** *            Filter_STAGEB_COHER,
 579:Generated_Source\PSoC5/Filter.c **** *            Filter_HOLDA_COHER,
 580:Generated_Source\PSoC5/Filter.c **** *            Filter_HOLDB_COHER.
 581:Generated_Source\PSoC5/Filter.c **** *  key: The key coherency byte that will be chosen for the register(s).
 582:Generated_Source\PSoC5/Filter.c **** *       Filter_KEY_LOW, 
 583:Generated_Source\PSoC5/Filter.c **** *       Filter_KEY_MID,
 584:Generated_Source\PSoC5/Filter.c **** *       Filter_KEY_HIGH.
 585:Generated_Source\PSoC5/Filter.c **** *            
 586:Generated_Source\PSoC5/Filter.c **** * Return: 
 587:Generated_Source\PSoC5/Filter.c **** *  None.
 588:Generated_Source\PSoC5/Filter.c **** *
 589:Generated_Source\PSoC5/Filter.c **** *******************************************************************************/
 590:Generated_Source\PSoC5/Filter.c **** void Filter_SetCoherencyEx(uint8 regSelect, uint8 key) 
 591:Generated_Source\PSoC5/Filter.c **** {
 843              		.loc 1 591 0
 844              		.cfi_startproc
 845              		@ args = 0, pretend = 0, frame = 16
 846              		@ frame_needed = 1, uses_anonymous_args = 0
 847              		@ link register save eliminated.
 848 0000 80B4     		push	{r7}
 849              		.cfi_def_cfa_offset 4
 850              		.cfi_offset 7, -4
 851 0002 85B0     		sub	sp, sp, #20
 852              		.cfi_def_cfa_offset 24
 853 0004 00AF     		add	r7, sp, #0
 854              		.cfi_def_cfa_register 7
 855 0006 0346     		mov	r3, r0
 856 0008 0A46     		mov	r2, r1
 857 000a FB71     		strb	r3, [r7, #7]
 858 000c 1346     		mov	r3, r2
 859 000e BB71     		strb	r3, [r7, #6]
 592:Generated_Source\PSoC5/Filter.c ****     uint8 keyReg;
 593:Generated_Source\PSoC5/Filter.c ****     
 594:Generated_Source\PSoC5/Filter.c ****     keyReg = (uint8)(key << 2u) | key;
 860              		.loc 1 594 0
 861 0010 BB79     		ldrb	r3, [r7, #6]
 862 0012 9B00     		lsls	r3, r3, #2
 863 0014 DAB2     		uxtb	r2, r3
 864 0016 BB79     		ldrb	r3, [r7, #6]
 865 0018 1343     		orrs	r3, r3, r2
 866 001a FB73     		strb	r3, [r7, #15]
 595:Generated_Source\PSoC5/Filter.c ****     keyReg |= (uint8)(keyReg << 4u);
 867              		.loc 1 595 0
 868 001c FB7B     		ldrb	r3, [r7, #15]
 869 001e 1B01     		lsls	r3, r3, #4
 870 0020 DAB2     		uxtb	r2, r3
 871 0022 FB7B     		ldrb	r3, [r7, #15]
 872 0024 1343     		orrs	r3, r3, r2
 873 0026 FB73     		strb	r3, [r7, #15]
 596:Generated_Source\PSoC5/Filter.c ****     
 597:Generated_Source\PSoC5/Filter.c ****     Filter_COHER_REG &= (uint8)~regSelect;
 874              		.loc 1 597 0
 875 0028 0C49     		ldr	r1, .L61
ARM GAS  C:\Users\Krist\AppData\Local\Temp\ccLoJ1ic.s 			page 27


 876 002a 0C4B     		ldr	r3, .L61
 877 002c 1B78     		ldrb	r3, [r3]
 878 002e DAB2     		uxtb	r2, r3
 879 0030 FB79     		ldrb	r3, [r7, #7]
 880 0032 DB43     		mvns	r3, r3
 881 0034 DBB2     		uxtb	r3, r3
 882 0036 1340     		ands	r3, r3, r2
 883 0038 DBB2     		uxtb	r3, r3
 884 003a 0B70     		strb	r3, [r1]
 598:Generated_Source\PSoC5/Filter.c ****     Filter_COHER_REG |= keyReg & regSelect;
 885              		.loc 1 598 0
 886 003c 0748     		ldr	r0, .L61
 887 003e 074B     		ldr	r3, .L61
 888 0040 1B78     		ldrb	r3, [r3]
 889 0042 DAB2     		uxtb	r2, r3
 890 0044 F97B     		ldrb	r1, [r7, #15]
 891 0046 FB79     		ldrb	r3, [r7, #7]
 892 0048 0B40     		ands	r3, r3, r1
 893 004a DBB2     		uxtb	r3, r3
 894 004c 1343     		orrs	r3, r3, r2
 895 004e DBB2     		uxtb	r3, r3
 896 0050 0370     		strb	r3, [r0]
 599:Generated_Source\PSoC5/Filter.c **** }
 897              		.loc 1 599 0
 898 0052 00BF     		nop
 899 0054 1437     		adds	r7, r7, #20
 900              		.cfi_def_cfa_offset 4
 901 0056 BD46     		mov	sp, r7
 902              		.cfi_def_cfa_register 13
 903              		@ sp needed
 904 0058 80BC     		pop	{r7}
 905              		.cfi_restore 7
 906              		.cfi_def_cfa_offset 0
 907 005a 7047     		bx	lr
 908              	.L62:
 909              		.align	2
 910              	.L61:
 911 005c B0C70040 		.word	1073792944
 912              		.cfi_endproc
 913              	.LFE11:
 914              		.size	Filter_SetCoherencyEx, .-Filter_SetCoherencyEx
 915              		.section	.text.Filter_SetDalign,"ax",%progbits
 916              		.align	2
 917              		.global	Filter_SetDalign
 918              		.thumb
 919              		.thumb_func
 920              		.type	Filter_SetDalign, %function
 921              	Filter_SetDalign:
 922              	.LFB12:
 600:Generated_Source\PSoC5/Filter.c **** 
 601:Generated_Source\PSoC5/Filter.c **** 
 602:Generated_Source\PSoC5/Filter.c **** /*******************************************************************************
 603:Generated_Source\PSoC5/Filter.c **** * Function Name: Filter_SetDalign
 604:Generated_Source\PSoC5/Filter.c **** ********************************************************************************
 605:Generated_Source\PSoC5/Filter.c **** * 
 606:Generated_Source\PSoC5/Filter.c **** * Summary:
 607:Generated_Source\PSoC5/Filter.c **** *  Configures the DFB dalign register for each of the staging and holding 
ARM GAS  C:\Users\Krist\AppData\Local\Temp\ccLoJ1ic.s 			page 28


 608:Generated_Source\PSoC5/Filter.c **** *  registers. Allows multiple registers with the same configuration to be set
 609:Generated_Source\PSoC5/Filter.c **** *  at the same time. 
 610:Generated_Source\PSoC5/Filter.c **** *
 611:Generated_Source\PSoC5/Filter.c **** * Parameters:  
 612:Generated_Source\PSoC5/Filter.c **** *  regSelect: This parameter is used to specify the registers that will undergo
 613:Generated_Source\PSoC5/Filter.c **** *             the change in data alignment. These are maskable and multiple 
 614:Generated_Source\PSoC5/Filter.c **** *             registers with the same configuration can passed by performing 
 615:Generated_Source\PSoC5/Filter.c **** *             an OR operation on the following definitions.
 616:Generated_Source\PSoC5/Filter.c **** *             Filter_STAGEA_DALIGN, 
 617:Generated_Source\PSoC5/Filter.c **** *             Filter_STAGEB_DALIGN,
 618:Generated_Source\PSoC5/Filter.c **** *             Filter_HOLDA_DALIGN,
 619:Generated_Source\PSoC5/Filter.c **** *             Filter_HOLDB_DALIGN.
 620:Generated_Source\PSoC5/Filter.c **** *  state: The state is use to either enable the data alignment bits for the 
 621:Generated_Source\PSoC5/Filter.c **** *         corresponding registers or to disable them.
 622:Generated_Source\PSoC5/Filter.c **** *         Filter_ENABLED,
 623:Generated_Source\PSoC5/Filter.c **** *         Filter_DISABLED
 624:Generated_Source\PSoC5/Filter.c **** *            
 625:Generated_Source\PSoC5/Filter.c **** * Return: 
 626:Generated_Source\PSoC5/Filter.c **** *  None.
 627:Generated_Source\PSoC5/Filter.c **** *
 628:Generated_Source\PSoC5/Filter.c **** *******************************************************************************/
 629:Generated_Source\PSoC5/Filter.c **** void Filter_SetDalign(uint8 regSelect, uint8 state) 
 630:Generated_Source\PSoC5/Filter.c **** {    
 923              		.loc 1 630 0
 924              		.cfi_startproc
 925              		@ args = 0, pretend = 0, frame = 8
 926              		@ frame_needed = 1, uses_anonymous_args = 0
 927              		@ link register save eliminated.
 928 0000 80B4     		push	{r7}
 929              		.cfi_def_cfa_offset 4
 930              		.cfi_offset 7, -4
 931 0002 83B0     		sub	sp, sp, #12
 932              		.cfi_def_cfa_offset 16
 933 0004 00AF     		add	r7, sp, #0
 934              		.cfi_def_cfa_register 7
 935 0006 0346     		mov	r3, r0
 936 0008 0A46     		mov	r2, r1
 937 000a FB71     		strb	r3, [r7, #7]
 938 000c 1346     		mov	r3, r2
 939 000e BB71     		strb	r3, [r7, #6]
 631:Generated_Source\PSoC5/Filter.c ****     if (state == Filter_ENABLED)
 940              		.loc 1 631 0
 941 0010 BB79     		ldrb	r3, [r7, #6]	@ zero_extendqisi2
 942 0012 012B     		cmp	r3, #1
 943 0014 08D1     		bne	.L64
 632:Generated_Source\PSoC5/Filter.c ****     {
 633:Generated_Source\PSoC5/Filter.c ****         Filter_DALIGN_REG |= regSelect;
 944              		.loc 1 633 0
 945 0016 0D49     		ldr	r1, .L67
 946 0018 0C4B     		ldr	r3, .L67
 947 001a 1B78     		ldrb	r3, [r3]
 948 001c DAB2     		uxtb	r2, r3
 949 001e FB79     		ldrb	r3, [r7, #7]
 950 0020 1343     		orrs	r3, r3, r2
 951 0022 DBB2     		uxtb	r3, r3
 952 0024 0B70     		strb	r3, [r1]
 634:Generated_Source\PSoC5/Filter.c ****     }
ARM GAS  C:\Users\Krist\AppData\Local\Temp\ccLoJ1ic.s 			page 29


 635:Generated_Source\PSoC5/Filter.c ****     else if (state == Filter_DISABLED)
 636:Generated_Source\PSoC5/Filter.c ****     {
 637:Generated_Source\PSoC5/Filter.c ****         Filter_DALIGN_REG &= (uint8)(~regSelect);
 638:Generated_Source\PSoC5/Filter.c ****     }
 639:Generated_Source\PSoC5/Filter.c ****     else
 640:Generated_Source\PSoC5/Filter.c ****     {
 641:Generated_Source\PSoC5/Filter.c ****         /* Invalid state */
 642:Generated_Source\PSoC5/Filter.c ****     }
 643:Generated_Source\PSoC5/Filter.c **** }
 953              		.loc 1 643 0
 954 0026 0CE0     		b	.L66
 955              	.L64:
 635:Generated_Source\PSoC5/Filter.c ****     {
 956              		.loc 1 635 0
 957 0028 BB79     		ldrb	r3, [r7, #6]	@ zero_extendqisi2
 958 002a 002B     		cmp	r3, #0
 959 002c 09D1     		bne	.L66
 637:Generated_Source\PSoC5/Filter.c ****     }
 960              		.loc 1 637 0
 961 002e 0749     		ldr	r1, .L67
 962 0030 064B     		ldr	r3, .L67
 963 0032 1B78     		ldrb	r3, [r3]
 964 0034 DAB2     		uxtb	r2, r3
 965 0036 FB79     		ldrb	r3, [r7, #7]
 966 0038 DB43     		mvns	r3, r3
 967 003a DBB2     		uxtb	r3, r3
 968 003c 1340     		ands	r3, r3, r2
 969 003e DBB2     		uxtb	r3, r3
 970 0040 0B70     		strb	r3, [r1]
 971              	.L66:
 972              		.loc 1 643 0
 973 0042 00BF     		nop
 974 0044 0C37     		adds	r7, r7, #12
 975              		.cfi_def_cfa_offset 4
 976 0046 BD46     		mov	sp, r7
 977              		.cfi_def_cfa_register 13
 978              		@ sp needed
 979 0048 80BC     		pop	{r7}
 980              		.cfi_restore 7
 981              		.cfi_def_cfa_offset 0
 982 004a 7047     		bx	lr
 983              	.L68:
 984              		.align	2
 985              	.L67:
 986 004c B4C70040 		.word	1073792948
 987              		.cfi_endproc
 988              	.LFE12:
 989              		.size	Filter_SetDalign, .-Filter_SetDalign
 990              		.text
 991              	.Letext0:
 992              		.file 2 "Generated_Source\\PSoC5\\cytypes.h"
 993              		.file 3 "Generated_Source\\PSoC5\\Filter_PVT.h"
 994              		.section	.debug_info,"",%progbits
 995              	.Ldebug_info0:
 996 0000 B2030000 		.4byte	0x3b2
 997 0004 0400     		.2byte	0x4
 998 0006 00000000 		.4byte	.Ldebug_abbrev0
ARM GAS  C:\Users\Krist\AppData\Local\Temp\ccLoJ1ic.s 			page 30


 999 000a 04       		.byte	0x4
 1000 000b 01       		.uleb128 0x1
 1001 000c 70000000 		.4byte	.LASF46
 1002 0010 0C       		.byte	0xc
 1003 0011 32020000 		.4byte	.LASF47
 1004 0015 06000000 		.4byte	.LASF48
 1005 0019 00000000 		.4byte	.Ldebug_ranges0+0
 1006 001d 00000000 		.4byte	0
 1007 0021 00000000 		.4byte	.Ldebug_line0
 1008 0025 02       		.uleb128 0x2
 1009 0026 04       		.byte	0x4
 1010 0027 05       		.byte	0x5
 1011 0028 696E7400 		.ascii	"int\000"
 1012 002c 03       		.uleb128 0x3
 1013 002d 04       		.byte	0x4
 1014 002e 07       		.byte	0x7
 1015 002f 01020000 		.4byte	.LASF0
 1016 0033 03       		.uleb128 0x3
 1017 0034 08       		.byte	0x8
 1018 0035 05       		.byte	0x5
 1019 0036 83020000 		.4byte	.LASF1
 1020 003a 03       		.uleb128 0x3
 1021 003b 08       		.byte	0x8
 1022 003c 04       		.byte	0x4
 1023 003d D9010000 		.4byte	.LASF2
 1024 0041 03       		.uleb128 0x3
 1025 0042 01       		.byte	0x1
 1026 0043 06       		.byte	0x6
 1027 0044 EE020000 		.4byte	.LASF3
 1028 0048 03       		.uleb128 0x3
 1029 0049 01       		.byte	0x1
 1030 004a 08       		.byte	0x8
 1031 004b 5C010000 		.4byte	.LASF4
 1032 004f 03       		.uleb128 0x3
 1033 0050 02       		.byte	0x2
 1034 0051 05       		.byte	0x5
 1035 0052 AB020000 		.4byte	.LASF5
 1036 0056 03       		.uleb128 0x3
 1037 0057 02       		.byte	0x2
 1038 0058 07       		.byte	0x7
 1039 0059 FA020000 		.4byte	.LASF6
 1040 005d 03       		.uleb128 0x3
 1041 005e 04       		.byte	0x4
 1042 005f 05       		.byte	0x5
 1043 0060 22010000 		.4byte	.LASF7
 1044 0064 03       		.uleb128 0x3
 1045 0065 04       		.byte	0x4
 1046 0066 07       		.byte	0x7
 1047 0067 88010000 		.4byte	.LASF8
 1048 006b 03       		.uleb128 0x3
 1049 006c 08       		.byte	0x8
 1050 006d 07       		.byte	0x7
 1051 006e 0E020000 		.4byte	.LASF9
 1052 0072 03       		.uleb128 0x3
 1053 0073 04       		.byte	0x4
 1054 0074 07       		.byte	0x7
 1055 0075 7A020000 		.4byte	.LASF10
ARM GAS  C:\Users\Krist\AppData\Local\Temp\ccLoJ1ic.s 			page 31


 1056 0079 03       		.uleb128 0x3
 1057 007a 01       		.byte	0x1
 1058 007b 08       		.byte	0x8
 1059 007c 91020000 		.4byte	.LASF11
 1060 0080 04       		.uleb128 0x4
 1061 0081 A4010000 		.4byte	.LASF12
 1062 0085 02       		.byte	0x2
 1063 0086 9201     		.2byte	0x192
 1064 0088 48000000 		.4byte	0x48
 1065 008c 04       		.uleb128 0x4
 1066 008d F3010000 		.4byte	.LASF13
 1067 0091 02       		.byte	0x2
 1068 0092 9301     		.2byte	0x193
 1069 0094 56000000 		.4byte	0x56
 1070 0098 04       		.uleb128 0x4
 1071 0099 FA010000 		.4byte	.LASF14
 1072 009d 02       		.byte	0x2
 1073 009e 9401     		.2byte	0x194
 1074 00a0 64000000 		.4byte	0x64
 1075 00a4 03       		.uleb128 0x3
 1076 00a5 04       		.byte	0x4
 1077 00a6 04       		.byte	0x4
 1078 00a7 56010000 		.4byte	.LASF15
 1079 00ab 03       		.uleb128 0x3
 1080 00ac 08       		.byte	0x8
 1081 00ad 04       		.byte	0x4
 1082 00ae D2010000 		.4byte	.LASF16
 1083 00b2 04       		.uleb128 0x4
 1084 00b3 76010000 		.4byte	.LASF17
 1085 00b7 02       		.byte	0x2
 1086 00b8 3C02     		.2byte	0x23c
 1087 00ba BE000000 		.4byte	0xbe
 1088 00be 05       		.uleb128 0x5
 1089 00bf 80000000 		.4byte	0x80
 1090 00c3 04       		.uleb128 0x4
 1091 00c4 00000000 		.4byte	.LASF18
 1092 00c8 02       		.byte	0x2
 1093 00c9 3D02     		.2byte	0x23d
 1094 00cb CF000000 		.4byte	0xcf
 1095 00cf 05       		.uleb128 0x5
 1096 00d0 8C000000 		.4byte	0x8c
 1097 00d4 04       		.uleb128 0x4
 1098 00d5 62000000 		.4byte	.LASF19
 1099 00d9 02       		.byte	0x2
 1100 00da 3E02     		.2byte	0x23e
 1101 00dc E0000000 		.4byte	0xe0
 1102 00e0 05       		.uleb128 0x5
 1103 00e1 98000000 		.4byte	0x98
 1104 00e5 06       		.uleb128 0x6
 1105 00e6 19030000 		.4byte	.LASF20
 1106 00ea 01       		.byte	0x1
 1107 00eb 2B       		.byte	0x2b
 1108 00ec 00000000 		.4byte	.LFB0
 1109 00f0 08010000 		.4byte	.LFE0-.LFB0
 1110 00f4 01       		.uleb128 0x1
 1111 00f5 9C       		.byte	0x9c
 1112 00f6 07       		.uleb128 0x7
ARM GAS  C:\Users\Krist\AppData\Local\Temp\ccLoJ1ic.s 			page 32


 1113 00f7 2B010000 		.4byte	.LASF21
 1114 00fb 01       		.byte	0x1
 1115 00fc 66       		.byte	0x66
 1116 00fd 00000000 		.4byte	.LFB1
 1117 0101 48000000 		.4byte	.LFE1-.LFB1
 1118 0105 01       		.uleb128 0x1
 1119 0106 9C       		.byte	0x9c
 1120 0107 06       		.uleb128 0x6
 1121 0108 7B010000 		.4byte	.LASF22
 1122 010c 01       		.byte	0x1
 1123 010d 89       		.byte	0x89
 1124 010e 00000000 		.4byte	.LFB2
 1125 0112 24000000 		.4byte	.LFE2-.LFB2
 1126 0116 01       		.uleb128 0x1
 1127 0117 9C       		.byte	0x9c
 1128 0118 07       		.uleb128 0x7
 1129 0119 6A010000 		.4byte	.LASF23
 1130 011d 01       		.byte	0x1
 1131 011e A6       		.byte	0xa6
 1132 011f 00000000 		.4byte	.LFB3
 1133 0123 48000000 		.4byte	.LFE3-.LFB3
 1134 0127 01       		.uleb128 0x1
 1135 0128 9C       		.byte	0x9c
 1136 0129 08       		.uleb128 0x8
 1137 012a 25020000 		.4byte	.LASF24
 1138 012e 01       		.byte	0x1
 1139 012f C1       		.byte	0xc1
 1140 0130 80000000 		.4byte	0x80
 1141 0134 00000000 		.4byte	.LFB4
 1142 0138 40000000 		.4byte	.LFE4-.LFB4
 1143 013c 01       		.uleb128 0x1
 1144 013d 9C       		.byte	0x9c
 1145 013e 5F010000 		.4byte	0x15f
 1146 0142 09       		.uleb128 0x9
 1147 0143 68000000 		.4byte	.LASF26
 1148 0147 01       		.byte	0x1
 1149 0148 C1       		.byte	0xc1
 1150 0149 80000000 		.4byte	0x80
 1151 014d 02       		.uleb128 0x2
 1152 014e 91       		.byte	0x91
 1153 014f 6F       		.sleb128 -17
 1154 0150 0A       		.uleb128 0xa
 1155 0151 CC010000 		.4byte	.LASF27
 1156 0155 01       		.byte	0x1
 1157 0156 C3       		.byte	0xc3
 1158 0157 80000000 		.4byte	0x80
 1159 015b 02       		.uleb128 0x2
 1160 015c 91       		.byte	0x91
 1161 015d 77       		.sleb128 -9
 1162 015e 00       		.byte	0
 1163 015f 0B       		.uleb128 0xb
 1164 0160 48010000 		.4byte	.LASF25
 1165 0164 01       		.byte	0x1
 1166 0165 0101     		.2byte	0x101
 1167 0167 8C000000 		.4byte	0x8c
 1168 016b 00000000 		.4byte	.LFB5
 1169 016f 40000000 		.4byte	.LFE5-.LFB5
ARM GAS  C:\Users\Krist\AppData\Local\Temp\ccLoJ1ic.s 			page 33


 1170 0173 01       		.uleb128 0x1
 1171 0174 9C       		.byte	0x9c
 1172 0175 98010000 		.4byte	0x198
 1173 0179 0C       		.uleb128 0xc
 1174 017a 68000000 		.4byte	.LASF26
 1175 017e 01       		.byte	0x1
 1176 017f 0101     		.2byte	0x101
 1177 0181 80000000 		.4byte	0x80
 1178 0185 02       		.uleb128 0x2
 1179 0186 91       		.byte	0x91
 1180 0187 6F       		.sleb128 -17
 1181 0188 0D       		.uleb128 0xd
 1182 0189 76616C00 		.ascii	"val\000"
 1183 018d 01       		.byte	0x1
 1184 018e 0301     		.2byte	0x103
 1185 0190 8C000000 		.4byte	0x8c
 1186 0194 02       		.uleb128 0x2
 1187 0195 91       		.byte	0x91
 1188 0196 76       		.sleb128 -10
 1189 0197 00       		.byte	0
 1190 0198 0B       		.uleb128 0xb
 1191 0199 9D020000 		.4byte	.LASF28
 1192 019d 01       		.byte	0x1
 1193 019e 5101     		.2byte	0x151
 1194 01a0 98000000 		.4byte	0x98
 1195 01a4 00000000 		.4byte	.LFB6
 1196 01a8 40000000 		.4byte	.LFE6-.LFB6
 1197 01ac 01       		.uleb128 0x1
 1198 01ad 9C       		.byte	0x9c
 1199 01ae D1010000 		.4byte	0x1d1
 1200 01b2 0C       		.uleb128 0xc
 1201 01b3 68000000 		.4byte	.LASF26
 1202 01b7 01       		.byte	0x1
 1203 01b8 5101     		.2byte	0x151
 1204 01ba 80000000 		.4byte	0x80
 1205 01be 02       		.uleb128 0x2
 1206 01bf 91       		.byte	0x91
 1207 01c0 6F       		.sleb128 -17
 1208 01c1 0D       		.uleb128 0xd
 1209 01c2 76616C00 		.ascii	"val\000"
 1210 01c6 01       		.byte	0x1
 1211 01c7 5301     		.2byte	0x153
 1212 01c9 98000000 		.4byte	0x98
 1213 01cd 02       		.uleb128 0x2
 1214 01ce 91       		.byte	0x91
 1215 01cf 74       		.sleb128 -12
 1216 01d0 00       		.byte	0
 1217 01d1 0E       		.uleb128 0xe
 1218 01d2 52020000 		.4byte	.LASF30
 1219 01d6 01       		.byte	0x1
 1220 01d7 7B01     		.2byte	0x17b
 1221 01d9 00000000 		.4byte	.LFB7
 1222 01dd 3C000000 		.4byte	.LFE7-.LFB7
 1223 01e1 01       		.uleb128 0x1
 1224 01e2 9C       		.byte	0x9c
 1225 01e3 06020000 		.4byte	0x206
 1226 01e7 0C       		.uleb128 0xc
ARM GAS  C:\Users\Krist\AppData\Local\Temp\ccLoJ1ic.s 			page 34


 1227 01e8 68000000 		.4byte	.LASF26
 1228 01ec 01       		.byte	0x1
 1229 01ed 7B01     		.2byte	0x17b
 1230 01ef 80000000 		.4byte	0x80
 1231 01f3 02       		.uleb128 0x2
 1232 01f4 91       		.byte	0x91
 1233 01f5 77       		.sleb128 -9
 1234 01f6 0C       		.uleb128 0xc
 1235 01f7 CB020000 		.4byte	.LASF29
 1236 01fb 01       		.byte	0x1
 1237 01fc 7B01     		.2byte	0x17b
 1238 01fe 80000000 		.4byte	0x80
 1239 0202 02       		.uleb128 0x2
 1240 0203 91       		.byte	0x91
 1241 0204 76       		.sleb128 -10
 1242 0205 00       		.byte	0
 1243 0206 0E       		.uleb128 0xe
 1244 0207 39010000 		.4byte	.LASF31
 1245 020b 01       		.byte	0x1
 1246 020c B801     		.2byte	0x1b8
 1247 020e 00000000 		.4byte	.LFB8
 1248 0212 3C000000 		.4byte	.LFE8-.LFB8
 1249 0216 01       		.uleb128 0x1
 1250 0217 9C       		.byte	0x9c
 1251 0218 3B020000 		.4byte	0x23b
 1252 021c 0C       		.uleb128 0xc
 1253 021d 68000000 		.4byte	.LASF26
 1254 0221 01       		.byte	0x1
 1255 0222 B801     		.2byte	0x1b8
 1256 0224 80000000 		.4byte	0x80
 1257 0228 02       		.uleb128 0x2
 1258 0229 91       		.byte	0x91
 1259 022a 77       		.sleb128 -9
 1260 022b 0C       		.uleb128 0xc
 1261 022c CB020000 		.4byte	.LASF29
 1262 0230 01       		.byte	0x1
 1263 0231 B801     		.2byte	0x1b8
 1264 0233 8C000000 		.4byte	0x8c
 1265 0237 02       		.uleb128 0x2
 1266 0238 91       		.byte	0x91
 1267 0239 74       		.sleb128 -12
 1268 023a 00       		.byte	0
 1269 023b 0E       		.uleb128 0xe
 1270 023c 6B020000 		.4byte	.LASF32
 1271 0240 01       		.byte	0x1
 1272 0241 F901     		.2byte	0x1f9
 1273 0243 00000000 		.4byte	.LFB9
 1274 0247 38000000 		.4byte	.LFE9-.LFB9
 1275 024b 01       		.uleb128 0x1
 1276 024c 9C       		.byte	0x9c
 1277 024d 70020000 		.4byte	0x270
 1278 0251 0C       		.uleb128 0xc
 1279 0252 68000000 		.4byte	.LASF26
 1280 0256 01       		.byte	0x1
 1281 0257 F901     		.2byte	0x1f9
 1282 0259 80000000 		.4byte	0x80
 1283 025d 02       		.uleb128 0x2
ARM GAS  C:\Users\Krist\AppData\Local\Temp\ccLoJ1ic.s 			page 35


 1284 025e 91       		.byte	0x91
 1285 025f 77       		.sleb128 -9
 1286 0260 0C       		.uleb128 0xc
 1287 0261 CB020000 		.4byte	.LASF29
 1288 0265 01       		.byte	0x1
 1289 0266 F901     		.2byte	0x1f9
 1290 0268 98000000 		.4byte	0x98
 1291 026c 02       		.uleb128 0x2
 1292 026d 91       		.byte	0x91
 1293 026e 70       		.sleb128 -16
 1294 026f 00       		.byte	0
 1295 0270 0E       		.uleb128 0xe
 1296 0271 B8010000 		.4byte	.LASF33
 1297 0275 01       		.byte	0x1
 1298 0276 1B02     		.2byte	0x21b
 1299 0278 00000000 		.4byte	.LFB10
 1300 027c 98000000 		.4byte	.LFE10-.LFB10
 1301 0280 01       		.uleb128 0x1
 1302 0281 9C       		.byte	0x9c
 1303 0282 A5020000 		.4byte	0x2a5
 1304 0286 0C       		.uleb128 0xc
 1305 0287 68000000 		.4byte	.LASF26
 1306 028b 01       		.byte	0x1
 1307 028c 1B02     		.2byte	0x21b
 1308 028e 80000000 		.4byte	0x80
 1309 0292 02       		.uleb128 0x2
 1310 0293 91       		.byte	0x91
 1311 0294 77       		.sleb128 -9
 1312 0295 0C       		.uleb128 0xc
 1313 0296 60020000 		.4byte	.LASF34
 1314 029a 01       		.byte	0x1
 1315 029b 1B02     		.2byte	0x21b
 1316 029d 80000000 		.4byte	0x80
 1317 02a1 02       		.uleb128 0x2
 1318 02a2 91       		.byte	0x91
 1319 02a3 76       		.sleb128 -10
 1320 02a4 00       		.byte	0
 1321 02a5 0E       		.uleb128 0xe
 1322 02a6 B5020000 		.4byte	.LASF35
 1323 02aa 01       		.byte	0x1
 1324 02ab 4E02     		.2byte	0x24e
 1325 02ad 00000000 		.4byte	.LFB11
 1326 02b1 60000000 		.4byte	.LFE11-.LFB11
 1327 02b5 01       		.uleb128 0x1
 1328 02b6 9C       		.byte	0x9c
 1329 02b7 E9020000 		.4byte	0x2e9
 1330 02bb 0C       		.uleb128 0xc
 1331 02bc 9A010000 		.4byte	.LASF36
 1332 02c0 01       		.byte	0x1
 1333 02c1 4E02     		.2byte	0x24e
 1334 02c3 80000000 		.4byte	0x80
 1335 02c7 02       		.uleb128 0x2
 1336 02c8 91       		.byte	0x91
 1337 02c9 6F       		.sleb128 -17
 1338 02ca 0F       		.uleb128 0xf
 1339 02cb 6B657900 		.ascii	"key\000"
 1340 02cf 01       		.byte	0x1
ARM GAS  C:\Users\Krist\AppData\Local\Temp\ccLoJ1ic.s 			page 36


 1341 02d0 4E02     		.2byte	0x24e
 1342 02d2 80000000 		.4byte	0x80
 1343 02d6 02       		.uleb128 0x2
 1344 02d7 91       		.byte	0x91
 1345 02d8 6E       		.sleb128 -18
 1346 02d9 10       		.uleb128 0x10
 1347 02da 96020000 		.4byte	.LASF37
 1348 02de 01       		.byte	0x1
 1349 02df 5002     		.2byte	0x250
 1350 02e1 80000000 		.4byte	0x80
 1351 02e5 02       		.uleb128 0x2
 1352 02e6 91       		.byte	0x91
 1353 02e7 77       		.sleb128 -9
 1354 02e8 00       		.byte	0
 1355 02e9 0E       		.uleb128 0xe
 1356 02ea DD020000 		.4byte	.LASF38
 1357 02ee 01       		.byte	0x1
 1358 02ef 7502     		.2byte	0x275
 1359 02f1 00000000 		.4byte	.LFB12
 1360 02f5 50000000 		.4byte	.LFE12-.LFB12
 1361 02f9 01       		.uleb128 0x1
 1362 02fa 9C       		.byte	0x9c
 1363 02fb 1E030000 		.4byte	0x31e
 1364 02ff 0C       		.uleb128 0xc
 1365 0300 9A010000 		.4byte	.LASF36
 1366 0304 01       		.byte	0x1
 1367 0305 7502     		.2byte	0x275
 1368 0307 80000000 		.4byte	0x80
 1369 030b 02       		.uleb128 0x2
 1370 030c 91       		.byte	0x91
 1371 030d 77       		.sleb128 -9
 1372 030e 0C       		.uleb128 0xc
 1373 030f 0D010000 		.4byte	.LASF39
 1374 0313 01       		.byte	0x1
 1375 0314 7502     		.2byte	0x275
 1376 0316 80000000 		.4byte	0x80
 1377 031a 02       		.uleb128 0x2
 1378 031b 91       		.byte	0x91
 1379 031c 76       		.sleb128 -10
 1380 031d 00       		.byte	0
 1381 031e 11       		.uleb128 0x11
 1382 031f FE000000 		.4byte	.LASF40
 1383 0323 01       		.byte	0x1
 1384 0324 18       		.byte	0x18
 1385 0325 80000000 		.4byte	0x80
 1386 0329 05       		.uleb128 0x5
 1387 032a 03       		.byte	0x3
 1388 032b 00000000 		.4byte	Filter_initVar
 1389 032f 12       		.uleb128 0x12
 1390 0330 3F030000 		.4byte	0x33f
 1391 0334 3F030000 		.4byte	0x33f
 1392 0338 13       		.uleb128 0x13
 1393 0339 72000000 		.4byte	0x72
 1394 033d FF       		.byte	0xff
 1395 033e 00       		.byte	0
 1396 033f 14       		.uleb128 0x14
 1397 0340 80000000 		.4byte	0x80
ARM GAS  C:\Users\Krist\AppData\Local\Temp\ccLoJ1ic.s 			page 37


 1398 0344 15       		.uleb128 0x15
 1399 0345 13010000 		.4byte	.LASF41
 1400 0349 03       		.byte	0x3
 1401 034a 24       		.byte	0x24
 1402 034b 4F030000 		.4byte	0x34f
 1403 034f 14       		.uleb128 0x14
 1404 0350 2F030000 		.4byte	0x32f
 1405 0354 12       		.uleb128 0x12
 1406 0355 3F030000 		.4byte	0x33f
 1407 0359 65030000 		.4byte	0x365
 1408 035d 16       		.uleb128 0x16
 1409 035e 72000000 		.4byte	0x72
 1410 0362 FF01     		.2byte	0x1ff
 1411 0364 00       		.byte	0
 1412 0365 15       		.uleb128 0x15
 1413 0366 E5010000 		.4byte	.LASF42
 1414 036a 03       		.byte	0x3
 1415 036b 25       		.byte	0x25
 1416 036c 70030000 		.4byte	0x370
 1417 0370 14       		.uleb128 0x14
 1418 0371 54030000 		.4byte	0x354
 1419 0375 15       		.uleb128 0x15
 1420 0376 AA010000 		.4byte	.LASF43
 1421 037a 03       		.byte	0x3
 1422 037b 26       		.byte	0x26
 1423 037c 80030000 		.4byte	0x380
 1424 0380 14       		.uleb128 0x14
 1425 0381 54030000 		.4byte	0x354
 1426 0385 15       		.uleb128 0x15
 1427 0386 0D030000 		.4byte	.LASF44
 1428 038a 03       		.byte	0x3
 1429 038b 27       		.byte	0x27
 1430 038c 90030000 		.4byte	0x390
 1431 0390 14       		.uleb128 0x14
 1432 0391 2F030000 		.4byte	0x32f
 1433 0395 12       		.uleb128 0x12
 1434 0396 3F030000 		.4byte	0x33f
 1435 039a A5030000 		.4byte	0x3a5
 1436 039e 13       		.uleb128 0x13
 1437 039f 72000000 		.4byte	0x72
 1438 03a3 3F       		.byte	0x3f
 1439 03a4 00       		.byte	0
 1440 03a5 15       		.uleb128 0x15
 1441 03a6 D2020000 		.4byte	.LASF45
 1442 03aa 03       		.byte	0x3
 1443 03ab 28       		.byte	0x28
 1444 03ac B0030000 		.4byte	0x3b0
 1445 03b0 14       		.uleb128 0x14
 1446 03b1 95030000 		.4byte	0x395
 1447 03b5 00       		.byte	0
 1448              		.section	.debug_abbrev,"",%progbits
 1449              	.Ldebug_abbrev0:
 1450 0000 01       		.uleb128 0x1
 1451 0001 11       		.uleb128 0x11
 1452 0002 01       		.byte	0x1
 1453 0003 25       		.uleb128 0x25
 1454 0004 0E       		.uleb128 0xe
ARM GAS  C:\Users\Krist\AppData\Local\Temp\ccLoJ1ic.s 			page 38


 1455 0005 13       		.uleb128 0x13
 1456 0006 0B       		.uleb128 0xb
 1457 0007 03       		.uleb128 0x3
 1458 0008 0E       		.uleb128 0xe
 1459 0009 1B       		.uleb128 0x1b
 1460 000a 0E       		.uleb128 0xe
 1461 000b 55       		.uleb128 0x55
 1462 000c 17       		.uleb128 0x17
 1463 000d 11       		.uleb128 0x11
 1464 000e 01       		.uleb128 0x1
 1465 000f 10       		.uleb128 0x10
 1466 0010 17       		.uleb128 0x17
 1467 0011 00       		.byte	0
 1468 0012 00       		.byte	0
 1469 0013 02       		.uleb128 0x2
 1470 0014 24       		.uleb128 0x24
 1471 0015 00       		.byte	0
 1472 0016 0B       		.uleb128 0xb
 1473 0017 0B       		.uleb128 0xb
 1474 0018 3E       		.uleb128 0x3e
 1475 0019 0B       		.uleb128 0xb
 1476 001a 03       		.uleb128 0x3
 1477 001b 08       		.uleb128 0x8
 1478 001c 00       		.byte	0
 1479 001d 00       		.byte	0
 1480 001e 03       		.uleb128 0x3
 1481 001f 24       		.uleb128 0x24
 1482 0020 00       		.byte	0
 1483 0021 0B       		.uleb128 0xb
 1484 0022 0B       		.uleb128 0xb
 1485 0023 3E       		.uleb128 0x3e
 1486 0024 0B       		.uleb128 0xb
 1487 0025 03       		.uleb128 0x3
 1488 0026 0E       		.uleb128 0xe
 1489 0027 00       		.byte	0
 1490 0028 00       		.byte	0
 1491 0029 04       		.uleb128 0x4
 1492 002a 16       		.uleb128 0x16
 1493 002b 00       		.byte	0
 1494 002c 03       		.uleb128 0x3
 1495 002d 0E       		.uleb128 0xe
 1496 002e 3A       		.uleb128 0x3a
 1497 002f 0B       		.uleb128 0xb
 1498 0030 3B       		.uleb128 0x3b
 1499 0031 05       		.uleb128 0x5
 1500 0032 49       		.uleb128 0x49
 1501 0033 13       		.uleb128 0x13
 1502 0034 00       		.byte	0
 1503 0035 00       		.byte	0
 1504 0036 05       		.uleb128 0x5
 1505 0037 35       		.uleb128 0x35
 1506 0038 00       		.byte	0
 1507 0039 49       		.uleb128 0x49
 1508 003a 13       		.uleb128 0x13
 1509 003b 00       		.byte	0
 1510 003c 00       		.byte	0
 1511 003d 06       		.uleb128 0x6
ARM GAS  C:\Users\Krist\AppData\Local\Temp\ccLoJ1ic.s 			page 39


 1512 003e 2E       		.uleb128 0x2e
 1513 003f 00       		.byte	0
 1514 0040 3F       		.uleb128 0x3f
 1515 0041 19       		.uleb128 0x19
 1516 0042 03       		.uleb128 0x3
 1517 0043 0E       		.uleb128 0xe
 1518 0044 3A       		.uleb128 0x3a
 1519 0045 0B       		.uleb128 0xb
 1520 0046 3B       		.uleb128 0x3b
 1521 0047 0B       		.uleb128 0xb
 1522 0048 27       		.uleb128 0x27
 1523 0049 19       		.uleb128 0x19
 1524 004a 11       		.uleb128 0x11
 1525 004b 01       		.uleb128 0x1
 1526 004c 12       		.uleb128 0x12
 1527 004d 06       		.uleb128 0x6
 1528 004e 40       		.uleb128 0x40
 1529 004f 18       		.uleb128 0x18
 1530 0050 9642     		.uleb128 0x2116
 1531 0052 19       		.uleb128 0x19
 1532 0053 00       		.byte	0
 1533 0054 00       		.byte	0
 1534 0055 07       		.uleb128 0x7
 1535 0056 2E       		.uleb128 0x2e
 1536 0057 00       		.byte	0
 1537 0058 3F       		.uleb128 0x3f
 1538 0059 19       		.uleb128 0x19
 1539 005a 03       		.uleb128 0x3
 1540 005b 0E       		.uleb128 0xe
 1541 005c 3A       		.uleb128 0x3a
 1542 005d 0B       		.uleb128 0xb
 1543 005e 3B       		.uleb128 0x3b
 1544 005f 0B       		.uleb128 0xb
 1545 0060 27       		.uleb128 0x27
 1546 0061 19       		.uleb128 0x19
 1547 0062 11       		.uleb128 0x11
 1548 0063 01       		.uleb128 0x1
 1549 0064 12       		.uleb128 0x12
 1550 0065 06       		.uleb128 0x6
 1551 0066 40       		.uleb128 0x40
 1552 0067 18       		.uleb128 0x18
 1553 0068 9742     		.uleb128 0x2117
 1554 006a 19       		.uleb128 0x19
 1555 006b 00       		.byte	0
 1556 006c 00       		.byte	0
 1557 006d 08       		.uleb128 0x8
 1558 006e 2E       		.uleb128 0x2e
 1559 006f 01       		.byte	0x1
 1560 0070 3F       		.uleb128 0x3f
 1561 0071 19       		.uleb128 0x19
 1562 0072 03       		.uleb128 0x3
 1563 0073 0E       		.uleb128 0xe
 1564 0074 3A       		.uleb128 0x3a
 1565 0075 0B       		.uleb128 0xb
 1566 0076 3B       		.uleb128 0x3b
 1567 0077 0B       		.uleb128 0xb
 1568 0078 27       		.uleb128 0x27
ARM GAS  C:\Users\Krist\AppData\Local\Temp\ccLoJ1ic.s 			page 40


 1569 0079 19       		.uleb128 0x19
 1570 007a 49       		.uleb128 0x49
 1571 007b 13       		.uleb128 0x13
 1572 007c 11       		.uleb128 0x11
 1573 007d 01       		.uleb128 0x1
 1574 007e 12       		.uleb128 0x12
 1575 007f 06       		.uleb128 0x6
 1576 0080 40       		.uleb128 0x40
 1577 0081 18       		.uleb128 0x18
 1578 0082 9742     		.uleb128 0x2117
 1579 0084 19       		.uleb128 0x19
 1580 0085 01       		.uleb128 0x1
 1581 0086 13       		.uleb128 0x13
 1582 0087 00       		.byte	0
 1583 0088 00       		.byte	0
 1584 0089 09       		.uleb128 0x9
 1585 008a 05       		.uleb128 0x5
 1586 008b 00       		.byte	0
 1587 008c 03       		.uleb128 0x3
 1588 008d 0E       		.uleb128 0xe
 1589 008e 3A       		.uleb128 0x3a
 1590 008f 0B       		.uleb128 0xb
 1591 0090 3B       		.uleb128 0x3b
 1592 0091 0B       		.uleb128 0xb
 1593 0092 49       		.uleb128 0x49
 1594 0093 13       		.uleb128 0x13
 1595 0094 02       		.uleb128 0x2
 1596 0095 18       		.uleb128 0x18
 1597 0096 00       		.byte	0
 1598 0097 00       		.byte	0
 1599 0098 0A       		.uleb128 0xa
 1600 0099 34       		.uleb128 0x34
 1601 009a 00       		.byte	0
 1602 009b 03       		.uleb128 0x3
 1603 009c 0E       		.uleb128 0xe
 1604 009d 3A       		.uleb128 0x3a
 1605 009e 0B       		.uleb128 0xb
 1606 009f 3B       		.uleb128 0x3b
 1607 00a0 0B       		.uleb128 0xb
 1608 00a1 49       		.uleb128 0x49
 1609 00a2 13       		.uleb128 0x13
 1610 00a3 02       		.uleb128 0x2
 1611 00a4 18       		.uleb128 0x18
 1612 00a5 00       		.byte	0
 1613 00a6 00       		.byte	0
 1614 00a7 0B       		.uleb128 0xb
 1615 00a8 2E       		.uleb128 0x2e
 1616 00a9 01       		.byte	0x1
 1617 00aa 3F       		.uleb128 0x3f
 1618 00ab 19       		.uleb128 0x19
 1619 00ac 03       		.uleb128 0x3
 1620 00ad 0E       		.uleb128 0xe
 1621 00ae 3A       		.uleb128 0x3a
 1622 00af 0B       		.uleb128 0xb
 1623 00b0 3B       		.uleb128 0x3b
 1624 00b1 05       		.uleb128 0x5
 1625 00b2 27       		.uleb128 0x27
ARM GAS  C:\Users\Krist\AppData\Local\Temp\ccLoJ1ic.s 			page 41


 1626 00b3 19       		.uleb128 0x19
 1627 00b4 49       		.uleb128 0x49
 1628 00b5 13       		.uleb128 0x13
 1629 00b6 11       		.uleb128 0x11
 1630 00b7 01       		.uleb128 0x1
 1631 00b8 12       		.uleb128 0x12
 1632 00b9 06       		.uleb128 0x6
 1633 00ba 40       		.uleb128 0x40
 1634 00bb 18       		.uleb128 0x18
 1635 00bc 9742     		.uleb128 0x2117
 1636 00be 19       		.uleb128 0x19
 1637 00bf 01       		.uleb128 0x1
 1638 00c0 13       		.uleb128 0x13
 1639 00c1 00       		.byte	0
 1640 00c2 00       		.byte	0
 1641 00c3 0C       		.uleb128 0xc
 1642 00c4 05       		.uleb128 0x5
 1643 00c5 00       		.byte	0
 1644 00c6 03       		.uleb128 0x3
 1645 00c7 0E       		.uleb128 0xe
 1646 00c8 3A       		.uleb128 0x3a
 1647 00c9 0B       		.uleb128 0xb
 1648 00ca 3B       		.uleb128 0x3b
 1649 00cb 05       		.uleb128 0x5
 1650 00cc 49       		.uleb128 0x49
 1651 00cd 13       		.uleb128 0x13
 1652 00ce 02       		.uleb128 0x2
 1653 00cf 18       		.uleb128 0x18
 1654 00d0 00       		.byte	0
 1655 00d1 00       		.byte	0
 1656 00d2 0D       		.uleb128 0xd
 1657 00d3 34       		.uleb128 0x34
 1658 00d4 00       		.byte	0
 1659 00d5 03       		.uleb128 0x3
 1660 00d6 08       		.uleb128 0x8
 1661 00d7 3A       		.uleb128 0x3a
 1662 00d8 0B       		.uleb128 0xb
 1663 00d9 3B       		.uleb128 0x3b
 1664 00da 05       		.uleb128 0x5
 1665 00db 49       		.uleb128 0x49
 1666 00dc 13       		.uleb128 0x13
 1667 00dd 02       		.uleb128 0x2
 1668 00de 18       		.uleb128 0x18
 1669 00df 00       		.byte	0
 1670 00e0 00       		.byte	0
 1671 00e1 0E       		.uleb128 0xe
 1672 00e2 2E       		.uleb128 0x2e
 1673 00e3 01       		.byte	0x1
 1674 00e4 3F       		.uleb128 0x3f
 1675 00e5 19       		.uleb128 0x19
 1676 00e6 03       		.uleb128 0x3
 1677 00e7 0E       		.uleb128 0xe
 1678 00e8 3A       		.uleb128 0x3a
 1679 00e9 0B       		.uleb128 0xb
 1680 00ea 3B       		.uleb128 0x3b
 1681 00eb 05       		.uleb128 0x5
 1682 00ec 27       		.uleb128 0x27
ARM GAS  C:\Users\Krist\AppData\Local\Temp\ccLoJ1ic.s 			page 42


 1683 00ed 19       		.uleb128 0x19
 1684 00ee 11       		.uleb128 0x11
 1685 00ef 01       		.uleb128 0x1
 1686 00f0 12       		.uleb128 0x12
 1687 00f1 06       		.uleb128 0x6
 1688 00f2 40       		.uleb128 0x40
 1689 00f3 18       		.uleb128 0x18
 1690 00f4 9742     		.uleb128 0x2117
 1691 00f6 19       		.uleb128 0x19
 1692 00f7 01       		.uleb128 0x1
 1693 00f8 13       		.uleb128 0x13
 1694 00f9 00       		.byte	0
 1695 00fa 00       		.byte	0
 1696 00fb 0F       		.uleb128 0xf
 1697 00fc 05       		.uleb128 0x5
 1698 00fd 00       		.byte	0
 1699 00fe 03       		.uleb128 0x3
 1700 00ff 08       		.uleb128 0x8
 1701 0100 3A       		.uleb128 0x3a
 1702 0101 0B       		.uleb128 0xb
 1703 0102 3B       		.uleb128 0x3b
 1704 0103 05       		.uleb128 0x5
 1705 0104 49       		.uleb128 0x49
 1706 0105 13       		.uleb128 0x13
 1707 0106 02       		.uleb128 0x2
 1708 0107 18       		.uleb128 0x18
 1709 0108 00       		.byte	0
 1710 0109 00       		.byte	0
 1711 010a 10       		.uleb128 0x10
 1712 010b 34       		.uleb128 0x34
 1713 010c 00       		.byte	0
 1714 010d 03       		.uleb128 0x3
 1715 010e 0E       		.uleb128 0xe
 1716 010f 3A       		.uleb128 0x3a
 1717 0110 0B       		.uleb128 0xb
 1718 0111 3B       		.uleb128 0x3b
 1719 0112 05       		.uleb128 0x5
 1720 0113 49       		.uleb128 0x49
 1721 0114 13       		.uleb128 0x13
 1722 0115 02       		.uleb128 0x2
 1723 0116 18       		.uleb128 0x18
 1724 0117 00       		.byte	0
 1725 0118 00       		.byte	0
 1726 0119 11       		.uleb128 0x11
 1727 011a 34       		.uleb128 0x34
 1728 011b 00       		.byte	0
 1729 011c 03       		.uleb128 0x3
 1730 011d 0E       		.uleb128 0xe
 1731 011e 3A       		.uleb128 0x3a
 1732 011f 0B       		.uleb128 0xb
 1733 0120 3B       		.uleb128 0x3b
 1734 0121 0B       		.uleb128 0xb
 1735 0122 49       		.uleb128 0x49
 1736 0123 13       		.uleb128 0x13
 1737 0124 3F       		.uleb128 0x3f
 1738 0125 19       		.uleb128 0x19
 1739 0126 02       		.uleb128 0x2
ARM GAS  C:\Users\Krist\AppData\Local\Temp\ccLoJ1ic.s 			page 43


 1740 0127 18       		.uleb128 0x18
 1741 0128 00       		.byte	0
 1742 0129 00       		.byte	0
 1743 012a 12       		.uleb128 0x12
 1744 012b 01       		.uleb128 0x1
 1745 012c 01       		.byte	0x1
 1746 012d 49       		.uleb128 0x49
 1747 012e 13       		.uleb128 0x13
 1748 012f 01       		.uleb128 0x1
 1749 0130 13       		.uleb128 0x13
 1750 0131 00       		.byte	0
 1751 0132 00       		.byte	0
 1752 0133 13       		.uleb128 0x13
 1753 0134 21       		.uleb128 0x21
 1754 0135 00       		.byte	0
 1755 0136 49       		.uleb128 0x49
 1756 0137 13       		.uleb128 0x13
 1757 0138 2F       		.uleb128 0x2f
 1758 0139 0B       		.uleb128 0xb
 1759 013a 00       		.byte	0
 1760 013b 00       		.byte	0
 1761 013c 14       		.uleb128 0x14
 1762 013d 26       		.uleb128 0x26
 1763 013e 00       		.byte	0
 1764 013f 49       		.uleb128 0x49
 1765 0140 13       		.uleb128 0x13
 1766 0141 00       		.byte	0
 1767 0142 00       		.byte	0
 1768 0143 15       		.uleb128 0x15
 1769 0144 34       		.uleb128 0x34
 1770 0145 00       		.byte	0
 1771 0146 03       		.uleb128 0x3
 1772 0147 0E       		.uleb128 0xe
 1773 0148 3A       		.uleb128 0x3a
 1774 0149 0B       		.uleb128 0xb
 1775 014a 3B       		.uleb128 0x3b
 1776 014b 0B       		.uleb128 0xb
 1777 014c 49       		.uleb128 0x49
 1778 014d 13       		.uleb128 0x13
 1779 014e 3F       		.uleb128 0x3f
 1780 014f 19       		.uleb128 0x19
 1781 0150 3C       		.uleb128 0x3c
 1782 0151 19       		.uleb128 0x19
 1783 0152 00       		.byte	0
 1784 0153 00       		.byte	0
 1785 0154 16       		.uleb128 0x16
 1786 0155 21       		.uleb128 0x21
 1787 0156 00       		.byte	0
 1788 0157 49       		.uleb128 0x49
 1789 0158 13       		.uleb128 0x13
 1790 0159 2F       		.uleb128 0x2f
 1791 015a 05       		.uleb128 0x5
 1792 015b 00       		.byte	0
 1793 015c 00       		.byte	0
 1794 015d 00       		.byte	0
 1795              		.section	.debug_aranges,"",%progbits
 1796 0000 7C000000 		.4byte	0x7c
ARM GAS  C:\Users\Krist\AppData\Local\Temp\ccLoJ1ic.s 			page 44


 1797 0004 0200     		.2byte	0x2
 1798 0006 00000000 		.4byte	.Ldebug_info0
 1799 000a 04       		.byte	0x4
 1800 000b 00       		.byte	0
 1801 000c 0000     		.2byte	0
 1802 000e 0000     		.2byte	0
 1803 0010 00000000 		.4byte	.LFB0
 1804 0014 08010000 		.4byte	.LFE0-.LFB0
 1805 0018 00000000 		.4byte	.LFB1
 1806 001c 48000000 		.4byte	.LFE1-.LFB1
 1807 0020 00000000 		.4byte	.LFB2
 1808 0024 24000000 		.4byte	.LFE2-.LFB2
 1809 0028 00000000 		.4byte	.LFB3
 1810 002c 48000000 		.4byte	.LFE3-.LFB3
 1811 0030 00000000 		.4byte	.LFB4
 1812 0034 40000000 		.4byte	.LFE4-.LFB4
 1813 0038 00000000 		.4byte	.LFB5
 1814 003c 40000000 		.4byte	.LFE5-.LFB5
 1815 0040 00000000 		.4byte	.LFB6
 1816 0044 40000000 		.4byte	.LFE6-.LFB6
 1817 0048 00000000 		.4byte	.LFB7
 1818 004c 3C000000 		.4byte	.LFE7-.LFB7
 1819 0050 00000000 		.4byte	.LFB8
 1820 0054 3C000000 		.4byte	.LFE8-.LFB8
 1821 0058 00000000 		.4byte	.LFB9
 1822 005c 38000000 		.4byte	.LFE9-.LFB9
 1823 0060 00000000 		.4byte	.LFB10
 1824 0064 98000000 		.4byte	.LFE10-.LFB10
 1825 0068 00000000 		.4byte	.LFB11
 1826 006c 60000000 		.4byte	.LFE11-.LFB11
 1827 0070 00000000 		.4byte	.LFB12
 1828 0074 50000000 		.4byte	.LFE12-.LFB12
 1829 0078 00000000 		.4byte	0
 1830 007c 00000000 		.4byte	0
 1831              		.section	.debug_ranges,"",%progbits
 1832              	.Ldebug_ranges0:
 1833 0000 00000000 		.4byte	.LFB0
 1834 0004 08010000 		.4byte	.LFE0
 1835 0008 00000000 		.4byte	.LFB1
 1836 000c 48000000 		.4byte	.LFE1
 1837 0010 00000000 		.4byte	.LFB2
 1838 0014 24000000 		.4byte	.LFE2
 1839 0018 00000000 		.4byte	.LFB3
 1840 001c 48000000 		.4byte	.LFE3
 1841 0020 00000000 		.4byte	.LFB4
 1842 0024 40000000 		.4byte	.LFE4
 1843 0028 00000000 		.4byte	.LFB5
 1844 002c 40000000 		.4byte	.LFE5
 1845 0030 00000000 		.4byte	.LFB6
 1846 0034 40000000 		.4byte	.LFE6
 1847 0038 00000000 		.4byte	.LFB7
 1848 003c 3C000000 		.4byte	.LFE7
 1849 0040 00000000 		.4byte	.LFB8
 1850 0044 3C000000 		.4byte	.LFE8
 1851 0048 00000000 		.4byte	.LFB9
 1852 004c 38000000 		.4byte	.LFE9
 1853 0050 00000000 		.4byte	.LFB10
ARM GAS  C:\Users\Krist\AppData\Local\Temp\ccLoJ1ic.s 			page 45


 1854 0054 98000000 		.4byte	.LFE10
 1855 0058 00000000 		.4byte	.LFB11
 1856 005c 60000000 		.4byte	.LFE11
 1857 0060 00000000 		.4byte	.LFB12
 1858 0064 50000000 		.4byte	.LFE12
 1859 0068 00000000 		.4byte	0
 1860 006c 00000000 		.4byte	0
 1861              		.section	.debug_line,"",%progbits
 1862              	.Ldebug_line0:
 1863 0000 95010000 		.section	.debug_str,"MS",%progbits,1
 1863      02005300 
 1863      00000201 
 1863      FB0E0D00 
 1863      01010101 
 1864              	.LASF18:
 1865 0000 72656731 		.ascii	"reg16\000"
 1865      3600
 1866              	.LASF48:
 1867 0006 433A5C55 		.ascii	"C:\\Users\\Krist\\OneDrive\\Dokumenter\\GitHub\\pla"
 1867      73657273 
 1867      5C4B7269 
 1867      73745C4F 
 1867      6E654472 
 1868 0033 746F6F6E 		.ascii	"tooning\\PSoC\\Platooning\\AngleMeasurement.cydsn\000"
 1868      696E675C 
 1868      50536F43 
 1868      5C506C61 
 1868      746F6F6E 
 1869              	.LASF19:
 1870 0062 72656733 		.ascii	"reg32\000"
 1870      3200
 1871              	.LASF26:
 1872 0068 6368616E 		.ascii	"channel\000"
 1872      6E656C00 
 1873              	.LASF46:
 1874 0070 474E5520 		.ascii	"GNU C11 5.4.1 20160609 (release) [ARM/embedded-5-br"
 1874      43313120 
 1874      352E342E 
 1874      31203230 
 1874      31363036 
 1875 00a3 616E6368 		.ascii	"anch revision 237715] -mcpu=cortex-m3 -mthumb -g -O"
 1875      20726576 
 1875      6973696F 
 1875      6E203233 
 1875      37373135 
 1876 00d6 30202D66 		.ascii	"0 -ffunction-sections -ffat-lto-objects\000"
 1876      66756E63 
 1876      74696F6E 
 1876      2D736563 
 1876      74696F6E 
 1877              	.LASF40:
 1878 00fe 46696C74 		.ascii	"Filter_initVar\000"
 1878      65725F69 
 1878      6E697456 
 1878      617200
 1879              	.LASF39:
 1880 010d 73746174 		.ascii	"state\000"
ARM GAS  C:\Users\Krist\AppData\Local\Temp\ccLoJ1ic.s 			page 46


 1880      6500
 1881              	.LASF41:
 1882 0113 46696C74 		.ascii	"Filter_control\000"
 1882      65725F63 
 1882      6F6E7472 
 1882      6F6C00
 1883              	.LASF7:
 1884 0122 6C6F6E67 		.ascii	"long int\000"
 1884      20696E74 
 1884      00
 1885              	.LASF21:
 1886 012b 46696C74 		.ascii	"Filter_Enable\000"
 1886      65725F45 
 1886      6E61626C 
 1886      6500
 1887              	.LASF31:
 1888 0139 46696C74 		.ascii	"Filter_Write16\000"
 1888      65725F57 
 1888      72697465 
 1888      313600
 1889              	.LASF25:
 1890 0148 46696C74 		.ascii	"Filter_Read16\000"
 1890      65725F52 
 1890      65616431 
 1890      3600
 1891              	.LASF15:
 1892 0156 666C6F61 		.ascii	"float\000"
 1892      7400
 1893              	.LASF4:
 1894 015c 756E7369 		.ascii	"unsigned char\000"
 1894      676E6564 
 1894      20636861 
 1894      7200
 1895              	.LASF23:
 1896 016a 46696C74 		.ascii	"Filter_Stop\000"
 1896      65725F53 
 1896      746F7000 
 1897              	.LASF17:
 1898 0176 72656738 		.ascii	"reg8\000"
 1898      00
 1899              	.LASF22:
 1900 017b 46696C74 		.ascii	"Filter_Start\000"
 1900      65725F53 
 1900      74617274 
 1900      00
 1901              	.LASF8:
 1902 0188 6C6F6E67 		.ascii	"long unsigned int\000"
 1902      20756E73 
 1902      69676E65 
 1902      6420696E 
 1902      7400
 1903              	.LASF36:
 1904 019a 72656753 		.ascii	"regSelect\000"
 1904      656C6563 
 1904      7400
 1905              	.LASF12:
 1906 01a4 75696E74 		.ascii	"uint8\000"
ARM GAS  C:\Users\Krist\AppData\Local\Temp\ccLoJ1ic.s 			page 47


 1906      3800
 1907              	.LASF43:
 1908 01aa 46696C74 		.ascii	"Filter_data_b\000"
 1908      65725F64 
 1908      6174615F 
 1908      6200
 1909              	.LASF33:
 1910 01b8 46696C74 		.ascii	"Filter_SetCoherency\000"
 1910      65725F53 
 1910      6574436F 
 1910      68657265 
 1910      6E637900 
 1911              	.LASF27:
 1912 01cc 76616C75 		.ascii	"value\000"
 1912      6500
 1913              	.LASF16:
 1914 01d2 646F7562 		.ascii	"double\000"
 1914      6C6500
 1915              	.LASF2:
 1916 01d9 6C6F6E67 		.ascii	"long double\000"
 1916      20646F75 
 1916      626C6500 
 1917              	.LASF42:
 1918 01e5 46696C74 		.ascii	"Filter_data_a\000"
 1918      65725F64 
 1918      6174615F 
 1918      6100
 1919              	.LASF13:
 1920 01f3 75696E74 		.ascii	"uint16\000"
 1920      313600
 1921              	.LASF14:
 1922 01fa 75696E74 		.ascii	"uint32\000"
 1922      333200
 1923              	.LASF0:
 1924 0201 756E7369 		.ascii	"unsigned int\000"
 1924      676E6564 
 1924      20696E74 
 1924      00
 1925              	.LASF9:
 1926 020e 6C6F6E67 		.ascii	"long long unsigned int\000"
 1926      206C6F6E 
 1926      6720756E 
 1926      7369676E 
 1926      65642069 
 1927              	.LASF24:
 1928 0225 46696C74 		.ascii	"Filter_Read8\000"
 1928      65725F52 
 1928      65616438 
 1928      00
 1929              	.LASF47:
 1930 0232 47656E65 		.ascii	"Generated_Source\\PSoC5\\Filter.c\000"
 1930      72617465 
 1930      645F536F 
 1930      75726365 
 1930      5C50536F 
 1931              	.LASF30:
 1932 0252 46696C74 		.ascii	"Filter_Write8\000"
ARM GAS  C:\Users\Krist\AppData\Local\Temp\ccLoJ1ic.s 			page 48


 1932      65725F57 
 1932      72697465 
 1932      3800
 1933              	.LASF34:
 1934 0260 62797465 		.ascii	"byteSelect\000"
 1934      53656C65 
 1934      637400
 1935              	.LASF32:
 1936 026b 46696C74 		.ascii	"Filter_Write24\000"
 1936      65725F57 
 1936      72697465 
 1936      323400
 1937              	.LASF10:
 1938 027a 73697A65 		.ascii	"sizetype\000"
 1938      74797065 
 1938      00
 1939              	.LASF1:
 1940 0283 6C6F6E67 		.ascii	"long long int\000"
 1940      206C6F6E 
 1940      6720696E 
 1940      7400
 1941              	.LASF11:
 1942 0291 63686172 		.ascii	"char\000"
 1942      00
 1943              	.LASF37:
 1944 0296 6B657952 		.ascii	"keyReg\000"
 1944      656700
 1945              	.LASF28:
 1946 029d 46696C74 		.ascii	"Filter_Read24\000"
 1946      65725F52 
 1946      65616432 
 1946      3400
 1947              	.LASF5:
 1948 02ab 73686F72 		.ascii	"short int\000"
 1948      7420696E 
 1948      7400
 1949              	.LASF35:
 1950 02b5 46696C74 		.ascii	"Filter_SetCoherencyEx\000"
 1950      65725F53 
 1950      6574436F 
 1950      68657265 
 1950      6E637945 
 1951              	.LASF29:
 1952 02cb 73616D70 		.ascii	"sample\000"
 1952      6C6500
 1953              	.LASF45:
 1954 02d2 46696C74 		.ascii	"Filter_acu\000"
 1954      65725F61 
 1954      637500
 1955              	.LASF38:
 1956 02dd 46696C74 		.ascii	"Filter_SetDalign\000"
 1956      65725F53 
 1956      65744461 
 1956      6C69676E 
 1956      00
 1957              	.LASF3:
 1958 02ee 7369676E 		.ascii	"signed char\000"
ARM GAS  C:\Users\Krist\AppData\Local\Temp\ccLoJ1ic.s 			page 49


 1958      65642063 
 1958      68617200 
 1959              	.LASF6:
 1960 02fa 73686F72 		.ascii	"short unsigned int\000"
 1960      7420756E 
 1960      7369676E 
 1960      65642069 
 1960      6E7400
 1961              	.LASF44:
 1962 030d 46696C74 		.ascii	"Filter_cfsm\000"
 1962      65725F63 
 1962      66736D00 
 1963              	.LASF20:
 1964 0319 46696C74 		.ascii	"Filter_Init\000"
 1964      65725F49 
 1964      6E697400 
 1965              		.ident	"GCC: (GNU Tools for ARM Embedded Processors) 5.4.1 20160609 (release) [ARM/embedded-5-bran
