ARM GAS  C:\Users\ALEXAN~1\AppData\Local\Temp\ccCHRx39.s 			page 1


   1              		.syntax unified
   2              		.cpu cortex-m3
   3              		.fpu softvfp
   4              		.eabi_attribute 20, 1
   5              		.eabi_attribute 21, 1
   6              		.eabi_attribute 23, 3
   7              		.eabi_attribute 24, 1
   8              		.eabi_attribute 25, 1
   9              		.eabi_attribute 26, 1
  10              		.eabi_attribute 30, 6
  11              		.eabi_attribute 34, 1
  12              		.eabi_attribute 18, 4
  13              		.thumb
  14              		.syntax unified
  15              		.file	"main.c"
  16              		.text
  17              	.Ltext0:
  18              		.cfi_sections	.debug_frame
  19              		.comm	DMA_A_Chan,1,1
  20              		.comm	DMA_A_TD,1,4
  21              		.comm	DMA_B_Chan,1,1
  22              		.comm	DMA_B_TD,1,4
  23              		.comm	DMA_A_Filter_Chan,1,1
  24              		.comm	DMA_A_Filter_TD,1,4
  25              		.comm	DMA_B_Filter_Chan,1,1
  26              		.comm	DMA_B_Filter_TD,1,4
  27              		.section	.text.motor_init,"ax",%progbits
  28              		.align	2
  29              		.global	motor_init
  30              		.thumb
  31              		.thumb_func
  32              		.type	motor_init, %function
  33              	motor_init:
  34              	.LFB64:
  35              		.file 1 "motor.h"
   1:motor.h       **** #pragma once
   2:motor.h       **** 
   3:motor.h       **** #include "project.h"
   4:motor.h       **** #include <stdint.h>
   5:motor.h       **** #include <stdio.h>
   6:motor.h       **** 
   7:motor.h       **** typedef struct {
   8:motor.h       ****     uint16_t reference_dist; // platoon follower reference distance
   9:motor.h       ****     float Kp; // P-controller constant
  10:motor.h       **** } motor_t;
  11:motor.h       **** 
  12:motor.h       **** motor_t motor_init(uint16_t reference_dist, float Kp) {
  36              		.loc 1 12 0
  37              		.cfi_startproc
  38              		@ args = 0, pretend = 0, frame = 16
  39              		@ frame_needed = 1, uses_anonymous_args = 0
  40              		@ link register save eliminated.
  41 0000 80B4     		push	{r7}
  42              		.cfi_def_cfa_offset 4
  43              		.cfi_offset 7, -4
  44 0002 85B0     		sub	sp, sp, #20
  45              		.cfi_def_cfa_offset 24
ARM GAS  C:\Users\ALEXAN~1\AppData\Local\Temp\ccCHRx39.s 			page 2


  46 0004 00AF     		add	r7, sp, #0
  47              		.cfi_def_cfa_register 7
  48 0006 F860     		str	r0, [r7, #12]
  49 0008 0B46     		mov	r3, r1
  50 000a 7A60     		str	r2, [r7, #4]	@ float
  51 000c 7B81     		strh	r3, [r7, #10]	@ movhi
  13:motor.h       ****  return (motor_t) {reference_dist, Kp};   
  52              		.loc 1 13 0
  53 000e FB68     		ldr	r3, [r7, #12]
  54 0010 7A89     		ldrh	r2, [r7, #10]	@ movhi
  55 0012 1A80     		strh	r2, [r3]	@ movhi
  56 0014 FB68     		ldr	r3, [r7, #12]
  57 0016 7A68     		ldr	r2, [r7, #4]	@ float
  58 0018 5A60     		str	r2, [r3, #4]	@ float
  14:motor.h       **** }
  59              		.loc 1 14 0
  60 001a F868     		ldr	r0, [r7, #12]
  61 001c 1437     		adds	r7, r7, #20
  62              		.cfi_def_cfa_offset 4
  63 001e BD46     		mov	sp, r7
  64              		.cfi_def_cfa_register 13
  65              		@ sp needed
  66 0020 80BC     		pop	{r7}
  67              		.cfi_restore 7
  68              		.cfi_def_cfa_offset 0
  69 0022 7047     		bx	lr
  70              		.cfi_endproc
  71              	.LFE64:
  72              		.size	motor_init, .-motor_init
  73              		.global	__aeabi_i2f
  74              		.global	__aeabi_fmul
  75              		.global	__aeabi_fadd
  76              		.global	__aeabi_f2iz
  77              		.section	.rodata
  78              		.align	2
  79              	.LC0:
  80 0000 64757479 		.ascii	"duty: %d\000"
  80      3A202564 
  80      00
  81              		.section	.text.motor_update,"ax",%progbits
  82              		.align	2
  83              		.global	motor_update
  84              		.thumb
  85              		.thumb_func
  86              		.type	motor_update, %function
  87              	motor_update:
  88              	.LFB65:
  15:motor.h       **** 
  16:motor.h       **** void motor_update(motor_t *m, uint16_t real_dist, int16_t velocity) {
  89              		.loc 1 16 0
  90              		.cfi_startproc
  91              		@ args = 0, pretend = 0, frame = 216
  92              		@ frame_needed = 1, uses_anonymous_args = 0
  93 0000 90B5     		push	{r4, r7, lr}
  94              		.cfi_def_cfa_offset 12
  95              		.cfi_offset 4, -12
  96              		.cfi_offset 7, -8
ARM GAS  C:\Users\ALEXAN~1\AppData\Local\Temp\ccCHRx39.s 			page 3


  97              		.cfi_offset 14, -4
  98 0002 B7B0     		sub	sp, sp, #220
  99              		.cfi_def_cfa_offset 232
 100 0004 00AF     		add	r7, sp, #0
 101              		.cfi_def_cfa_register 7
 102 0006 7860     		str	r0, [r7, #4]
 103 0008 0B46     		mov	r3, r1
 104 000a 7B80     		strh	r3, [r7, #2]	@ movhi
 105 000c 1346     		mov	r3, r2	@ movhi
 106 000e 3B80     		strh	r3, [r7]	@ movhi
  17:motor.h       ****     int16_t err_dist = m->reference_dist - real_dist;
 107              		.loc 1 17 0
 108 0010 7B68     		ldr	r3, [r7, #4]
 109 0012 1A88     		ldrh	r2, [r3]
 110 0014 7B88     		ldrh	r3, [r7, #2]	@ movhi
 111 0016 D31A     		subs	r3, r2, r3
 112 0018 9BB2     		uxth	r3, r3
 113 001a A7F8D230 		strh	r3, [r7, #210]	@ movhi
  18:motor.h       ****     int32_t duty_cycle = m->Kp * err_dist + velocity;
 114              		.loc 1 18 0
 115 001e 7B68     		ldr	r3, [r7, #4]
 116 0020 5C68     		ldr	r4, [r3, #4]	@ float
 117 0022 B7F9D230 		ldrsh	r3, [r7, #210]
 118 0026 1846     		mov	r0, r3
 119 0028 FFF7FEFF 		bl	__aeabi_i2f
 120 002c 0346     		mov	r3, r0
 121 002e 1946     		mov	r1, r3
 122 0030 2046     		mov	r0, r4
 123 0032 FFF7FEFF 		bl	__aeabi_fmul
 124 0036 0346     		mov	r3, r0
 125 0038 1C46     		mov	r4, r3
 126 003a B7F90030 		ldrsh	r3, [r7]
 127 003e 1846     		mov	r0, r3
 128 0040 FFF7FEFF 		bl	__aeabi_i2f
 129 0044 0346     		mov	r3, r0
 130 0046 1946     		mov	r1, r3
 131 0048 2046     		mov	r0, r4
 132 004a FFF7FEFF 		bl	__aeabi_fadd
 133 004e 0346     		mov	r3, r0
 134 0050 1846     		mov	r0, r3
 135 0052 FFF7FEFF 		bl	__aeabi_f2iz
 136 0056 0346     		mov	r3, r0
 137 0058 C7F8D430 		str	r3, [r7, #212]
  19:motor.h       ****             
  20:motor.h       ****     // if duty_cycle ends up being negative, it needs to be capped at 0
  21:motor.h       ****     if (duty_cycle < -150)
 138              		.loc 1 21 0
 139 005c D7F8D430 		ldr	r3, [r7, #212]
 140 0060 13F1960F 		cmn	r3, #150
 141 0064 04DA     		bge	.L4
  22:motor.h       ****     {
  23:motor.h       ****         duty_cycle = -150;
 142              		.loc 1 23 0
 143 0066 6FF09503 		mvn	r3, #149
 144 006a C7F8D430 		str	r3, [r7, #212]
 145 006e 06E0     		b	.L5
 146              	.L4:
ARM GAS  C:\Users\ALEXAN~1\AppData\Local\Temp\ccCHRx39.s 			page 4


  24:motor.h       ****     }else if(duty_cycle > 150){
 147              		.loc 1 24 0
 148 0070 D7F8D430 		ldr	r3, [r7, #212]
 149 0074 962B     		cmp	r3, #150
 150 0076 02DD     		ble	.L5
  25:motor.h       ****         duty_cycle = 150;
 151              		.loc 1 25 0
 152 0078 9623     		movs	r3, #150
 153 007a C7F8D430 		str	r3, [r7, #212]
 154              	.L5:
  26:motor.h       ****     }
  27:motor.h       ****         //drive forward    
  28:motor.h       ****     if(duty_cycle >0)
 155              		.loc 1 28 0
 156 007e D7F8D430 		ldr	r3, [r7, #212]
 157 0082 002B     		cmp	r3, #0
 158 0084 0FDD     		ble	.L6
  29:motor.h       ****     {
  30:motor.h       ****         P1_Write(1);
 159              		.loc 1 30 0
 160 0086 0120     		movs	r0, #1
 161 0088 FFF7FEFF 		bl	P1_Write
  31:motor.h       ****         P2_Write(0);
 162              		.loc 1 31 0
 163 008c 0020     		movs	r0, #0
 164 008e FFF7FEFF 		bl	P2_Write
  32:motor.h       ****         PWM_H_BRIDGE_WriteCompare1(duty_cycle);
 165              		.loc 1 32 0
 166 0092 D7F8D430 		ldr	r3, [r7, #212]
 167 0096 DBB2     		uxtb	r3, r3
 168 0098 1846     		mov	r0, r3
 169 009a FFF7FEFF 		bl	PWM_H_BRIDGE_WriteCompare1
  33:motor.h       ****         PWM_H_BRIDGE_WriteCompare2(0);
 170              		.loc 1 33 0
 171 009e 0020     		movs	r0, #0
 172 00a0 FFF7FEFF 		bl	PWM_H_BRIDGE_WriteCompare2
 173 00a4 14E0     		b	.L7
 174              	.L6:
  34:motor.h       ****     }
  35:motor.h       ****     else if(duty_cycle<0)
 175              		.loc 1 35 0
 176 00a6 D7F8D430 		ldr	r3, [r7, #212]
 177 00aa 002B     		cmp	r3, #0
 178 00ac 10DA     		bge	.L7
  36:motor.h       ****     {
  37:motor.h       ****         P1_Write(0);
 179              		.loc 1 37 0
 180 00ae 0020     		movs	r0, #0
 181 00b0 FFF7FEFF 		bl	P1_Write
  38:motor.h       ****         P2_Write(0);
 182              		.loc 1 38 0
 183 00b4 0020     		movs	r0, #0
 184 00b6 FFF7FEFF 		bl	P2_Write
  39:motor.h       ****         PWM_H_BRIDGE_WriteCompare1(duty_cycle*-1);
 185              		.loc 1 39 0
 186 00ba D7F8D430 		ldr	r3, [r7, #212]
 187 00be DBB2     		uxtb	r3, r3
ARM GAS  C:\Users\ALEXAN~1\AppData\Local\Temp\ccCHRx39.s 			page 5


 188 00c0 5B42     		negs	r3, r3
 189 00c2 DBB2     		uxtb	r3, r3
 190 00c4 1846     		mov	r0, r3
 191 00c6 FFF7FEFF 		bl	PWM_H_BRIDGE_WriteCompare1
  40:motor.h       ****         PWM_H_BRIDGE_WriteCompare2(255);
 192              		.loc 1 40 0
 193 00ca FF20     		movs	r0, #255
 194 00cc FFF7FEFF 		bl	PWM_H_BRIDGE_WriteCompare2
 195              	.L7:
  41:motor.h       ****     }    
  42:motor.h       ****     
  43:motor.h       ****   char out[200];
  44:motor.h       **** sprintf(out,"duty: %d",duty_cycle);
 196              		.loc 1 44 0
 197 00d0 07F10803 		add	r3, r7, #8
 198 00d4 D7F8D420 		ldr	r2, [r7, #212]
 199 00d8 0649     		ldr	r1, .L8
 200 00da 1846     		mov	r0, r3
 201 00dc FFF7FEFF 		bl	sprintf
  45:motor.h       **** UART_PutString(out);
 202              		.loc 1 45 0
 203 00e0 07F10803 		add	r3, r7, #8
 204 00e4 1846     		mov	r0, r3
 205 00e6 FFF7FEFF 		bl	UART_PutString
  46:motor.h       **** }...
 206              		.loc 1 46 0
 207 00ea 00BF     		nop
 208 00ec DC37     		adds	r7, r7, #220
 209              		.cfi_def_cfa_offset 12
 210 00ee BD46     		mov	sp, r7
 211              		.cfi_def_cfa_register 13
 212              		@ sp needed
 213 00f0 90BD     		pop	{r4, r7, pc}
 214              	.L9:
 215 00f2 00BF     		.align	2
 216              	.L8:
 217 00f4 00000000 		.word	.LC0
 218              		.cfi_endproc
 219              	.LFE65:
 220              		.size	motor_update, .-motor_update
 221              		.section	.rodata
 222 0009 00       		.align	1
 223              		.type	t_right, %object
 224              		.size	t_right, 2
 225              	t_right:
 226 000a 0B04     		.short	1035
 227              		.align	1
 228              		.type	t_left, %object
 229              		.size	t_left, 2
 230              	t_left:
 231 000c 9E06     		.short	1694
 232              		.align	1
 233              		.type	t_center, %object
 234              		.size	t_center, 2
 235              	t_center:
 236 000e 5405     		.short	1364
 237              		.align	1
ARM GAS  C:\Users\ALEXAN~1\AppData\Local\Temp\ccCHRx39.s 			page 6


 238              		.type	theta_total, %object
 239              		.size	theta_total, 2
 240              	theta_total:
 241 0010 3C00     		.short	60
 242 0012 0000     		.align	2
 243              		.type	turn_factor, %object
 244              		.size	turn_factor, 4
 245              	turn_factor:
 246 0014 000030C1 		.word	-1053818880
 247              		.type	offset, %object
 248              		.size	offset, 1
 249              	offset:
 250 0018 D8       		.byte	-40
 251              		.section	.text.servo_init,"ax",%progbits
 252              		.align	2
 253              		.global	servo_init
 254              		.thumb
 255              		.thumb_func
 256              		.type	servo_init, %function
 257              	servo_init:
 258              	.LFB66:
 259              		.file 2 "servo.h"
   1:servo.h       **** #pragma once
   2:servo.h       **** 
   3:servo.h       **** #include "project.h"
   4:servo.h       **** #include <stdint.h>
   5:servo.h       **** 
   6:servo.h       **** static const uint16_t t_right = 1035;
   7:servo.h       **** static const uint16_t t_left = 1694;
   8:servo.h       **** static const uint16_t t_center =  1364;
   9:servo.h       **** static const uint16_t theta_total = 60; // (uint16_t)(t_right + t_left)/2
  10:servo.h       **** static const float turn_factor = -11; // approx (t_right - t_left)/theta_total;
  11:servo.h       **** static const int8_t offset = -40;
  12:servo.h       **** 
  13:servo.h       **** typedef struct {
  14:servo.h       ****     float reference_angle; // reference angle between platoon leader and follower
  15:servo.h       ****     float Kp; // P-controller constant
  16:servo.h       ****     float previous_angles[3]; // [a1, a2, a3], where a1 is the newest angle and a3 is the oldest an
  17:servo.h       ****     int8_t leader_angles[3]; // the longer the array, the longer the delay before using the value
  18:servo.h       **** } servo_t;
  19:servo.h       **** 
  20:servo.h       **** servo_t servo_init(float reference_angle, float Kp) {
 260              		.loc 2 20 0
 261              		.cfi_startproc
 262              		@ args = 0, pretend = 0, frame = 16
 263              		@ frame_needed = 1, uses_anonymous_args = 0
 264              		@ link register save eliminated.
 265 0000 80B4     		push	{r7}
 266              		.cfi_def_cfa_offset 4
 267              		.cfi_offset 7, -4
 268 0002 85B0     		sub	sp, sp, #20
 269              		.cfi_def_cfa_offset 24
 270 0004 00AF     		add	r7, sp, #0
 271              		.cfi_def_cfa_register 7
 272 0006 F860     		str	r0, [r7, #12]
 273 0008 B960     		str	r1, [r7, #8]	@ float
 274 000a 7A60     		str	r2, [r7, #4]	@ float
ARM GAS  C:\Users\ALEXAN~1\AppData\Local\Temp\ccCHRx39.s 			page 7


  21:servo.h       ****     return (servo_t){reference_angle, Kp, {0}, {0}};
 275              		.loc 2 21 0
 276 000c FB68     		ldr	r3, [r7, #12]
 277 000e 1A46     		mov	r2, r3
 278 0010 0023     		movs	r3, #0
 279 0012 1360     		str	r3, [r2]
 280 0014 5360     		str	r3, [r2, #4]
 281 0016 9360     		str	r3, [r2, #8]
 282 0018 D360     		str	r3, [r2, #12]
 283 001a 1361     		str	r3, [r2, #16]
 284 001c 5361     		str	r3, [r2, #20]
 285 001e FB68     		ldr	r3, [r7, #12]
 286 0020 BA68     		ldr	r2, [r7, #8]	@ float
 287 0022 1A60     		str	r2, [r3]	@ float
 288 0024 FB68     		ldr	r3, [r7, #12]
 289 0026 7A68     		ldr	r2, [r7, #4]	@ float
 290 0028 5A60     		str	r2, [r3, #4]	@ float
  22:servo.h       **** }
 291              		.loc 2 22 0
 292 002a F868     		ldr	r0, [r7, #12]
 293 002c 1437     		adds	r7, r7, #20
 294              		.cfi_def_cfa_offset 4
 295 002e BD46     		mov	sp, r7
 296              		.cfi_def_cfa_register 13
 297              		@ sp needed
 298 0030 80BC     		pop	{r7}
 299              		.cfi_restore 7
 300              		.cfi_def_cfa_offset 0
 301 0032 7047     		bx	lr
 302              		.cfi_endproc
 303              	.LFE66:
 304              		.size	servo_init, .-servo_init
 305              		.global	__aeabi_fcmplt
 306              		.global	__aeabi_fcmpgt
 307              		.global	__aeabi_f2d
 308              		.global	__aeabi_i2d
 309              		.global	__aeabi_dmul
 310              		.global	__aeabi_ddiv
 311              		.global	__aeabi_dcmplt
 312              		.global	__aeabi_d2f
 313              		.global	__aeabi_dsub
 314              		.section	.text.servo_update,"ax",%progbits
 315              		.align	2
 316              		.global	servo_update
 317              		.thumb
 318              		.thumb_func
 319              		.type	servo_update, %function
 320              	servo_update:
 321              	.LFB67:
  23:servo.h       **** 
  24:servo.h       **** /*
  25:servo.h       ****  * servo_t *s: pointer to the object itself
  26:servo.h       ****  * angle: current angle
  27:servo.h       ****  * leader_angle: platoon leader's angle
  28:servo.h       ****  * velocity: current pwm for the velocity
  29:servo.h       ****  */
  30:servo.h       **** void servo_update(servo_t *s, float angle, int leader_angle, int16_t velocity) {    
ARM GAS  C:\Users\ALEXAN~1\AppData\Local\Temp\ccCHRx39.s 			page 8


 322              		.loc 2 30 0
 323              		.cfi_startproc
 324              		@ args = 0, pretend = 0, frame = 32
 325              		@ frame_needed = 1, uses_anonymous_args = 0
 326 0000 F0B5     		push	{r4, r5, r6, r7, lr}
 327              		.cfi_def_cfa_offset 20
 328              		.cfi_offset 4, -20
 329              		.cfi_offset 5, -16
 330              		.cfi_offset 6, -12
 331              		.cfi_offset 7, -8
 332              		.cfi_offset 14, -4
 333 0002 89B0     		sub	sp, sp, #36
 334              		.cfi_def_cfa_offset 56
 335 0004 00AF     		add	r7, sp, #0
 336              		.cfi_def_cfa_register 7
 337 0006 F860     		str	r0, [r7, #12]
 338 0008 B960     		str	r1, [r7, #8]	@ float
 339 000a 7A60     		str	r2, [r7, #4]
 340 000c 7B80     		strh	r3, [r7, #2]	@ movhi
  31:servo.h       ****     float weighted_Kp = s->Kp;
 341              		.loc 2 31 0
 342 000e FB68     		ldr	r3, [r7, #12]
 343 0010 5B68     		ldr	r3, [r3, #4]	@ float
 344 0012 FB61     		str	r3, [r7, #28]	@ float
  32:servo.h       ****     
  33:servo.h       ****     s->leader_angles[2] = s->leader_angles[1];
 345              		.loc 2 33 0
 346 0014 FB68     		ldr	r3, [r7, #12]
 347 0016 93F91520 		ldrsb	r2, [r3, #21]
 348 001a FB68     		ldr	r3, [r7, #12]
 349 001c 9A75     		strb	r2, [r3, #22]
  34:servo.h       ****     s->leader_angles[1] = s->leader_angles[0];
 350              		.loc 2 34 0
 351 001e FB68     		ldr	r3, [r7, #12]
 352 0020 93F91420 		ldrsb	r2, [r3, #20]
 353 0024 FB68     		ldr	r3, [r7, #12]
 354 0026 5A75     		strb	r2, [r3, #21]
  35:servo.h       ****     s->leader_angles[0] = leader_angle;
 355              		.loc 2 35 0
 356 0028 7B68     		ldr	r3, [r7, #4]
 357 002a 5AB2     		sxtb	r2, r3
 358 002c FB68     		ldr	r3, [r7, #12]
 359 002e 1A75     		strb	r2, [r3, #20]
  36:servo.h       ****     
  37:servo.h       ****     if (angle < 60 || angle > -60) {
 360              		.loc 2 37 0
 361 0030 7F49     		ldr	r1, .L25+16
 362 0032 B868     		ldr	r0, [r7, #8]	@ float
 363 0034 FFF7FEFF 		bl	__aeabi_fcmplt
 364 0038 0346     		mov	r3, r0
 365 003a 002B     		cmp	r3, #0
 366 003c 06D1     		bne	.L13
 367              		.loc 2 37 0 is_stmt 0 discriminator 1
 368 003e 7D49     		ldr	r1, .L25+20
 369 0040 B868     		ldr	r0, [r7, #8]	@ float
 370 0042 FFF7FEFF 		bl	__aeabi_fcmpgt
 371 0046 0346     		mov	r3, r0
ARM GAS  C:\Users\ALEXAN~1\AppData\Local\Temp\ccCHRx39.s 			page 9


 372 0048 002B     		cmp	r3, #0
 373 004a 0AD0     		beq	.L14
 374              	.L13:
  38:servo.h       ****        s->previous_angles[2] = s->previous_angles[1];
 375              		.loc 2 38 0 is_stmt 1
 376 004c FB68     		ldr	r3, [r7, #12]
 377 004e DA68     		ldr	r2, [r3, #12]	@ float
 378 0050 FB68     		ldr	r3, [r7, #12]
 379 0052 1A61     		str	r2, [r3, #16]	@ float
  39:servo.h       ****        s->previous_angles[1] = s->previous_angles[0];
 380              		.loc 2 39 0
 381 0054 FB68     		ldr	r3, [r7, #12]
 382 0056 9A68     		ldr	r2, [r3, #8]	@ float
 383 0058 FB68     		ldr	r3, [r7, #12]
 384 005a DA60     		str	r2, [r3, #12]	@ float
  40:servo.h       ****        s->previous_angles[0] = angle;
 385              		.loc 2 40 0
 386 005c FB68     		ldr	r3, [r7, #12]
 387 005e BA68     		ldr	r2, [r7, #8]	@ float
 388 0060 9A60     		str	r2, [r3, #8]	@ float
 389              	.L14:
  41:servo.h       ****     }
  42:servo.h       ****     
  43:servo.h       ****     if (velocity > 0) {
 390              		.loc 2 43 0
 391 0062 B7F90230 		ldrsh	r3, [r7, #2]
 392 0066 002B     		cmp	r3, #0
 393 0068 65DD     		ble	.L16
  44:servo.h       ****         if (!(s->Kp/(velocity*0.031*0.58) < s->Kp)) {
 394              		.loc 2 44 0
 395 006a FB68     		ldr	r3, [r7, #12]
 396 006c 5B68     		ldr	r3, [r3, #4]	@ float
 397 006e 1846     		mov	r0, r3
 398 0070 FFF7FEFF 		bl	__aeabi_f2d
 399 0074 0446     		mov	r4, r0
 400 0076 0D46     		mov	r5, r1
 401 0078 B7F90230 		ldrsh	r3, [r7, #2]
 402 007c 1846     		mov	r0, r3
 403 007e FFF7FEFF 		bl	__aeabi_i2d
 404 0082 67A3     		adr	r3, .L25
 405 0084 D3E90023 		ldrd	r2, [r3]
 406 0088 FFF7FEFF 		bl	__aeabi_dmul
 407 008c 0246     		mov	r2, r0
 408 008e 0B46     		mov	r3, r1
 409 0090 1046     		mov	r0, r2
 410 0092 1946     		mov	r1, r3
 411 0094 64A3     		adr	r3, .L25+8
 412 0096 D3E90023 		ldrd	r2, [r3]
 413 009a FFF7FEFF 		bl	__aeabi_dmul
 414 009e 0246     		mov	r2, r0
 415 00a0 0B46     		mov	r3, r1
 416 00a2 2046     		mov	r0, r4
 417 00a4 2946     		mov	r1, r5
 418 00a6 FFF7FEFF 		bl	__aeabi_ddiv
 419 00aa 0346     		mov	r3, r0
 420 00ac 0C46     		mov	r4, r1
 421 00ae 2546     		mov	r5, r4
ARM GAS  C:\Users\ALEXAN~1\AppData\Local\Temp\ccCHRx39.s 			page 10


 422 00b0 1C46     		mov	r4, r3
 423 00b2 FB68     		ldr	r3, [r7, #12]
 424 00b4 5B68     		ldr	r3, [r3, #4]	@ float
 425 00b6 1846     		mov	r0, r3
 426 00b8 FFF7FEFF 		bl	__aeabi_f2d
 427 00bc 0A46     		mov	r2, r1
 428 00be 0146     		mov	r1, r0
 429 00c0 0123     		movs	r3, #1
 430 00c2 1E46     		mov	r6, r3
 431 00c4 1346     		mov	r3, r2
 432 00c6 0A46     		mov	r2, r1
 433 00c8 2046     		mov	r0, r4
 434 00ca 2946     		mov	r1, r5
 435 00cc FFF7FEFF 		bl	__aeabi_dcmplt
 436 00d0 0346     		mov	r3, r0
 437 00d2 002B     		cmp	r3, #0
 438 00d4 01D1     		bne	.L17
 439 00d6 0023     		movs	r3, #0
 440 00d8 1E46     		mov	r6, r3
 441              	.L17:
 442 00da F3B2     		uxtb	r3, r6
 443 00dc 83F00103 		eor	r3, r3, #1
 444 00e0 DBB2     		uxtb	r3, r3
 445 00e2 002B     		cmp	r3, #0
 446 00e4 27D0     		beq	.L16
  45:servo.h       ****             weighted_Kp = s->Kp/(velocity*0.031*0.58);
 447              		.loc 2 45 0
 448 00e6 FB68     		ldr	r3, [r7, #12]
 449 00e8 5B68     		ldr	r3, [r3, #4]	@ float
 450 00ea 1846     		mov	r0, r3
 451 00ec FFF7FEFF 		bl	__aeabi_f2d
 452 00f0 0446     		mov	r4, r0
 453 00f2 0D46     		mov	r5, r1
 454 00f4 B7F90230 		ldrsh	r3, [r7, #2]
 455 00f8 1846     		mov	r0, r3
 456 00fa FFF7FEFF 		bl	__aeabi_i2d
 457 00fe 48A3     		adr	r3, .L25
 458 0100 D3E90023 		ldrd	r2, [r3]
 459 0104 FFF7FEFF 		bl	__aeabi_dmul
 460 0108 0246     		mov	r2, r0
 461 010a 0B46     		mov	r3, r1
 462 010c 1046     		mov	r0, r2
 463 010e 1946     		mov	r1, r3
 464 0110 45A3     		adr	r3, .L25+8
 465 0112 D3E90023 		ldrd	r2, [r3]
 466 0116 FFF7FEFF 		bl	__aeabi_dmul
 467 011a 0246     		mov	r2, r0
 468 011c 0B46     		mov	r3, r1
 469 011e 2046     		mov	r0, r4
 470 0120 2946     		mov	r1, r5
 471 0122 FFF7FEFF 		bl	__aeabi_ddiv
 472 0126 0346     		mov	r3, r0
 473 0128 0C46     		mov	r4, r1
 474 012a 1846     		mov	r0, r3
 475 012c 2146     		mov	r1, r4
 476 012e FFF7FEFF 		bl	__aeabi_d2f
 477 0132 0346     		mov	r3, r0
ARM GAS  C:\Users\ALEXAN~1\AppData\Local\Temp\ccCHRx39.s 			page 11


 478 0134 FB61     		str	r3, [r7, #28]	@ float
 479              	.L16:
  46:servo.h       ****         }
  47:servo.h       ****     }
  48:servo.h       ****     
  49:servo.h       ****     float err_angle = s->reference_angle - (s->previous_angles[0] + s->previous_angles[1] + s->prev
 480              		.loc 2 49 0
 481 0136 FB68     		ldr	r3, [r7, #12]
 482 0138 1B68     		ldr	r3, [r3]	@ float
 483 013a 1846     		mov	r0, r3
 484 013c FFF7FEFF 		bl	__aeabi_f2d
 485 0140 0446     		mov	r4, r0
 486 0142 0D46     		mov	r5, r1
 487 0144 FB68     		ldr	r3, [r7, #12]
 488 0146 9A68     		ldr	r2, [r3, #8]	@ float
 489 0148 FB68     		ldr	r3, [r7, #12]
 490 014a DB68     		ldr	r3, [r3, #12]	@ float
 491 014c 1946     		mov	r1, r3
 492 014e 1046     		mov	r0, r2
 493 0150 FFF7FEFF 		bl	__aeabi_fadd
 494 0154 0346     		mov	r3, r0
 495 0156 1A46     		mov	r2, r3
 496 0158 FB68     		ldr	r3, [r7, #12]
 497 015a 1B69     		ldr	r3, [r3, #16]	@ float
 498 015c 1946     		mov	r1, r3
 499 015e 1046     		mov	r0, r2
 500 0160 FFF7FEFF 		bl	__aeabi_fadd
 501 0164 0346     		mov	r3, r0
 502 0166 1846     		mov	r0, r3
 503 0168 FFF7FEFF 		bl	__aeabi_f2d
 504 016c 4FF00002 		mov	r2, #0
 505 0170 314B     		ldr	r3, .L25+24
 506 0172 FFF7FEFF 		bl	__aeabi_ddiv
 507 0176 0246     		mov	r2, r0
 508 0178 0B46     		mov	r3, r1
 509 017a 2046     		mov	r0, r4
 510 017c 2946     		mov	r1, r5
 511 017e FFF7FEFF 		bl	__aeabi_dsub
 512 0182 0346     		mov	r3, r0
 513 0184 0C46     		mov	r4, r1
 514 0186 1846     		mov	r0, r3
 515 0188 2146     		mov	r1, r4
 516 018a FFF7FEFF 		bl	__aeabi_d2f
 517 018e 0346     		mov	r3, r0
 518 0190 7B61     		str	r3, [r7, #20]	@ float
  50:servo.h       ****     
  51:servo.h       ****     // angle that should be turned
  52:servo.h       ****     float angle_servo = weighted_Kp * err_angle;
 519              		.loc 2 52 0
 520 0192 7969     		ldr	r1, [r7, #20]	@ float
 521 0194 F869     		ldr	r0, [r7, #28]	@ float
 522 0196 FFF7FEFF 		bl	__aeabi_fmul
 523 019a 0346     		mov	r3, r0
 524 019c BB61     		str	r3, [r7, #24]	@ float
  53:servo.h       ****     
  54:servo.h       ****     if(angle_servo > 30){
 525              		.loc 2 54 0
ARM GAS  C:\Users\ALEXAN~1\AppData\Local\Temp\ccCHRx39.s 			page 12


 526 019e 2749     		ldr	r1, .L25+28
 527 01a0 B869     		ldr	r0, [r7, #24]	@ float
 528 01a2 FFF7FEFF 		bl	__aeabi_fcmpgt
 529 01a6 0346     		mov	r3, r0
 530 01a8 002B     		cmp	r3, #0
 531 01aa 02D0     		beq	.L24
  55:servo.h       ****         angle_servo = 30;
 532              		.loc 2 55 0
 533 01ac 234B     		ldr	r3, .L25+28
 534 01ae BB61     		str	r3, [r7, #24]	@ float
 535 01b0 08E0     		b	.L20
 536              	.L24:
  56:servo.h       ****     } else if(angle_servo < -30){
 537              		.loc 2 56 0
 538 01b2 2349     		ldr	r1, .L25+32
 539 01b4 B869     		ldr	r0, [r7, #24]	@ float
 540 01b6 FFF7FEFF 		bl	__aeabi_fcmplt
 541 01ba 0346     		mov	r3, r0
 542 01bc 002B     		cmp	r3, #0
 543 01be 01D0     		beq	.L20
  57:servo.h       ****         angle_servo = -30;
 544              		.loc 2 57 0
 545 01c0 1F4B     		ldr	r3, .L25+32
 546 01c2 BB61     		str	r3, [r7, #24]	@ float
 547              	.L20:
  58:servo.h       ****     }
  59:servo.h       ****     
  60:servo.h       ****     // convert angle_servo into the correct signal that can be applied to the servo
  61:servo.h       ****     int16_t servo_signal = angle_servo * turn_factor + t_center + offset;
 548              		.loc 2 61 0
 549 01c4 1F4B     		ldr	r3, .L25+36
 550 01c6 B969     		ldr	r1, [r7, #24]	@ float
 551 01c8 1846     		mov	r0, r3
 552 01ca FFF7FEFF 		bl	__aeabi_fmul
 553 01ce 0346     		mov	r3, r0
 554 01d0 1C46     		mov	r4, r3
 555 01d2 40F25453 		movw	r3, #1364
 556 01d6 1846     		mov	r0, r3
 557 01d8 FFF7FEFF 		bl	__aeabi_i2f
 558 01dc 0346     		mov	r3, r0
 559 01de 1946     		mov	r1, r3
 560 01e0 2046     		mov	r0, r4
 561 01e2 FFF7FEFF 		bl	__aeabi_fadd
 562 01e6 0346     		mov	r3, r0
 563 01e8 1C46     		mov	r4, r3
 564 01ea 6FF02703 		mvn	r3, #39
 565 01ee 1846     		mov	r0, r3
 566 01f0 FFF7FEFF 		bl	__aeabi_i2f
 567 01f4 0346     		mov	r3, r0
 568 01f6 1946     		mov	r1, r3
 569 01f8 2046     		mov	r0, r4
 570 01fa FFF7FEFF 		bl	__aeabi_fadd
 571 01fe 0346     		mov	r3, r0
 572 0200 1846     		mov	r0, r3
 573 0202 FFF7FEFF 		bl	__aeabi_f2iz
 574 0206 0346     		mov	r3, r0
 575 0208 7B82     		strh	r3, [r7, #18]	@ movhi
ARM GAS  C:\Users\ALEXAN~1\AppData\Local\Temp\ccCHRx39.s 			page 13


  62:servo.h       ****     
  63:servo.h       ****     /*        
  64:servo.h       ****     if(servo_signal_counter == 3){
  65:servo.h       ****         servo_signal_RB[servo_signal_counter] = servo_signal;
  66:servo.h       ****         servo_signal_counter = 0;
  67:servo.h       ****     } else {
  68:servo.h       ****         servo_signal_RB[servo_signal_counter] = servo_signal;
  69:servo.h       ****         servo_signal_counter++;
  70:servo.h       ****     }
  71:servo.h       ****     */
  72:servo.h       ****     
  73:servo.h       ****     //int16_t servo_signal_avg; //= (servo_signal_RB[0] + servo_signal_RB[1] + servo_signal_RB[2])/
  74:servo.h       ****     
  75:servo.h       ****     PWM_SERVO_WriteCompare(servo_signal);
 576              		.loc 2 75 0
 577 020a 7B8A     		ldrh	r3, [r7, #18]
 578 020c 1846     		mov	r0, r3
 579 020e FFF7FEFF 		bl	PWM_SERVO_WriteCompare
  76:servo.h       **** }...
 580              		.loc 2 76 0
 581 0212 00BF     		nop
 582 0214 2437     		adds	r7, r7, #36
 583              		.cfi_def_cfa_offset 20
 584 0216 BD46     		mov	sp, r7
 585              		.cfi_def_cfa_register 13
 586              		@ sp needed
 587 0218 F0BD     		pop	{r4, r5, r6, r7, pc}
 588              	.L26:
 589 021a 00BFAFF3 		.align	3
 589      0080
 590              	.L25:
 591 0220 5839B4C8 		.word	-927712936
 592 0224 76BE9F3F 		.word	1067433590
 593 0228 8FC2F528 		.word	687194767
 594 022c 5C8FE23F 		.word	1071812444
 595 0230 00007042 		.word	1114636288
 596 0234 000070C2 		.word	-1032847360
 597 0238 00000840 		.word	1074266112
 598 023c 0000F041 		.word	1106247680
 599 0240 0000F0C1 		.word	-1041235968
 600 0244 000030C1 		.word	-1053818880
 601              		.cfi_endproc
 602              	.LFE67:
 603              		.size	servo_update, .-servo_update
 604              		.section	.text.sensor_init,"ax",%progbits
 605              		.align	2
 606              		.global	sensor_init
 607              		.thumb
 608              		.thumb_func
 609              		.type	sensor_init, %function
 610              	sensor_init:
 611              	.LFB68:
 612              		.file 3 "sensor.h"
   1:sensor.h      **** #pragma once
   2:sensor.h      **** 
   3:sensor.h      **** #include "project.h"
   4:sensor.h      **** #include <stdint.h>
ARM GAS  C:\Users\ALEXAN~1\AppData\Local\Temp\ccCHRx39.s 			page 14


   5:sensor.h      **** 
   6:sensor.h      **** typedef struct {
   7:sensor.h      ****     uint16_t distance; // distance between cars
   8:sensor.h      ****     float angle;       // angle between platoon follower and platoon leader
   9:sensor.h      ****     
  10:sensor.h      ****     /* feedforward parameters */
  11:sensor.h      ****     int16_t velocity;   // platoon leader velocity
  12:sensor.h      ****     int8_t leader_angle; // angle of platoon leader's wheels
  13:sensor.h      **** } sensor_t;
  14:sensor.h      **** 
  15:sensor.h      **** sensor_t sensor_init() {
 613              		.loc 3 15 0
 614              		.cfi_startproc
 615              		@ args = 0, pretend = 0, frame = 8
 616              		@ frame_needed = 1, uses_anonymous_args = 0
 617              		@ link register save eliminated.
 618 0000 80B4     		push	{r7}
 619              		.cfi_def_cfa_offset 4
 620              		.cfi_offset 7, -4
 621 0002 83B0     		sub	sp, sp, #12
 622              		.cfi_def_cfa_offset 16
 623 0004 00AF     		add	r7, sp, #0
 624              		.cfi_def_cfa_register 7
 625 0006 7860     		str	r0, [r7, #4]
  16:sensor.h      ****     return (sensor_t){0, 0, 0, 0};
 626              		.loc 3 16 0
 627 0008 7B68     		ldr	r3, [r7, #4]
 628 000a 1A46     		mov	r2, r3
 629 000c 0023     		movs	r3, #0
 630 000e 1360     		str	r3, [r2]
 631 0010 5360     		str	r3, [r2, #4]
 632 0012 9360     		str	r3, [r2, #8]
  17:sensor.h      **** }
 633              		.loc 3 17 0
 634 0014 7868     		ldr	r0, [r7, #4]
 635 0016 0C37     		adds	r7, r7, #12
 636              		.cfi_def_cfa_offset 4
 637 0018 BD46     		mov	sp, r7
 638              		.cfi_def_cfa_register 13
 639              		@ sp needed
 640 001a 80BC     		pop	{r7}
 641              		.cfi_restore 7
 642              		.cfi_def_cfa_offset 0
 643 001c 7047     		bx	lr
 644              		.cfi_endproc
 645              	.LFE68:
 646              		.size	sensor_init, .-sensor_init
 647 001e 00BF     		.section	.text.sensor_update_feedforward_params,"ax",%progbits
 648              		.align	2
 649              		.global	sensor_update_feedforward_params
 650              		.thumb
 651              		.thumb_func
 652              		.type	sensor_update_feedforward_params, %function
 653              	sensor_update_feedforward_params:
 654              	.LFB69:
  18:sensor.h      **** 
  19:sensor.h      **** void sensor_update_feedforward_params(sensor_t *s, int16_t velocity, int8_t leader_angle) {
ARM GAS  C:\Users\ALEXAN~1\AppData\Local\Temp\ccCHRx39.s 			page 15


 655              		.loc 3 19 0
 656              		.cfi_startproc
 657              		@ args = 0, pretend = 0, frame = 8
 658              		@ frame_needed = 1, uses_anonymous_args = 0
 659              		@ link register save eliminated.
 660 0000 80B4     		push	{r7}
 661              		.cfi_def_cfa_offset 4
 662              		.cfi_offset 7, -4
 663 0002 83B0     		sub	sp, sp, #12
 664              		.cfi_def_cfa_offset 16
 665 0004 00AF     		add	r7, sp, #0
 666              		.cfi_def_cfa_register 7
 667 0006 7860     		str	r0, [r7, #4]
 668 0008 0B46     		mov	r3, r1
 669 000a 7B80     		strh	r3, [r7, #2]	@ movhi
 670 000c 1346     		mov	r3, r2
 671 000e 7B70     		strb	r3, [r7, #1]
  20:sensor.h      ****     s->velocity = velocity;
 672              		.loc 3 20 0
 673 0010 7B68     		ldr	r3, [r7, #4]
 674 0012 7A88     		ldrh	r2, [r7, #2]	@ movhi
 675 0014 1A81     		strh	r2, [r3, #8]	@ movhi
  21:sensor.h      ****     s->leader_angle = leader_angle;
 676              		.loc 3 21 0
 677 0016 7B68     		ldr	r3, [r7, #4]
 678 0018 7A78     		ldrb	r2, [r7, #1]
 679 001a 9A72     		strb	r2, [r3, #10]
  22:sensor.h      **** }
 680              		.loc 3 22 0
 681 001c 00BF     		nop
 682 001e 0C37     		adds	r7, r7, #12
 683              		.cfi_def_cfa_offset 4
 684 0020 BD46     		mov	sp, r7
 685              		.cfi_def_cfa_register 13
 686              		@ sp needed
 687 0022 80BC     		pop	{r7}
 688              		.cfi_restore 7
 689              		.cfi_def_cfa_offset 0
 690 0024 7047     		bx	lr
 691              		.cfi_endproc
 692              	.LFE69:
 693              		.size	sensor_update_feedforward_params, .-sensor_update_feedforward_params
 694              		.global	__aeabi_d2uiz
 695 0026 00BF     		.section	.text.sensor_update_data,"ax",%progbits
 696              		.align	2
 697              		.global	sensor_update_data
 698              		.thumb
 699              		.thumb_func
 700              		.type	sensor_update_data, %function
 701              	sensor_update_data:
 702              	.LFB70:
  23:sensor.h      **** 
  24:sensor.h      **** void sensor_update_data(sensor_t *s, uint16_t *chan_a, uint16_t *chan_b, uint16_t chan_len) {
 703              		.loc 3 24 0
 704              		.cfi_startproc
 705              		@ args = 0, pretend = 0, frame = 32
 706              		@ frame_needed = 1, uses_anonymous_args = 0
ARM GAS  C:\Users\ALEXAN~1\AppData\Local\Temp\ccCHRx39.s 			page 16


 707 0000 90B5     		push	{r4, r7, lr}
 708              		.cfi_def_cfa_offset 12
 709              		.cfi_offset 4, -12
 710              		.cfi_offset 7, -8
 711              		.cfi_offset 14, -4
 712 0002 89B0     		sub	sp, sp, #36
 713              		.cfi_def_cfa_offset 48
 714 0004 00AF     		add	r7, sp, #0
 715              		.cfi_def_cfa_register 7
 716 0006 F860     		str	r0, [r7, #12]
 717 0008 B960     		str	r1, [r7, #8]
 718 000a 7A60     		str	r2, [r7, #4]
 719 000c 7B80     		strh	r3, [r7, #2]	@ movhi
  25:sensor.h      ****     // defining a and b for the highest amplitude of the signals
  26:sensor.h      ****     uint16_t a = 0, b = 0;
 720              		.loc 3 26 0
 721 000e 0023     		movs	r3, #0
 722 0010 FB83     		strh	r3, [r7, #30]	@ movhi
 723 0012 0023     		movs	r3, #0
 724 0014 BB83     		strh	r3, [r7, #28]	@ movhi
  27:sensor.h      ****     uint16_t ai = 0, bi = 0;
 725              		.loc 3 27 0
 726 0016 0023     		movs	r3, #0
 727 0018 7B83     		strh	r3, [r7, #26]	@ movhi
 728 001a 0023     		movs	r3, #0
 729 001c 3B83     		strh	r3, [r7, #24]	@ movhi
 730              	.LBB2:
  28:sensor.h      ****             
  29:sensor.h      ****     // find the 3 biggest time indices of DataA and DataB
  30:sensor.h      ****     for (uint16_t i = 0; i < chan_len; i++) {
 731              		.loc 3 30 0
 732 001e 0023     		movs	r3, #0
 733 0020 FB82     		strh	r3, [r7, #22]	@ movhi
 734 0022 22E0     		b	.L31
 735              	.L34:
  31:sensor.h      ****         if (chan_a[i] > a) {
 736              		.loc 3 31 0
 737 0024 FB8A     		ldrh	r3, [r7, #22]
 738 0026 5B00     		lsls	r3, r3, #1
 739 0028 BA68     		ldr	r2, [r7, #8]
 740 002a 1344     		add	r3, r3, r2
 741 002c 1B88     		ldrh	r3, [r3]
 742 002e FA8B     		ldrh	r2, [r7, #30]
 743 0030 9A42     		cmp	r2, r3
 744 0032 07D2     		bcs	.L32
  32:sensor.h      ****             a = chan_a[i];
 745              		.loc 3 32 0
 746 0034 FB8A     		ldrh	r3, [r7, #22]
 747 0036 5B00     		lsls	r3, r3, #1
 748 0038 BA68     		ldr	r2, [r7, #8]
 749 003a 1344     		add	r3, r3, r2
 750 003c 1B88     		ldrh	r3, [r3]	@ movhi
 751 003e FB83     		strh	r3, [r7, #30]	@ movhi
  33:sensor.h      ****             ai = i;
 752              		.loc 3 33 0
 753 0040 FB8A     		ldrh	r3, [r7, #22]	@ movhi
 754 0042 7B83     		strh	r3, [r7, #26]	@ movhi
ARM GAS  C:\Users\ALEXAN~1\AppData\Local\Temp\ccCHRx39.s 			page 17


 755              	.L32:
  34:sensor.h      ****         }
  35:sensor.h      ****                 
  36:sensor.h      ****         if (chan_b[i] > b) {
 756              		.loc 3 36 0
 757 0044 FB8A     		ldrh	r3, [r7, #22]
 758 0046 5B00     		lsls	r3, r3, #1
 759 0048 7A68     		ldr	r2, [r7, #4]
 760 004a 1344     		add	r3, r3, r2
 761 004c 1B88     		ldrh	r3, [r3]
 762 004e BA8B     		ldrh	r2, [r7, #28]
 763 0050 9A42     		cmp	r2, r3
 764 0052 07D2     		bcs	.L33
  37:sensor.h      ****             b = chan_b[i];
 765              		.loc 3 37 0
 766 0054 FB8A     		ldrh	r3, [r7, #22]
 767 0056 5B00     		lsls	r3, r3, #1
 768 0058 7A68     		ldr	r2, [r7, #4]
 769 005a 1344     		add	r3, r3, r2
 770 005c 1B88     		ldrh	r3, [r3]	@ movhi
 771 005e BB83     		strh	r3, [r7, #28]	@ movhi
  38:sensor.h      ****             bi = i;
 772              		.loc 3 38 0
 773 0060 FB8A     		ldrh	r3, [r7, #22]	@ movhi
 774 0062 3B83     		strh	r3, [r7, #24]	@ movhi
 775              	.L33:
  30:sensor.h      ****         if (chan_a[i] > a) {
 776              		.loc 3 30 0 discriminator 2
 777 0064 FB8A     		ldrh	r3, [r7, #22]
 778 0066 0133     		adds	r3, r3, #1
 779 0068 FB82     		strh	r3, [r7, #22]	@ movhi
 780              	.L31:
  30:sensor.h      ****         if (chan_a[i] > a) {
 781              		.loc 3 30 0 is_stmt 0 discriminator 1
 782 006a FA8A     		ldrh	r2, [r7, #22]
 783 006c 7B88     		ldrh	r3, [r7, #2]
 784 006e 9A42     		cmp	r2, r3
 785 0070 D8D3     		bcc	.L34
 786              	.LBE2:
  39:sensor.h      ****         }
  40:sensor.h      ****     }
  41:sensor.h      ****             
  42:sensor.h      ****         // angle from -60 to 60
  43:sensor.h      ****         // 2.25 us per sample
  44:sensor.h      ****         // 1 us = 0.2 degrees
  45:sensor.h      ****         // 0.45 = 2.25 * 0.2
  46:sensor.h      ****         s->angle = (ai - bi) * 0.45;            
 787              		.loc 3 46 0 is_stmt 1
 788 0072 7A8B     		ldrh	r2, [r7, #26]
 789 0074 3B8B     		ldrh	r3, [r7, #24]
 790 0076 D31A     		subs	r3, r2, r3
 791 0078 1846     		mov	r0, r3
 792 007a FFF7FEFF 		bl	__aeabi_i2d
 793 007e 28A3     		adr	r3, .L38
 794 0080 D3E90023 		ldrd	r2, [r3]
 795 0084 FFF7FEFF 		bl	__aeabi_dmul
 796 0088 0346     		mov	r3, r0
ARM GAS  C:\Users\ALEXAN~1\AppData\Local\Temp\ccCHRx39.s 			page 18


 797 008a 0C46     		mov	r4, r1
 798 008c 1846     		mov	r0, r3
 799 008e 2146     		mov	r1, r4
 800 0090 FFF7FEFF 		bl	__aeabi_d2f
 801 0094 0246     		mov	r2, r0
 802 0096 FB68     		ldr	r3, [r7, #12]
 803 0098 5A60     		str	r2, [r3, #4]	@ float
  47:sensor.h      ****         
  48:sensor.h      ****         // distance in mm, where speed of sound is 343 mm/ms
  49:sensor.h      ****         // first convert the time difference from us to ms, and then multiply by the speed of sound
  50:sensor.h      ****         // use ai and bi depending on which has the closest peak to the network ping
  51:sensor.h      ****         // The 100 value subtracted has been experimentally found
  52:sensor.h      ****         // 0.77 = 2.25/1000.0 * 343
  53:sensor.h      ****         if (ai < bi) {
 804              		.loc 3 53 0
 805 009a 7A8B     		ldrh	r2, [r7, #26]
 806 009c 3B8B     		ldrh	r3, [r7, #24]
 807 009e 9A42     		cmp	r2, r3
 808 00a0 1CD2     		bcs	.L35
  54:sensor.h      ****             s->distance = ai*0.77 - 100;
 809              		.loc 3 54 0
 810 00a2 7B8B     		ldrh	r3, [r7, #26]
 811 00a4 1846     		mov	r0, r3
 812 00a6 FFF7FEFF 		bl	__aeabi_i2d
 813 00aa 1FA3     		adr	r3, .L38+8
 814 00ac D3E90023 		ldrd	r2, [r3]
 815 00b0 FFF7FEFF 		bl	__aeabi_dmul
 816 00b4 0346     		mov	r3, r0
 817 00b6 0C46     		mov	r4, r1
 818 00b8 1846     		mov	r0, r3
 819 00ba 2146     		mov	r1, r4
 820 00bc 4FF00002 		mov	r2, #0
 821 00c0 1B4B     		ldr	r3, .L38+16
 822 00c2 FFF7FEFF 		bl	__aeabi_dsub
 823 00c6 0346     		mov	r3, r0
 824 00c8 0C46     		mov	r4, r1
 825 00ca 1846     		mov	r0, r3
 826 00cc 2146     		mov	r1, r4
 827 00ce FFF7FEFF 		bl	__aeabi_d2uiz
 828 00d2 0346     		mov	r3, r0
 829 00d4 9AB2     		uxth	r2, r3
 830 00d6 FB68     		ldr	r3, [r7, #12]
 831 00d8 1A80     		strh	r2, [r3]	@ movhi
  55:sensor.h      ****         } else {
  56:sensor.h      ****             s->distance = bi * 0.77 -100;
  57:sensor.h      ****         }
  58:sensor.h      **** }...
 832              		.loc 3 58 0
 833 00da 1BE0     		b	.L37
 834              	.L35:
  56:sensor.h      ****             s->distance = bi * 0.77 -100;
 835              		.loc 3 56 0
 836 00dc 3B8B     		ldrh	r3, [r7, #24]
 837 00de 1846     		mov	r0, r3
 838 00e0 FFF7FEFF 		bl	__aeabi_i2d
 839 00e4 10A3     		adr	r3, .L38+8
 840 00e6 D3E90023 		ldrd	r2, [r3]
ARM GAS  C:\Users\ALEXAN~1\AppData\Local\Temp\ccCHRx39.s 			page 19


 841 00ea FFF7FEFF 		bl	__aeabi_dmul
 842 00ee 0346     		mov	r3, r0
 843 00f0 0C46     		mov	r4, r1
 844 00f2 1846     		mov	r0, r3
 845 00f4 2146     		mov	r1, r4
 846 00f6 4FF00002 		mov	r2, #0
 847 00fa 0D4B     		ldr	r3, .L38+16
 848 00fc FFF7FEFF 		bl	__aeabi_dsub
 849 0100 0346     		mov	r3, r0
 850 0102 0C46     		mov	r4, r1
 851 0104 1846     		mov	r0, r3
 852 0106 2146     		mov	r1, r4
 853 0108 FFF7FEFF 		bl	__aeabi_d2uiz
 854 010c 0346     		mov	r3, r0
 855 010e 9AB2     		uxth	r2, r3
 856 0110 FB68     		ldr	r3, [r7, #12]
 857 0112 1A80     		strh	r2, [r3]	@ movhi
 858              	.L37:
 859              		.loc 3 58 0
 860 0114 00BF     		nop
 861 0116 2437     		adds	r7, r7, #36
 862              		.cfi_def_cfa_offset 12
 863 0118 BD46     		mov	sp, r7
 864              		.cfi_def_cfa_register 13
 865              		@ sp needed
 866 011a 90BD     		pop	{r4, r7, pc}
 867              	.L39:
 868 011c AFF30080 		.align	3
 869              	.L38:
 870 0120 CDCCCCCC 		.word	-858993459
 871 0124 CCCCDC3F 		.word	1071434956
 872 0128 A4703D0A 		.word	171798692
 873 012c D7A3E83F 		.word	1072210903
 874 0130 00005940 		.word	1079574528
 875              		.cfi_endproc
 876              	.LFE70:
 877              		.size	sensor_update_data, .-sensor_update_data
 878              		.global	RX_ADDR
 879              		.section	.rodata
 880 0019 000000   		.align	2
 881              		.type	RX_ADDR, %object
 882              		.size	RX_ADDR, 5
 883              	RX_ADDR:
 884 001c BA       		.byte	-70
 885 001d AD       		.byte	-83
 886 001e C0       		.byte	-64
 887 001f FF       		.byte	-1
 888 0020 EE       		.byte	-18
 889              		.comm	DataA,3000,4
 890              		.comm	DataB,3000,4
 891              		.global	ISR_A_done
 892              		.bss
 893              		.type	ISR_A_done, %object
 894              		.size	ISR_A_done, 1
 895              	ISR_A_done:
 896 0000 00       		.space	1
 897              		.global	ISR_B_done
ARM GAS  C:\Users\ALEXAN~1\AppData\Local\Temp\ccCHRx39.s 			page 20


 898              		.type	ISR_B_done, %object
 899              		.size	ISR_B_done, 1
 900              	ISR_B_done:
 901 0001 00       		.space	1
 902              		.comm	output,200,4
 903              		.comm	sensor_data,12,4
 904              		.section	.text.ISR_OUT_A_Handler,"ax",%progbits
 905              		.align	2
 906              		.global	ISR_OUT_A_Handler
 907              		.thumb
 908              		.thumb_func
 909              		.type	ISR_OUT_A_Handler, %function
 910              	ISR_OUT_A_Handler:
 911              	.LFB71:
 912              		.file 4 "main.c"
   1:main.c        **** #include "project.h"
   2:main.c        **** 
   3:main.c        **** #include "dma_initialization.h"
   4:main.c        **** #include "motor.h"
   5:main.c        **** #include "servo.h"
   6:main.c        **** #include "sensor.h"
   7:main.c        **** 
   8:main.c        **** #include <stdio.h>
   9:main.c        **** #include <stdbool.h>
  10:main.c        **** 
  11:main.c        **** // Executed when the IRQ pin triggers an interrupt
  12:main.c        **** CY_ISR_PROTO(IRQ_Handler);
  13:main.c        **** 
  14:main.c        **** /* NRF address */
  15:main.c        **** const uint8_t RX_ADDR[5]= {0xBA, 0xAD, 0xC0, 0xFF, 0xEE};
  16:main.c        **** 
  17:main.c        **** #define DATA_SIZE 1500
  18:main.c        **** 
  19:main.c        **** // signal data for signal A and B
  20:main.c        **** uint16_t DataA[DATA_SIZE];
  21:main.c        **** uint16_t DataB[DATA_SIZE];
  22:main.c        **** 
  23:main.c        **** volatile uint8_t ISR_A_done = 0;
  24:main.c        **** volatile uint8_t ISR_B_done = 0;
  25:main.c        **** 
  26:main.c        **** char output[200];
  27:main.c        **** 
  28:main.c        **** volatile sensor_t sensor_data;
  29:main.c        **** 
  30:main.c        **** CY_ISR(ISR_OUT_A_Handler)
  31:main.c        **** {
 913              		.loc 4 31 0
 914              		.cfi_startproc
 915              		@ args = 0, pretend = 0, frame = 0
 916              		@ frame_needed = 1, uses_anonymous_args = 0
 917 0000 80B5     		push	{r7, lr}
 918              		.cfi_def_cfa_offset 8
 919              		.cfi_offset 7, -8
 920              		.cfi_offset 14, -4
 921 0002 00AF     		add	r7, sp, #0
 922              		.cfi_def_cfa_register 7
  32:main.c        ****     ADC_SAR_A_StopConvert();
ARM GAS  C:\Users\ALEXAN~1\AppData\Local\Temp\ccCHRx39.s 			page 21


 923              		.loc 4 32 0
 924 0004 FFF7FEFF 		bl	ADC_SAR_A_StopConvert
  33:main.c        ****     ISR_A_done = 1;
 925              		.loc 4 33 0
 926 0008 024B     		ldr	r3, .L41
 927 000a 0122     		movs	r2, #1
 928 000c 1A70     		strb	r2, [r3]
  34:main.c        **** }
 929              		.loc 4 34 0
 930 000e 00BF     		nop
 931 0010 80BD     		pop	{r7, pc}
 932              	.L42:
 933 0012 00BF     		.align	2
 934              	.L41:
 935 0014 00000000 		.word	ISR_A_done
 936              		.cfi_endproc
 937              	.LFE71:
 938              		.size	ISR_OUT_A_Handler, .-ISR_OUT_A_Handler
 939              		.section	.text.ISR_OUT_B_Handler,"ax",%progbits
 940              		.align	2
 941              		.global	ISR_OUT_B_Handler
 942              		.thumb
 943              		.thumb_func
 944              		.type	ISR_OUT_B_Handler, %function
 945              	ISR_OUT_B_Handler:
 946              	.LFB72:
  35:main.c        **** 
  36:main.c        **** CY_ISR(ISR_OUT_B_Handler)
  37:main.c        **** {
 947              		.loc 4 37 0
 948              		.cfi_startproc
 949              		@ args = 0, pretend = 0, frame = 0
 950              		@ frame_needed = 1, uses_anonymous_args = 0
 951 0000 80B5     		push	{r7, lr}
 952              		.cfi_def_cfa_offset 8
 953              		.cfi_offset 7, -8
 954              		.cfi_offset 14, -4
 955 0002 00AF     		add	r7, sp, #0
 956              		.cfi_def_cfa_register 7
  38:main.c        ****     ADC_SAR_B_StopConvert();
 957              		.loc 4 38 0
 958 0004 FFF7FEFF 		bl	ADC_SAR_B_StopConvert
  39:main.c        ****     ISR_B_done = 1;
 959              		.loc 4 39 0
 960 0008 024B     		ldr	r3, .L44
 961 000a 0122     		movs	r2, #1
 962 000c 1A70     		strb	r2, [r3]
  40:main.c        **** }
 963              		.loc 4 40 0
 964 000e 00BF     		nop
 965 0010 80BD     		pop	{r7, pc}
 966              	.L45:
 967 0012 00BF     		.align	2
 968              	.L44:
 969 0014 00000000 		.word	ISR_B_done
 970              		.cfi_endproc
 971              	.LFE72:
ARM GAS  C:\Users\ALEXAN~1\AppData\Local\Temp\ccCHRx39.s 			page 22


 972              		.size	ISR_OUT_B_Handler, .-ISR_OUT_B_Handler
 973              		.section	.text.IRQ_Handler,"ax",%progbits
 974              		.align	2
 975              		.global	IRQ_Handler
 976              		.thumb
 977              		.thumb_func
 978              		.type	IRQ_Handler, %function
 979              	IRQ_Handler:
 980              	.LFB73:
  41:main.c        **** 
  42:main.c        **** // network ping interrupt
  43:main.c        **** CY_ISR(IRQ_Handler)
  44:main.c        **** {
 981              		.loc 4 44 0
 982              		.cfi_startproc
 983              		@ args = 0, pretend = 0, frame = 8
 984              		@ frame_needed = 1, uses_anonymous_args = 0
 985 0000 80B5     		push	{r7, lr}
 986              		.cfi_def_cfa_offset 8
 987              		.cfi_offset 7, -8
 988              		.cfi_offset 14, -4
 989 0002 82B0     		sub	sp, sp, #8
 990              		.cfi_def_cfa_offset 16
 991 0004 00AF     		add	r7, sp, #0
 992              		.cfi_def_cfa_register 7
  45:main.c        ****     CyWdtClear();
 993              		.loc 4 45 0
 994 0006 FFF7FEFF 		bl	CyWdtClear
  46:main.c        ****     // start ADC A and B when network ping has been received
  47:main.c        ****     ADC_SAR_A_StartConvert();
 995              		.loc 4 47 0
 996 000a FFF7FEFF 		bl	ADC_SAR_A_StartConvert
  48:main.c        ****     ADC_SAR_B_StartConvert();
 997              		.loc 4 48 0
 998 000e FFF7FEFF 		bl	ADC_SAR_B_StartConvert
  49:main.c        ****     
  50:main.c        ****     IRQ_ClearInterrupt();
 999              		.loc 4 50 0
 1000 0012 FFF7FEFF 		bl	IRQ_ClearInterrupt
  51:main.c        ****     nrf_irq flag = nRF24_get_irq_flag();
 1001              		.loc 4 51 0
 1002 0016 FFF7FEFF 		bl	nRF24_get_irq_flag
 1003 001a 0346     		mov	r3, r0
 1004 001c FB71     		strb	r3, [r7, #7]
  52:main.c        ****     nRF24_clear_irq_flag(flag);
 1005              		.loc 4 52 0
 1006 001e FB79     		ldrb	r3, [r7, #7]	@ zero_extendqisi2
 1007 0020 1846     		mov	r0, r3
 1008 0022 FFF7FEFF 		bl	nRF24_clear_irq_flag
  53:main.c        **** 
  54:main.c        ****     // temp value to hold velocity data
  55:main.c        ****     uint8_t data[2];
  56:main.c        ****     
  57:main.c        ****     // get the data from the transmitter
  58:main.c        ****     nRF24_get_rx_payload(data, 2);
 1009              		.loc 4 58 0
 1010 0026 3B1D     		adds	r3, r7, #4
ARM GAS  C:\Users\ALEXAN~1\AppData\Local\Temp\ccCHRx39.s 			page 23


 1011 0028 0221     		movs	r1, #2
 1012 002a 1846     		mov	r0, r3
 1013 002c FFF7FEFF 		bl	nRF24_get_rx_payload
  59:main.c        ****     
  60:main.c        ****     // data[0] = velocity, data[1] = leader_angle
  61:main.c        ****     sensor_update_feedforward_params(&sensor_data, (int8_t)data[0], data[1]);
 1014              		.loc 4 61 0
 1015 0030 3B79     		ldrb	r3, [r7, #4]	@ zero_extendqisi2
 1016 0032 5BB2     		sxtb	r3, r3
 1017 0034 1BB2     		sxth	r3, r3
 1018 0036 7A79     		ldrb	r2, [r7, #5]	@ zero_extendqisi2
 1019 0038 52B2     		sxtb	r2, r2
 1020 003a 1946     		mov	r1, r3
 1021 003c 0348     		ldr	r0, .L47
 1022 003e FFF7FEFF 		bl	sensor_update_feedforward_params
  62:main.c        **** }
 1023              		.loc 4 62 0
 1024 0042 00BF     		nop
 1025 0044 0837     		adds	r7, r7, #8
 1026              		.cfi_def_cfa_offset 8
 1027 0046 BD46     		mov	sp, r7
 1028              		.cfi_def_cfa_register 13
 1029              		@ sp needed
 1030 0048 80BD     		pop	{r7, pc}
 1031              	.L48:
 1032 004a 00BF     		.align	2
 1033              	.L47:
 1034 004c 00000000 		.word	sensor_data
 1035              		.cfi_endproc
 1036              	.LFE73:
 1037              		.size	IRQ_Handler, .-IRQ_Handler
 1038              		.section	.text.main,"ax",%progbits
 1039              		.align	2
 1040              		.global	main
 1041              		.thumb
 1042              		.thumb_func
 1043              		.type	main, %function
 1044              	main:
 1045              	.LFB74:
  63:main.c        **** 
  64:main.c        **** int main(void)
  65:main.c        **** {   
 1046              		.loc 4 65 0
 1047              		.cfi_startproc
 1048              		@ args = 0, pretend = 0, frame = 32
 1049              		@ frame_needed = 1, uses_anonymous_args = 0
 1050 0000 80B5     		push	{r7, lr}
 1051              		.cfi_def_cfa_offset 8
 1052              		.cfi_offset 7, -8
 1053              		.cfi_offset 14, -4
 1054 0002 88B0     		sub	sp, sp, #32
 1055              		.cfi_def_cfa_offset 40
 1056 0004 00AF     		add	r7, sp, #0
 1057              		.cfi_def_cfa_register 7
  66:main.c        ****     /* initialize components */
  67:main.c        ****     UART_Start();
 1058              		.loc 4 67 0
ARM GAS  C:\Users\ALEXAN~1\AppData\Local\Temp\ccCHRx39.s 			page 24


 1059 0006 FFF7FEFF 		bl	UART_Start
  68:main.c        ****     Clock_In_Start();
 1060              		.loc 4 68 0
 1061 000a FFF7FEFF 		bl	Clock_In_Start
  69:main.c        ****     Clock_In_1_Start();
 1062              		.loc 4 69 0
 1063 000e FFF7FEFF 		bl	Clock_In_1_Start
  70:main.c        ****     ADC_SAR_A_Start();
 1064              		.loc 4 70 0
 1065 0012 FFF7FEFF 		bl	ADC_SAR_A_Start
  71:main.c        ****     ADC_SAR_B_Start();
 1066              		.loc 4 71 0
 1067 0016 FFF7FEFF 		bl	ADC_SAR_B_Start
  72:main.c        ****     Maximum_Peak_Detector_A_Start();
 1068              		.loc 4 72 0
 1069 001a FFF7FEFF 		bl	Maximum_Peak_Detector_A_Start
  73:main.c        ****     Maximum_Peak_Detector_B_Start();
 1070              		.loc 4 73 0
 1071 001e FFF7FEFF 		bl	Maximum_Peak_Detector_B_Start
  74:main.c        ****     ADC_SAR_A_IRQ_Enable();
 1072              		.loc 4 74 0
 1073 0022 FFF7FEFF 		bl	ADC_SAR_A_IRQ_Enable
  75:main.c        ****     ADC_SAR_B_IRQ_Enable();
 1074              		.loc 4 75 0
 1075 0026 FFF7FEFF 		bl	ADC_SAR_B_IRQ_Enable
  76:main.c        ****     PWM_H_BRIDGE_Start();
 1076              		.loc 4 76 0
 1077 002a FFF7FEFF 		bl	PWM_H_BRIDGE_Start
  77:main.c        ****     Clock_1_Start();
 1078              		.loc 4 77 0
 1079 002e FFF7FEFF 		bl	Clock_1_Start
  78:main.c        ****     PWM_SERVO_Start();
 1080              		.loc 4 78 0
 1081 0032 FFF7FEFF 		bl	PWM_SERVO_Start
  79:main.c        ****     Clock_2_Start();
 1082              		.loc 4 79 0
 1083 0036 FFF7FEFF 		bl	Clock_2_Start
  80:main.c        ****     ISR_A_StartEx(ISR_OUT_A_Handler);
 1084              		.loc 4 80 0
 1085 003a 9748     		ldr	r0, .L52
 1086 003c FFF7FEFF 		bl	ISR_A_StartEx
  81:main.c        ****     ISR_B_StartEx(ISR_OUT_B_Handler);
 1087              		.loc 4 81 0
 1088 0040 9648     		ldr	r0, .L52+4
 1089 0042 FFF7FEFF 		bl	ISR_B_StartEx
  82:main.c        ****     killswitchP_Write(1);
 1090              		.loc 4 82 0
 1091 0046 0120     		movs	r0, #1
 1092 0048 FFF7FEFF 		bl	killswitchP_Write
  83:main.c        ****     //N2_Write(0);
  84:main.c        ****   //  P1_Write(1);
  85:main.c        ****   //  P2_Write(0);
  86:main.c        ****     
  87:main.c        ****     DMA_A_CHAN_INIT(DATA_SIZE);
 1093              		.loc 4 87 0
 1094 004c 4FF48043 		mov	r3, #16384
 1095 0050 4FF48042 		mov	r2, #16384
ARM GAS  C:\Users\ALEXAN~1\AppData\Local\Temp\ccCHRx39.s 			page 25


 1096 0054 0121     		movs	r1, #1
 1097 0056 0220     		movs	r0, #2
 1098 0058 FFF7FEFF 		bl	DMA_A_DmaInitialize
 1099 005c 0346     		mov	r3, r0
 1100 005e 1A46     		mov	r2, r3
 1101 0060 8F4B     		ldr	r3, .L52+8
 1102 0062 1A70     		strb	r2, [r3]
 1103 0064 FFF7FEFF 		bl	CyDmaTdAllocate
 1104 0068 0346     		mov	r3, r0
 1105 006a 1A46     		mov	r2, r3
 1106 006c 8D4B     		ldr	r3, .L52+12
 1107 006e 1A70     		strb	r2, [r3]
 1108 0070 8C4B     		ldr	r3, .L52+12
 1109 0072 1878     		ldrb	r0, [r3]	@ zero_extendqisi2
 1110 0074 8B4B     		ldr	r3, .L52+12
 1111 0076 1A78     		ldrb	r2, [r3]	@ zero_extendqisi2
 1112 0078 0023     		movs	r3, #0
 1113 007a 40F6B831 		movw	r1, #3000
 1114 007e FFF7FEFF 		bl	CyDmaTdSetConfiguration
 1115 0082 884B     		ldr	r3, .L52+12
 1116 0084 1B78     		ldrb	r3, [r3]	@ zero_extendqisi2
 1117 0086 4CF2A072 		movw	r2, #51104
 1118 008a 45F6A231 		movw	r1, #23458
 1119 008e 1846     		mov	r0, r3
 1120 0090 FFF7FEFF 		bl	CyDmaTdSetAddress
 1121 0094 824B     		ldr	r3, .L52+8
 1122 0096 1A78     		ldrb	r2, [r3]	@ zero_extendqisi2
 1123 0098 824B     		ldr	r3, .L52+12
 1124 009a 1B78     		ldrb	r3, [r3]	@ zero_extendqisi2
 1125 009c 1946     		mov	r1, r3
 1126 009e 1046     		mov	r0, r2
 1127 00a0 FFF7FEFF 		bl	CyDmaChSetInitialTd
 1128 00a4 7E4B     		ldr	r3, .L52+8
 1129 00a6 1B78     		ldrb	r3, [r3]	@ zero_extendqisi2
 1130 00a8 0121     		movs	r1, #1
 1131 00aa 1846     		mov	r0, r3
 1132 00ac FFF7FEFF 		bl	CyDmaChEnable
  88:main.c        ****     DMA_B_CHAN_INIT(DATA_SIZE);
 1133              		.loc 4 88 0
 1134 00b0 4FF48043 		mov	r3, #16384
 1135 00b4 4FF48042 		mov	r2, #16384
 1136 00b8 0121     		movs	r1, #1
 1137 00ba 0220     		movs	r0, #2
 1138 00bc FFF7FEFF 		bl	DMA_B_DmaInitialize
 1139 00c0 0346     		mov	r3, r0
 1140 00c2 1A46     		mov	r2, r3
 1141 00c4 784B     		ldr	r3, .L52+16
 1142 00c6 1A70     		strb	r2, [r3]
 1143 00c8 FFF7FEFF 		bl	CyDmaTdAllocate
 1144 00cc 0346     		mov	r3, r0
 1145 00ce 1A46     		mov	r2, r3
 1146 00d0 764B     		ldr	r3, .L52+20
 1147 00d2 1A70     		strb	r2, [r3]
 1148 00d4 754B     		ldr	r3, .L52+20
 1149 00d6 1878     		ldrb	r0, [r3]	@ zero_extendqisi2
 1150 00d8 744B     		ldr	r3, .L52+20
 1151 00da 1A78     		ldrb	r2, [r3]	@ zero_extendqisi2
ARM GAS  C:\Users\ALEXAN~1\AppData\Local\Temp\ccCHRx39.s 			page 26


 1152 00dc 0023     		movs	r3, #0
 1153 00de 40F6B831 		movw	r1, #3000
 1154 00e2 FFF7FEFF 		bl	CyDmaTdSetConfiguration
 1155 00e6 714B     		ldr	r3, .L52+20
 1156 00e8 1B78     		ldrb	r3, [r3]	@ zero_extendqisi2
 1157 00ea 4CF2A472 		movw	r2, #51108
 1158 00ee 45F6A031 		movw	r1, #23456
 1159 00f2 1846     		mov	r0, r3
 1160 00f4 FFF7FEFF 		bl	CyDmaTdSetAddress
 1161 00f8 6B4B     		ldr	r3, .L52+16
 1162 00fa 1A78     		ldrb	r2, [r3]	@ zero_extendqisi2
 1163 00fc 6B4B     		ldr	r3, .L52+20
 1164 00fe 1B78     		ldrb	r3, [r3]	@ zero_extendqisi2
 1165 0100 1946     		mov	r1, r3
 1166 0102 1046     		mov	r0, r2
 1167 0104 FFF7FEFF 		bl	CyDmaChSetInitialTd
 1168 0108 674B     		ldr	r3, .L52+16
 1169 010a 1B78     		ldrb	r3, [r3]	@ zero_extendqisi2
 1170 010c 0121     		movs	r1, #1
 1171 010e 1846     		mov	r0, r3
 1172 0110 FFF7FEFF 		bl	CyDmaChEnable
  89:main.c        ****     DMA_A_FILTER_INIT(DATA_SIZE, DataA);
 1173              		.loc 4 89 0
 1174 0114 41F6FF73 		movw	r3, #8191
 1175 0118 4FF48042 		mov	r2, #16384
 1176 011c 0121     		movs	r1, #1
 1177 011e 0220     		movs	r0, #2
 1178 0120 FFF7FEFF 		bl	DMA_A_Filter_DmaInitialize
 1179 0124 0346     		mov	r3, r0
 1180 0126 1A46     		mov	r2, r3
 1181 0128 614B     		ldr	r3, .L52+24
 1182 012a 1A70     		strb	r2, [r3]
 1183 012c FFF7FEFF 		bl	CyDmaTdAllocate
 1184 0130 0346     		mov	r3, r0
 1185 0132 1A46     		mov	r2, r3
 1186 0134 5F4B     		ldr	r3, .L52+28
 1187 0136 1A70     		strb	r2, [r3]
 1188 0138 5E4B     		ldr	r3, .L52+28
 1189 013a 1878     		ldrb	r0, [r3]	@ zero_extendqisi2
 1190 013c 5D4B     		ldr	r3, .L52+28
 1191 013e 1A78     		ldrb	r2, [r3]	@ zero_extendqisi2
 1192 0140 0623     		movs	r3, #6
 1193 0142 40F6B831 		movw	r1, #3000
 1194 0146 FFF7FEFF 		bl	CyDmaTdSetConfiguration
 1195 014a 5A4B     		ldr	r3, .L52+28
 1196 014c 1B78     		ldrb	r3, [r3]	@ zero_extendqisi2
 1197 014e 5A4A     		ldr	r2, .L52+32
 1198 0150 92B2     		uxth	r2, r2
 1199 0152 4CF2A871 		movw	r1, #51112
 1200 0156 1846     		mov	r0, r3
 1201 0158 FFF7FEFF 		bl	CyDmaTdSetAddress
 1202 015c 544B     		ldr	r3, .L52+24
 1203 015e 1A78     		ldrb	r2, [r3]	@ zero_extendqisi2
 1204 0160 544B     		ldr	r3, .L52+28
 1205 0162 1B78     		ldrb	r3, [r3]	@ zero_extendqisi2
 1206 0164 1946     		mov	r1, r3
 1207 0166 1046     		mov	r0, r2
ARM GAS  C:\Users\ALEXAN~1\AppData\Local\Temp\ccCHRx39.s 			page 27


 1208 0168 FFF7FEFF 		bl	CyDmaChSetInitialTd
 1209 016c 504B     		ldr	r3, .L52+24
 1210 016e 1B78     		ldrb	r3, [r3]	@ zero_extendqisi2
 1211 0170 0121     		movs	r1, #1
 1212 0172 1846     		mov	r0, r3
 1213 0174 FFF7FEFF 		bl	CyDmaChEnable
  90:main.c        ****     DMA_B_FILTER_INIT(DATA_SIZE, DataB);
 1214              		.loc 4 90 0
 1215 0178 41F6FF73 		movw	r3, #8191
 1216 017c 4FF48042 		mov	r2, #16384
 1217 0180 0121     		movs	r1, #1
 1218 0182 0220     		movs	r0, #2
 1219 0184 FFF7FEFF 		bl	DMA_B_Filter_DmaInitialize
 1220 0188 0346     		mov	r3, r0
 1221 018a 1A46     		mov	r2, r3
 1222 018c 4B4B     		ldr	r3, .L52+36
 1223 018e 1A70     		strb	r2, [r3]
 1224 0190 FFF7FEFF 		bl	CyDmaTdAllocate
 1225 0194 0346     		mov	r3, r0
 1226 0196 1A46     		mov	r2, r3
 1227 0198 494B     		ldr	r3, .L52+40
 1228 019a 1A70     		strb	r2, [r3]
 1229 019c 484B     		ldr	r3, .L52+40
 1230 019e 1878     		ldrb	r0, [r3]	@ zero_extendqisi2
 1231 01a0 474B     		ldr	r3, .L52+40
 1232 01a2 1A78     		ldrb	r2, [r3]	@ zero_extendqisi2
 1233 01a4 0623     		movs	r3, #6
 1234 01a6 40F6B831 		movw	r1, #3000
 1235 01aa FFF7FEFF 		bl	CyDmaTdSetConfiguration
 1236 01ae 444B     		ldr	r3, .L52+40
 1237 01b0 1B78     		ldrb	r3, [r3]	@ zero_extendqisi2
 1238 01b2 444A     		ldr	r2, .L52+44
 1239 01b4 92B2     		uxth	r2, r2
 1240 01b6 4CF2AC71 		movw	r1, #51116
 1241 01ba 1846     		mov	r0, r3
 1242 01bc FFF7FEFF 		bl	CyDmaTdSetAddress
 1243 01c0 3E4B     		ldr	r3, .L52+36
 1244 01c2 1A78     		ldrb	r2, [r3]	@ zero_extendqisi2
 1245 01c4 3E4B     		ldr	r3, .L52+40
 1246 01c6 1B78     		ldrb	r3, [r3]	@ zero_extendqisi2
 1247 01c8 1946     		mov	r1, r3
 1248 01ca 1046     		mov	r0, r2
 1249 01cc FFF7FEFF 		bl	CyDmaChSetInitialTd
 1250 01d0 3A4B     		ldr	r3, .L52+36
 1251 01d2 1B78     		ldrb	r3, [r3]	@ zero_extendqisi2
 1252 01d4 0121     		movs	r1, #1
 1253 01d6 1846     		mov	r0, r3
 1254 01d8 FFF7FEFF 		bl	CyDmaChEnable
  91:main.c        ****     
  92:main.c        ****     /* start filter */
  93:main.c        ****     Filter_Start();
 1255              		.loc 4 93 0
 1256 01dc FFF7FEFF 		bl	Filter_Start
  94:main.c        ****     
  95:main.c        ****     /*
  96:main.c        ****      * the filter can filter 32-values
  97:main.c        ****      * Filter_KEY_MID makes the filters trigger on byte 2 or 3 being updated
ARM GAS  C:\Users\ALEXAN~1\AppData\Local\Temp\ccCHRx39.s 			page 28


  98:main.c        ****     */
  99:main.c        ****     Filter_SetCoherency(Filter_CHANNEL_A, Filter_KEY_MID);
 1257              		.loc 4 99 0
 1258 01e0 0121     		movs	r1, #1
 1259 01e2 0020     		movs	r0, #0
 1260 01e4 FFF7FEFF 		bl	Filter_SetCoherency
 100:main.c        ****     Filter_SetCoherency(Filter_CHANNEL_B, Filter_KEY_MID);
 1261              		.loc 4 100 0
 1262 01e8 0121     		movs	r1, #1
 1263 01ea 0120     		movs	r0, #1
 1264 01ec FFF7FEFF 		bl	Filter_SetCoherency
 101:main.c        ****     
 102:main.c        ****     // enable real network ping interrupt
 103:main.c        ****     isr_IRQ_StartEx(IRQ_Handler);
 1265              		.loc 4 103 0
 1266 01f0 3548     		ldr	r0, .L52+48
 1267 01f2 FFF7FEFF 		bl	isr_IRQ_StartEx
 104:main.c        ****     
 105:main.c        ****     // start the nRF24 with settings
 106:main.c        ****     nRF24_start();
 1268              		.loc 4 106 0
 1269 01f6 FFF7FEFF 		bl	nRF24_start
 107:main.c        ****     nRF24_set_rx_pipe_address(NRF_ADDR_PIPE0, RX_ADDR, 5);
 1270              		.loc 4 107 0
 1271 01fa 0522     		movs	r2, #5
 1272 01fc 3349     		ldr	r1, .L52+52
 1273 01fe 0A20     		movs	r0, #10
 1274 0200 FFF7FEFF 		bl	nRF24_set_rx_pipe_address
 108:main.c        ****     nRF24_start_listening();
 1275              		.loc 4 108 0
 1276 0204 FFF7FEFF 		bl	nRF24_start_listening
 109:main.c        ****     
 110:main.c        ****     // reference_dist = 300, Kp = -0.5
 111:main.c        ****     motor_t motor = motor_init(300, -0.5);
 1277              		.loc 4 111 0
 1278 0208 07F11803 		add	r3, r7, #24
 1279 020c 4FF03F42 		mov	r2, #-1090519040
 1280 0210 4FF49671 		mov	r1, #300
 1281 0214 1846     		mov	r0, r3
 1282 0216 FFF7FEFF 		bl	motor_init
 112:main.c        ****     
 113:main.c        ****     // reference_angle = 0, Kp = -0.5
 114:main.c        ****     servo_t servo = servo_init(0, -0.7);
 1283              		.loc 4 114 0
 1284 021a 3B46     		mov	r3, r7
 1285 021c 2C4A     		ldr	r2, .L52+56
 1286 021e 4FF00001 		mov	r1, #0
 1287 0222 1846     		mov	r0, r3
 1288 0224 FFF7FEFF 		bl	servo_init
 115:main.c        ****     
 116:main.c        ****     // start watchdog timer
 117:main.c        ****     CyWdtStart(CYWDT_16_TICKS, CYWDT_LPMODE_NOCHANGE);
 1289              		.loc 4 117 0
 1290 0228 0021     		movs	r1, #0
 1291 022a 0120     		movs	r0, #1
 1292 022c FFF7FEFF 		bl	CyWdtStart
 118:main.c        ****     CyGlobalIntEnable;
ARM GAS  C:\Users\ALEXAN~1\AppData\Local\Temp\ccCHRx39.s 			page 29


 1293              		.loc 4 118 0
 1294              		.syntax unified
 1295              	@ 118 "main.c" 1
 1296 0230 62B6     		CPSIE   i
 1297              	@ 0 "" 2
 1298              		.thumb
 1299              		.syntax unified
 1300              	.L51:
 119:main.c        ****     
 120:main.c        ****     for(;;)
 121:main.c        ****     {
 122:main.c        ****         if (ISR_A_done && ISR_B_done) {
 1301              		.loc 4 122 0
 1302 0232 284B     		ldr	r3, .L52+60
 1303 0234 1B78     		ldrb	r3, [r3]
 1304 0236 DBB2     		uxtb	r3, r3
 1305 0238 002B     		cmp	r3, #0
 1306 023a FAD0     		beq	.L51
 1307              		.loc 4 122 0 is_stmt 0 discriminator 1
 1308 023c 264B     		ldr	r3, .L52+64
 1309 023e 1B78     		ldrb	r3, [r3]
 1310 0240 DBB2     		uxtb	r3, r3
 1311 0242 002B     		cmp	r3, #0
 1312 0244 F5D0     		beq	.L51
 123:main.c        ****             CyGlobalIntDisable;
 1313              		.loc 4 123 0 is_stmt 1
 1314              		.syntax unified
 1315              	@ 123 "main.c" 1
 1316 0246 72B6     		CPSID   i
 1317              	@ 0 "" 2
 124:main.c        ****            
 125:main.c        ****             sensor_update_data(&sensor_data, DataA, DataB, DATA_SIZE);
 1318              		.loc 4 125 0
 1319              		.thumb
 1320              		.syntax unified
 1321 0248 40F2DC53 		movw	r3, #1500
 1322 024c 1D4A     		ldr	r2, .L52+44
 1323 024e 1A49     		ldr	r1, .L52+32
 1324 0250 2248     		ldr	r0, .L52+68
 1325 0252 FFF7FEFF 		bl	sensor_update_data
 126:main.c        ****                 
 127:main.c        ****             // CONTROL SYSTEM - DISTANCE:
 128:main.c        ****             
 129:main.c        ****             motor_update(&motor, sensor_data.distance, sensor_data.velocity);
 1326              		.loc 4 129 0
 1327 0256 214B     		ldr	r3, .L52+68
 1328 0258 1B88     		ldrh	r3, [r3]	@ movhi
 1329 025a 99B2     		uxth	r1, r3
 1330 025c 1F4B     		ldr	r3, .L52+68
 1331 025e 1B89     		ldrh	r3, [r3, #8]	@ movhi
 1332 0260 1AB2     		sxth	r2, r3
 1333 0262 07F11803 		add	r3, r7, #24
 1334 0266 1846     		mov	r0, r3
 1335 0268 FFF7FEFF 		bl	motor_update
 130:main.c        ****             
 131:main.c        ****             //CONTROL SYSTEM - ANGLE:
 132:main.c        ****             
ARM GAS  C:\Users\ALEXAN~1\AppData\Local\Temp\ccCHRx39.s 			page 30


 133:main.c        ****             servo_update(&servo, sensor_data.angle, sensor_data.leader_angle, sensor_data.velocity)
 1336              		.loc 4 133 0
 1337 026c 1B4B     		ldr	r3, .L52+68
 1338 026e 5968     		ldr	r1, [r3, #4]	@ float
 1339 0270 1A4B     		ldr	r3, .L52+68
 1340 0272 9B7A     		ldrb	r3, [r3, #10]
 1341 0274 5BB2     		sxtb	r3, r3
 1342 0276 1A46     		mov	r2, r3
 1343 0278 184B     		ldr	r3, .L52+68
 1344 027a 1B89     		ldrh	r3, [r3, #8]	@ movhi
 1345 027c 1BB2     		sxth	r3, r3
 1346 027e 3846     		mov	r0, r7
 1347 0280 FFF7FEFF 		bl	servo_update
 134:main.c        ****             
 135:main.c        ****             ISR_A_done = ISR_B_done = 0;
 1348              		.loc 4 135 0
 1349 0284 0021     		movs	r1, #0
 1350 0286 144B     		ldr	r3, .L52+64
 1351 0288 0A46     		mov	r2, r1
 1352 028a 1A70     		strb	r2, [r3]
 1353 028c 114B     		ldr	r3, .L52+60
 1354 028e 0A46     		mov	r2, r1
 1355 0290 1A70     		strb	r2, [r3]
 136:main.c        ****             
 137:main.c        ****             CyGlobalIntEnable;
 1356              		.loc 4 137 0
 1357              		.syntax unified
 1358              	@ 137 "main.c" 1
 1359 0292 62B6     		CPSIE   i
 1360              	@ 0 "" 2
 138:main.c        ****         }
 139:main.c        ****     }
 1361              		.loc 4 139 0
 1362              		.thumb
 1363              		.syntax unified
 1364 0294 CDE7     		b	.L51
 1365              	.L53:
 1366 0296 00BF     		.align	2
 1367              	.L52:
 1368 0298 00000000 		.word	ISR_OUT_A_Handler
 1369 029c 00000000 		.word	ISR_OUT_B_Handler
 1370 02a0 00000000 		.word	DMA_A_Chan
 1371 02a4 00000000 		.word	DMA_A_TD
 1372 02a8 00000000 		.word	DMA_B_Chan
 1373 02ac 00000000 		.word	DMA_B_TD
 1374 02b0 00000000 		.word	DMA_A_Filter_Chan
 1375 02b4 00000000 		.word	DMA_A_Filter_TD
 1376 02b8 00000000 		.word	DataA
 1377 02bc 00000000 		.word	DMA_B_Filter_Chan
 1378 02c0 00000000 		.word	DMA_B_Filter_TD
 1379 02c4 00000000 		.word	DataB
 1380 02c8 00000000 		.word	IRQ_Handler
 1381 02cc 00000000 		.word	RX_ADDR
 1382 02d0 333333BF 		.word	-1087163597
 1383 02d4 00000000 		.word	ISR_A_done
 1384 02d8 00000000 		.word	ISR_B_done
 1385 02dc 00000000 		.word	sensor_data
ARM GAS  C:\Users\ALEXAN~1\AppData\Local\Temp\ccCHRx39.s 			page 31


 1386              		.cfi_endproc
 1387              	.LFE74:
 1388              		.size	main, .-main
 1389              		.text
 1390              	.Letext0:
 1391              		.file 5 "c:\\program files (x86)\\cypress\\psoc creator\\4.2\\psoc creator\\import\\gnu\\arm\\5.4.
 1392              		.file 6 "c:\\program files (x86)\\cypress\\psoc creator\\4.2\\psoc creator\\import\\gnu\\arm\\5.4.
 1393              		.file 7 "Generated_Source\\PSoC5/cytypes.h"
 1394              		.file 8 "Generated_Source\\PSoC5/nRF24_DEFS.h"
 1395              		.file 9 "Generated_Source\\PSoC5/core_cm3.h"
 1396              		.file 10 "dma_initialization.h"
 1397              		.section	.debug_info,"",%progbits
 1398              	.Ldebug_info0:
 1399 0000 07090000 		.4byte	0x907
 1400 0004 0400     		.2byte	0x4
 1401 0006 00000000 		.4byte	.Ldebug_abbrev0
 1402 000a 04       		.byte	0x4
 1403 000b 01       		.uleb128 0x1
 1404 000c 83000000 		.4byte	.LASF158
 1405 0010 0C       		.byte	0xc
 1406 0011 B2040000 		.4byte	.LASF159
 1407 0015 05040000 		.4byte	.LASF160
 1408 0019 00000000 		.4byte	.Ldebug_ranges0+0
 1409 001d 00000000 		.4byte	0
 1410 0021 00000000 		.4byte	.Ldebug_line0
 1411 0025 02       		.uleb128 0x2
 1412 0026 95010000 		.4byte	.LASF0
 1413 002a 05       		.byte	0x5
 1414 002b 1B       		.byte	0x1b
 1415 002c 30000000 		.4byte	0x30
 1416 0030 03       		.uleb128 0x3
 1417 0031 01       		.byte	0x1
 1418 0032 06       		.byte	0x6
 1419 0033 D0010000 		.4byte	.LASF2
 1420 0037 02       		.uleb128 0x2
 1421 0038 6C000000 		.4byte	.LASF1
 1422 003c 05       		.byte	0x5
 1423 003d 1D       		.byte	0x1d
 1424 003e 42000000 		.4byte	0x42
 1425 0042 03       		.uleb128 0x3
 1426 0043 01       		.byte	0x1
 1427 0044 08       		.byte	0x8
 1428 0045 0A070000 		.4byte	.LASF3
 1429 0049 02       		.uleb128 0x2
 1430 004a 57030000 		.4byte	.LASF4
 1431 004e 05       		.byte	0x5
 1432 004f 29       		.byte	0x29
 1433 0050 54000000 		.4byte	0x54
 1434 0054 03       		.uleb128 0x3
 1435 0055 02       		.byte	0x2
 1436 0056 05       		.byte	0x5
 1437 0057 D9040000 		.4byte	.LASF5
 1438 005b 02       		.uleb128 0x2
 1439 005c D7070000 		.4byte	.LASF6
 1440 0060 05       		.byte	0x5
 1441 0061 2B       		.byte	0x2b
 1442 0062 66000000 		.4byte	0x66
ARM GAS  C:\Users\ALEXAN~1\AppData\Local\Temp\ccCHRx39.s 			page 32


 1443 0066 03       		.uleb128 0x3
 1444 0067 02       		.byte	0x2
 1445 0068 07       		.byte	0x7
 1446 0069 76040000 		.4byte	.LASF7
 1447 006d 02       		.uleb128 0x2
 1448 006e 08080000 		.4byte	.LASF8
 1449 0072 05       		.byte	0x5
 1450 0073 3F       		.byte	0x3f
 1451 0074 78000000 		.4byte	0x78
 1452 0078 03       		.uleb128 0x3
 1453 0079 04       		.byte	0x4
 1454 007a 05       		.byte	0x5
 1455 007b 4E020000 		.4byte	.LASF9
 1456 007f 03       		.uleb128 0x3
 1457 0080 04       		.byte	0x4
 1458 0081 07       		.byte	0x7
 1459 0082 79070000 		.4byte	.LASF10
 1460 0086 03       		.uleb128 0x3
 1461 0087 08       		.byte	0x8
 1462 0088 05       		.byte	0x5
 1463 0089 C2010000 		.4byte	.LASF11
 1464 008d 03       		.uleb128 0x3
 1465 008e 08       		.byte	0x8
 1466 008f 07       		.byte	0x7
 1467 0090 53010000 		.4byte	.LASF12
 1468 0094 04       		.uleb128 0x4
 1469 0095 04       		.byte	0x4
 1470 0096 05       		.byte	0x5
 1471 0097 696E7400 		.ascii	"int\000"
 1472 009b 03       		.uleb128 0x3
 1473 009c 04       		.byte	0x4
 1474 009d 07       		.byte	0x7
 1475 009e AD070000 		.4byte	.LASF13
 1476 00a2 02       		.uleb128 0x2
 1477 00a3 63080000 		.4byte	.LASF14
 1478 00a7 06       		.byte	0x6
 1479 00a8 14       		.byte	0x14
 1480 00a9 25000000 		.4byte	0x25
 1481 00ad 02       		.uleb128 0x2
 1482 00ae 25090000 		.4byte	.LASF15
 1483 00b2 06       		.byte	0x6
 1484 00b3 18       		.byte	0x18
 1485 00b4 37000000 		.4byte	0x37
 1486 00b8 02       		.uleb128 0x2
 1487 00b9 BA010000 		.4byte	.LASF16
 1488 00bd 06       		.byte	0x6
 1489 00be 20       		.byte	0x20
 1490 00bf 49000000 		.4byte	0x49
 1491 00c3 02       		.uleb128 0x2
 1492 00c4 8D020000 		.4byte	.LASF17
 1493 00c8 06       		.byte	0x6
 1494 00c9 24       		.byte	0x24
 1495 00ca 5B000000 		.4byte	0x5b
 1496 00ce 02       		.uleb128 0x2
 1497 00cf 02070000 		.4byte	.LASF18
 1498 00d3 06       		.byte	0x6
 1499 00d4 2C       		.byte	0x2c
ARM GAS  C:\Users\ALEXAN~1\AppData\Local\Temp\ccCHRx39.s 			page 33


 1500 00d5 6D000000 		.4byte	0x6d
 1501 00d9 05       		.uleb128 0x5
 1502 00da 6B040000 		.4byte	.LASF19
 1503 00de 07       		.byte	0x7
 1504 00df 9201     		.2byte	0x192
 1505 00e1 42000000 		.4byte	0x42
 1506 00e5 05       		.uleb128 0x5
 1507 00e6 0B000000 		.4byte	.LASF20
 1508 00ea 07       		.byte	0x7
 1509 00eb 9301     		.2byte	0x193
 1510 00ed 66000000 		.4byte	0x66
 1511 00f1 05       		.uleb128 0x5
 1512 00f2 37030000 		.4byte	.LASF21
 1513 00f6 07       		.byte	0x7
 1514 00f7 9401     		.2byte	0x194
 1515 00f9 7F000000 		.4byte	0x7f
 1516 00fd 03       		.uleb128 0x3
 1517 00fe 04       		.byte	0x4
 1518 00ff 04       		.byte	0x4
 1519 0100 8C060000 		.4byte	.LASF22
 1520 0104 03       		.uleb128 0x3
 1521 0105 08       		.byte	0x8
 1522 0106 04       		.byte	0x4
 1523 0107 96020000 		.4byte	.LASF23
 1524 010b 03       		.uleb128 0x3
 1525 010c 01       		.byte	0x1
 1526 010d 08       		.byte	0x8
 1527 010e 8B070000 		.4byte	.LASF24
 1528 0112 05       		.uleb128 0x5
 1529 0113 B1060000 		.4byte	.LASF25
 1530 0117 07       		.byte	0x7
 1531 0118 3C02     		.2byte	0x23c
 1532 011a 1E010000 		.4byte	0x11e
 1533 011e 06       		.uleb128 0x6
 1534 011f D9000000 		.4byte	0xd9
 1535 0123 03       		.uleb128 0x3
 1536 0124 08       		.byte	0x8
 1537 0125 04       		.byte	0x4
 1538 0126 51050000 		.4byte	.LASF26
 1539 012a 03       		.uleb128 0x3
 1540 012b 04       		.byte	0x4
 1541 012c 07       		.byte	0x7
 1542 012d 48050000 		.4byte	.LASF27
 1543 0131 07       		.uleb128 0x7
 1544 0132 01       		.byte	0x1
 1545 0133 42000000 		.4byte	0x42
 1546 0137 08       		.byte	0x8
 1547 0138 1E       		.byte	0x1e
 1548 0139 DA010000 		.4byte	0x1da
 1549 013d 08       		.uleb128 0x8
 1550 013e 57020000 		.4byte	.LASF28
 1551 0142 00       		.byte	0
 1552 0143 08       		.uleb128 0x8
 1553 0144 2B080000 		.4byte	.LASF29
 1554 0148 01       		.byte	0x1
 1555 0149 08       		.uleb128 0x8
 1556 014a 68050000 		.4byte	.LASF30
ARM GAS  C:\Users\ALEXAN~1\AppData\Local\Temp\ccCHRx39.s 			page 34


 1557 014e 02       		.byte	0x2
 1558 014f 08       		.uleb128 0x8
 1559 0150 6E020000 		.4byte	.LASF31
 1560 0154 03       		.byte	0x3
 1561 0155 08       		.uleb128 0x8
 1562 0156 E4030000 		.4byte	.LASF32
 1563 015a 04       		.byte	0x4
 1564 015b 08       		.uleb128 0x8
 1565 015c 7F020000 		.4byte	.LASF33
 1566 0160 05       		.byte	0x5
 1567 0161 08       		.uleb128 0x8
 1568 0162 5A040000 		.4byte	.LASF34
 1569 0166 06       		.byte	0x6
 1570 0167 08       		.uleb128 0x8
 1571 0168 6E030000 		.4byte	.LASF35
 1572 016c 07       		.byte	0x7
 1573 016d 08       		.uleb128 0x8
 1574 016e 180A0000 		.4byte	.LASF36
 1575 0172 08       		.byte	0x8
 1576 0173 08       		.uleb128 0x8
 1577 0174 33050000 		.4byte	.LASF37
 1578 0178 09       		.byte	0x9
 1579 0179 08       		.uleb128 0x8
 1580 017a 93030000 		.4byte	.LASF38
 1581 017e 0A       		.byte	0xa
 1582 017f 08       		.uleb128 0x8
 1583 0180 C1030000 		.4byte	.LASF39
 1584 0184 0B       		.byte	0xb
 1585 0185 08       		.uleb128 0x8
 1586 0186 B6060000 		.4byte	.LASF40
 1587 018a 0C       		.byte	0xc
 1588 018b 08       		.uleb128 0x8
 1589 018c C9060000 		.4byte	.LASF41
 1590 0190 0D       		.byte	0xd
 1591 0191 08       		.uleb128 0x8
 1592 0192 DC060000 		.4byte	.LASF42
 1593 0196 0E       		.byte	0xe
 1594 0197 08       		.uleb128 0x8
 1595 0198 EF060000 		.4byte	.LASF43
 1596 019c 0F       		.byte	0xf
 1597 019d 08       		.uleb128 0x8
 1598 019e D6080000 		.4byte	.LASF44
 1599 01a2 10       		.byte	0x10
 1600 01a3 08       		.uleb128 0x8
 1601 01a4 52080000 		.4byte	.LASF45
 1602 01a8 11       		.byte	0x11
 1603 01a9 08       		.uleb128 0x8
 1604 01aa 2A060000 		.4byte	.LASF46
 1605 01ae 12       		.byte	0x12
 1606 01af 08       		.uleb128 0x8
 1607 01b0 6A080000 		.4byte	.LASF47
 1608 01b4 13       		.byte	0x13
 1609 01b5 08       		.uleb128 0x8
 1610 01b6 7B080000 		.4byte	.LASF48
 1611 01ba 14       		.byte	0x14
 1612 01bb 08       		.uleb128 0x8
 1613 01bc 4F060000 		.4byte	.LASF49
ARM GAS  C:\Users\ALEXAN~1\AppData\Local\Temp\ccCHRx39.s 			page 35


 1614 01c0 15       		.byte	0x15
 1615 01c1 08       		.uleb128 0x8
 1616 01c2 A6080000 		.4byte	.LASF50
 1617 01c6 16       		.byte	0x16
 1618 01c7 08       		.uleb128 0x8
 1619 01c8 3B060000 		.4byte	.LASF51
 1620 01cc 17       		.byte	0x17
 1621 01cd 08       		.uleb128 0x8
 1622 01ce 87010000 		.4byte	.LASF52
 1623 01d2 1C       		.byte	0x1c
 1624 01d3 08       		.uleb128 0x8
 1625 01d4 40000000 		.4byte	.LASF53
 1626 01d8 1D       		.byte	0x1d
 1627 01d9 00       		.byte	0
 1628 01da 07       		.uleb128 0x7
 1629 01db 01       		.byte	0x1
 1630 01dc 42000000 		.4byte	0x42
 1631 01e0 08       		.byte	0x8
 1632 01e1 55       		.byte	0x55
 1633 01e2 0B020000 		.4byte	0x20b
 1634 01e6 08       		.uleb128 0x8
 1635 01e7 65070000 		.4byte	.LASF54
 1636 01eb 0A       		.byte	0xa
 1637 01ec 08       		.uleb128 0x8
 1638 01ed DC010000 		.4byte	.LASF55
 1639 01f1 0B       		.byte	0xb
 1640 01f2 08       		.uleb128 0x8
 1641 01f3 EB010000 		.4byte	.LASF56
 1642 01f7 0C       		.byte	0xc
 1643 01f8 08       		.uleb128 0x8
 1644 01f9 FA010000 		.4byte	.LASF57
 1645 01fd 0D       		.byte	0xd
 1646 01fe 08       		.uleb128 0x8
 1647 01ff 09020000 		.4byte	.LASF58
 1648 0203 0E       		.byte	0xe
 1649 0204 08       		.uleb128 0x8
 1650 0205 18020000 		.4byte	.LASF59
 1651 0209 0F       		.byte	0xf
 1652 020a 00       		.byte	0
 1653 020b 07       		.uleb128 0x7
 1654 020c 01       		.byte	0x1
 1655 020d 42000000 		.4byte	0x42
 1656 0211 08       		.byte	0x8
 1657 0212 6D       		.byte	0x6d
 1658 0213 30020000 		.4byte	0x230
 1659 0217 08       		.uleb128 0x8
 1660 0218 61030000 		.4byte	.LASF60
 1661 021c 00       		.byte	0
 1662 021d 08       		.uleb128 0x8
 1663 021e 84030000 		.4byte	.LASF61
 1664 0222 04       		.byte	0x4
 1665 0223 08       		.uleb128 0x8
 1666 0224 37020000 		.4byte	.LASF62
 1667 0228 05       		.byte	0x5
 1668 0229 08       		.uleb128 0x8
 1669 022a AF020000 		.4byte	.LASF63
 1670 022e 06       		.byte	0x6
ARM GAS  C:\Users\ALEXAN~1\AppData\Local\Temp\ccCHRx39.s 			page 36


 1671 022f 00       		.byte	0
 1672 0230 02       		.uleb128 0x2
 1673 0231 66020000 		.4byte	.LASF64
 1674 0235 08       		.byte	0x8
 1675 0236 72       		.byte	0x72
 1676 0237 0B020000 		.4byte	0x20b
 1677 023b 07       		.uleb128 0x7
 1678 023c 01       		.byte	0x1
 1679 023d 42000000 		.4byte	0x42
 1680 0241 08       		.byte	0x8
 1681 0242 75       		.byte	0x75
 1682 0243 72020000 		.4byte	0x272
 1683 0247 08       		.uleb128 0x8
 1684 0248 70010000 		.4byte	.LASF65
 1685 024c 00       		.byte	0
 1686 024d 08       		.uleb128 0x8
 1687 024e 21070000 		.4byte	.LASF66
 1688 0252 01       		.byte	0x1
 1689 0253 08       		.uleb128 0x8
 1690 0254 2C000000 		.4byte	.LASF67
 1691 0258 02       		.byte	0x2
 1692 0259 08       		.uleb128 0x8
 1693 025a 37070000 		.4byte	.LASF68
 1694 025e 03       		.byte	0x3
 1695 025f 08       		.uleb128 0x8
 1696 0260 A6030000 		.4byte	.LASF69
 1697 0264 04       		.byte	0x4
 1698 0265 08       		.uleb128 0x8
 1699 0266 8C080000 		.4byte	.LASF70
 1700 026a 05       		.byte	0x5
 1701 026b 08       		.uleb128 0x8
 1702 026c 60060000 		.4byte	.LASF71
 1703 0270 06       		.byte	0x6
 1704 0271 00       		.byte	0
 1705 0272 07       		.uleb128 0x7
 1706 0273 01       		.byte	0x1
 1707 0274 42000000 		.4byte	0x42
 1708 0278 08       		.byte	0x8
 1709 0279 91       		.byte	0x91
 1710 027a A3020000 		.4byte	0x2a3
 1711 027e 08       		.uleb128 0x8
 1712 027f A6050000 		.4byte	.LASF72
 1713 0283 00       		.byte	0
 1714 0284 08       		.uleb128 0x8
 1715 0285 BC050000 		.4byte	.LASF73
 1716 0289 01       		.byte	0x1
 1717 028a 08       		.uleb128 0x8
 1718 028b D2050000 		.4byte	.LASF74
 1719 028f 02       		.byte	0x2
 1720 0290 08       		.uleb128 0x8
 1721 0291 E8050000 		.4byte	.LASF75
 1722 0295 03       		.byte	0x3
 1723 0296 08       		.uleb128 0x8
 1724 0297 FE050000 		.4byte	.LASF76
 1725 029b 04       		.byte	0x4
 1726 029c 08       		.uleb128 0x8
 1727 029d 14060000 		.4byte	.LASF77
ARM GAS  C:\Users\ALEXAN~1\AppData\Local\Temp\ccCHRx39.s 			page 37


 1728 02a1 05       		.byte	0x5
 1729 02a2 00       		.byte	0
 1730 02a3 07       		.uleb128 0x7
 1731 02a4 01       		.byte	0x1
 1732 02a5 42000000 		.4byte	0x42
 1733 02a9 08       		.byte	0x8
 1734 02aa AA       		.byte	0xaa
 1735 02ab D4020000 		.4byte	0x2d4
 1736 02af 08       		.uleb128 0x8
 1737 02b0 D3020000 		.4byte	.LASF78
 1738 02b4 00       		.byte	0
 1739 02b5 08       		.uleb128 0x8
 1740 02b6 EC020000 		.4byte	.LASF79
 1741 02ba 01       		.byte	0x1
 1742 02bb 08       		.uleb128 0x8
 1743 02bc 05030000 		.4byte	.LASF80
 1744 02c0 02       		.byte	0x2
 1745 02c1 08       		.uleb128 0x8
 1746 02c2 1E030000 		.4byte	.LASF81
 1747 02c6 03       		.byte	0x3
 1748 02c7 08       		.uleb128 0x8
 1749 02c8 42090000 		.4byte	.LASF82
 1750 02cc 04       		.byte	0x4
 1751 02cd 08       		.uleb128 0x8
 1752 02ce 3E030000 		.4byte	.LASF83
 1753 02d2 05       		.byte	0x5
 1754 02d3 00       		.byte	0
 1755 02d4 07       		.uleb128 0x7
 1756 02d5 01       		.byte	0x1
 1757 02d6 42000000 		.4byte	0x42
 1758 02da 08       		.byte	0x8
 1759 02db D1       		.byte	0xd1
 1760 02dc ED020000 		.4byte	0x2ed
 1761 02e0 08       		.uleb128 0x8
 1762 02e1 5B090000 		.4byte	.LASF84
 1763 02e5 00       		.byte	0
 1764 02e6 08       		.uleb128 0x8
 1765 02e7 72090000 		.4byte	.LASF85
 1766 02eb 04       		.byte	0x4
 1767 02ec 00       		.byte	0
 1768 02ed 09       		.uleb128 0x9
 1769 02ee 01       		.byte	0x1
 1770 02ef 42000000 		.4byte	0x42
 1771 02f3 08       		.byte	0x8
 1772 02f4 4A01     		.2byte	0x14a
 1773 02f6 19030000 		.4byte	0x319
 1774 02fa 08       		.uleb128 0x8
 1775 02fb BA070000 		.4byte	.LASF86
 1776 02ff 00       		.byte	0
 1777 0300 08       		.uleb128 0x8
 1778 0301 50000000 		.4byte	.LASF87
 1779 0305 01       		.byte	0x1
 1780 0306 08       		.uleb128 0x8
 1781 0307 00050000 		.4byte	.LASF88
 1782 030b 04       		.byte	0x4
 1783 030c 08       		.uleb128 0x8
 1784 030d 1D010000 		.4byte	.LASF89
ARM GAS  C:\Users\ALEXAN~1\AppData\Local\Temp\ccCHRx39.s 			page 38


 1785 0311 05       		.byte	0x5
 1786 0312 08       		.uleb128 0x8
 1787 0313 E3040000 		.4byte	.LASF90
 1788 0317 06       		.byte	0x6
 1789 0318 00       		.byte	0
 1790 0319 09       		.uleb128 0x9
 1791 031a 01       		.byte	0x1
 1792 031b 42000000 		.4byte	0x42
 1793 031f 08       		.byte	0x8
 1794 0320 5B01     		.2byte	0x15b
 1795 0322 4B030000 		.4byte	0x34b
 1796 0326 08       		.uleb128 0x8
 1797 0327 89090000 		.4byte	.LASF91
 1798 032b 00       		.byte	0
 1799 032c 08       		.uleb128 0x8
 1800 032d E6080000 		.4byte	.LASF92
 1801 0331 01       		.byte	0x1
 1802 0332 08       		.uleb128 0x8
 1803 0333 FB080000 		.4byte	.LASF93
 1804 0337 02       		.byte	0x2
 1805 0338 08       		.uleb128 0x8
 1806 0339 10090000 		.4byte	.LASF94
 1807 033d 03       		.byte	0x3
 1808 033e 08       		.uleb128 0x8
 1809 033f A9090000 		.4byte	.LASF95
 1810 0343 04       		.byte	0x4
 1811 0344 08       		.uleb128 0x8
 1812 0345 2D090000 		.4byte	.LASF96
 1813 0349 05       		.byte	0x5
 1814 034a 00       		.byte	0
 1815 034b 09       		.uleb128 0x9
 1816 034c 01       		.byte	0x1
 1817 034d 42000000 		.4byte	0x42
 1818 0351 08       		.byte	0x8
 1819 0352 7401     		.2byte	0x174
 1820 0354 6B030000 		.4byte	0x36b
 1821 0358 08       		.uleb128 0x8
 1822 0359 CA090000 		.4byte	.LASF97
 1823 035d 00       		.byte	0
 1824 035e 08       		.uleb128 0x8
 1825 035f E2070000 		.4byte	.LASF98
 1826 0363 01       		.byte	0x1
 1827 0364 08       		.uleb128 0x8
 1828 0365 90070000 		.4byte	.LASF99
 1829 0369 02       		.byte	0x2
 1830 036a 00       		.byte	0
 1831 036b 06       		.uleb128 0x6
 1832 036c AD000000 		.4byte	0xad
 1833 0370 0A       		.uleb128 0xa
 1834 0371 08       		.byte	0x8
 1835 0372 01       		.byte	0x1
 1836 0373 07       		.byte	0x7
 1837 0374 90030000 		.4byte	0x390
 1838 0378 0B       		.uleb128 0xb
 1839 0379 AB010000 		.4byte	.LASF100
 1840 037d 01       		.byte	0x1
 1841 037e 08       		.byte	0x8
ARM GAS  C:\Users\ALEXAN~1\AppData\Local\Temp\ccCHRx39.s 			page 39


 1842 037f C3000000 		.4byte	0xc3
 1843 0383 00       		.byte	0
 1844 0384 0C       		.uleb128 0xc
 1845 0385 4B7000   		.ascii	"Kp\000"
 1846 0388 01       		.byte	0x1
 1847 0389 09       		.byte	0x9
 1848 038a FD000000 		.4byte	0xfd
 1849 038e 04       		.byte	0x4
 1850 038f 00       		.byte	0
 1851 0390 02       		.uleb128 0x2
 1852 0391 E5090000 		.4byte	.LASF101
 1853 0395 01       		.byte	0x1
 1854 0396 0A       		.byte	0xa
 1855 0397 70030000 		.4byte	0x370
 1856 039b 0A       		.uleb128 0xa
 1857 039c 18       		.byte	0x18
 1858 039d 02       		.byte	0x2
 1859 039e 0D       		.byte	0xd
 1860 039f D3030000 		.4byte	0x3d3
 1861 03a3 0B       		.uleb128 0xb
 1862 03a4 A1060000 		.4byte	.LASF102
 1863 03a8 02       		.byte	0x2
 1864 03a9 0E       		.byte	0xe
 1865 03aa FD000000 		.4byte	0xfd
 1866 03ae 00       		.byte	0
 1867 03af 0C       		.uleb128 0xc
 1868 03b0 4B7000   		.ascii	"Kp\000"
 1869 03b3 02       		.byte	0x2
 1870 03b4 0F       		.byte	0xf
 1871 03b5 FD000000 		.4byte	0xfd
 1872 03b9 04       		.byte	0x4
 1873 03ba 0B       		.uleb128 0xb
 1874 03bb 95040000 		.4byte	.LASF103
 1875 03bf 02       		.byte	0x2
 1876 03c0 10       		.byte	0x10
 1877 03c1 D3030000 		.4byte	0x3d3
 1878 03c5 08       		.byte	0x8
 1879 03c6 0B       		.uleb128 0xb
 1880 03c7 F7030000 		.4byte	.LASF104
 1881 03cb 02       		.byte	0x2
 1882 03cc 11       		.byte	0x11
 1883 03cd E3030000 		.4byte	0x3e3
 1884 03d1 14       		.byte	0x14
 1885 03d2 00       		.byte	0
 1886 03d3 0D       		.uleb128 0xd
 1887 03d4 FD000000 		.4byte	0xfd
 1888 03d8 E3030000 		.4byte	0x3e3
 1889 03dc 0E       		.uleb128 0xe
 1890 03dd 2A010000 		.4byte	0x12a
 1891 03e1 02       		.byte	0x2
 1892 03e2 00       		.byte	0
 1893 03e3 0D       		.uleb128 0xd
 1894 03e4 A2000000 		.4byte	0xa2
 1895 03e8 F3030000 		.4byte	0x3f3
 1896 03ec 0E       		.uleb128 0xe
 1897 03ed 2A010000 		.4byte	0x12a
 1898 03f1 02       		.byte	0x2
ARM GAS  C:\Users\ALEXAN~1\AppData\Local\Temp\ccCHRx39.s 			page 40


 1899 03f2 00       		.byte	0
 1900 03f3 02       		.uleb128 0x2
 1901 03f4 D1040000 		.4byte	.LASF105
 1902 03f8 02       		.byte	0x2
 1903 03f9 12       		.byte	0x12
 1904 03fa 9B030000 		.4byte	0x39b
 1905 03fe 0A       		.uleb128 0xa
 1906 03ff 0C       		.byte	0xc
 1907 0400 03       		.byte	0x3
 1908 0401 06       		.byte	0x6
 1909 0402 37040000 		.4byte	0x437
 1910 0406 0B       		.uleb128 0xb
 1911 0407 22080000 		.4byte	.LASF106
 1912 040b 03       		.byte	0x3
 1913 040c 07       		.byte	0x7
 1914 040d C3000000 		.4byte	0xc3
 1915 0411 00       		.byte	0
 1916 0412 0B       		.uleb128 0xb
 1917 0413 6A010000 		.4byte	.LASF107
 1918 0417 03       		.byte	0x3
 1919 0418 08       		.byte	0x8
 1920 0419 FD000000 		.4byte	0xfd
 1921 041d 04       		.byte	0x4
 1922 041e 0B       		.uleb128 0xb
 1923 041f 92060000 		.4byte	.LASF108
 1924 0423 03       		.byte	0x3
 1925 0424 0B       		.byte	0xb
 1926 0425 B8000000 		.4byte	0xb8
 1927 0429 08       		.byte	0x8
 1928 042a 0B       		.uleb128 0xb
 1929 042b A5040000 		.4byte	.LASF109
 1930 042f 03       		.byte	0x3
 1931 0430 0C       		.byte	0xc
 1932 0431 A2000000 		.4byte	0xa2
 1933 0435 0A       		.byte	0xa
 1934 0436 00       		.byte	0
 1935 0437 02       		.uleb128 0x2
 1936 0438 45020000 		.4byte	.LASF110
 1937 043c 03       		.byte	0x3
 1938 043d 0D       		.byte	0xd
 1939 043e FE030000 		.4byte	0x3fe
 1940 0442 0F       		.uleb128 0xf
 1941 0443 9E090000 		.4byte	.LASF114
 1942 0447 01       		.byte	0x1
 1943 0448 0C       		.byte	0xc
 1944 0449 90030000 		.4byte	0x390
 1945 044d 00000000 		.4byte	.LFB64
 1946 0451 24000000 		.4byte	.LFE64-.LFB64
 1947 0455 01       		.uleb128 0x1
 1948 0456 9C       		.byte	0x9c
 1949 0457 77040000 		.4byte	0x477
 1950 045b 10       		.uleb128 0x10
 1951 045c AB010000 		.4byte	.LASF100
 1952 0460 01       		.byte	0x1
 1953 0461 0C       		.byte	0xc
 1954 0462 C3000000 		.4byte	0xc3
 1955 0466 02       		.uleb128 0x2
ARM GAS  C:\Users\ALEXAN~1\AppData\Local\Temp\ccCHRx39.s 			page 41


 1956 0467 91       		.byte	0x91
 1957 0468 72       		.sleb128 -14
 1958 0469 11       		.uleb128 0x11
 1959 046a 4B7000   		.ascii	"Kp\000"
 1960 046d 01       		.byte	0x1
 1961 046e 0C       		.byte	0xc
 1962 046f FD000000 		.4byte	0xfd
 1963 0473 02       		.uleb128 0x2
 1964 0474 91       		.byte	0x91
 1965 0475 6C       		.sleb128 -20
 1966 0476 00       		.byte	0
 1967 0477 12       		.uleb128 0x12
 1968 0478 76000000 		.4byte	.LASF116
 1969 047c 01       		.byte	0x1
 1970 047d 10       		.byte	0x10
 1971 047e 00000000 		.4byte	.LFB65
 1972 0482 F8000000 		.4byte	.LFE65-.LFB65
 1973 0486 01       		.uleb128 0x1
 1974 0487 9C       		.byte	0x9c
 1975 0488 E3040000 		.4byte	0x4e3
 1976 048c 11       		.uleb128 0x11
 1977 048d 6D00     		.ascii	"m\000"
 1978 048f 01       		.byte	0x1
 1979 0490 10       		.byte	0x10
 1980 0491 E3040000 		.4byte	0x4e3
 1981 0495 03       		.uleb128 0x3
 1982 0496 91       		.byte	0x91
 1983 0497 9C7E     		.sleb128 -228
 1984 0499 10       		.uleb128 0x10
 1985 049a C9020000 		.4byte	.LASF111
 1986 049e 01       		.byte	0x1
 1987 049f 10       		.byte	0x10
 1988 04a0 C3000000 		.4byte	0xc3
 1989 04a4 03       		.uleb128 0x3
 1990 04a5 91       		.byte	0x91
 1991 04a6 9A7E     		.sleb128 -230
 1992 04a8 10       		.uleb128 0x10
 1993 04a9 92060000 		.4byte	.LASF108
 1994 04ad 01       		.byte	0x1
 1995 04ae 10       		.byte	0x10
 1996 04af B8000000 		.4byte	0xb8
 1997 04b3 03       		.uleb128 0x3
 1998 04b4 91       		.byte	0x91
 1999 04b5 987E     		.sleb128 -232
 2000 04b7 13       		.uleb128 0x13
 2001 04b8 3F050000 		.4byte	.LASF112
 2002 04bc 01       		.byte	0x1
 2003 04bd 11       		.byte	0x11
 2004 04be B8000000 		.4byte	0xb8
 2005 04c2 02       		.uleb128 0x2
 2006 04c3 91       		.byte	0x91
 2007 04c4 6A       		.sleb128 -22
 2008 04c5 13       		.uleb128 0x13
 2009 04c6 5D050000 		.4byte	.LASF113
 2010 04ca 01       		.byte	0x1
 2011 04cb 12       		.byte	0x12
 2012 04cc CE000000 		.4byte	0xce
ARM GAS  C:\Users\ALEXAN~1\AppData\Local\Temp\ccCHRx39.s 			page 42


 2013 04d0 02       		.uleb128 0x2
 2014 04d1 91       		.byte	0x91
 2015 04d2 6C       		.sleb128 -20
 2016 04d3 14       		.uleb128 0x14
 2017 04d4 6F757400 		.ascii	"out\000"
 2018 04d8 01       		.byte	0x1
 2019 04d9 2B       		.byte	0x2b
 2020 04da E9040000 		.4byte	0x4e9
 2021 04de 03       		.uleb128 0x3
 2022 04df 91       		.byte	0x91
 2023 04e0 A07E     		.sleb128 -224
 2024 04e2 00       		.byte	0
 2025 04e3 15       		.uleb128 0x15
 2026 04e4 04       		.byte	0x4
 2027 04e5 90030000 		.4byte	0x390
 2028 04e9 0D       		.uleb128 0xd
 2029 04ea 0B010000 		.4byte	0x10b
 2030 04ee F9040000 		.4byte	0x4f9
 2031 04f2 0E       		.uleb128 0xe
 2032 04f3 2A010000 		.4byte	0x12a
 2033 04f7 C7       		.byte	0xc7
 2034 04f8 00       		.byte	0
 2035 04f9 0F       		.uleb128 0xf
 2036 04fa 00000000 		.4byte	.LASF115
 2037 04fe 02       		.byte	0x2
 2038 04ff 14       		.byte	0x14
 2039 0500 F3030000 		.4byte	0x3f3
 2040 0504 00000000 		.4byte	.LFB66
 2041 0508 34000000 		.4byte	.LFE66-.LFB66
 2042 050c 01       		.uleb128 0x1
 2043 050d 9C       		.byte	0x9c
 2044 050e 2E050000 		.4byte	0x52e
 2045 0512 10       		.uleb128 0x10
 2046 0513 A1060000 		.4byte	.LASF102
 2047 0517 02       		.byte	0x2
 2048 0518 14       		.byte	0x14
 2049 0519 FD000000 		.4byte	0xfd
 2050 051d 02       		.uleb128 0x2
 2051 051e 91       		.byte	0x91
 2052 051f 70       		.sleb128 -16
 2053 0520 11       		.uleb128 0x11
 2054 0521 4B7000   		.ascii	"Kp\000"
 2055 0524 02       		.byte	0x2
 2056 0525 14       		.byte	0x14
 2057 0526 FD000000 		.4byte	0xfd
 2058 052a 02       		.uleb128 0x2
 2059 052b 91       		.byte	0x91
 2060 052c 6C       		.sleb128 -20
 2061 052d 00       		.byte	0
 2062 052e 12       		.uleb128 0x12
 2063 052f 26050000 		.4byte	.LASF117
 2064 0533 02       		.byte	0x2
 2065 0534 1E       		.byte	0x1e
 2066 0535 00000000 		.4byte	.LFB67
 2067 0539 48020000 		.4byte	.LFE67-.LFB67
 2068 053d 01       		.uleb128 0x1
 2069 053e 9C       		.byte	0x9c
ARM GAS  C:\Users\ALEXAN~1\AppData\Local\Temp\ccCHRx39.s 			page 43


 2070 053f B2050000 		.4byte	0x5b2
 2071 0543 11       		.uleb128 0x11
 2072 0544 7300     		.ascii	"s\000"
 2073 0546 02       		.byte	0x2
 2074 0547 1E       		.byte	0x1e
 2075 0548 B2050000 		.4byte	0x5b2
 2076 054c 02       		.uleb128 0x2
 2077 054d 91       		.byte	0x91
 2078 054e 54       		.sleb128 -44
 2079 054f 10       		.uleb128 0x10
 2080 0550 6A010000 		.4byte	.LASF107
 2081 0554 02       		.byte	0x2
 2082 0555 1E       		.byte	0x1e
 2083 0556 FD000000 		.4byte	0xfd
 2084 055a 02       		.uleb128 0x2
 2085 055b 91       		.byte	0x91
 2086 055c 50       		.sleb128 -48
 2087 055d 10       		.uleb128 0x10
 2088 055e A5040000 		.4byte	.LASF109
 2089 0562 02       		.byte	0x2
 2090 0563 1E       		.byte	0x1e
 2091 0564 94000000 		.4byte	0x94
 2092 0568 02       		.uleb128 0x2
 2093 0569 91       		.byte	0x91
 2094 056a 4C       		.sleb128 -52
 2095 056b 10       		.uleb128 0x10
 2096 056c 92060000 		.4byte	.LASF108
 2097 0570 02       		.byte	0x2
 2098 0571 1E       		.byte	0x1e
 2099 0572 B8000000 		.4byte	0xb8
 2100 0576 02       		.uleb128 0x2
 2101 0577 91       		.byte	0x91
 2102 0578 4A       		.sleb128 -54
 2103 0579 13       		.uleb128 0x13
 2104 057a BE090000 		.4byte	.LASF118
 2105 057e 02       		.byte	0x2
 2106 057f 1F       		.byte	0x1f
 2107 0580 FD000000 		.4byte	0xfd
 2108 0584 02       		.uleb128 0x2
 2109 0585 91       		.byte	0x91
 2110 0586 64       		.sleb128 -28
 2111 0587 13       		.uleb128 0x13
 2112 0588 39080000 		.4byte	.LASF119
 2113 058c 02       		.byte	0x2
 2114 058d 31       		.byte	0x31
 2115 058e FD000000 		.4byte	0xfd
 2116 0592 02       		.uleb128 0x2
 2117 0593 91       		.byte	0x91
 2118 0594 5C       		.sleb128 -36
 2119 0595 13       		.uleb128 0x13
 2120 0596 11010000 		.4byte	.LASF120
 2121 059a 02       		.byte	0x2
 2122 059b 34       		.byte	0x34
 2123 059c FD000000 		.4byte	0xfd
 2124 05a0 02       		.uleb128 0x2
 2125 05a1 91       		.byte	0x91
 2126 05a2 60       		.sleb128 -32
ARM GAS  C:\Users\ALEXAN~1\AppData\Local\Temp\ccCHRx39.s 			page 44


 2127 05a3 13       		.uleb128 0x13
 2128 05a4 58070000 		.4byte	.LASF121
 2129 05a8 02       		.byte	0x2
 2130 05a9 3D       		.byte	0x3d
 2131 05aa B8000000 		.4byte	0xb8
 2132 05ae 02       		.uleb128 0x2
 2133 05af 91       		.byte	0x91
 2134 05b0 5A       		.sleb128 -38
 2135 05b1 00       		.byte	0
 2136 05b2 15       		.uleb128 0x15
 2137 05b3 04       		.byte	0x4
 2138 05b4 F3030000 		.4byte	0x3f3
 2139 05b8 16       		.uleb128 0x16
 2140 05b9 BD020000 		.4byte	.LASF127
 2141 05bd 03       		.byte	0x3
 2142 05be 0F       		.byte	0xf
 2143 05bf 37040000 		.4byte	0x437
 2144 05c3 00000000 		.4byte	.LFB68
 2145 05c7 1E000000 		.4byte	.LFE68-.LFB68
 2146 05cb 01       		.uleb128 0x1
 2147 05cc 9C       		.byte	0x9c
 2148 05cd 17       		.uleb128 0x17
 2149 05ce 85050000 		.4byte	.LASF122
 2150 05d2 03       		.byte	0x3
 2151 05d3 13       		.byte	0x13
 2152 05d4 00000000 		.4byte	.LFB69
 2153 05d8 26000000 		.4byte	.LFE69-.LFB69
 2154 05dc 01       		.uleb128 0x1
 2155 05dd 9C       		.byte	0x9c
 2156 05de 0B060000 		.4byte	0x60b
 2157 05e2 11       		.uleb128 0x11
 2158 05e3 7300     		.ascii	"s\000"
 2159 05e5 03       		.byte	0x3
 2160 05e6 13       		.byte	0x13
 2161 05e7 0B060000 		.4byte	0x60b
 2162 05eb 02       		.uleb128 0x2
 2163 05ec 91       		.byte	0x91
 2164 05ed 74       		.sleb128 -12
 2165 05ee 10       		.uleb128 0x10
 2166 05ef 92060000 		.4byte	.LASF108
 2167 05f3 03       		.byte	0x3
 2168 05f4 13       		.byte	0x13
 2169 05f5 B8000000 		.4byte	0xb8
 2170 05f9 02       		.uleb128 0x2
 2171 05fa 91       		.byte	0x91
 2172 05fb 72       		.sleb128 -14
 2173 05fc 10       		.uleb128 0x10
 2174 05fd A5040000 		.4byte	.LASF109
 2175 0601 03       		.byte	0x3
 2176 0602 13       		.byte	0x13
 2177 0603 A2000000 		.4byte	0xa2
 2178 0607 02       		.uleb128 0x2
 2179 0608 91       		.byte	0x91
 2180 0609 71       		.sleb128 -15
 2181 060a 00       		.byte	0
 2182 060b 15       		.uleb128 0x15
 2183 060c 04       		.byte	0x4
ARM GAS  C:\Users\ALEXAN~1\AppData\Local\Temp\ccCHRx39.s 			page 45


 2184 060d 37040000 		.4byte	0x437
 2185 0611 12       		.uleb128 0x12
 2186 0612 C3080000 		.4byte	.LASF123
 2187 0616 03       		.byte	0x3
 2188 0617 18       		.byte	0x18
 2189 0618 00000000 		.4byte	.LFB70
 2190 061c 34010000 		.4byte	.LFE70-.LFB70
 2191 0620 01       		.uleb128 0x1
 2192 0621 9C       		.byte	0x9c
 2193 0622 A5060000 		.4byte	0x6a5
 2194 0626 11       		.uleb128 0x11
 2195 0627 7300     		.ascii	"s\000"
 2196 0629 03       		.byte	0x3
 2197 062a 18       		.byte	0x18
 2198 062b 0B060000 		.4byte	0x60b
 2199 062f 02       		.uleb128 0x2
 2200 0630 91       		.byte	0x91
 2201 0631 5C       		.sleb128 -36
 2202 0632 10       		.uleb128 0x10
 2203 0633 12000000 		.4byte	.LASF124
 2204 0637 03       		.byte	0x3
 2205 0638 18       		.byte	0x18
 2206 0639 A5060000 		.4byte	0x6a5
 2207 063d 02       		.uleb128 0x2
 2208 063e 91       		.byte	0x91
 2209 063f 58       		.sleb128 -40
 2210 0640 10       		.uleb128 0x10
 2211 0641 19000000 		.4byte	.LASF125
 2212 0645 03       		.byte	0x3
 2213 0646 18       		.byte	0x18
 2214 0647 A5060000 		.4byte	0x6a5
 2215 064b 02       		.uleb128 0x2
 2216 064c 91       		.byte	0x91
 2217 064d 54       		.sleb128 -44
 2218 064e 10       		.uleb128 0x10
 2219 064f 18070000 		.4byte	.LASF126
 2220 0653 03       		.byte	0x3
 2221 0654 18       		.byte	0x18
 2222 0655 C3000000 		.4byte	0xc3
 2223 0659 02       		.uleb128 0x2
 2224 065a 91       		.byte	0x91
 2225 065b 52       		.sleb128 -46
 2226 065c 14       		.uleb128 0x14
 2227 065d 6100     		.ascii	"a\000"
 2228 065f 03       		.byte	0x3
 2229 0660 1A       		.byte	0x1a
 2230 0661 C3000000 		.4byte	0xc3
 2231 0665 02       		.uleb128 0x2
 2232 0666 91       		.byte	0x91
 2233 0667 6E       		.sleb128 -18
 2234 0668 14       		.uleb128 0x14
 2235 0669 6200     		.ascii	"b\000"
 2236 066b 03       		.byte	0x3
 2237 066c 1A       		.byte	0x1a
 2238 066d C3000000 		.4byte	0xc3
 2239 0671 02       		.uleb128 0x2
 2240 0672 91       		.byte	0x91
ARM GAS  C:\Users\ALEXAN~1\AppData\Local\Temp\ccCHRx39.s 			page 46


 2241 0673 6C       		.sleb128 -20
 2242 0674 14       		.uleb128 0x14
 2243 0675 616900   		.ascii	"ai\000"
 2244 0678 03       		.byte	0x3
 2245 0679 1B       		.byte	0x1b
 2246 067a C3000000 		.4byte	0xc3
 2247 067e 02       		.uleb128 0x2
 2248 067f 91       		.byte	0x91
 2249 0680 6A       		.sleb128 -22
 2250 0681 14       		.uleb128 0x14
 2251 0682 626900   		.ascii	"bi\000"
 2252 0685 03       		.byte	0x3
 2253 0686 1B       		.byte	0x1b
 2254 0687 C3000000 		.4byte	0xc3
 2255 068b 02       		.uleb128 0x2
 2256 068c 91       		.byte	0x91
 2257 068d 68       		.sleb128 -24
 2258 068e 18       		.uleb128 0x18
 2259 068f 1E000000 		.4byte	.LBB2
 2260 0693 54000000 		.4byte	.LBE2-.LBB2
 2261 0697 14       		.uleb128 0x14
 2262 0698 6900     		.ascii	"i\000"
 2263 069a 03       		.byte	0x3
 2264 069b 1E       		.byte	0x1e
 2265 069c C3000000 		.4byte	0xc3
 2266 06a0 02       		.uleb128 0x2
 2267 06a1 91       		.byte	0x91
 2268 06a2 66       		.sleb128 -26
 2269 06a3 00       		.byte	0
 2270 06a4 00       		.byte	0
 2271 06a5 15       		.uleb128 0x15
 2272 06a6 04       		.byte	0x4
 2273 06a7 C3000000 		.4byte	0xc3
 2274 06ab 19       		.uleb128 0x19
 2275 06ac 41010000 		.4byte	.LASF128
 2276 06b0 04       		.byte	0x4
 2277 06b1 1E       		.byte	0x1e
 2278 06b2 00000000 		.4byte	.LFB71
 2279 06b6 18000000 		.4byte	.LFE71-.LFB71
 2280 06ba 01       		.uleb128 0x1
 2281 06bb 9C       		.byte	0x9c
 2282 06bc 19       		.uleb128 0x19
 2283 06bd 9D020000 		.4byte	.LASF129
 2284 06c1 04       		.byte	0x4
 2285 06c2 24       		.byte	0x24
 2286 06c3 00000000 		.4byte	.LFB72
 2287 06c7 18000000 		.4byte	.LFE72-.LFB72
 2288 06cb 01       		.uleb128 0x1
 2289 06cc 9C       		.byte	0x9c
 2290 06cd 12       		.uleb128 0x12
 2291 06ce 89040000 		.4byte	.LASF130
 2292 06d2 04       		.byte	0x4
 2293 06d3 2B       		.byte	0x2b
 2294 06d4 00000000 		.4byte	.LFB73
 2295 06d8 50000000 		.4byte	.LFE73-.LFB73
 2296 06dc 01       		.uleb128 0x1
 2297 06dd 9C       		.byte	0x9c
ARM GAS  C:\Users\ALEXAN~1\AppData\Local\Temp\ccCHRx39.s 			page 47


 2298 06de FF060000 		.4byte	0x6ff
 2299 06e2 13       		.uleb128 0x13
 2300 06e3 74070000 		.4byte	.LASF131
 2301 06e7 04       		.byte	0x4
 2302 06e8 33       		.byte	0x33
 2303 06e9 30020000 		.4byte	0x230
 2304 06ed 02       		.uleb128 0x2
 2305 06ee 91       		.byte	0x91
 2306 06ef 77       		.sleb128 -9
 2307 06f0 13       		.uleb128 0x13
 2308 06f1 71040000 		.4byte	.LASF132
 2309 06f5 04       		.byte	0x4
 2310 06f6 37       		.byte	0x37
 2311 06f7 FF060000 		.4byte	0x6ff
 2312 06fb 02       		.uleb128 0x2
 2313 06fc 91       		.byte	0x91
 2314 06fd 74       		.sleb128 -12
 2315 06fe 00       		.byte	0
 2316 06ff 0D       		.uleb128 0xd
 2317 0700 AD000000 		.4byte	0xad
 2318 0704 0F070000 		.4byte	0x70f
 2319 0708 0E       		.uleb128 0xe
 2320 0709 2A010000 		.4byte	0x12a
 2321 070d 01       		.byte	0x1
 2322 070e 00       		.byte	0
 2323 070f 1A       		.uleb128 0x1a
 2324 0710 F8090000 		.4byte	.LASF133
 2325 0714 04       		.byte	0x4
 2326 0715 40       		.byte	0x40
 2327 0716 94000000 		.4byte	0x94
 2328 071a 00000000 		.4byte	.LFB74
 2329 071e E0020000 		.4byte	.LFE74-.LFB74
 2330 0722 01       		.uleb128 0x1
 2331 0723 9C       		.byte	0x9c
 2332 0724 45070000 		.4byte	0x745
 2333 0728 13       		.uleb128 0x13
 2334 0729 9B060000 		.4byte	.LASF134
 2335 072d 04       		.byte	0x4
 2336 072e 6F       		.byte	0x6f
 2337 072f 90030000 		.4byte	0x390
 2338 0733 02       		.uleb128 0x2
 2339 0734 91       		.byte	0x91
 2340 0735 70       		.sleb128 -16
 2341 0736 13       		.uleb128 0x13
 2342 0737 060A0000 		.4byte	.LASF135
 2343 073b 04       		.byte	0x4
 2344 073c 72       		.byte	0x72
 2345 073d F3030000 		.4byte	0x3f3
 2346 0741 02       		.uleb128 0x2
 2347 0742 91       		.byte	0x91
 2348 0743 58       		.sleb128 -40
 2349 0744 00       		.byte	0
 2350 0745 13       		.uleb128 0x13
 2351 0746 4A080000 		.4byte	.LASF136
 2352 074a 02       		.byte	0x2
 2353 074b 06       		.byte	0x6
 2354 074c 56070000 		.4byte	0x756
ARM GAS  C:\Users\ALEXAN~1\AppData\Local\Temp\ccCHRx39.s 			page 48


 2355 0750 05       		.uleb128 0x5
 2356 0751 03       		.byte	0x3
 2357 0752 0A000000 		.4byte	t_right
 2358 0756 1B       		.uleb128 0x1b
 2359 0757 C3000000 		.4byte	0xc3
 2360 075b 13       		.uleb128 0x13
 2361 075c 7D030000 		.4byte	.LASF137
 2362 0760 02       		.byte	0x2
 2363 0761 07       		.byte	0x7
 2364 0762 56070000 		.4byte	0x756
 2365 0766 05       		.uleb128 0x5
 2366 0767 03       		.byte	0x3
 2367 0768 0C000000 		.4byte	t_left
 2368 076c 13       		.uleb128 0x13
 2369 076d FD090000 		.4byte	.LASF138
 2370 0771 02       		.byte	0x2
 2371 0772 08       		.byte	0x8
 2372 0773 56070000 		.4byte	0x756
 2373 0777 05       		.uleb128 0x5
 2374 0778 03       		.byte	0x3
 2375 0779 0E000000 		.4byte	t_center
 2376 077d 13       		.uleb128 0x13
 2377 077e B7080000 		.4byte	.LASF139
 2378 0782 02       		.byte	0x2
 2379 0783 09       		.byte	0x9
 2380 0784 56070000 		.4byte	0x756
 2381 0788 05       		.uleb128 0x5
 2382 0789 03       		.byte	0x3
 2383 078a 10000000 		.4byte	theta_total
 2384 078e 13       		.uleb128 0x13
 2385 078f 0C0A0000 		.4byte	.LASF140
 2386 0793 02       		.byte	0x2
 2387 0794 0A       		.byte	0xa
 2388 0795 9F070000 		.4byte	0x79f
 2389 0799 05       		.uleb128 0x5
 2390 079a 03       		.byte	0x3
 2391 079b 14000000 		.4byte	turn_factor
 2392 079f 1B       		.uleb128 0x1b
 2393 07a0 FD000000 		.4byte	0xfd
 2394 07a4 13       		.uleb128 0x13
 2395 07a5 43080000 		.4byte	.LASF141
 2396 07a9 02       		.byte	0x2
 2397 07aa 0B       		.byte	0xb
 2398 07ab B5070000 		.4byte	0x7b5
 2399 07af 05       		.uleb128 0x5
 2400 07b0 03       		.byte	0x3
 2401 07b1 18000000 		.4byte	offset
 2402 07b5 1B       		.uleb128 0x1b
 2403 07b6 A2000000 		.4byte	0xa2
 2404 07ba 1C       		.uleb128 0x1c
 2405 07bb 9E010000 		.4byte	.LASF142
 2406 07bf 09       		.byte	0x9
 2407 07c0 1207     		.2byte	0x712
 2408 07c2 C6070000 		.4byte	0x7c6
 2409 07c6 06       		.uleb128 0x6
 2410 07c7 CE000000 		.4byte	0xce
 2411 07cb 1D       		.uleb128 0x1d
ARM GAS  C:\Users\ALEXAN~1\AppData\Local\Temp\ccCHRx39.s 			page 49


 2412 07cc ED090000 		.4byte	.LASF143
 2413 07d0 0A       		.byte	0xa
 2414 07d1 0D       		.byte	0xd
 2415 07d2 D9000000 		.4byte	0xd9
 2416 07d6 05       		.uleb128 0x5
 2417 07d7 03       		.byte	0x3
 2418 07d8 00000000 		.4byte	DMA_A_Chan
 2419 07dc 0D       		.uleb128 0xd
 2420 07dd D9000000 		.4byte	0xd9
 2421 07e1 EC070000 		.4byte	0x7ec
 2422 07e5 0E       		.uleb128 0xe
 2423 07e6 2A010000 		.4byte	0x12a
 2424 07ea 00       		.byte	0
 2425 07eb 00       		.byte	0
 2426 07ec 1D       		.uleb128 0x1d
 2427 07ed D4030000 		.4byte	.LASF144
 2428 07f1 0A       		.byte	0xa
 2429 07f2 0E       		.byte	0xe
 2430 07f3 DC070000 		.4byte	0x7dc
 2431 07f7 05       		.uleb128 0x5
 2432 07f8 03       		.byte	0x3
 2433 07f9 00000000 		.4byte	DMA_A_TD
 2434 07fd 1D       		.uleb128 0x1d
 2435 07fe FD070000 		.4byte	.LASF145
 2436 0802 0A       		.byte	0xa
 2437 0803 17       		.byte	0x17
 2438 0804 D9000000 		.4byte	0xd9
 2439 0808 05       		.uleb128 0x5
 2440 0809 03       		.byte	0x3
 2441 080a 00000000 		.4byte	DMA_B_Chan
 2442 080e 1D       		.uleb128 0x1d
 2443 080f 1D050000 		.4byte	.LASF146
 2444 0813 0A       		.byte	0xa
 2445 0814 18       		.byte	0x18
 2446 0815 DC070000 		.4byte	0x7dc
 2447 0819 05       		.uleb128 0x5
 2448 081a 03       		.byte	0x3
 2449 081b 00000000 		.4byte	DMA_B_TD
 2450 081f 1D       		.uleb128 0x1d
 2451 0820 BF040000 		.4byte	.LASF147
 2452 0824 0A       		.byte	0xa
 2453 0825 20       		.byte	0x20
 2454 0826 D9000000 		.4byte	0xd9
 2455 082a 05       		.uleb128 0x5
 2456 082b 03       		.byte	0x3
 2457 082c 00000000 		.4byte	DMA_A_Filter_Chan
 2458 0830 1D       		.uleb128 0x1d
 2459 0831 12080000 		.4byte	.LASF148
 2460 0835 0A       		.byte	0xa
 2461 0836 21       		.byte	0x21
 2462 0837 DC070000 		.4byte	0x7dc
 2463 083b 05       		.uleb128 0x5
 2464 083c 03       		.byte	0x3
 2465 083d 00000000 		.4byte	DMA_A_Filter_TD
 2466 0841 1D       		.uleb128 0x1d
 2467 0842 7A060000 		.4byte	.LASF149
 2468 0846 0A       		.byte	0xa
ARM GAS  C:\Users\ALEXAN~1\AppData\Local\Temp\ccCHRx39.s 			page 50


 2469 0847 29       		.byte	0x29
 2470 0848 D9000000 		.4byte	0xd9
 2471 084c 05       		.uleb128 0x5
 2472 084d 03       		.byte	0x3
 2473 084e 00000000 		.4byte	DMA_B_Filter_Chan
 2474 0852 1D       		.uleb128 0x1d
 2475 0853 27020000 		.4byte	.LASF150
 2476 0857 0A       		.byte	0xa
 2477 0858 2A       		.byte	0x2a
 2478 0859 DC070000 		.4byte	0x7dc
 2479 085d 05       		.uleb128 0x5
 2480 085e 03       		.byte	0x3
 2481 085f 00000000 		.4byte	DMA_B_Filter_TD
 2482 0863 0D       		.uleb128 0xd
 2483 0864 73080000 		.4byte	0x873
 2484 0868 73080000 		.4byte	0x873
 2485 086c 0E       		.uleb128 0xe
 2486 086d 2A010000 		.4byte	0x12a
 2487 0871 04       		.byte	0x4
 2488 0872 00       		.byte	0
 2489 0873 1B       		.uleb128 0x1b
 2490 0874 AD000000 		.4byte	0xad
 2491 0878 1D       		.uleb128 0x1d
 2492 0879 39010000 		.4byte	.LASF151
 2493 087d 04       		.byte	0x4
 2494 087e 0F       		.byte	0xf
 2495 087f 89080000 		.4byte	0x889
 2496 0883 05       		.uleb128 0x5
 2497 0884 03       		.byte	0x3
 2498 0885 00000000 		.4byte	RX_ADDR
 2499 0889 1B       		.uleb128 0x1b
 2500 088a 63080000 		.4byte	0x863
 2501 088e 0D       		.uleb128 0xd
 2502 088f C3000000 		.4byte	0xc3
 2503 0893 9F080000 		.4byte	0x89f
 2504 0897 1E       		.uleb128 0x1e
 2505 0898 2A010000 		.4byte	0x12a
 2506 089c DB05     		.2byte	0x5db
 2507 089e 00       		.byte	0
 2508 089f 1D       		.uleb128 0x1d
 2509 08a0 A7070000 		.4byte	.LASF152
 2510 08a4 04       		.byte	0x4
 2511 08a5 14       		.byte	0x14
 2512 08a6 8E080000 		.4byte	0x88e
 2513 08aa 05       		.uleb128 0x5
 2514 08ab 03       		.byte	0x3
 2515 08ac 00000000 		.4byte	DataA
 2516 08b0 1D       		.uleb128 0x1d
 2517 08b1 B9040000 		.4byte	.LASF153
 2518 08b5 04       		.byte	0x4
 2519 08b6 15       		.byte	0x15
 2520 08b7 8E080000 		.4byte	0x88e
 2521 08bb 05       		.uleb128 0x5
 2522 08bc 03       		.byte	0x3
 2523 08bd 00000000 		.4byte	DataB
 2524 08c1 1D       		.uleb128 0x1d
 2525 08c2 7A050000 		.4byte	.LASF154
ARM GAS  C:\Users\ALEXAN~1\AppData\Local\Temp\ccCHRx39.s 			page 51


 2526 08c6 04       		.byte	0x4
 2527 08c7 17       		.byte	0x17
 2528 08c8 6B030000 		.4byte	0x36b
 2529 08cc 05       		.uleb128 0x5
 2530 08cd 03       		.byte	0x3
 2531 08ce 00000000 		.4byte	ISR_A_done
 2532 08d2 1D       		.uleb128 0x1d
 2533 08d3 4D070000 		.4byte	.LASF155
 2534 08d7 04       		.byte	0x4
 2535 08d8 18       		.byte	0x18
 2536 08d9 6B030000 		.4byte	0x36b
 2537 08dd 05       		.uleb128 0x5
 2538 08de 03       		.byte	0x3
 2539 08df 00000000 		.4byte	ISR_B_done
 2540 08e3 1D       		.uleb128 0x1d
 2541 08e4 DD030000 		.4byte	.LASF156
 2542 08e8 04       		.byte	0x4
 2543 08e9 1A       		.byte	0x1a
 2544 08ea E9040000 		.4byte	0x4e9
 2545 08ee 05       		.uleb128 0x5
 2546 08ef 03       		.byte	0x3
 2547 08f0 00000000 		.4byte	output
 2548 08f4 1D       		.uleb128 0x1d
 2549 08f5 20000000 		.4byte	.LASF157
 2550 08f9 04       		.byte	0x4
 2551 08fa 1C       		.byte	0x1c
 2552 08fb 05090000 		.4byte	0x905
 2553 08ff 05       		.uleb128 0x5
 2554 0900 03       		.byte	0x3
 2555 0901 00000000 		.4byte	sensor_data
 2556 0905 06       		.uleb128 0x6
 2557 0906 37040000 		.4byte	0x437
 2558 090a 00       		.byte	0
 2559              		.section	.debug_abbrev,"",%progbits
 2560              	.Ldebug_abbrev0:
 2561 0000 01       		.uleb128 0x1
 2562 0001 11       		.uleb128 0x11
 2563 0002 01       		.byte	0x1
 2564 0003 25       		.uleb128 0x25
 2565 0004 0E       		.uleb128 0xe
 2566 0005 13       		.uleb128 0x13
 2567 0006 0B       		.uleb128 0xb
 2568 0007 03       		.uleb128 0x3
 2569 0008 0E       		.uleb128 0xe
 2570 0009 1B       		.uleb128 0x1b
 2571 000a 0E       		.uleb128 0xe
 2572 000b 55       		.uleb128 0x55
 2573 000c 17       		.uleb128 0x17
 2574 000d 11       		.uleb128 0x11
 2575 000e 01       		.uleb128 0x1
 2576 000f 10       		.uleb128 0x10
 2577 0010 17       		.uleb128 0x17
 2578 0011 00       		.byte	0
 2579 0012 00       		.byte	0
 2580 0013 02       		.uleb128 0x2
 2581 0014 16       		.uleb128 0x16
 2582 0015 00       		.byte	0
ARM GAS  C:\Users\ALEXAN~1\AppData\Local\Temp\ccCHRx39.s 			page 52


 2583 0016 03       		.uleb128 0x3
 2584 0017 0E       		.uleb128 0xe
 2585 0018 3A       		.uleb128 0x3a
 2586 0019 0B       		.uleb128 0xb
 2587 001a 3B       		.uleb128 0x3b
 2588 001b 0B       		.uleb128 0xb
 2589 001c 49       		.uleb128 0x49
 2590 001d 13       		.uleb128 0x13
 2591 001e 00       		.byte	0
 2592 001f 00       		.byte	0
 2593 0020 03       		.uleb128 0x3
 2594 0021 24       		.uleb128 0x24
 2595 0022 00       		.byte	0
 2596 0023 0B       		.uleb128 0xb
 2597 0024 0B       		.uleb128 0xb
 2598 0025 3E       		.uleb128 0x3e
 2599 0026 0B       		.uleb128 0xb
 2600 0027 03       		.uleb128 0x3
 2601 0028 0E       		.uleb128 0xe
 2602 0029 00       		.byte	0
 2603 002a 00       		.byte	0
 2604 002b 04       		.uleb128 0x4
 2605 002c 24       		.uleb128 0x24
 2606 002d 00       		.byte	0
 2607 002e 0B       		.uleb128 0xb
 2608 002f 0B       		.uleb128 0xb
 2609 0030 3E       		.uleb128 0x3e
 2610 0031 0B       		.uleb128 0xb
 2611 0032 03       		.uleb128 0x3
 2612 0033 08       		.uleb128 0x8
 2613 0034 00       		.byte	0
 2614 0035 00       		.byte	0
 2615 0036 05       		.uleb128 0x5
 2616 0037 16       		.uleb128 0x16
 2617 0038 00       		.byte	0
 2618 0039 03       		.uleb128 0x3
 2619 003a 0E       		.uleb128 0xe
 2620 003b 3A       		.uleb128 0x3a
 2621 003c 0B       		.uleb128 0xb
 2622 003d 3B       		.uleb128 0x3b
 2623 003e 05       		.uleb128 0x5
 2624 003f 49       		.uleb128 0x49
 2625 0040 13       		.uleb128 0x13
 2626 0041 00       		.byte	0
 2627 0042 00       		.byte	0
 2628 0043 06       		.uleb128 0x6
 2629 0044 35       		.uleb128 0x35
 2630 0045 00       		.byte	0
 2631 0046 49       		.uleb128 0x49
 2632 0047 13       		.uleb128 0x13
 2633 0048 00       		.byte	0
 2634 0049 00       		.byte	0
 2635 004a 07       		.uleb128 0x7
 2636 004b 04       		.uleb128 0x4
 2637 004c 01       		.byte	0x1
 2638 004d 0B       		.uleb128 0xb
 2639 004e 0B       		.uleb128 0xb
ARM GAS  C:\Users\ALEXAN~1\AppData\Local\Temp\ccCHRx39.s 			page 53


 2640 004f 49       		.uleb128 0x49
 2641 0050 13       		.uleb128 0x13
 2642 0051 3A       		.uleb128 0x3a
 2643 0052 0B       		.uleb128 0xb
 2644 0053 3B       		.uleb128 0x3b
 2645 0054 0B       		.uleb128 0xb
 2646 0055 01       		.uleb128 0x1
 2647 0056 13       		.uleb128 0x13
 2648 0057 00       		.byte	0
 2649 0058 00       		.byte	0
 2650 0059 08       		.uleb128 0x8
 2651 005a 28       		.uleb128 0x28
 2652 005b 00       		.byte	0
 2653 005c 03       		.uleb128 0x3
 2654 005d 0E       		.uleb128 0xe
 2655 005e 1C       		.uleb128 0x1c
 2656 005f 0B       		.uleb128 0xb
 2657 0060 00       		.byte	0
 2658 0061 00       		.byte	0
 2659 0062 09       		.uleb128 0x9
 2660 0063 04       		.uleb128 0x4
 2661 0064 01       		.byte	0x1
 2662 0065 0B       		.uleb128 0xb
 2663 0066 0B       		.uleb128 0xb
 2664 0067 49       		.uleb128 0x49
 2665 0068 13       		.uleb128 0x13
 2666 0069 3A       		.uleb128 0x3a
 2667 006a 0B       		.uleb128 0xb
 2668 006b 3B       		.uleb128 0x3b
 2669 006c 05       		.uleb128 0x5
 2670 006d 01       		.uleb128 0x1
 2671 006e 13       		.uleb128 0x13
 2672 006f 00       		.byte	0
 2673 0070 00       		.byte	0
 2674 0071 0A       		.uleb128 0xa
 2675 0072 13       		.uleb128 0x13
 2676 0073 01       		.byte	0x1
 2677 0074 0B       		.uleb128 0xb
 2678 0075 0B       		.uleb128 0xb
 2679 0076 3A       		.uleb128 0x3a
 2680 0077 0B       		.uleb128 0xb
 2681 0078 3B       		.uleb128 0x3b
 2682 0079 0B       		.uleb128 0xb
 2683 007a 01       		.uleb128 0x1
 2684 007b 13       		.uleb128 0x13
 2685 007c 00       		.byte	0
 2686 007d 00       		.byte	0
 2687 007e 0B       		.uleb128 0xb
 2688 007f 0D       		.uleb128 0xd
 2689 0080 00       		.byte	0
 2690 0081 03       		.uleb128 0x3
 2691 0082 0E       		.uleb128 0xe
 2692 0083 3A       		.uleb128 0x3a
 2693 0084 0B       		.uleb128 0xb
 2694 0085 3B       		.uleb128 0x3b
 2695 0086 0B       		.uleb128 0xb
 2696 0087 49       		.uleb128 0x49
ARM GAS  C:\Users\ALEXAN~1\AppData\Local\Temp\ccCHRx39.s 			page 54


 2697 0088 13       		.uleb128 0x13
 2698 0089 38       		.uleb128 0x38
 2699 008a 0B       		.uleb128 0xb
 2700 008b 00       		.byte	0
 2701 008c 00       		.byte	0
 2702 008d 0C       		.uleb128 0xc
 2703 008e 0D       		.uleb128 0xd
 2704 008f 00       		.byte	0
 2705 0090 03       		.uleb128 0x3
 2706 0091 08       		.uleb128 0x8
 2707 0092 3A       		.uleb128 0x3a
 2708 0093 0B       		.uleb128 0xb
 2709 0094 3B       		.uleb128 0x3b
 2710 0095 0B       		.uleb128 0xb
 2711 0096 49       		.uleb128 0x49
 2712 0097 13       		.uleb128 0x13
 2713 0098 38       		.uleb128 0x38
 2714 0099 0B       		.uleb128 0xb
 2715 009a 00       		.byte	0
 2716 009b 00       		.byte	0
 2717 009c 0D       		.uleb128 0xd
 2718 009d 01       		.uleb128 0x1
 2719 009e 01       		.byte	0x1
 2720 009f 49       		.uleb128 0x49
 2721 00a0 13       		.uleb128 0x13
 2722 00a1 01       		.uleb128 0x1
 2723 00a2 13       		.uleb128 0x13
 2724 00a3 00       		.byte	0
 2725 00a4 00       		.byte	0
 2726 00a5 0E       		.uleb128 0xe
 2727 00a6 21       		.uleb128 0x21
 2728 00a7 00       		.byte	0
 2729 00a8 49       		.uleb128 0x49
 2730 00a9 13       		.uleb128 0x13
 2731 00aa 2F       		.uleb128 0x2f
 2732 00ab 0B       		.uleb128 0xb
 2733 00ac 00       		.byte	0
 2734 00ad 00       		.byte	0
 2735 00ae 0F       		.uleb128 0xf
 2736 00af 2E       		.uleb128 0x2e
 2737 00b0 01       		.byte	0x1
 2738 00b1 3F       		.uleb128 0x3f
 2739 00b2 19       		.uleb128 0x19
 2740 00b3 03       		.uleb128 0x3
 2741 00b4 0E       		.uleb128 0xe
 2742 00b5 3A       		.uleb128 0x3a
 2743 00b6 0B       		.uleb128 0xb
 2744 00b7 3B       		.uleb128 0x3b
 2745 00b8 0B       		.uleb128 0xb
 2746 00b9 27       		.uleb128 0x27
 2747 00ba 19       		.uleb128 0x19
 2748 00bb 49       		.uleb128 0x49
 2749 00bc 13       		.uleb128 0x13
 2750 00bd 11       		.uleb128 0x11
 2751 00be 01       		.uleb128 0x1
 2752 00bf 12       		.uleb128 0x12
 2753 00c0 06       		.uleb128 0x6
ARM GAS  C:\Users\ALEXAN~1\AppData\Local\Temp\ccCHRx39.s 			page 55


 2754 00c1 40       		.uleb128 0x40
 2755 00c2 18       		.uleb128 0x18
 2756 00c3 9742     		.uleb128 0x2117
 2757 00c5 19       		.uleb128 0x19
 2758 00c6 01       		.uleb128 0x1
 2759 00c7 13       		.uleb128 0x13
 2760 00c8 00       		.byte	0
 2761 00c9 00       		.byte	0
 2762 00ca 10       		.uleb128 0x10
 2763 00cb 05       		.uleb128 0x5
 2764 00cc 00       		.byte	0
 2765 00cd 03       		.uleb128 0x3
 2766 00ce 0E       		.uleb128 0xe
 2767 00cf 3A       		.uleb128 0x3a
 2768 00d0 0B       		.uleb128 0xb
 2769 00d1 3B       		.uleb128 0x3b
 2770 00d2 0B       		.uleb128 0xb
 2771 00d3 49       		.uleb128 0x49
 2772 00d4 13       		.uleb128 0x13
 2773 00d5 02       		.uleb128 0x2
 2774 00d6 18       		.uleb128 0x18
 2775 00d7 00       		.byte	0
 2776 00d8 00       		.byte	0
 2777 00d9 11       		.uleb128 0x11
 2778 00da 05       		.uleb128 0x5
 2779 00db 00       		.byte	0
 2780 00dc 03       		.uleb128 0x3
 2781 00dd 08       		.uleb128 0x8
 2782 00de 3A       		.uleb128 0x3a
 2783 00df 0B       		.uleb128 0xb
 2784 00e0 3B       		.uleb128 0x3b
 2785 00e1 0B       		.uleb128 0xb
 2786 00e2 49       		.uleb128 0x49
 2787 00e3 13       		.uleb128 0x13
 2788 00e4 02       		.uleb128 0x2
 2789 00e5 18       		.uleb128 0x18
 2790 00e6 00       		.byte	0
 2791 00e7 00       		.byte	0
 2792 00e8 12       		.uleb128 0x12
 2793 00e9 2E       		.uleb128 0x2e
 2794 00ea 01       		.byte	0x1
 2795 00eb 3F       		.uleb128 0x3f
 2796 00ec 19       		.uleb128 0x19
 2797 00ed 03       		.uleb128 0x3
 2798 00ee 0E       		.uleb128 0xe
 2799 00ef 3A       		.uleb128 0x3a
 2800 00f0 0B       		.uleb128 0xb
 2801 00f1 3B       		.uleb128 0x3b
 2802 00f2 0B       		.uleb128 0xb
 2803 00f3 27       		.uleb128 0x27
 2804 00f4 19       		.uleb128 0x19
 2805 00f5 11       		.uleb128 0x11
 2806 00f6 01       		.uleb128 0x1
 2807 00f7 12       		.uleb128 0x12
 2808 00f8 06       		.uleb128 0x6
 2809 00f9 40       		.uleb128 0x40
 2810 00fa 18       		.uleb128 0x18
ARM GAS  C:\Users\ALEXAN~1\AppData\Local\Temp\ccCHRx39.s 			page 56


 2811 00fb 9642     		.uleb128 0x2116
 2812 00fd 19       		.uleb128 0x19
 2813 00fe 01       		.uleb128 0x1
 2814 00ff 13       		.uleb128 0x13
 2815 0100 00       		.byte	0
 2816 0101 00       		.byte	0
 2817 0102 13       		.uleb128 0x13
 2818 0103 34       		.uleb128 0x34
 2819 0104 00       		.byte	0
 2820 0105 03       		.uleb128 0x3
 2821 0106 0E       		.uleb128 0xe
 2822 0107 3A       		.uleb128 0x3a
 2823 0108 0B       		.uleb128 0xb
 2824 0109 3B       		.uleb128 0x3b
 2825 010a 0B       		.uleb128 0xb
 2826 010b 49       		.uleb128 0x49
 2827 010c 13       		.uleb128 0x13
 2828 010d 02       		.uleb128 0x2
 2829 010e 18       		.uleb128 0x18
 2830 010f 00       		.byte	0
 2831 0110 00       		.byte	0
 2832 0111 14       		.uleb128 0x14
 2833 0112 34       		.uleb128 0x34
 2834 0113 00       		.byte	0
 2835 0114 03       		.uleb128 0x3
 2836 0115 08       		.uleb128 0x8
 2837 0116 3A       		.uleb128 0x3a
 2838 0117 0B       		.uleb128 0xb
 2839 0118 3B       		.uleb128 0x3b
 2840 0119 0B       		.uleb128 0xb
 2841 011a 49       		.uleb128 0x49
 2842 011b 13       		.uleb128 0x13
 2843 011c 02       		.uleb128 0x2
 2844 011d 18       		.uleb128 0x18
 2845 011e 00       		.byte	0
 2846 011f 00       		.byte	0
 2847 0120 15       		.uleb128 0x15
 2848 0121 0F       		.uleb128 0xf
 2849 0122 00       		.byte	0
 2850 0123 0B       		.uleb128 0xb
 2851 0124 0B       		.uleb128 0xb
 2852 0125 49       		.uleb128 0x49
 2853 0126 13       		.uleb128 0x13
 2854 0127 00       		.byte	0
 2855 0128 00       		.byte	0
 2856 0129 16       		.uleb128 0x16
 2857 012a 2E       		.uleb128 0x2e
 2858 012b 00       		.byte	0
 2859 012c 3F       		.uleb128 0x3f
 2860 012d 19       		.uleb128 0x19
 2861 012e 03       		.uleb128 0x3
 2862 012f 0E       		.uleb128 0xe
 2863 0130 3A       		.uleb128 0x3a
 2864 0131 0B       		.uleb128 0xb
 2865 0132 3B       		.uleb128 0x3b
 2866 0133 0B       		.uleb128 0xb
 2867 0134 49       		.uleb128 0x49
ARM GAS  C:\Users\ALEXAN~1\AppData\Local\Temp\ccCHRx39.s 			page 57


 2868 0135 13       		.uleb128 0x13
 2869 0136 11       		.uleb128 0x11
 2870 0137 01       		.uleb128 0x1
 2871 0138 12       		.uleb128 0x12
 2872 0139 06       		.uleb128 0x6
 2873 013a 40       		.uleb128 0x40
 2874 013b 18       		.uleb128 0x18
 2875 013c 9742     		.uleb128 0x2117
 2876 013e 19       		.uleb128 0x19
 2877 013f 00       		.byte	0
 2878 0140 00       		.byte	0
 2879 0141 17       		.uleb128 0x17
 2880 0142 2E       		.uleb128 0x2e
 2881 0143 01       		.byte	0x1
 2882 0144 3F       		.uleb128 0x3f
 2883 0145 19       		.uleb128 0x19
 2884 0146 03       		.uleb128 0x3
 2885 0147 0E       		.uleb128 0xe
 2886 0148 3A       		.uleb128 0x3a
 2887 0149 0B       		.uleb128 0xb
 2888 014a 3B       		.uleb128 0x3b
 2889 014b 0B       		.uleb128 0xb
 2890 014c 27       		.uleb128 0x27
 2891 014d 19       		.uleb128 0x19
 2892 014e 11       		.uleb128 0x11
 2893 014f 01       		.uleb128 0x1
 2894 0150 12       		.uleb128 0x12
 2895 0151 06       		.uleb128 0x6
 2896 0152 40       		.uleb128 0x40
 2897 0153 18       		.uleb128 0x18
 2898 0154 9742     		.uleb128 0x2117
 2899 0156 19       		.uleb128 0x19
 2900 0157 01       		.uleb128 0x1
 2901 0158 13       		.uleb128 0x13
 2902 0159 00       		.byte	0
 2903 015a 00       		.byte	0
 2904 015b 18       		.uleb128 0x18
 2905 015c 0B       		.uleb128 0xb
 2906 015d 01       		.byte	0x1
 2907 015e 11       		.uleb128 0x11
 2908 015f 01       		.uleb128 0x1
 2909 0160 12       		.uleb128 0x12
 2910 0161 06       		.uleb128 0x6
 2911 0162 00       		.byte	0
 2912 0163 00       		.byte	0
 2913 0164 19       		.uleb128 0x19
 2914 0165 2E       		.uleb128 0x2e
 2915 0166 00       		.byte	0
 2916 0167 3F       		.uleb128 0x3f
 2917 0168 19       		.uleb128 0x19
 2918 0169 03       		.uleb128 0x3
 2919 016a 0E       		.uleb128 0xe
 2920 016b 3A       		.uleb128 0x3a
 2921 016c 0B       		.uleb128 0xb
 2922 016d 3B       		.uleb128 0x3b
 2923 016e 0B       		.uleb128 0xb
 2924 016f 27       		.uleb128 0x27
ARM GAS  C:\Users\ALEXAN~1\AppData\Local\Temp\ccCHRx39.s 			page 58


 2925 0170 19       		.uleb128 0x19
 2926 0171 11       		.uleb128 0x11
 2927 0172 01       		.uleb128 0x1
 2928 0173 12       		.uleb128 0x12
 2929 0174 06       		.uleb128 0x6
 2930 0175 40       		.uleb128 0x40
 2931 0176 18       		.uleb128 0x18
 2932 0177 9642     		.uleb128 0x2116
 2933 0179 19       		.uleb128 0x19
 2934 017a 00       		.byte	0
 2935 017b 00       		.byte	0
 2936 017c 1A       		.uleb128 0x1a
 2937 017d 2E       		.uleb128 0x2e
 2938 017e 01       		.byte	0x1
 2939 017f 3F       		.uleb128 0x3f
 2940 0180 19       		.uleb128 0x19
 2941 0181 03       		.uleb128 0x3
 2942 0182 0E       		.uleb128 0xe
 2943 0183 3A       		.uleb128 0x3a
 2944 0184 0B       		.uleb128 0xb
 2945 0185 3B       		.uleb128 0x3b
 2946 0186 0B       		.uleb128 0xb
 2947 0187 27       		.uleb128 0x27
 2948 0188 19       		.uleb128 0x19
 2949 0189 49       		.uleb128 0x49
 2950 018a 13       		.uleb128 0x13
 2951 018b 11       		.uleb128 0x11
 2952 018c 01       		.uleb128 0x1
 2953 018d 12       		.uleb128 0x12
 2954 018e 06       		.uleb128 0x6
 2955 018f 40       		.uleb128 0x40
 2956 0190 18       		.uleb128 0x18
 2957 0191 9642     		.uleb128 0x2116
 2958 0193 19       		.uleb128 0x19
 2959 0194 01       		.uleb128 0x1
 2960 0195 13       		.uleb128 0x13
 2961 0196 00       		.byte	0
 2962 0197 00       		.byte	0
 2963 0198 1B       		.uleb128 0x1b
 2964 0199 26       		.uleb128 0x26
 2965 019a 00       		.byte	0
 2966 019b 49       		.uleb128 0x49
 2967 019c 13       		.uleb128 0x13
 2968 019d 00       		.byte	0
 2969 019e 00       		.byte	0
 2970 019f 1C       		.uleb128 0x1c
 2971 01a0 34       		.uleb128 0x34
 2972 01a1 00       		.byte	0
 2973 01a2 03       		.uleb128 0x3
 2974 01a3 0E       		.uleb128 0xe
 2975 01a4 3A       		.uleb128 0x3a
 2976 01a5 0B       		.uleb128 0xb
 2977 01a6 3B       		.uleb128 0x3b
 2978 01a7 05       		.uleb128 0x5
 2979 01a8 49       		.uleb128 0x49
 2980 01a9 13       		.uleb128 0x13
 2981 01aa 3F       		.uleb128 0x3f
ARM GAS  C:\Users\ALEXAN~1\AppData\Local\Temp\ccCHRx39.s 			page 59


 2982 01ab 19       		.uleb128 0x19
 2983 01ac 3C       		.uleb128 0x3c
 2984 01ad 19       		.uleb128 0x19
 2985 01ae 00       		.byte	0
 2986 01af 00       		.byte	0
 2987 01b0 1D       		.uleb128 0x1d
 2988 01b1 34       		.uleb128 0x34
 2989 01b2 00       		.byte	0
 2990 01b3 03       		.uleb128 0x3
 2991 01b4 0E       		.uleb128 0xe
 2992 01b5 3A       		.uleb128 0x3a
 2993 01b6 0B       		.uleb128 0xb
 2994 01b7 3B       		.uleb128 0x3b
 2995 01b8 0B       		.uleb128 0xb
 2996 01b9 49       		.uleb128 0x49
 2997 01ba 13       		.uleb128 0x13
 2998 01bb 3F       		.uleb128 0x3f
 2999 01bc 19       		.uleb128 0x19
 3000 01bd 02       		.uleb128 0x2
 3001 01be 18       		.uleb128 0x18
 3002 01bf 00       		.byte	0
 3003 01c0 00       		.byte	0
 3004 01c1 1E       		.uleb128 0x1e
 3005 01c2 21       		.uleb128 0x21
 3006 01c3 00       		.byte	0
 3007 01c4 49       		.uleb128 0x49
 3008 01c5 13       		.uleb128 0x13
 3009 01c6 2F       		.uleb128 0x2f
 3010 01c7 05       		.uleb128 0x5
 3011 01c8 00       		.byte	0
 3012 01c9 00       		.byte	0
 3013 01ca 00       		.byte	0
 3014              		.section	.debug_aranges,"",%progbits
 3015 0000 6C000000 		.4byte	0x6c
 3016 0004 0200     		.2byte	0x2
 3017 0006 00000000 		.4byte	.Ldebug_info0
 3018 000a 04       		.byte	0x4
 3019 000b 00       		.byte	0
 3020 000c 0000     		.2byte	0
 3021 000e 0000     		.2byte	0
 3022 0010 00000000 		.4byte	.LFB64
 3023 0014 24000000 		.4byte	.LFE64-.LFB64
 3024 0018 00000000 		.4byte	.LFB65
 3025 001c F8000000 		.4byte	.LFE65-.LFB65
 3026 0020 00000000 		.4byte	.LFB66
 3027 0024 34000000 		.4byte	.LFE66-.LFB66
 3028 0028 00000000 		.4byte	.LFB67
 3029 002c 48020000 		.4byte	.LFE67-.LFB67
 3030 0030 00000000 		.4byte	.LFB68
 3031 0034 1E000000 		.4byte	.LFE68-.LFB68
 3032 0038 00000000 		.4byte	.LFB69
 3033 003c 26000000 		.4byte	.LFE69-.LFB69
 3034 0040 00000000 		.4byte	.LFB70
 3035 0044 34010000 		.4byte	.LFE70-.LFB70
 3036 0048 00000000 		.4byte	.LFB71
 3037 004c 18000000 		.4byte	.LFE71-.LFB71
 3038 0050 00000000 		.4byte	.LFB72
ARM GAS  C:\Users\ALEXAN~1\AppData\Local\Temp\ccCHRx39.s 			page 60


 3039 0054 18000000 		.4byte	.LFE72-.LFB72
 3040 0058 00000000 		.4byte	.LFB73
 3041 005c 50000000 		.4byte	.LFE73-.LFB73
 3042 0060 00000000 		.4byte	.LFB74
 3043 0064 E0020000 		.4byte	.LFE74-.LFB74
 3044 0068 00000000 		.4byte	0
 3045 006c 00000000 		.4byte	0
 3046              		.section	.debug_ranges,"",%progbits
 3047              	.Ldebug_ranges0:
 3048 0000 00000000 		.4byte	.LFB64
 3049 0004 24000000 		.4byte	.LFE64
 3050 0008 00000000 		.4byte	.LFB65
 3051 000c F8000000 		.4byte	.LFE65
 3052 0010 00000000 		.4byte	.LFB66
 3053 0014 34000000 		.4byte	.LFE66
 3054 0018 00000000 		.4byte	.LFB67
 3055 001c 48020000 		.4byte	.LFE67
 3056 0020 00000000 		.4byte	.LFB68
 3057 0024 1E000000 		.4byte	.LFE68
 3058 0028 00000000 		.4byte	.LFB69
 3059 002c 26000000 		.4byte	.LFE69
 3060 0030 00000000 		.4byte	.LFB70
 3061 0034 34010000 		.4byte	.LFE70
 3062 0038 00000000 		.4byte	.LFB71
 3063 003c 18000000 		.4byte	.LFE71
 3064 0040 00000000 		.4byte	.LFB72
 3065 0044 18000000 		.4byte	.LFE72
 3066 0048 00000000 		.4byte	.LFB73
 3067 004c 50000000 		.4byte	.LFE73
 3068 0050 00000000 		.4byte	.LFB74
 3069 0054 E0020000 		.4byte	.LFE74
 3070 0058 00000000 		.4byte	0
 3071 005c 00000000 		.4byte	0
 3072              		.section	.debug_line,"",%progbits
 3073              	.Ldebug_line0:
 3074 0000 FD020000 		.section	.debug_str,"MS",%progbits,1
 3074      02009601 
 3074      00000201 
 3074      FB0E0D00 
 3074      01010101 
 3075              	.LASF115:
 3076 0000 73657276 		.ascii	"servo_init\000"
 3076      6F5F696E 
 3076      697400
 3077              	.LASF20:
 3078 000b 75696E74 		.ascii	"uint16\000"
 3078      313600
 3079              	.LASF124:
 3080 0012 6368616E 		.ascii	"chan_a\000"
 3080      5F6100
 3081              	.LASF125:
 3082 0019 6368616E 		.ascii	"chan_b\000"
 3082      5F6200
 3083              	.LASF157:
 3084 0020 73656E73 		.ascii	"sensor_data\000"
 3084      6F725F64 
 3084      61746100 
ARM GAS  C:\Users\ALEXAN~1\AppData\Local\Temp\ccCHRx39.s 			page 61


 3085              	.LASF67:
 3086 002c 4E52465F 		.ascii	"NRF_CONFIG_BIT_CRCO\000"
 3086      434F4E46 
 3086      49475F42 
 3086      49545F43 
 3086      52434F00 
 3087              	.LASF53:
 3088 0040 4E52465F 		.ascii	"NRF_REG_FEATURE\000"
 3088      5245475F 
 3088      46454154 
 3088      55524500 
 3089              	.LASF87:
 3090 0050 4E52465F 		.ascii	"NRF_FIFO_STATUS_BIT_RX_FULL\000"
 3090      4649464F 
 3090      5F535441 
 3090      5455535F 
 3090      4249545F 
 3091              	.LASF1:
 3092 006c 5F5F7569 		.ascii	"__uint8_t\000"
 3092      6E74385F 
 3092      7400
 3093              	.LASF116:
 3094 0076 6D6F746F 		.ascii	"motor_update\000"
 3094      725F7570 
 3094      64617465 
 3094      00
 3095              	.LASF158:
 3096 0083 474E5520 		.ascii	"GNU C11 5.4.1 20160609 (release) [ARM/embedded-5-br"
 3096      43313120 
 3096      352E342E 
 3096      31203230 
 3096      31363036 
 3097 00b6 616E6368 		.ascii	"anch revision 237715] -mcpu=cortex-m3 -mthumb -g -O"
 3097      20726576 
 3097      6973696F 
 3097      6E203233 
 3097      37373135 
 3098 00e9 30202D66 		.ascii	"0 -ffunction-sections -ffat-lto-objects\000"
 3098      66756E63 
 3098      74696F6E 
 3098      2D736563 
 3098      74696F6E 
 3099              	.LASF120:
 3100 0111 616E676C 		.ascii	"angle_servo\000"
 3100      655F7365 
 3100      72766F00 
 3101              	.LASF89:
 3102 011d 4E52465F 		.ascii	"NRF_FIFO_STATUS_BIT_TX_FULL\000"
 3102      4649464F 
 3102      5F535441 
 3102      5455535F 
 3102      4249545F 
 3103              	.LASF151:
 3104 0139 52585F41 		.ascii	"RX_ADDR\000"
 3104      44445200 
 3105              	.LASF128:
 3106 0141 4953525F 		.ascii	"ISR_OUT_A_Handler\000"
ARM GAS  C:\Users\ALEXAN~1\AppData\Local\Temp\ccCHRx39.s 			page 62


 3106      4F55545F 
 3106      415F4861 
 3106      6E646C65 
 3106      7200
 3107              	.LASF12:
 3108 0153 6C6F6E67 		.ascii	"long long unsigned int\000"
 3108      206C6F6E 
 3108      6720756E 
 3108      7369676E 
 3108      65642069 
 3109              	.LASF107:
 3110 016a 616E676C 		.ascii	"angle\000"
 3110      6500
 3111              	.LASF65:
 3112 0170 4E52465F 		.ascii	"NRF_CONFIG_BIT_PRIM_RX\000"
 3112      434F4E46 
 3112      49475F42 
 3112      49545F50 
 3112      52494D5F 
 3113              	.LASF52:
 3114 0187 4E52465F 		.ascii	"NRF_REG_DYNPD\000"
 3114      5245475F 
 3114      44594E50 
 3114      4400
 3115              	.LASF0:
 3116 0195 5F5F696E 		.ascii	"__int8_t\000"
 3116      74385F74 
 3116      00
 3117              	.LASF142:
 3118 019e 49544D5F 		.ascii	"ITM_RxBuffer\000"
 3118      52784275 
 3118      66666572 
 3118      00
 3119              	.LASF100:
 3120 01ab 72656665 		.ascii	"reference_dist\000"
 3120      72656E63 
 3120      655F6469 
 3120      737400
 3121              	.LASF16:
 3122 01ba 696E7431 		.ascii	"int16_t\000"
 3122      365F7400 
 3123              	.LASF11:
 3124 01c2 6C6F6E67 		.ascii	"long long int\000"
 3124      206C6F6E 
 3124      6720696E 
 3124      7400
 3125              	.LASF2:
 3126 01d0 7369676E 		.ascii	"signed char\000"
 3126      65642063 
 3126      68617200 
 3127              	.LASF55:
 3128 01dc 4E52465F 		.ascii	"NRF_ADDR_PIPE1\000"
 3128      41444452 
 3128      5F504950 
 3128      453100
 3129              	.LASF56:
 3130 01eb 4E52465F 		.ascii	"NRF_ADDR_PIPE2\000"
ARM GAS  C:\Users\ALEXAN~1\AppData\Local\Temp\ccCHRx39.s 			page 63


 3130      41444452 
 3130      5F504950 
 3130      453200
 3131              	.LASF57:
 3132 01fa 4E52465F 		.ascii	"NRF_ADDR_PIPE3\000"
 3132      41444452 
 3132      5F504950 
 3132      453300
 3133              	.LASF58:
 3134 0209 4E52465F 		.ascii	"NRF_ADDR_PIPE4\000"
 3134      41444452 
 3134      5F504950 
 3134      453400
 3135              	.LASF59:
 3136 0218 4E52465F 		.ascii	"NRF_ADDR_PIPE5\000"
 3136      41444452 
 3136      5F504950 
 3136      453500
 3137              	.LASF150:
 3138 0227 444D415F 		.ascii	"DMA_B_Filter_TD\000"
 3138      425F4669 
 3138      6C746572 
 3138      5F544400 
 3139              	.LASF62:
 3140 0237 4E52465F 		.ascii	"NRF_TX_DS_IRQ\000"
 3140      54585F44 
 3140      535F4952 
 3140      5100
 3141              	.LASF110:
 3142 0245 73656E73 		.ascii	"sensor_t\000"
 3142      6F725F74 
 3142      00
 3143              	.LASF9:
 3144 024e 6C6F6E67 		.ascii	"long int\000"
 3144      20696E74 
 3144      00
 3145              	.LASF28:
 3146 0257 4E52465F 		.ascii	"NRF_REG_CONFIG\000"
 3146      5245475F 
 3146      434F4E46 
 3146      494700
 3147              	.LASF64:
 3148 0266 6E72665F 		.ascii	"nrf_irq\000"
 3148      69727100 
 3149              	.LASF31:
 3150 026e 4E52465F 		.ascii	"NRF_REG_SETUP_AW\000"
 3150      5245475F 
 3150      53455455 
 3150      505F4157 
 3150      00
 3151              	.LASF33:
 3152 027f 4E52465F 		.ascii	"NRF_REG_RF_CH\000"
 3152      5245475F 
 3152      52465F43 
 3152      4800
 3153              	.LASF17:
 3154 028d 75696E74 		.ascii	"uint16_t\000"
ARM GAS  C:\Users\ALEXAN~1\AppData\Local\Temp\ccCHRx39.s 			page 64


 3154      31365F74 
 3154      00
 3155              	.LASF23:
 3156 0296 646F7562 		.ascii	"double\000"
 3156      6C6500
 3157              	.LASF129:
 3158 029d 4953525F 		.ascii	"ISR_OUT_B_Handler\000"
 3158      4F55545F 
 3158      425F4861 
 3158      6E646C65 
 3158      7200
 3159              	.LASF63:
 3160 02af 4E52465F 		.ascii	"NRF_RX_DR_IRQ\000"
 3160      52585F44 
 3160      525F4952 
 3160      5100
 3161              	.LASF127:
 3162 02bd 73656E73 		.ascii	"sensor_init\000"
 3162      6F725F69 
 3162      6E697400 
 3163              	.LASF111:
 3164 02c9 7265616C 		.ascii	"real_dist\000"
 3164      5F646973 
 3164      7400
 3165              	.LASF78:
 3166 02d3 4E52465F 		.ascii	"NRF_EN_RXADDR_BIT_ERX_P0\000"
 3166      454E5F52 
 3166      58414444 
 3166      525F4249 
 3166      545F4552 
 3167              	.LASF79:
 3168 02ec 4E52465F 		.ascii	"NRF_EN_RXADDR_BIT_ERX_P1\000"
 3168      454E5F52 
 3168      58414444 
 3168      525F4249 
 3168      545F4552 
 3169              	.LASF80:
 3170 0305 4E52465F 		.ascii	"NRF_EN_RXADDR_BIT_ERX_P2\000"
 3170      454E5F52 
 3170      58414444 
 3170      525F4249 
 3170      545F4552 
 3171              	.LASF81:
 3172 031e 4E52465F 		.ascii	"NRF_EN_RXADDR_BIT_ERX_P3\000"
 3172      454E5F52 
 3172      58414444 
 3172      525F4249 
 3172      545F4552 
 3173              	.LASF21:
 3174 0337 75696E74 		.ascii	"uint32\000"
 3174      333200
 3175              	.LASF83:
 3176 033e 4E52465F 		.ascii	"NRF_EN_RXADDR_BIT_ERX_P5\000"
 3176      454E5F52 
 3176      58414444 
 3176      525F4249 
 3176      545F4552 
ARM GAS  C:\Users\ALEXAN~1\AppData\Local\Temp\ccCHRx39.s 			page 65


 3177              	.LASF4:
 3178 0357 5F5F696E 		.ascii	"__int16_t\000"
 3178      7431365F 
 3178      7400
 3179              	.LASF60:
 3180 0361 4E52465F 		.ascii	"NRF_NONE_IRQ\000"
 3180      4E4F4E45 
 3180      5F495251 
 3180      00
 3181              	.LASF35:
 3182 036e 4E52465F 		.ascii	"NRF_REG_STATUS\000"
 3182      5245475F 
 3182      53544154 
 3182      555300
 3183              	.LASF137:
 3184 037d 745F6C65 		.ascii	"t_left\000"
 3184      667400
 3185              	.LASF61:
 3186 0384 4E52465F 		.ascii	"NRF_MAX_RT_IRQ\000"
 3186      4D41585F 
 3186      52545F49 
 3186      525100
 3187              	.LASF38:
 3188 0393 4E52465F 		.ascii	"NRF_REG_RX_ADDR_P0\000"
 3188      5245475F 
 3188      52585F41 
 3188      4444525F 
 3188      503000
 3189              	.LASF69:
 3190 03a6 4E52465F 		.ascii	"NRF_CONFIG_BIT_MASK_MAX_RT\000"
 3190      434F4E46 
 3190      49475F42 
 3190      49545F4D 
 3190      41534B5F 
 3191              	.LASF39:
 3192 03c1 4E52465F 		.ascii	"NRF_REG_RX_ADDR_P1\000"
 3192      5245475F 
 3192      52585F41 
 3192      4444525F 
 3192      503100
 3193              	.LASF144:
 3194 03d4 444D415F 		.ascii	"DMA_A_TD\000"
 3194      415F5444 
 3194      00
 3195              	.LASF156:
 3196 03dd 6F757470 		.ascii	"output\000"
 3196      757400
 3197              	.LASF32:
 3198 03e4 4E52465F 		.ascii	"NRF_REG_SETUP_RETR\000"
 3198      5245475F 
 3198      53455455 
 3198      505F5245 
 3198      545200
 3199              	.LASF104:
 3200 03f7 6C656164 		.ascii	"leader_angles\000"
 3200      65725F61 
 3200      6E676C65 
ARM GAS  C:\Users\ALEXAN~1\AppData\Local\Temp\ccCHRx39.s 			page 66


 3200      7300
 3201              	.LASF160:
 3202 0405 433A5C55 		.ascii	"C:\\Users\\Alexander Nielsen\\Desktop\\platooning\\"
 3202      73657273 
 3202      5C416C65 
 3202      78616E64 
 3202      6572204E 
 3203 0433 50536F43 		.ascii	"PSoC\\Platooning\\AngleMeasurement.cydsn\000"
 3203      5C506C61 
 3203      746F6F6E 
 3203      696E675C 
 3203      416E676C 
 3204              	.LASF34:
 3205 045a 4E52465F 		.ascii	"NRF_REG_RF_SETUP\000"
 3205      5245475F 
 3205      52465F53 
 3205      45545550 
 3205      00
 3206              	.LASF19:
 3207 046b 75696E74 		.ascii	"uint8\000"
 3207      3800
 3208              	.LASF132:
 3209 0471 64617461 		.ascii	"data\000"
 3209      00
 3210              	.LASF7:
 3211 0476 73686F72 		.ascii	"short unsigned int\000"
 3211      7420756E 
 3211      7369676E 
 3211      65642069 
 3211      6E7400
 3212              	.LASF130:
 3213 0489 4952515F 		.ascii	"IRQ_Handler\000"
 3213      48616E64 
 3213      6C657200 
 3214              	.LASF103:
 3215 0495 70726576 		.ascii	"previous_angles\000"
 3215      696F7573 
 3215      5F616E67 
 3215      6C657300 
 3216              	.LASF109:
 3217 04a5 6C656164 		.ascii	"leader_angle\000"
 3217      65725F61 
 3217      6E676C65 
 3217      00
 3218              	.LASF159:
 3219 04b2 6D61696E 		.ascii	"main.c\000"
 3219      2E6300
 3220              	.LASF153:
 3221 04b9 44617461 		.ascii	"DataB\000"
 3221      4200
 3222              	.LASF147:
 3223 04bf 444D415F 		.ascii	"DMA_A_Filter_Chan\000"
 3223      415F4669 
 3223      6C746572 
 3223      5F436861 
 3223      6E00
 3224              	.LASF105:
ARM GAS  C:\Users\ALEXAN~1\AppData\Local\Temp\ccCHRx39.s 			page 67


 3225 04d1 73657276 		.ascii	"servo_t\000"
 3225      6F5F7400 
 3226              	.LASF5:
 3227 04d9 73686F72 		.ascii	"short int\000"
 3227      7420696E 
 3227      7400
 3228              	.LASF90:
 3229 04e3 4E52465F 		.ascii	"NRF_FIFO_STATUS_BIT_TX_REUSE\000"
 3229      4649464F 
 3229      5F535441 
 3229      5455535F 
 3229      4249545F 
 3230              	.LASF88:
 3231 0500 4E52465F 		.ascii	"NRF_FIFO_STATUS_BIT_TX_EMPTY\000"
 3231      4649464F 
 3231      5F535441 
 3231      5455535F 
 3231      4249545F 
 3232              	.LASF146:
 3233 051d 444D415F 		.ascii	"DMA_B_TD\000"
 3233      425F5444 
 3233      00
 3234              	.LASF117:
 3235 0526 73657276 		.ascii	"servo_update\000"
 3235      6F5F7570 
 3235      64617465 
 3235      00
 3236              	.LASF37:
 3237 0533 4E52465F 		.ascii	"NRF_REG_RPD\000"
 3237      5245475F 
 3237      52504400 
 3238              	.LASF112:
 3239 053f 6572725F 		.ascii	"err_dist\000"
 3239      64697374 
 3239      00
 3240              	.LASF27:
 3241 0548 73697A65 		.ascii	"sizetype\000"
 3241      74797065 
 3241      00
 3242              	.LASF26:
 3243 0551 6C6F6E67 		.ascii	"long double\000"
 3243      20646F75 
 3243      626C6500 
 3244              	.LASF113:
 3245 055d 64757479 		.ascii	"duty_cycle\000"
 3245      5F637963 
 3245      6C6500
 3246              	.LASF30:
 3247 0568 4E52465F 		.ascii	"NRF_REG_EN_RXADDR\000"
 3247      5245475F 
 3247      454E5F52 
 3247      58414444 
 3247      5200
 3248              	.LASF154:
 3249 057a 4953525F 		.ascii	"ISR_A_done\000"
 3249      415F646F 
 3249      6E6500
ARM GAS  C:\Users\ALEXAN~1\AppData\Local\Temp\ccCHRx39.s 			page 68


 3250              	.LASF122:
 3251 0585 73656E73 		.ascii	"sensor_update_feedforward_params\000"
 3251      6F725F75 
 3251      70646174 
 3251      655F6665 
 3251      6564666F 
 3252              	.LASF72:
 3253 05a6 4E52465F 		.ascii	"NRF_EN_AA_BIT_ENAA_P0\000"
 3253      454E5F41 
 3253      415F4249 
 3253      545F454E 
 3253      41415F50 
 3254              	.LASF73:
 3255 05bc 4E52465F 		.ascii	"NRF_EN_AA_BIT_ENAA_P1\000"
 3255      454E5F41 
 3255      415F4249 
 3255      545F454E 
 3255      41415F50 
 3256              	.LASF74:
 3257 05d2 4E52465F 		.ascii	"NRF_EN_AA_BIT_ENAA_P2\000"
 3257      454E5F41 
 3257      415F4249 
 3257      545F454E 
 3257      41415F50 
 3258              	.LASF75:
 3259 05e8 4E52465F 		.ascii	"NRF_EN_AA_BIT_ENAA_P3\000"
 3259      454E5F41 
 3259      415F4249 
 3259      545F454E 
 3259      41415F50 
 3260              	.LASF76:
 3261 05fe 4E52465F 		.ascii	"NRF_EN_AA_BIT_ENAA_P4\000"
 3261      454E5F41 
 3261      415F4249 
 3261      545F454E 
 3261      41415F50 
 3262              	.LASF77:
 3263 0614 4E52465F 		.ascii	"NRF_EN_AA_BIT_ENAA_P5\000"
 3263      454E5F41 
 3263      415F4249 
 3263      545F454E 
 3263      41415F50 
 3264              	.LASF46:
 3265 062a 4E52465F 		.ascii	"NRF_REG_RX_PW_P1\000"
 3265      5245475F 
 3265      52585F50 
 3265      575F5031 
 3265      00
 3266              	.LASF51:
 3267 063b 4E52465F 		.ascii	"NRF_REG_FIFO_STATUS\000"
 3267      5245475F 
 3267      4649464F 
 3267      5F535441 
 3267      54555300 
 3268              	.LASF49:
 3269 064f 4E52465F 		.ascii	"NRF_REG_RX_PW_P4\000"
 3269      5245475F 
ARM GAS  C:\Users\ALEXAN~1\AppData\Local\Temp\ccCHRx39.s 			page 69


 3269      52585F50 
 3269      575F5034 
 3269      00
 3270              	.LASF71:
 3271 0660 4E52465F 		.ascii	"NRF_CONFIG_BIT_MASK_RX_DR\000"
 3271      434F4E46 
 3271      49475F42 
 3271      49545F4D 
 3271      41534B5F 
 3272              	.LASF149:
 3273 067a 444D415F 		.ascii	"DMA_B_Filter_Chan\000"
 3273      425F4669 
 3273      6C746572 
 3273      5F436861 
 3273      6E00
 3274              	.LASF22:
 3275 068c 666C6F61 		.ascii	"float\000"
 3275      7400
 3276              	.LASF108:
 3277 0692 76656C6F 		.ascii	"velocity\000"
 3277      63697479 
 3277      00
 3278              	.LASF134:
 3279 069b 6D6F746F 		.ascii	"motor\000"
 3279      7200
 3280              	.LASF102:
 3281 06a1 72656665 		.ascii	"reference_angle\000"
 3281      72656E63 
 3281      655F616E 
 3281      676C6500 
 3282              	.LASF25:
 3283 06b1 72656738 		.ascii	"reg8\000"
 3283      00
 3284              	.LASF40:
 3285 06b6 4E52465F 		.ascii	"NRF_REG_RX_ADDR_P2\000"
 3285      5245475F 
 3285      52585F41 
 3285      4444525F 
 3285      503200
 3286              	.LASF41:
 3287 06c9 4E52465F 		.ascii	"NRF_REG_RX_ADDR_P3\000"
 3287      5245475F 
 3287      52585F41 
 3287      4444525F 
 3287      503300
 3288              	.LASF42:
 3289 06dc 4E52465F 		.ascii	"NRF_REG_RX_ADDR_P4\000"
 3289      5245475F 
 3289      52585F41 
 3289      4444525F 
 3289      503400
 3290              	.LASF43:
 3291 06ef 4E52465F 		.ascii	"NRF_REG_RX_ADDR_P5\000"
 3291      5245475F 
 3291      52585F41 
 3291      4444525F 
 3291      503500
ARM GAS  C:\Users\ALEXAN~1\AppData\Local\Temp\ccCHRx39.s 			page 70


 3292              	.LASF18:
 3293 0702 696E7433 		.ascii	"int32_t\000"
 3293      325F7400 
 3294              	.LASF3:
 3295 070a 756E7369 		.ascii	"unsigned char\000"
 3295      676E6564 
 3295      20636861 
 3295      7200
 3296              	.LASF126:
 3297 0718 6368616E 		.ascii	"chan_len\000"
 3297      5F6C656E 
 3297      00
 3298              	.LASF66:
 3299 0721 4E52465F 		.ascii	"NRF_CONFIG_BIT_PWR_UP\000"
 3299      434F4E46 
 3299      49475F42 
 3299      49545F50 
 3299      57525F55 
 3300              	.LASF68:
 3301 0737 4E52465F 		.ascii	"NRF_CONFIG_BIT_EN_CRC\000"
 3301      434F4E46 
 3301      49475F42 
 3301      49545F45 
 3301      4E5F4352 
 3302              	.LASF155:
 3303 074d 4953525F 		.ascii	"ISR_B_done\000"
 3303      425F646F 
 3303      6E6500
 3304              	.LASF121:
 3305 0758 73657276 		.ascii	"servo_signal\000"
 3305      6F5F7369 
 3305      676E616C 
 3305      00
 3306              	.LASF54:
 3307 0765 4E52465F 		.ascii	"NRF_ADDR_PIPE0\000"
 3307      41444452 
 3307      5F504950 
 3307      453000
 3308              	.LASF131:
 3309 0774 666C6167 		.ascii	"flag\000"
 3309      00
 3310              	.LASF10:
 3311 0779 6C6F6E67 		.ascii	"long unsigned int\000"
 3311      20756E73 
 3311      69676E65 
 3311      6420696E 
 3311      7400
 3312              	.LASF24:
 3313 078b 63686172 		.ascii	"char\000"
 3313      00
 3314              	.LASF99:
 3315 0790 4E52465F 		.ascii	"NRF_FEATURE_BIT_EN_DPL\000"
 3315      46454154 
 3315      5552455F 
 3315      4249545F 
 3315      454E5F44 
 3316              	.LASF152:
ARM GAS  C:\Users\ALEXAN~1\AppData\Local\Temp\ccCHRx39.s 			page 71


 3317 07a7 44617461 		.ascii	"DataA\000"
 3317      4100
 3318              	.LASF13:
 3319 07ad 756E7369 		.ascii	"unsigned int\000"
 3319      676E6564 
 3319      20696E74 
 3319      00
 3320              	.LASF86:
 3321 07ba 4E52465F 		.ascii	"NRF_FIFO_STATUS_BIT_RX_EMPTY\000"
 3321      4649464F 
 3321      5F535441 
 3321      5455535F 
 3321      4249545F 
 3322              	.LASF6:
 3323 07d7 5F5F7569 		.ascii	"__uint16_t\000"
 3323      6E743136 
 3323      5F7400
 3324              	.LASF98:
 3325 07e2 4E52465F 		.ascii	"NRF_FEATURE_BIT_EN_ACK_PAY\000"
 3325      46454154 
 3325      5552455F 
 3325      4249545F 
 3325      454E5F41 
 3326              	.LASF145:
 3327 07fd 444D415F 		.ascii	"DMA_B_Chan\000"
 3327      425F4368 
 3327      616E00
 3328              	.LASF8:
 3329 0808 5F5F696E 		.ascii	"__int32_t\000"
 3329      7433325F 
 3329      7400
 3330              	.LASF148:
 3331 0812 444D415F 		.ascii	"DMA_A_Filter_TD\000"
 3331      415F4669 
 3331      6C746572 
 3331      5F544400 
 3332              	.LASF106:
 3333 0822 64697374 		.ascii	"distance\000"
 3333      616E6365 
 3333      00
 3334              	.LASF29:
 3335 082b 4E52465F 		.ascii	"NRF_REG_EN_AA\000"
 3335      5245475F 
 3335      454E5F41 
 3335      4100
 3336              	.LASF119:
 3337 0839 6572725F 		.ascii	"err_angle\000"
 3337      616E676C 
 3337      6500
 3338              	.LASF141:
 3339 0843 6F666673 		.ascii	"offset\000"
 3339      657400
 3340              	.LASF136:
 3341 084a 745F7269 		.ascii	"t_right\000"
 3341      67687400 
 3342              	.LASF45:
 3343 0852 4E52465F 		.ascii	"NRF_REG_RX_PW_P0\000"
ARM GAS  C:\Users\ALEXAN~1\AppData\Local\Temp\ccCHRx39.s 			page 72


 3343      5245475F 
 3343      52585F50 
 3343      575F5030 
 3343      00
 3344              	.LASF14:
 3345 0863 696E7438 		.ascii	"int8_t\000"
 3345      5F7400
 3346              	.LASF47:
 3347 086a 4E52465F 		.ascii	"NRF_REG_RX_PW_P2\000"
 3347      5245475F 
 3347      52585F50 
 3347      575F5032 
 3347      00
 3348              	.LASF48:
 3349 087b 4E52465F 		.ascii	"NRF_REG_RX_PW_P3\000"
 3349      5245475F 
 3349      52585F50 
 3349      575F5033 
 3349      00
 3350              	.LASF70:
 3351 088c 4E52465F 		.ascii	"NRF_CONFIG_BIT_MASK_TX_DS\000"
 3351      434F4E46 
 3351      49475F42 
 3351      49545F4D 
 3351      41534B5F 
 3352              	.LASF50:
 3353 08a6 4E52465F 		.ascii	"NRF_REG_RX_PW_P5\000"
 3353      5245475F 
 3353      52585F50 
 3353      575F5035 
 3353      00
 3354              	.LASF139:
 3355 08b7 74686574 		.ascii	"theta_total\000"
 3355      615F746F 
 3355      74616C00 
 3356              	.LASF123:
 3357 08c3 73656E73 		.ascii	"sensor_update_data\000"
 3357      6F725F75 
 3357      70646174 
 3357      655F6461 
 3357      746100
 3358              	.LASF44:
 3359 08d6 4E52465F 		.ascii	"NRF_REG_TX_ADDR\000"
 3359      5245475F 
 3359      54585F41 
 3359      44445200 
 3360              	.LASF92:
 3361 08e6 4E52465F 		.ascii	"NRF_DYNPD_BIT_DPL_P1\000"
 3361      44594E50 
 3361      445F4249 
 3361      545F4450 
 3361      4C5F5031 
 3362              	.LASF93:
 3363 08fb 4E52465F 		.ascii	"NRF_DYNPD_BIT_DPL_P2\000"
 3363      44594E50 
 3363      445F4249 
 3363      545F4450 
ARM GAS  C:\Users\ALEXAN~1\AppData\Local\Temp\ccCHRx39.s 			page 73


 3363      4C5F5032 
 3364              	.LASF94:
 3365 0910 4E52465F 		.ascii	"NRF_DYNPD_BIT_DPL_P3\000"
 3365      44594E50 
 3365      445F4249 
 3365      545F4450 
 3365      4C5F5033 
 3366              	.LASF15:
 3367 0925 75696E74 		.ascii	"uint8_t\000"
 3367      385F7400 
 3368              	.LASF96:
 3369 092d 4E52465F 		.ascii	"NRF_DYNPD_BIT_DPL_P5\000"
 3369      44594E50 
 3369      445F4249 
 3369      545F4450 
 3369      4C5F5035 
 3370              	.LASF82:
 3371 0942 4E52465F 		.ascii	"NRF_EN_RXADDR_BIT_ERX_P4\000"
 3371      454E5F52 
 3371      58414444 
 3371      525F4249 
 3371      545F4552 
 3372              	.LASF84:
 3373 095b 4E52465F 		.ascii	"NRF_SETUP_RETR_BIT_ARC\000"
 3373      53455455 
 3373      505F5245 
 3373      54525F42 
 3373      49545F41 
 3374              	.LASF85:
 3375 0972 4E52465F 		.ascii	"NRF_SETUP_RETR_BIT_ARD\000"
 3375      53455455 
 3375      505F5245 
 3375      54525F42 
 3375      49545F41 
 3376              	.LASF91:
 3377 0989 4E52465F 		.ascii	"NRF_DYNPD_BIT_DPL_P0\000"
 3377      44594E50 
 3377      445F4249 
 3377      545F4450 
 3377      4C5F5030 
 3378              	.LASF114:
 3379 099e 6D6F746F 		.ascii	"motor_init\000"
 3379      725F696E 
 3379      697400
 3380              	.LASF95:
 3381 09a9 4E52465F 		.ascii	"NRF_DYNPD_BIT_DPL_P4\000"
 3381      44594E50 
 3381      445F4249 
 3381      545F4450 
 3381      4C5F5034 
 3382              	.LASF118:
 3383 09be 77656967 		.ascii	"weighted_Kp\000"
 3383      68746564 
 3383      5F4B7000 
 3384              	.LASF97:
 3385 09ca 4E52465F 		.ascii	"NRF_FEATURE_BIT_EN_DYN_ACK\000"
 3385      46454154 
ARM GAS  C:\Users\ALEXAN~1\AppData\Local\Temp\ccCHRx39.s 			page 74


 3385      5552455F 
 3385      4249545F 
 3385      454E5F44 
 3386              	.LASF101:
 3387 09e5 6D6F746F 		.ascii	"motor_t\000"
 3387      725F7400 
 3388              	.LASF143:
 3389 09ed 444D415F 		.ascii	"DMA_A_Chan\000"
 3389      415F4368 
 3389      616E00
 3390              	.LASF133:
 3391 09f8 6D61696E 		.ascii	"main\000"
 3391      00
 3392              	.LASF138:
 3393 09fd 745F6365 		.ascii	"t_center\000"
 3393      6E746572 
 3393      00
 3394              	.LASF135:
 3395 0a06 73657276 		.ascii	"servo\000"
 3395      6F00
 3396              	.LASF140:
 3397 0a0c 7475726E 		.ascii	"turn_factor\000"
 3397      5F666163 
 3397      746F7200 
 3398              	.LASF36:
 3399 0a18 4E52465F 		.ascii	"NRF_REG_OBSERVE_TX\000"
 3399      5245475F 
 3399      4F425345 
 3399      5256455F 
 3399      545800
 3400              		.ident	"GCC: (GNU Tools for ARM Embedded Processors) 5.4.1 20160609 (release) [ARM/embedded-5-bran
