ARM GAS  C:\Users\rens_\AppData\Local\Temp\ccwNmOas.s 			page 1


   1              		.syntax unified
   2              		.cpu cortex-m3
   3              		.fpu softvfp
   4              		.eabi_attribute 20, 1
   5              		.eabi_attribute 21, 1
   6              		.eabi_attribute 23, 3
   7              		.eabi_attribute 24, 1
   8              		.eabi_attribute 25, 1
   9              		.eabi_attribute 26, 1
  10              		.eabi_attribute 30, 6
  11              		.eabi_attribute 34, 1
  12              		.eabi_attribute 18, 4
  13              		.thumb
  14              		.syntax unified
  15              		.file	"main.c"
  16              		.text
  17              	.Ltext0:
  18              		.cfi_sections	.debug_frame
  19              		.global	irq_flag
  20              		.bss
  21              		.type	irq_flag, %object
  22              		.size	irq_flag, 1
  23              	irq_flag:
  24 0000 00       		.space	1
  25              		.comm	data,1,1
  26              		.comm	DataA,3000,4
  27              		.comm	DataB,3000,4
  28              		.comm	DMA_A_Chan,1,1
  29              		.comm	DMA_A_TD,1,4
  30              		.comm	DMA_B_Chan,1,1
  31              		.comm	DMA_B_TD,1,4
  32              		.global	ISR_A_done
  33              		.type	ISR_A_done, %object
  34              		.size	ISR_A_done, 1
  35              	ISR_A_done:
  36 0001 00       		.space	1
  37              		.global	ISR_B_done
  38              		.type	ISR_B_done, %object
  39              		.size	ISR_B_done, 1
  40              	ISR_B_done:
  41 0002 00       		.space	1
  42              		.global	angle
  43              		.type	angle, %object
  44              		.size	angle, 1
  45              	angle:
  46 0003 00       		.space	1
  47              		.global	distance
  48              		.align	2
  49              		.type	distance, %object
  50              		.size	distance, 4
  51              	distance:
  52 0004 00000000 		.space	4
  53              		.global	velocity
  54              		.align	1
  55              		.type	velocity, %object
  56              		.size	velocity, 2
  57              	velocity:
ARM GAS  C:\Users\rens_\AppData\Local\Temp\ccwNmOas.s 			page 2


  58 0008 0000     		.space	2
  59              		.comm	output,200,4
  60              		.section	.text.ISR_START_Handler,"ax",%progbits
  61              		.align	2
  62              		.global	ISR_START_Handler
  63              		.thumb
  64              		.thumb_func
  65              		.type	ISR_START_Handler, %function
  66              	ISR_START_Handler:
  67              	.LFB57:
  68              		.file 1 "main.c"
   1:main.c        **** #include "project.h"
   2:main.c        **** 
   3:main.c        **** #include <stdio.h>
   4:main.c        **** #include <stdbool.h>
   5:main.c        **** 
   6:main.c        **** volatile bool irq_flag = false;
   7:main.c        **** 
   8:main.c        **** // here we will store the received data
   9:main.c        **** unsigned char data;
  10:main.c        **** 
  11:main.c        **** // Executed when the IRQ pin triggers an interrupt
  12:main.c        **** CY_ISR_PROTO(IRQ_Handler);
  13:main.c        **** 
  14:main.c        **** #define DATA_SIZE 1500
  15:main.c        **** 
  16:main.c        **** uint16_t DataA[DATA_SIZE];
  17:main.c        **** uint16_t DataB[DATA_SIZE];
  18:main.c        **** 
  19:main.c        **** #define DMA_A_BYTES_PER_BURST 2
  20:main.c        **** #define DMA_A_REQUEST_PER_BURST 1
  21:main.c        **** #define DMA_A_SRC_BASE (CYDEV_PERIPH_BASE)
  22:main.c        **** #define DMA_A_DST_BASE (CYDEV_SRAM_BASE)
  23:main.c        **** 
  24:main.c        **** #define DMA_B_BYTES_PER_BURST 2
  25:main.c        **** #define DMA_B_REQUEST_PER_BURST 1
  26:main.c        **** #define DMA_B_SRC_BASE (CYDEV_PERIPH_BASE)
  27:main.c        **** #define DMA_B_DST_BASE (CYDEV_SRAM_BASE)
  28:main.c        **** 
  29:main.c        **** uint8 DMA_A_Chan;
  30:main.c        **** uint8 DMA_A_TD[1];
  31:main.c        **** 
  32:main.c        **** uint8 DMA_B_Chan;
  33:main.c        **** uint8 DMA_B_TD[1];
  34:main.c        **** 
  35:main.c        **** uint8_t ISR_A_done = 0;
  36:main.c        **** uint8_t ISR_B_done = 0;
  37:main.c        **** 
  38:main.c        **** int8_t angle = 0;
  39:main.c        **** uint32_t distance = 0;
  40:main.c        **** uint16_t velocity = 0;
  41:main.c        **** 
  42:main.c        **** char output[200];
  43:main.c        **** 
  44:main.c        **** CY_ISR(ISR_START_Handler)
  45:main.c        **** {
  69              		.loc 1 45 0
ARM GAS  C:\Users\rens_\AppData\Local\Temp\ccwNmOas.s 			page 3


  70              		.cfi_startproc
  71              		@ args = 0, pretend = 0, frame = 0
  72              		@ frame_needed = 1, uses_anonymous_args = 0
  73 0000 80B5     		push	{r7, lr}
  74              		.cfi_def_cfa_offset 8
  75              		.cfi_offset 7, -8
  76              		.cfi_offset 14, -4
  77 0002 00AF     		add	r7, sp, #0
  78              		.cfi_def_cfa_register 7
  46:main.c        ****     ADC_SAR_A_StartConvert();
  79              		.loc 1 46 0
  80 0004 FFF7FEFF 		bl	ADC_SAR_A_StartConvert
  47:main.c        ****     ADC_SAR_B_StartConvert();
  81              		.loc 1 47 0
  82 0008 FFF7FEFF 		bl	ADC_SAR_B_StartConvert
  48:main.c        **** }
  83              		.loc 1 48 0
  84 000c 00BF     		nop
  85 000e 80BD     		pop	{r7, pc}
  86              		.cfi_endproc
  87              	.LFE57:
  88              		.size	ISR_START_Handler, .-ISR_START_Handler
  89              		.section	.text.ISR_OUT_A_Handler,"ax",%progbits
  90              		.align	2
  91              		.global	ISR_OUT_A_Handler
  92              		.thumb
  93              		.thumb_func
  94              		.type	ISR_OUT_A_Handler, %function
  95              	ISR_OUT_A_Handler:
  96              	.LFB58:
  49:main.c        **** 
  50:main.c        **** CY_ISR(ISR_OUT_A_Handler)
  51:main.c        **** {
  97              		.loc 1 51 0
  98              		.cfi_startproc
  99              		@ args = 0, pretend = 0, frame = 0
 100              		@ frame_needed = 1, uses_anonymous_args = 0
 101 0000 80B5     		push	{r7, lr}
 102              		.cfi_def_cfa_offset 8
 103              		.cfi_offset 7, -8
 104              		.cfi_offset 14, -4
 105 0002 00AF     		add	r7, sp, #0
 106              		.cfi_def_cfa_register 7
  52:main.c        ****     ADC_SAR_A_StopConvert();
 107              		.loc 1 52 0
 108 0004 FFF7FEFF 		bl	ADC_SAR_A_StopConvert
  53:main.c        ****     ISR_A_done = 1;
 109              		.loc 1 53 0
 110 0008 024B     		ldr	r3, .L3
 111 000a 0122     		movs	r2, #1
 112 000c 1A70     		strb	r2, [r3]
  54:main.c        **** }
 113              		.loc 1 54 0
 114 000e 00BF     		nop
 115 0010 80BD     		pop	{r7, pc}
 116              	.L4:
 117 0012 00BF     		.align	2
ARM GAS  C:\Users\rens_\AppData\Local\Temp\ccwNmOas.s 			page 4


 118              	.L3:
 119 0014 00000000 		.word	ISR_A_done
 120              		.cfi_endproc
 121              	.LFE58:
 122              		.size	ISR_OUT_A_Handler, .-ISR_OUT_A_Handler
 123              		.section	.text.ISR_OUT_B_Handler,"ax",%progbits
 124              		.align	2
 125              		.global	ISR_OUT_B_Handler
 126              		.thumb
 127              		.thumb_func
 128              		.type	ISR_OUT_B_Handler, %function
 129              	ISR_OUT_B_Handler:
 130              	.LFB59:
  55:main.c        **** 
  56:main.c        **** CY_ISR(ISR_OUT_B_Handler)
  57:main.c        **** {
 131              		.loc 1 57 0
 132              		.cfi_startproc
 133              		@ args = 0, pretend = 0, frame = 0
 134              		@ frame_needed = 1, uses_anonymous_args = 0
 135 0000 80B5     		push	{r7, lr}
 136              		.cfi_def_cfa_offset 8
 137              		.cfi_offset 7, -8
 138              		.cfi_offset 14, -4
 139 0002 00AF     		add	r7, sp, #0
 140              		.cfi_def_cfa_register 7
  58:main.c        ****     ADC_SAR_B_StopConvert();
 141              		.loc 1 58 0
 142 0004 FFF7FEFF 		bl	ADC_SAR_B_StopConvert
  59:main.c        ****     ISR_B_done = 1;
 143              		.loc 1 59 0
 144 0008 024B     		ldr	r3, .L6
 145 000a 0122     		movs	r2, #1
 146 000c 1A70     		strb	r2, [r3]
  60:main.c        **** }
 147              		.loc 1 60 0
 148 000e 00BF     		nop
 149 0010 80BD     		pop	{r7, pc}
 150              	.L7:
 151 0012 00BF     		.align	2
 152              	.L6:
 153 0014 00000000 		.word	ISR_B_done
 154              		.cfi_endproc
 155              	.LFE59:
 156              		.size	ISR_OUT_B_Handler, .-ISR_OUT_B_Handler
 157              		.section	.text.IRQ_Handler,"ax",%progbits
 158              		.align	2
 159              		.global	IRQ_Handler
 160              		.thumb
 161              		.thumb_func
 162              		.type	IRQ_Handler, %function
 163              	IRQ_Handler:
 164              	.LFB60:
  61:main.c        **** 
  62:main.c        **** CY_ISR(IRQ_Handler)
  63:main.c        **** {
 165              		.loc 1 63 0
ARM GAS  C:\Users\rens_\AppData\Local\Temp\ccwNmOas.s 			page 5


 166              		.cfi_startproc
 167              		@ args = 0, pretend = 0, frame = 8
 168              		@ frame_needed = 1, uses_anonymous_args = 0
 169 0000 80B5     		push	{r7, lr}
 170              		.cfi_def_cfa_offset 8
 171              		.cfi_offset 7, -8
 172              		.cfi_offset 14, -4
 173 0002 82B0     		sub	sp, sp, #8
 174              		.cfi_def_cfa_offset 16
 175 0004 00AF     		add	r7, sp, #0
 176              		.cfi_def_cfa_register 7
  64:main.c        ****     ADC_SAR_A_StartConvert();
 177              		.loc 1 64 0
 178 0006 FFF7FEFF 		bl	ADC_SAR_A_StartConvert
  65:main.c        ****     ADC_SAR_B_StartConvert();
 179              		.loc 1 65 0
 180 000a FFF7FEFF 		bl	ADC_SAR_B_StartConvert
  66:main.c        ****     irq_flag = true;
 181              		.loc 1 66 0
 182 000e 134B     		ldr	r3, .L9
 183 0010 0122     		movs	r2, #1
 184 0012 1A70     		strb	r2, [r3]
  67:main.c        ****     IRQ_ClearInterrupt();
 185              		.loc 1 67 0
 186 0014 FFF7FEFF 		bl	IRQ_ClearInterrupt
  68:main.c        ****     nrf_irq flag = nRF24_get_irq_flag();
 187              		.loc 1 68 0
 188 0018 FFF7FEFF 		bl	nRF24_get_irq_flag
 189 001c 0346     		mov	r3, r0
 190 001e FB71     		strb	r3, [r7, #7]
  69:main.c        ****     nRF24_clear_irq_flag(flag);
 191              		.loc 1 69 0
 192 0020 FB79     		ldrb	r3, [r7, #7]	@ zero_extendqisi2
 193 0022 1846     		mov	r0, r3
 194 0024 FFF7FEFF 		bl	nRF24_clear_irq_flag
  70:main.c        **** 
  71:main.c        ****     uint16_t data = 0;
 195              		.loc 1 71 0
 196 0028 0023     		movs	r3, #0
 197 002a BB80     		strh	r3, [r7, #4]	@ movhi
  72:main.c        ****     
  73:main.c        ****     // get the data from the transmitter
  74:main.c        ****     nRF24_get_rx_payload((uint8_t *)&data, 2);
 198              		.loc 1 74 0
 199 002c 3B1D     		adds	r3, r7, #4
 200 002e 0221     		movs	r1, #2
 201 0030 1846     		mov	r0, r3
 202 0032 FFF7FEFF 		bl	nRF24_get_rx_payload
  75:main.c        ****     
  76:main.c        ****     // because the ARM device is little endian, the data is stored in the incorrect order
  77:main.c        ****     // so the data consists of the LSB|MSB of the velocity
  78:main.c        ****     velocity = data << 0x08;
 203              		.loc 1 78 0
 204 0036 BB88     		ldrh	r3, [r7, #4]
 205 0038 1B02     		lsls	r3, r3, #8
 206 003a 9AB2     		uxth	r2, r3
 207 003c 084B     		ldr	r3, .L9+4
ARM GAS  C:\Users\rens_\AppData\Local\Temp\ccwNmOas.s 			page 6


 208 003e 1A80     		strh	r2, [r3]	@ movhi
  79:main.c        ****     velocity |= data >> 0x08;
 209              		.loc 1 79 0
 210 0040 BB88     		ldrh	r3, [r7, #4]
 211 0042 1B0A     		lsrs	r3, r3, #8
 212 0044 9AB2     		uxth	r2, r3
 213 0046 064B     		ldr	r3, .L9+4
 214 0048 1B88     		ldrh	r3, [r3]
 215 004a 1343     		orrs	r3, r3, r2
 216 004c 9AB2     		uxth	r2, r3
 217 004e 044B     		ldr	r3, .L9+4
 218 0050 1A80     		strh	r2, [r3]	@ movhi
  80:main.c        **** }
 219              		.loc 1 80 0
 220 0052 00BF     		nop
 221 0054 0837     		adds	r7, r7, #8
 222              		.cfi_def_cfa_offset 8
 223 0056 BD46     		mov	sp, r7
 224              		.cfi_def_cfa_register 13
 225              		@ sp needed
 226 0058 80BD     		pop	{r7, pc}
 227              	.L10:
 228 005a 00BF     		.align	2
 229              	.L9:
 230 005c 00000000 		.word	irq_flag
 231 0060 00000000 		.word	velocity
 232              		.cfi_endproc
 233              	.LFE60:
 234              		.size	IRQ_Handler, .-IRQ_Handler
 235              		.global	__aeabi_i2d
 236              		.global	__aeabi_ddiv
 237              		.global	__aeabi_d2uiz
 238              		.global	__aeabi_dmul
 239              		.global	__aeabi_d2iz
 240              		.global	__aeabi_dsub
 241              		.section	.rodata
 242              		.align	2
 243              	.LC0:
 244 0000 25640A00 		.ascii	"%d\012\000"
 245              		.section	.text.main,"ax",%progbits
 246              		.align	2
 247              		.global	main
 248              		.thumb
 249              		.thumb_func
 250              		.type	main, %function
 251              	main:
 252              	.LFB61:
  81:main.c        **** 
  82:main.c        **** int main(void)
  83:main.c        **** {    
 253              		.loc 1 83 0
 254              		.cfi_startproc
 255              		@ args = 0, pretend = 0, frame = 24
 256              		@ frame_needed = 1, uses_anonymous_args = 0
 257 0000 90B5     		push	{r4, r7, lr}
 258              		.cfi_def_cfa_offset 12
 259              		.cfi_offset 4, -12
ARM GAS  C:\Users\rens_\AppData\Local\Temp\ccwNmOas.s 			page 7


 260              		.cfi_offset 7, -8
 261              		.cfi_offset 14, -4
 262 0002 87B0     		sub	sp, sp, #28
 263              		.cfi_def_cfa_offset 40
 264 0004 00AF     		add	r7, sp, #0
 265              		.cfi_def_cfa_register 7
  84:main.c        ****     UART_Start();
 266              		.loc 1 84 0
 267 0006 FFF7FEFF 		bl	UART_Start
  85:main.c        ****     Clock_In_Start();
 268              		.loc 1 85 0
 269 000a FFF7FEFF 		bl	Clock_In_Start
  86:main.c        ****     Clock_In_1_Start();
 270              		.loc 1 86 0
 271 000e FFF7FEFF 		bl	Clock_In_1_Start
  87:main.c        ****     ADC_SAR_A_Start();
 272              		.loc 1 87 0
 273 0012 FFF7FEFF 		bl	ADC_SAR_A_Start
  88:main.c        ****     ADC_SAR_B_Start();
 274              		.loc 1 88 0
 275 0016 FFF7FEFF 		bl	ADC_SAR_B_Start
  89:main.c        ****     Maximum_Peak_Detector_A_Start();
 276              		.loc 1 89 0
 277 001a FFF7FEFF 		bl	Maximum_Peak_Detector_A_Start
  90:main.c        ****     Maximum_Peak_Detector_B_Start();
 278              		.loc 1 90 0
 279 001e FFF7FEFF 		bl	Maximum_Peak_Detector_B_Start
  91:main.c        ****     ADC_SAR_A_IRQ_Enable();
 280              		.loc 1 91 0
 281 0022 FFF7FEFF 		bl	ADC_SAR_A_IRQ_Enable
  92:main.c        ****     ADC_SAR_B_IRQ_Enable();
 282              		.loc 1 92 0
 283 0026 FFF7FEFF 		bl	ADC_SAR_B_IRQ_Enable
  93:main.c        **** 
  94:main.c        ****     ISR_A_StartEx(ISR_OUT_A_Handler);
 284              		.loc 1 94 0
 285 002a BD48     		ldr	r0, .L20+16
 286 002c FFF7FEFF 		bl	ISR_A_StartEx
  95:main.c        ****     ISR_B_StartEx(ISR_OUT_B_Handler);
 287              		.loc 1 95 0
 288 0030 BC48     		ldr	r0, .L20+20
 289 0032 FFF7FEFF 		bl	ISR_B_StartEx
  96:main.c        ****     NETWORK_PIN_StartEx(ISR_START_Handler);
 290              		.loc 1 96 0
 291 0036 BC48     		ldr	r0, .L20+24
 292 0038 FFF7FEFF 		bl	NETWORK_PIN_StartEx
  97:main.c        ****     
  98:main.c        ****     /* configuration of DMA, this is black magic done by the DMA Wizard */
  99:main.c        ****     DMA_A_Chan = DMA_A_DmaInitialize(DMA_A_BYTES_PER_BURST, DMA_A_REQUEST_PER_BURST, 
 293              		.loc 1 99 0
 294 003c 41F6FF73 		movw	r3, #8191
 295 0040 4FF48042 		mov	r2, #16384
 296 0044 0121     		movs	r1, #1
 297 0046 0220     		movs	r0, #2
 298 0048 FFF7FEFF 		bl	DMA_A_DmaInitialize
 299 004c 0346     		mov	r3, r0
 300 004e 1A46     		mov	r2, r3
ARM GAS  C:\Users\rens_\AppData\Local\Temp\ccwNmOas.s 			page 8


 301 0050 B64B     		ldr	r3, .L20+28
 302 0052 1A70     		strb	r2, [r3]
 100:main.c        ****         HI16(DMA_A_SRC_BASE), HI16(DMA_A_DST_BASE));
 101:main.c        ****     DMA_A_TD[0] = CyDmaTdAllocate();
 303              		.loc 1 101 0
 304 0054 FFF7FEFF 		bl	CyDmaTdAllocate
 305 0058 0346     		mov	r3, r0
 306 005a 1A46     		mov	r2, r3
 307 005c B44B     		ldr	r3, .L20+32
 308 005e 1A70     		strb	r2, [r3]
 102:main.c        ****     CyDmaTdSetConfiguration(DMA_A_TD[0], DATA_SIZE * 2, DMA_A_TD[0], DMA_A__TD_TERMOUT_EN | CY_DMA_
 309              		.loc 1 102 0
 310 0060 B34B     		ldr	r3, .L20+32
 311 0062 1878     		ldrb	r0, [r3]	@ zero_extendqisi2
 312 0064 B24B     		ldr	r3, .L20+32
 313 0066 1A78     		ldrb	r2, [r3]	@ zero_extendqisi2
 314 0068 0623     		movs	r3, #6
 315 006a 40F6B831 		movw	r1, #3000
 316 006e FFF7FEFF 		bl	CyDmaTdSetConfiguration
 103:main.c        ****     CyDmaTdSetAddress(DMA_A_TD[0], LO16((uint32)ADC_SAR_A_SAR_WRK0_PTR), LO16((uint32)DataA));
 317              		.loc 1 103 0
 318 0072 AF4B     		ldr	r3, .L20+32
 319 0074 1B78     		ldrb	r3, [r3]	@ zero_extendqisi2
 320 0076 AF4A     		ldr	r2, .L20+36
 321 0078 92B2     		uxth	r2, r2
 322 007a 45F6A031 		movw	r1, #23456
 323 007e 1846     		mov	r0, r3
 324 0080 FFF7FEFF 		bl	CyDmaTdSetAddress
 104:main.c        ****     CyDmaChSetInitialTd(DMA_A_Chan, DMA_A_TD[0]);
 325              		.loc 1 104 0
 326 0084 A94B     		ldr	r3, .L20+28
 327 0086 1A78     		ldrb	r2, [r3]	@ zero_extendqisi2
 328 0088 A94B     		ldr	r3, .L20+32
 329 008a 1B78     		ldrb	r3, [r3]	@ zero_extendqisi2
 330 008c 1946     		mov	r1, r3
 331 008e 1046     		mov	r0, r2
 332 0090 FFF7FEFF 		bl	CyDmaChSetInitialTd
 105:main.c        ****     
 106:main.c        ****     /* configuration of DMA, this is black magic done by the DMA Wizard */
 107:main.c        ****     DMA_B_Chan = DMA_B_DmaInitialize(DMA_B_BYTES_PER_BURST, DMA_B_REQUEST_PER_BURST, 
 333              		.loc 1 107 0
 334 0094 41F6FF73 		movw	r3, #8191
 335 0098 4FF48042 		mov	r2, #16384
 336 009c 0121     		movs	r1, #1
 337 009e 0220     		movs	r0, #2
 338 00a0 FFF7FEFF 		bl	DMA_B_DmaInitialize
 339 00a4 0346     		mov	r3, r0
 340 00a6 1A46     		mov	r2, r3
 341 00a8 A34B     		ldr	r3, .L20+40
 342 00aa 1A70     		strb	r2, [r3]
 108:main.c        ****         HI16(DMA_B_SRC_BASE), HI16(DMA_B_DST_BASE));
 109:main.c        ****     DMA_B_TD[0] = CyDmaTdAllocate();
 343              		.loc 1 109 0
 344 00ac FFF7FEFF 		bl	CyDmaTdAllocate
 345 00b0 0346     		mov	r3, r0
 346 00b2 1A46     		mov	r2, r3
 347 00b4 A14B     		ldr	r3, .L20+44
ARM GAS  C:\Users\rens_\AppData\Local\Temp\ccwNmOas.s 			page 9


 348 00b6 1A70     		strb	r2, [r3]
 110:main.c        ****     CyDmaTdSetConfiguration(DMA_B_TD[0], DATA_SIZE * 2, DMA_B_TD[0], DMA_B__TD_TERMOUT_EN | CY_DMA_
 349              		.loc 1 110 0
 350 00b8 A04B     		ldr	r3, .L20+44
 351 00ba 1878     		ldrb	r0, [r3]	@ zero_extendqisi2
 352 00bc 9F4B     		ldr	r3, .L20+44
 353 00be 1A78     		ldrb	r2, [r3]	@ zero_extendqisi2
 354 00c0 0623     		movs	r3, #6
 355 00c2 40F6B831 		movw	r1, #3000
 356 00c6 FFF7FEFF 		bl	CyDmaTdSetConfiguration
 111:main.c        ****     CyDmaTdSetAddress(DMA_B_TD[0], LO16((uint32)ADC_SAR_B_SAR_WRK0_PTR), LO16((uint32)DataB));
 357              		.loc 1 111 0
 358 00ca 9C4B     		ldr	r3, .L20+44
 359 00cc 1B78     		ldrb	r3, [r3]	@ zero_extendqisi2
 360 00ce 9C4A     		ldr	r2, .L20+48
 361 00d0 92B2     		uxth	r2, r2
 362 00d2 45F6A231 		movw	r1, #23458
 363 00d6 1846     		mov	r0, r3
 364 00d8 FFF7FEFF 		bl	CyDmaTdSetAddress
 112:main.c        ****     CyDmaChSetInitialTd(DMA_B_Chan, DMA_B_TD[0]);
 365              		.loc 1 112 0
 366 00dc 964B     		ldr	r3, .L20+40
 367 00de 1A78     		ldrb	r2, [r3]	@ zero_extendqisi2
 368 00e0 964B     		ldr	r3, .L20+44
 369 00e2 1B78     		ldrb	r3, [r3]	@ zero_extendqisi2
 370 00e4 1946     		mov	r1, r3
 371 00e6 1046     		mov	r0, r2
 372 00e8 FFF7FEFF 		bl	CyDmaChSetInitialTd
 113:main.c        ****     
 114:main.c        ****     /* enable DMA channels */
 115:main.c        ****     CyDmaChEnable(DMA_A_Chan, 1);
 373              		.loc 1 115 0
 374 00ec 8F4B     		ldr	r3, .L20+28
 375 00ee 1B78     		ldrb	r3, [r3]	@ zero_extendqisi2
 376 00f0 0121     		movs	r1, #1
 377 00f2 1846     		mov	r0, r3
 378 00f4 FFF7FEFF 		bl	CyDmaChEnable
 116:main.c        ****     CyDmaChEnable(DMA_B_Chan, 1);
 379              		.loc 1 116 0
 380 00f8 8F4B     		ldr	r3, .L20+40
 381 00fa 1B78     		ldrb	r3, [r3]	@ zero_extendqisi2
 382 00fc 0121     		movs	r1, #1
 383 00fe 1846     		mov	r0, r3
 384 0100 FFF7FEFF 		bl	CyDmaChEnable
 117:main.c        ****     
 118:main.c        ****     const uint8_t RX_ADDR[5]= {0xBA, 0xAD, 0xC0, 0xFF, 0xEE};
 119:main.c        ****     //isr_IRQ_StartEx(IRQ_Handler);
 120:main.c        ****     
 121:main.c        ****     //nRF24_start();
 122:main.c        ****     //nRF24_set_rx_pipe_address(NRF_ADDR_PIPE0, RX_ADDR, 5);
 123:main.c        ****     //nRF24_start_listening();
 124:main.c        ****   
 125:main.c        ****     CyGlobalIntEnable;
 385              		.loc 1 125 0
 386              		.syntax unified
 387              	@ 125 "main.c" 1
 388 0104 62B6     		CPSIE   i
ARM GAS  C:\Users\rens_\AppData\Local\Temp\ccwNmOas.s 			page 10


 389              	@ 0 "" 2
 390              		.thumb
 391              		.syntax unified
 392              	.L19:
 126:main.c        ****     
 127:main.c        ****     for(;;)
 128:main.c        ****     {        
 129:main.c        ****         if (ISR_A_done && ISR_B_done) {
 393              		.loc 1 129 0
 394 0106 8F4B     		ldr	r3, .L20+52
 395 0108 1B78     		ldrb	r3, [r3]	@ zero_extendqisi2
 396 010a 002B     		cmp	r3, #0
 397 010c FBD0     		beq	.L19
 398              		.loc 1 129 0 is_stmt 0 discriminator 1
 399 010e 8E4B     		ldr	r3, .L20+56
 400 0110 1B78     		ldrb	r3, [r3]	@ zero_extendqisi2
 401 0112 002B     		cmp	r3, #0
 402 0114 F7D0     		beq	.L19
 403              	.LBB2:
 130:main.c        ****             CyGlobalIntDisable;
 404              		.loc 1 130 0 is_stmt 1
 405              		.syntax unified
 406              	@ 130 "main.c" 1
 407 0116 72B6     		CPSID   i
 408              	@ 0 "" 2
 131:main.c        ****             uint16_t a = 0, b = 0;
 409              		.loc 1 131 0
 410              		.thumb
 411              		.syntax unified
 412 0118 0023     		movs	r3, #0
 413 011a FB82     		strh	r3, [r7, #22]	@ movhi
 414 011c 0023     		movs	r3, #0
 415 011e BB82     		strh	r3, [r7, #20]	@ movhi
 132:main.c        ****             
 133:main.c        ****             // ai1, ai2 and ai3 are the first, second and third highest amplitude time indices
 134:main.c        ****             // this means DataA[ai1] > DataA[ai2] > DataA[ai3]
 135:main.c        ****             uint16_t ai1 = 0, ai2 = 0, ai3 = 0;
 416              		.loc 1 135 0
 417 0120 0023     		movs	r3, #0
 418 0122 7B82     		strh	r3, [r7, #18]	@ movhi
 419 0124 0023     		movs	r3, #0
 420 0126 3B82     		strh	r3, [r7, #16]	@ movhi
 421 0128 0023     		movs	r3, #0
 422 012a FB81     		strh	r3, [r7, #14]	@ movhi
 136:main.c        ****             
 137:main.c        ****             // bi1, bi2 and bi3 are the first, second and third highest amplitude time indices
 138:main.c        ****             // this means DataB[bi1] > DataB[bi2] > DataB[bi3]
 139:main.c        ****             uint16_t bi1 = 0, bi2 = 0, bi3 = 0;
 423              		.loc 1 139 0
 424 012c 0023     		movs	r3, #0
 425 012e BB81     		strh	r3, [r7, #12]	@ movhi
 426 0130 0023     		movs	r3, #0
 427 0132 7B81     		strh	r3, [r7, #10]	@ movhi
 428 0134 0023     		movs	r3, #0
 429 0136 3B81     		strh	r3, [r7, #8]	@ movhi
 430              	.LBB3:
 140:main.c        ****             
ARM GAS  C:\Users\rens_\AppData\Local\Temp\ccwNmOas.s 			page 11


 141:main.c        ****             // find the 3 biggest time indices of DataA and DataB
 142:main.c        ****             for (uint16_t i = 0; i < DATA_SIZE; i++) {
 431              		.loc 1 142 0
 432 0138 0023     		movs	r3, #0
 433 013a FB80     		strh	r3, [r7, #6]	@ movhi
 434 013c 26E0     		b	.L13
 435              	.L16:
 143:main.c        ****                 if (DataA[i] > a) {
 436              		.loc 1 143 0
 437 013e FB88     		ldrh	r3, [r7, #6]
 438 0140 7C4A     		ldr	r2, .L20+36
 439 0142 32F81330 		ldrh	r3, [r2, r3, lsl #1]
 440 0146 FA8A     		ldrh	r2, [r7, #22]
 441 0148 9A42     		cmp	r2, r3
 442 014a 0AD2     		bcs	.L14
 144:main.c        ****                     a = DataA[i];
 443              		.loc 1 144 0
 444 014c FB88     		ldrh	r3, [r7, #6]
 445 014e 794A     		ldr	r2, .L20+36
 446 0150 32F81330 		ldrh	r3, [r2, r3, lsl #1]	@ movhi
 447 0154 FB82     		strh	r3, [r7, #22]	@ movhi
 145:main.c        ****                     ai3 = ai2;
 448              		.loc 1 145 0
 449 0156 3B8A     		ldrh	r3, [r7, #16]	@ movhi
 450 0158 FB81     		strh	r3, [r7, #14]	@ movhi
 146:main.c        ****                     ai2 = ai1;
 451              		.loc 1 146 0
 452 015a 7B8A     		ldrh	r3, [r7, #18]	@ movhi
 453 015c 3B82     		strh	r3, [r7, #16]	@ movhi
 147:main.c        ****                     ai1 = i;
 454              		.loc 1 147 0
 455 015e FB88     		ldrh	r3, [r7, #6]	@ movhi
 456 0160 7B82     		strh	r3, [r7, #18]	@ movhi
 457              	.L14:
 148:main.c        ****                 }
 149:main.c        ****                 
 150:main.c        ****                 if (DataB[i] > b) {
 458              		.loc 1 150 0
 459 0162 FB88     		ldrh	r3, [r7, #6]
 460 0164 764A     		ldr	r2, .L20+48
 461 0166 32F81330 		ldrh	r3, [r2, r3, lsl #1]
 462 016a BA8A     		ldrh	r2, [r7, #20]
 463 016c 9A42     		cmp	r2, r3
 464 016e 0AD2     		bcs	.L15
 151:main.c        ****                     b = DataB[i];
 465              		.loc 1 151 0
 466 0170 FB88     		ldrh	r3, [r7, #6]
 467 0172 734A     		ldr	r2, .L20+48
 468 0174 32F81330 		ldrh	r3, [r2, r3, lsl #1]	@ movhi
 469 0178 BB82     		strh	r3, [r7, #20]	@ movhi
 152:main.c        ****                     bi3 = bi2;
 470              		.loc 1 152 0
 471 017a 7B89     		ldrh	r3, [r7, #10]	@ movhi
 472 017c 3B81     		strh	r3, [r7, #8]	@ movhi
 153:main.c        ****                     bi2 = bi1;
 473              		.loc 1 153 0
 474 017e BB89     		ldrh	r3, [r7, #12]	@ movhi
ARM GAS  C:\Users\rens_\AppData\Local\Temp\ccwNmOas.s 			page 12


 475 0180 7B81     		strh	r3, [r7, #10]	@ movhi
 154:main.c        ****                     bi1 = i;
 476              		.loc 1 154 0
 477 0182 FB88     		ldrh	r3, [r7, #6]	@ movhi
 478 0184 BB81     		strh	r3, [r7, #12]	@ movhi
 479              	.L15:
 142:main.c        ****                 if (DataA[i] > a) {
 480              		.loc 1 142 0 discriminator 2
 481 0186 FB88     		ldrh	r3, [r7, #6]
 482 0188 0133     		adds	r3, r3, #1
 483 018a FB80     		strh	r3, [r7, #6]	@ movhi
 484              	.L13:
 142:main.c        ****                 if (DataA[i] > a) {
 485              		.loc 1 142 0 is_stmt 0 discriminator 1
 486 018c FB88     		ldrh	r3, [r7, #6]
 487 018e 40F2DB52 		movw	r2, #1499
 488 0192 9342     		cmp	r3, r2
 489 0194 D3D9     		bls	.L16
 490              	.LBE3:
 155:main.c        ****                 }
 156:main.c        ****             }
 157:main.c        ****             
 158:main.c        ****             // calculate the average ai and bi
 159:main.c        ****             uint16_t ai = (ai1 + ai2 + ai3)/3.0;
 491              		.loc 1 159 0 is_stmt 1
 492 0196 7A8A     		ldrh	r2, [r7, #18]
 493 0198 3B8A     		ldrh	r3, [r7, #16]
 494 019a 1A44     		add	r2, r2, r3
 495 019c FB89     		ldrh	r3, [r7, #14]
 496 019e 1344     		add	r3, r3, r2
 497 01a0 1846     		mov	r0, r3
 498 01a2 FFF7FEFF 		bl	__aeabi_i2d
 499 01a6 4FF00002 		mov	r2, #0
 500 01aa 684B     		ldr	r3, .L20+60
 501 01ac FFF7FEFF 		bl	__aeabi_ddiv
 502 01b0 0346     		mov	r3, r0
 503 01b2 0C46     		mov	r4, r1
 504 01b4 1846     		mov	r0, r3
 505 01b6 2146     		mov	r1, r4
 506 01b8 FFF7FEFF 		bl	__aeabi_d2uiz
 507 01bc 0346     		mov	r3, r0
 508 01be BB80     		strh	r3, [r7, #4]	@ movhi
 160:main.c        ****             uint16_t bi = (bi1 + bi2 + bi3)/3.0;
 509              		.loc 1 160 0
 510 01c0 BA89     		ldrh	r2, [r7, #12]
 511 01c2 7B89     		ldrh	r3, [r7, #10]
 512 01c4 1A44     		add	r2, r2, r3
 513 01c6 3B89     		ldrh	r3, [r7, #8]
 514 01c8 1344     		add	r3, r3, r2
 515 01ca 1846     		mov	r0, r3
 516 01cc FFF7FEFF 		bl	__aeabi_i2d
 517 01d0 4FF00002 		mov	r2, #0
 518 01d4 5D4B     		ldr	r3, .L20+60
 519 01d6 FFF7FEFF 		bl	__aeabi_ddiv
 520 01da 0346     		mov	r3, r0
 521 01dc 0C46     		mov	r4, r1
 522 01de 1846     		mov	r0, r3
ARM GAS  C:\Users\rens_\AppData\Local\Temp\ccwNmOas.s 			page 13


 523 01e0 2146     		mov	r1, r4
 524 01e2 FFF7FEFF 		bl	__aeabi_d2uiz
 525 01e6 0346     		mov	r3, r0
 526 01e8 7B80     		strh	r3, [r7, #2]	@ movhi
 161:main.c        ****             
 162:main.c        ****             // angle from -60 to 60
 163:main.c        ****             // 2.25 us per sample
 164:main.c        ****             // 1 us = 0.2 degrees
 165:main.c        ****             angle = (ai - bi) * 2.25 * 0.2;
 527              		.loc 1 165 0
 528 01ea BA88     		ldrh	r2, [r7, #4]
 529 01ec 7B88     		ldrh	r3, [r7, #2]
 530 01ee D31A     		subs	r3, r2, r3
 531 01f0 1846     		mov	r0, r3
 532 01f2 FFF7FEFF 		bl	__aeabi_i2d
 533 01f6 4FF00002 		mov	r2, #0
 534 01fa 554B     		ldr	r3, .L20+64
 535 01fc FFF7FEFF 		bl	__aeabi_dmul
 536 0200 0346     		mov	r3, r0
 537 0202 0C46     		mov	r4, r1
 538 0204 1846     		mov	r0, r3
 539 0206 2146     		mov	r1, r4
 540 0208 41A3     		adr	r3, .L20
 541 020a D3E90023 		ldrd	r2, [r3]
 542 020e FFF7FEFF 		bl	__aeabi_dmul
 543 0212 0346     		mov	r3, r0
 544 0214 0C46     		mov	r4, r1
 545 0216 1846     		mov	r0, r3
 546 0218 2146     		mov	r1, r4
 547 021a FFF7FEFF 		bl	__aeabi_d2iz
 548 021e 0346     		mov	r3, r0
 549 0220 5AB2     		sxtb	r2, r3
 550 0222 4C4B     		ldr	r3, .L20+68
 551 0224 1A70     		strb	r2, [r3]
 166:main.c        ****             
 167:main.c        ****             // distance in mm, where speed of sound is 343 mm/ms
 168:main.c        ****             // first convert the time difference from us to ms, and then multiply by the speed of s
 169:main.c        ****             // use ai and bi depending on which has the closest peak to the network ping
 170:main.c        ****             // The 500 value subtracted has been experimentally found
 171:main.c        ****             if (ai < bi) {
 552              		.loc 1 171 0
 553 0226 BA88     		ldrh	r2, [r7, #4]
 554 0228 7B88     		ldrh	r3, [r7, #2]
 555 022a 9A42     		cmp	r2, r3
 556 022c 2DD2     		bcs	.L17
 172:main.c        ****                 distance = (ai * 2.25)/1000.0 * 343 - 500;
 557              		.loc 1 172 0
 558 022e BB88     		ldrh	r3, [r7, #4]
 559 0230 1846     		mov	r0, r3
 560 0232 FFF7FEFF 		bl	__aeabi_i2d
 561 0236 4FF00002 		mov	r2, #0
 562 023a 454B     		ldr	r3, .L20+64
 563 023c FFF7FEFF 		bl	__aeabi_dmul
 564 0240 0346     		mov	r3, r0
 565 0242 0C46     		mov	r4, r1
 566 0244 1846     		mov	r0, r3
 567 0246 2146     		mov	r1, r4
ARM GAS  C:\Users\rens_\AppData\Local\Temp\ccwNmOas.s 			page 14


 568 0248 4FF00002 		mov	r2, #0
 569 024c 424B     		ldr	r3, .L20+72
 570 024e FFF7FEFF 		bl	__aeabi_ddiv
 571 0252 0346     		mov	r3, r0
 572 0254 0C46     		mov	r4, r1
 573 0256 1846     		mov	r0, r3
 574 0258 2146     		mov	r1, r4
 575 025a 2FA3     		adr	r3, .L20+8
 576 025c D3E90023 		ldrd	r2, [r3]
 577 0260 FFF7FEFF 		bl	__aeabi_dmul
 578 0264 0346     		mov	r3, r0
 579 0266 0C46     		mov	r4, r1
 580 0268 1846     		mov	r0, r3
 581 026a 2146     		mov	r1, r4
 582 026c 4FF00002 		mov	r2, #0
 583 0270 3A4B     		ldr	r3, .L20+76
 584 0272 FFF7FEFF 		bl	__aeabi_dsub
 585 0276 0346     		mov	r3, r0
 586 0278 0C46     		mov	r4, r1
 587 027a 1846     		mov	r0, r3
 588 027c 2146     		mov	r1, r4
 589 027e FFF7FEFF 		bl	__aeabi_d2uiz
 590 0282 0246     		mov	r2, r0
 591 0284 364B     		ldr	r3, .L20+80
 592 0286 1A60     		str	r2, [r3]
 593 0288 2CE0     		b	.L18
 594              	.L17:
 173:main.c        ****             } else {
 174:main.c        ****                 distance = (bi * 2.25)/1000.0 * 343 - 500;
 595              		.loc 1 174 0
 596 028a 7B88     		ldrh	r3, [r7, #2]
 597 028c 1846     		mov	r0, r3
 598 028e FFF7FEFF 		bl	__aeabi_i2d
 599 0292 4FF00002 		mov	r2, #0
 600 0296 2E4B     		ldr	r3, .L20+64
 601 0298 FFF7FEFF 		bl	__aeabi_dmul
 602 029c 0346     		mov	r3, r0
 603 029e 0C46     		mov	r4, r1
 604 02a0 1846     		mov	r0, r3
 605 02a2 2146     		mov	r1, r4
 606 02a4 4FF00002 		mov	r2, #0
 607 02a8 2B4B     		ldr	r3, .L20+72
 608 02aa FFF7FEFF 		bl	__aeabi_ddiv
 609 02ae 0346     		mov	r3, r0
 610 02b0 0C46     		mov	r4, r1
 611 02b2 1846     		mov	r0, r3
 612 02b4 2146     		mov	r1, r4
 613 02b6 18A3     		adr	r3, .L20+8
 614 02b8 D3E90023 		ldrd	r2, [r3]
 615 02bc FFF7FEFF 		bl	__aeabi_dmul
 616 02c0 0346     		mov	r3, r0
 617 02c2 0C46     		mov	r4, r1
 618 02c4 1846     		mov	r0, r3
 619 02c6 2146     		mov	r1, r4
 620 02c8 4FF00002 		mov	r2, #0
 621 02cc 234B     		ldr	r3, .L20+76
 622 02ce FFF7FEFF 		bl	__aeabi_dsub
ARM GAS  C:\Users\rens_\AppData\Local\Temp\ccwNmOas.s 			page 15


 623 02d2 0346     		mov	r3, r0
 624 02d4 0C46     		mov	r4, r1
 625 02d6 1846     		mov	r0, r3
 626 02d8 2146     		mov	r1, r4
 627 02da FFF7FEFF 		bl	__aeabi_d2uiz
 628 02de 0246     		mov	r2, r0
 629 02e0 1F4B     		ldr	r3, .L20+80
 630 02e2 1A60     		str	r2, [r3]
 631              	.L18:
 175:main.c        ****             }
 176:main.c        ****             
 177:main.c        ****             
 178:main.c        ****             //for (uint16_t i = 0; i < DATA_SIZE; i++) {
 179:main.c        ****                 sprintf(output, "%d\n", angle);
 632              		.loc 1 179 0
 633 02e4 1B4B     		ldr	r3, .L20+68
 634 02e6 93F90030 		ldrsb	r3, [r3]
 635 02ea 1A46     		mov	r2, r3
 636 02ec 1D49     		ldr	r1, .L20+84
 637 02ee 1E48     		ldr	r0, .L20+88
 638 02f0 FFF7FEFF 		bl	sprintf
 180:main.c        ****                 UART_PutString(output); 
 639              		.loc 1 180 0
 640 02f4 1C48     		ldr	r0, .L20+88
 641 02f6 FFF7FEFF 		bl	UART_PutString
 181:main.c        ****             //}
 182:main.c        **** 
 183:main.c        ****             ISR_A_done = ISR_B_done = 0;
 642              		.loc 1 183 0
 643 02fa 134B     		ldr	r3, .L20+56
 644 02fc 0022     		movs	r2, #0
 645 02fe 1A70     		strb	r2, [r3]
 646 0300 114B     		ldr	r3, .L20+56
 647 0302 1A78     		ldrb	r2, [r3]	@ zero_extendqisi2
 648 0304 0F4B     		ldr	r3, .L20+52
 649 0306 1A70     		strb	r2, [r3]
 184:main.c        ****             
 185:main.c        ****             CyGlobalIntEnable;
 650              		.loc 1 185 0
 651              		.syntax unified
 652              	@ 185 "main.c" 1
 653 0308 62B6     		CPSIE   i
 654              	@ 0 "" 2
 655              		.thumb
 656              		.syntax unified
 657              	.LBE2:
 186:main.c        ****         }
 187:main.c        ****     }
 658              		.loc 1 187 0
 659 030a FCE6     		b	.L19
 660              	.L21:
 661 030c AFF30080 		.align	3
 662              	.L20:
 663 0310 9A999999 		.word	-1717986918
 664 0314 9999C93F 		.word	1070176665
 665 0318 00000000 		.word	0
 666 031c 00707540 		.word	1081438208
ARM GAS  C:\Users\rens_\AppData\Local\Temp\ccwNmOas.s 			page 16


 667 0320 00000000 		.word	ISR_OUT_A_Handler
 668 0324 00000000 		.word	ISR_OUT_B_Handler
 669 0328 00000000 		.word	ISR_START_Handler
 670 032c 00000000 		.word	DMA_A_Chan
 671 0330 00000000 		.word	DMA_A_TD
 672 0334 00000000 		.word	DataA
 673 0338 00000000 		.word	DMA_B_Chan
 674 033c 00000000 		.word	DMA_B_TD
 675 0340 00000000 		.word	DataB
 676 0344 00000000 		.word	ISR_A_done
 677 0348 00000000 		.word	ISR_B_done
 678 034c 00000840 		.word	1074266112
 679 0350 00000240 		.word	1073872896
 680 0354 00000000 		.word	angle
 681 0358 00408F40 		.word	1083129856
 682 035c 00407F40 		.word	1082081280
 683 0360 00000000 		.word	distance
 684 0364 00000000 		.word	.LC0
 685 0368 00000000 		.word	output
 686              		.cfi_endproc
 687              	.LFE61:
 688              		.size	main, .-main
 689              		.section	.rodata
 690              		.align	2
 691              		.type	RX_ADDR.7814, %object
 692              		.size	RX_ADDR.7814, 5
 693              	RX_ADDR.7814:
 694 0004 BA       		.byte	-70
 695 0005 AD       		.byte	-83
 696 0006 C0       		.byte	-64
 697 0007 FF       		.byte	-1
 698 0008 EE       		.byte	-18
 699              		.text
 700              	.Letext0:
 701              		.file 2 "c:\\program files (x86)\\cypress\\psoc creator\\4.2\\psoc creator\\import\\gnu\\arm\\5.4.
 702              		.file 3 "c:\\program files (x86)\\cypress\\psoc creator\\4.2\\psoc creator\\import\\gnu\\arm\\5.4.
 703              		.file 4 "Generated_Source\\PSoC5/cytypes.h"
 704              		.file 5 "Generated_Source\\PSoC5/nRF24_DEFS.h"
 705              		.file 6 "Generated_Source\\PSoC5/core_cm3.h"