ARM GAS  C:\Users\rens_\AppData\Local\Temp\ccrM3B9b.s 			page 1


   1              		.syntax unified
   2              		.cpu cortex-m3
   3              		.fpu softvfp
   4              		.eabi_attribute 20, 1
   5              		.eabi_attribute 21, 1
   6              		.eabi_attribute 23, 3
   7              		.eabi_attribute 24, 1
   8              		.eabi_attribute 25, 1
   9              		.eabi_attribute 26, 1
  10              		.eabi_attribute 30, 6
  11              		.eabi_attribute 34, 1
  12              		.eabi_attribute 18, 4
  13              		.thumb
  14              		.syntax unified
  15              		.file	"main.c"
  16              		.text
  17              	.Ltext0:
  18              		.cfi_sections	.debug_frame
  19              		.comm	data,1,1
  20              		.comm	DataA,3000,4
  21              		.comm	DataB,3000,4
  22              		.comm	DMA_A_Chan,1,1
  23              		.comm	DMA_A_TD,1,4
  24              		.comm	DMA_B_Chan,1,1
  25              		.comm	DMA_B_TD,1,4
  26              		.comm	DMA_A_Filter_Chan,1,1
  27              		.comm	DMA_A_Filter_TD,1,4
  28              		.comm	DMA_B_Filter_Chan,1,1
  29              		.comm	DMA_B_Filter_TD,1,4
  30              		.global	ISR_A_done
  31              		.bss
  32              		.type	ISR_A_done, %object
  33              		.size	ISR_A_done, 1
  34              	ISR_A_done:
  35 0000 00       		.space	1
  36              		.global	ISR_B_done
  37              		.type	ISR_B_done, %object
  38              		.size	ISR_B_done, 1
  39              	ISR_B_done:
  40 0001 00       		.space	1
  41              		.global	angle
  42 0002 0000     		.align	2
  43              		.type	angle, %object
  44              		.size	angle, 4
  45              	angle:
  46 0004 00000000 		.space	4
  47              		.global	distance
  48              		.align	1
  49              		.type	distance, %object
  50              		.size	distance, 2
  51              	distance:
  52 0008 0000     		.space	2
  53              		.global	velocity
  54              		.type	velocity, %object
  55              		.size	velocity, 1
  56              	velocity:
  57 000a 00       		.space	1
ARM GAS  C:\Users\rens_\AppData\Local\Temp\ccrM3B9b.s 			page 2


  58              		.comm	output,200,4
  59              		.section	.text.ISR_OUT_A_Handler,"ax",%progbits
  60              		.align	2
  61              		.global	ISR_OUT_A_Handler
  62              		.thumb
  63              		.thumb_func
  64              		.type	ISR_OUT_A_Handler, %function
  65              	ISR_OUT_A_Handler:
  66              	.LFB64:
  67              		.file 1 "main.c"
   1:main.c        **** #include "project.h"
   2:main.c        **** 
   3:main.c        **** #include <stdio.h>
   4:main.c        **** #include <stdbool.h>
   5:main.c        **** 
   6:main.c        **** // here we will store the received data
   7:main.c        **** unsigned char data;
   8:main.c        **** 
   9:main.c        **** // Executed when the IRQ pin triggers an interrupt
  10:main.c        **** CY_ISR_PROTO(IRQ_Handler);
  11:main.c        **** 
  12:main.c        **** #define DATA_SIZE 1500
  13:main.c        **** 
  14:main.c        **** // signal data for signal A and B
  15:main.c        **** uint16_t DataA[DATA_SIZE];
  16:main.c        **** uint16_t DataB[DATA_SIZE];
  17:main.c        **** 
  18:main.c        **** /* Defines for DMA_A */
  19:main.c        **** #define DMA_A_BYTES_PER_BURST 2
  20:main.c        **** #define DMA_A_REQUEST_PER_BURST 1
  21:main.c        **** #define DMA_A_SRC_BASE (CYDEV_PERIPH_BASE)
  22:main.c        **** #define DMA_A_DST_BASE (CYDEV_PERIPH_BASE)
  23:main.c        **** 
  24:main.c        **** /* Variable declarations for DMA_A */
  25:main.c        **** uint8 DMA_A_Chan;
  26:main.c        **** uint8 DMA_A_TD[1];
  27:main.c        **** 
  28:main.c        **** /* Defines for DMA_B */
  29:main.c        **** #define DMA_B_BYTES_PER_BURST 2
  30:main.c        **** #define DMA_B_REQUEST_PER_BURST 1
  31:main.c        **** #define DMA_B_SRC_BASE (CYDEV_PERIPH_BASE)
  32:main.c        **** #define DMA_B_DST_BASE (CYDEV_PERIPH_BASE)
  33:main.c        **** 
  34:main.c        **** /* Variable declarations for DMA_B */
  35:main.c        **** uint8 DMA_B_Chan;
  36:main.c        **** uint8 DMA_B_TD[1];
  37:main.c        **** 
  38:main.c        **** #define DMA_A_Filter_BYTES_PER_BURST 2
  39:main.c        **** #define DMA_A_Filter_REQUEST_PER_BURST 1
  40:main.c        **** #define DMA_A_Filter_SRC_BASE (CYDEV_PERIPH_BASE)
  41:main.c        **** #define DMA_A_Filter_DST_BASE (CYDEV_SRAM_BASE)
  42:main.c        **** 
  43:main.c        **** /* Variable declarations for DMA_A_Filter */
  44:main.c        **** uint8 DMA_A_Filter_Chan;
  45:main.c        **** uint8 DMA_A_Filter_TD[1];
  46:main.c        **** 
  47:main.c        **** #define DMA_B_Filter_BYTES_PER_BURST 2
ARM GAS  C:\Users\rens_\AppData\Local\Temp\ccrM3B9b.s 			page 3


  48:main.c        **** #define DMA_B_Filter_REQUEST_PER_BURST 1
  49:main.c        **** #define DMA_B_Filter_SRC_BASE (CYDEV_PERIPH_BASE)
  50:main.c        **** #define DMA_B_Filter_DST_BASE (CYDEV_SRAM_BASE)
  51:main.c        **** 
  52:main.c        **** /* Variable declarations for DMA_B_Filter */
  53:main.c        **** uint8 DMA_B_Filter_Chan;
  54:main.c        **** uint8 DMA_B_Filter_TD[1];
  55:main.c        **** 
  56:main.c        **** uint8_t ISR_A_done = 0;
  57:main.c        **** uint8_t ISR_B_done = 0;
  58:main.c        **** 
  59:main.c        **** float angle = 0; // angle between front wheel of platoon follower compared to the platoon leader ba
  60:main.c        **** int16_t distance = 0; // distance between follower and leader
  61:main.c        **** uint8_t velocity = 0; // platoon leader duty cycle
  62:main.c        **** 
  63:main.c        **** char output[200];
  64:main.c        **** 
  65:main.c        **** CY_ISR(ISR_OUT_A_Handler)
  66:main.c        **** {
  68              		.loc 1 66 0
  69              		.cfi_startproc
  70              		@ args = 0, pretend = 0, frame = 0
  71              		@ frame_needed = 1, uses_anonymous_args = 0
  72 0000 80B5     		push	{r7, lr}
  73              		.cfi_def_cfa_offset 8
  74              		.cfi_offset 7, -8
  75              		.cfi_offset 14, -4
  76 0002 00AF     		add	r7, sp, #0
  77              		.cfi_def_cfa_register 7
  67:main.c        ****     ADC_SAR_A_StopConvert();
  78              		.loc 1 67 0
  79 0004 FFF7FEFF 		bl	ADC_SAR_A_StopConvert
  68:main.c        ****     ISR_A_done = 1;
  80              		.loc 1 68 0
  81 0008 024B     		ldr	r3, .L2
  82 000a 0122     		movs	r2, #1
  83 000c 1A70     		strb	r2, [r3]
  69:main.c        **** }
  84              		.loc 1 69 0
  85 000e 00BF     		nop
  86 0010 80BD     		pop	{r7, pc}
  87              	.L3:
  88 0012 00BF     		.align	2
  89              	.L2:
  90 0014 00000000 		.word	ISR_A_done
  91              		.cfi_endproc
  92              	.LFE64:
  93              		.size	ISR_OUT_A_Handler, .-ISR_OUT_A_Handler
  94              		.section	.text.ISR_OUT_B_Handler,"ax",%progbits
  95              		.align	2
  96              		.global	ISR_OUT_B_Handler
  97              		.thumb
  98              		.thumb_func
  99              		.type	ISR_OUT_B_Handler, %function
 100              	ISR_OUT_B_Handler:
 101              	.LFB65:
  70:main.c        **** 
ARM GAS  C:\Users\rens_\AppData\Local\Temp\ccrM3B9b.s 			page 4


  71:main.c        **** CY_ISR(ISR_OUT_B_Handler)
  72:main.c        **** {
 102              		.loc 1 72 0
 103              		.cfi_startproc
 104              		@ args = 0, pretend = 0, frame = 0
 105              		@ frame_needed = 1, uses_anonymous_args = 0
 106 0000 80B5     		push	{r7, lr}
 107              		.cfi_def_cfa_offset 8
 108              		.cfi_offset 7, -8
 109              		.cfi_offset 14, -4
 110 0002 00AF     		add	r7, sp, #0
 111              		.cfi_def_cfa_register 7
  73:main.c        ****     ADC_SAR_B_StopConvert();
 112              		.loc 1 73 0
 113 0004 FFF7FEFF 		bl	ADC_SAR_B_StopConvert
  74:main.c        ****     ISR_B_done = 1;
 114              		.loc 1 74 0
 115 0008 024B     		ldr	r3, .L5
 116 000a 0122     		movs	r2, #1
 117 000c 1A70     		strb	r2, [r3]
  75:main.c        **** }
 118              		.loc 1 75 0
 119 000e 00BF     		nop
 120 0010 80BD     		pop	{r7, pc}
 121              	.L6:
 122 0012 00BF     		.align	2
 123              	.L5:
 124 0014 00000000 		.word	ISR_B_done
 125              		.cfi_endproc
 126              	.LFE65:
 127              		.size	ISR_OUT_B_Handler, .-ISR_OUT_B_Handler
 128              		.global	rec
 129              		.data
 130              		.align	2
 131              		.type	rec, %object
 132              		.size	rec, 4
 133              	rec:
 134 0000 01000000 		.word	1
 135              		.section	.text.IRQ_Handler,"ax",%progbits
 136              		.align	2
 137              		.global	IRQ_Handler
 138              		.thumb
 139              		.thumb_func
 140              		.type	IRQ_Handler, %function
 141              	IRQ_Handler:
 142              	.LFB66:
  76:main.c        **** 
  77:main.c        **** int rec = 1;
  78:main.c        **** 
  79:main.c        **** // network ping interrupt
  80:main.c        **** CY_ISR(IRQ_Handler)
  81:main.c        **** {
 143              		.loc 1 81 0
 144              		.cfi_startproc
 145              		@ args = 0, pretend = 0, frame = 8
 146              		@ frame_needed = 1, uses_anonymous_args = 0
 147 0000 80B5     		push	{r7, lr}
ARM GAS  C:\Users\rens_\AppData\Local\Temp\ccrM3B9b.s 			page 5


 148              		.cfi_def_cfa_offset 8
 149              		.cfi_offset 7, -8
 150              		.cfi_offset 14, -4
 151 0002 82B0     		sub	sp, sp, #8
 152              		.cfi_def_cfa_offset 16
 153 0004 00AF     		add	r7, sp, #0
 154              		.cfi_def_cfa_register 7
  82:main.c        ****     Pin_3_Write(1);
 155              		.loc 1 82 0
 156 0006 0120     		movs	r0, #1
 157 0008 FFF7FEFF 		bl	Pin_3_Write
  83:main.c        ****     // start ADC A and B when network ping has been received
  84:main.c        ****     ADC_SAR_A_StartConvert();
 158              		.loc 1 84 0
 159 000c FFF7FEFF 		bl	ADC_SAR_A_StartConvert
  85:main.c        ****     ADC_SAR_B_StartConvert();
 160              		.loc 1 85 0
 161 0010 FFF7FEFF 		bl	ADC_SAR_B_StartConvert
  86:main.c        ****     
  87:main.c        ****     IRQ_ClearInterrupt();
 162              		.loc 1 87 0
 163 0014 FFF7FEFF 		bl	IRQ_ClearInterrupt
  88:main.c        ****     nrf_irq flag = nRF24_get_irq_flag();
 164              		.loc 1 88 0
 165 0018 FFF7FEFF 		bl	nRF24_get_irq_flag
 166 001c 0346     		mov	r3, r0
 167 001e FB71     		strb	r3, [r7, #7]
  89:main.c        ****     nRF24_clear_irq_flag(flag);
 168              		.loc 1 89 0
 169 0020 FB79     		ldrb	r3, [r7, #7]	@ zero_extendqisi2
 170 0022 1846     		mov	r0, r3
 171 0024 FFF7FEFF 		bl	nRF24_clear_irq_flag
  90:main.c        **** 
  91:main.c        ****     // temp value to hold velocity data
  92:main.c        ****     // uint16_t data = 0;
  93:main.c        ****     
  94:main.c        ****     // get the data from the transmitter
  95:main.c        ****     nRF24_get_rx_payload(&velocity, 1);
 172              		.loc 1 95 0
 173 0028 0121     		movs	r1, #1
 174 002a 0348     		ldr	r0, .L8
 175 002c FFF7FEFF 		bl	nRF24_get_rx_payload
  96:main.c        **** }
 176              		.loc 1 96 0
 177 0030 00BF     		nop
 178 0032 0837     		adds	r7, r7, #8
 179              		.cfi_def_cfa_offset 8
 180 0034 BD46     		mov	sp, r7
 181              		.cfi_def_cfa_register 13
 182              		@ sp needed
 183 0036 80BD     		pop	{r7, pc}
 184              	.L9:
 185              		.align	2
 186              	.L8:
 187 0038 00000000 		.word	velocity
 188              		.cfi_endproc
 189              	.LFE66:
ARM GAS  C:\Users\rens_\AppData\Local\Temp\ccrM3B9b.s 			page 6


 190              		.size	IRQ_Handler, .-IRQ_Handler
 191              		.global	__aeabi_i2d
 192              		.global	__aeabi_dmul
 193              		.global	__aeabi_d2f
 194              		.global	__aeabi_dsub
 195              		.global	__aeabi_d2iz
 196              		.global	__aeabi_i2f
 197              		.global	__aeabi_fmul
 198              		.global	__aeabi_fadd
 199              		.global	__aeabi_f2iz
 200              		.global	__aeabi_f2d
 201              		.global	__aeabi_ddiv
 202              		.global	__aeabi_dcmplt
 203              		.global	__aeabi_fsub
 204              		.global	__aeabi_dadd
 205              		.global	__aeabi_fcmpgt
 206              		.global	__aeabi_fcmplt
 207              		.section	.rodata
 208              		.align	2
 209              	.LC0:
 210 0000 BA       		.byte	-70
 211 0001 AD       		.byte	-83
 212 0002 C0       		.byte	-64
 213 0003 FF       		.byte	-1
 214 0004 EE       		.byte	-18
 215              		.section	.text.main,"ax",%progbits
 216              		.align	2
 217              		.global	main
 218              		.thumb
 219              		.thumb_func
 220              		.type	main, %function
 221              	main:
 222              	.LFB67:
  97:main.c        **** 
  98:main.c        **** int main(void)
  99:main.c        **** {    
 223              		.loc 1 99 0
 224              		.cfi_startproc
 225              		@ args = 0, pretend = 0, frame = 112
 226              		@ frame_needed = 1, uses_anonymous_args = 0
 227 0000 F0B5     		push	{r4, r5, r6, r7, lr}
 228              		.cfi_def_cfa_offset 20
 229              		.cfi_offset 4, -20
 230              		.cfi_offset 5, -16
 231              		.cfi_offset 6, -12
 232              		.cfi_offset 7, -8
 233              		.cfi_offset 14, -4
 234 0002 9DB0     		sub	sp, sp, #116
 235              		.cfi_def_cfa_offset 136
 236 0004 00AF     		add	r7, sp, #0
 237              		.cfi_def_cfa_register 7
 100:main.c        ****     UART_Start();
 238              		.loc 1 100 0
 239 0006 FFF7FEFF 		bl	UART_Start
 101:main.c        ****     Clock_In_Start();
 240              		.loc 1 101 0
 241 000a FFF7FEFF 		bl	Clock_In_Start
ARM GAS  C:\Users\rens_\AppData\Local\Temp\ccrM3B9b.s 			page 7


 102:main.c        ****     Clock_In_1_Start();
 242              		.loc 1 102 0
 243 000e FFF7FEFF 		bl	Clock_In_1_Start
 103:main.c        ****     ADC_SAR_A_Start();
 244              		.loc 1 103 0
 245 0012 FFF7FEFF 		bl	ADC_SAR_A_Start
 104:main.c        ****     ADC_SAR_B_Start();
 246              		.loc 1 104 0
 247 0016 FFF7FEFF 		bl	ADC_SAR_B_Start
 105:main.c        ****     Maximum_Peak_Detector_A_Start();
 248              		.loc 1 105 0
 249 001a FFF7FEFF 		bl	Maximum_Peak_Detector_A_Start
 106:main.c        ****     Maximum_Peak_Detector_B_Start();
 250              		.loc 1 106 0
 251 001e FFF7FEFF 		bl	Maximum_Peak_Detector_B_Start
 107:main.c        ****     ADC_SAR_A_IRQ_Enable();
 252              		.loc 1 107 0
 253 0022 FFF7FEFF 		bl	ADC_SAR_A_IRQ_Enable
 108:main.c        ****     ADC_SAR_B_IRQ_Enable();
 254              		.loc 1 108 0
 255 0026 FFF7FEFF 		bl	ADC_SAR_B_IRQ_Enable
 109:main.c        ****     PWM_H_BRIDGE_Start();
 256              		.loc 1 109 0
 257 002a FFF7FEFF 		bl	PWM_H_BRIDGE_Start
 110:main.c        ****     Clock_1_Start();
 258              		.loc 1 110 0
 259 002e FFF7FEFF 		bl	Clock_1_Start
 111:main.c        ****     PWM_SERVO_Start();
 260              		.loc 1 111 0
 261 0032 FFF7FEFF 		bl	PWM_SERVO_Start
 112:main.c        ****     Clock_2_Start();
 262              		.loc 1 112 0
 263 0036 FFF7FEFF 		bl	Clock_2_Start
 113:main.c        ****     ISR_A_StartEx(ISR_OUT_A_Handler);
 264              		.loc 1 113 0
 265 003a AE48     		ldr	r0, .L33
 266 003c FFF7FEFF 		bl	ISR_A_StartEx
 114:main.c        ****     ISR_B_StartEx(ISR_OUT_B_Handler);
 267              		.loc 1 114 0
 268 0040 AD48     		ldr	r0, .L33+4
 269 0042 FFF7FEFF 		bl	ISR_B_StartEx
 115:main.c        ****     killswitchP_Write(1);
 270              		.loc 1 115 0
 271 0046 0120     		movs	r0, #1
 272 0048 FFF7FEFF 		bl	killswitchP_Write
 116:main.c        ****     N2_Write(0);
 273              		.loc 1 116 0
 274 004c 0020     		movs	r0, #0
 275 004e FFF7FEFF 		bl	N2_Write
 117:main.c        ****     P1_Write(1);
 276              		.loc 1 117 0
 277 0052 0120     		movs	r0, #1
 278 0054 FFF7FEFF 		bl	P1_Write
 118:main.c        ****     P2_Write(0);
 279              		.loc 1 118 0
 280 0058 0020     		movs	r0, #0
 281 005a FFF7FEFF 		bl	P2_Write
ARM GAS  C:\Users\rens_\AppData\Local\Temp\ccrM3B9b.s 			page 8


 119:main.c        ****     
 120:main.c        ****     Filter_Start();
 282              		.loc 1 120 0
 283 005e FFF7FEFF 		bl	Filter_Start
 121:main.c        ****     Filter_SetCoherency(Filter_CHANNEL_A, Filter_KEY_MID);
 284              		.loc 1 121 0
 285 0062 0121     		movs	r1, #1
 286 0064 0020     		movs	r0, #0
 287 0066 FFF7FEFF 		bl	Filter_SetCoherency
 122:main.c        ****     Filter_SetCoherency(Filter_CHANNEL_B, Filter_KEY_MID);
 288              		.loc 1 122 0
 289 006a 0121     		movs	r1, #1
 290 006c 0120     		movs	r0, #1
 291 006e FFF7FEFF 		bl	Filter_SetCoherency
 123:main.c        **** 
 124:main.c        ****     /* DMA Configuration for DMA_A */
 125:main.c        ****     DMA_A_Chan = DMA_A_DmaInitialize(DMA_A_BYTES_PER_BURST, DMA_A_REQUEST_PER_BURST, 
 292              		.loc 1 125 0
 293 0072 4FF48043 		mov	r3, #16384
 294 0076 4FF48042 		mov	r2, #16384
 295 007a 0121     		movs	r1, #1
 296 007c 0220     		movs	r0, #2
 297 007e FFF7FEFF 		bl	DMA_A_DmaInitialize
 298 0082 0346     		mov	r3, r0
 299 0084 1A46     		mov	r2, r3
 300 0086 9D4B     		ldr	r3, .L33+8
 301 0088 1A70     		strb	r2, [r3]
 126:main.c        ****         HI16(DMA_A_SRC_BASE), HI16(DMA_A_DST_BASE));
 127:main.c        ****     DMA_A_TD[0] = CyDmaTdAllocate();
 302              		.loc 1 127 0
 303 008a FFF7FEFF 		bl	CyDmaTdAllocate
 304 008e 0346     		mov	r3, r0
 305 0090 1A46     		mov	r2, r3
 306 0092 9B4B     		ldr	r3, .L33+12
 307 0094 1A70     		strb	r2, [r3]
 128:main.c        ****     CyDmaTdSetConfiguration(DMA_A_TD[0], DATA_SIZE * 2, DMA_A_TD[0], DMA_A__TD_TERMOUT_EN);
 308              		.loc 1 128 0
 309 0096 9A4B     		ldr	r3, .L33+12
 310 0098 1878     		ldrb	r0, [r3]	@ zero_extendqisi2
 311 009a 994B     		ldr	r3, .L33+12
 312 009c 1A78     		ldrb	r2, [r3]	@ zero_extendqisi2
 313 009e 0023     		movs	r3, #0
 314 00a0 40F6B831 		movw	r1, #3000
 315 00a4 FFF7FEFF 		bl	CyDmaTdSetConfiguration
 129:main.c        ****     CyDmaTdSetAddress(DMA_A_TD[0], LO16((uint32)ADC_SAR_A_SAR_WRK0_PTR), LO16((uint32)Filter_STAGEA
 316              		.loc 1 129 0
 317 00a8 954B     		ldr	r3, .L33+12
 318 00aa 1B78     		ldrb	r3, [r3]	@ zero_extendqisi2
 319 00ac 4CF2A072 		movw	r2, #51104
 320 00b0 45F6A231 		movw	r1, #23458
 321 00b4 1846     		mov	r0, r3
 322 00b6 FFF7FEFF 		bl	CyDmaTdSetAddress
 130:main.c        ****     CyDmaChSetInitialTd(DMA_A_Chan, DMA_A_TD[0]);
 323              		.loc 1 130 0
 324 00ba 904B     		ldr	r3, .L33+8
 325 00bc 1A78     		ldrb	r2, [r3]	@ zero_extendqisi2
 326 00be 904B     		ldr	r3, .L33+12
ARM GAS  C:\Users\rens_\AppData\Local\Temp\ccrM3B9b.s 			page 9


 327 00c0 1B78     		ldrb	r3, [r3]	@ zero_extendqisi2
 328 00c2 1946     		mov	r1, r3
 329 00c4 1046     		mov	r0, r2
 330 00c6 FFF7FEFF 		bl	CyDmaChSetInitialTd
 131:main.c        ****     CyDmaChEnable(DMA_A_Chan, 1);
 331              		.loc 1 131 0
 332 00ca 8C4B     		ldr	r3, .L33+8
 333 00cc 1B78     		ldrb	r3, [r3]	@ zero_extendqisi2
 334 00ce 0121     		movs	r1, #1
 335 00d0 1846     		mov	r0, r3
 336 00d2 FFF7FEFF 		bl	CyDmaChEnable
 132:main.c        ****     
 133:main.c        ****     /* DMA Configuration for DMA_B */
 134:main.c        ****     DMA_B_Chan = DMA_B_DmaInitialize(DMA_B_BYTES_PER_BURST, DMA_B_REQUEST_PER_BURST, 
 337              		.loc 1 134 0
 338 00d6 4FF48043 		mov	r3, #16384
 339 00da 4FF48042 		mov	r2, #16384
 340 00de 0121     		movs	r1, #1
 341 00e0 0220     		movs	r0, #2
 342 00e2 FFF7FEFF 		bl	DMA_B_DmaInitialize
 343 00e6 0346     		mov	r3, r0
 344 00e8 1A46     		mov	r2, r3
 345 00ea 864B     		ldr	r3, .L33+16
 346 00ec 1A70     		strb	r2, [r3]
 135:main.c        ****         HI16(DMA_B_SRC_BASE), HI16(DMA_B_DST_BASE));
 136:main.c        ****     DMA_B_TD[0] = CyDmaTdAllocate();
 347              		.loc 1 136 0
 348 00ee FFF7FEFF 		bl	CyDmaTdAllocate
 349 00f2 0346     		mov	r3, r0
 350 00f4 1A46     		mov	r2, r3
 351 00f6 844B     		ldr	r3, .L33+20
 352 00f8 1A70     		strb	r2, [r3]
 137:main.c        ****     CyDmaTdSetConfiguration(DMA_B_TD[0], DATA_SIZE * 2, DMA_B_TD[0], DMA_B__TD_TERMOUT_EN);
 353              		.loc 1 137 0
 354 00fa 834B     		ldr	r3, .L33+20
 355 00fc 1878     		ldrb	r0, [r3]	@ zero_extendqisi2
 356 00fe 824B     		ldr	r3, .L33+20
 357 0100 1A78     		ldrb	r2, [r3]	@ zero_extendqisi2
 358 0102 0023     		movs	r3, #0
 359 0104 40F6B831 		movw	r1, #3000
 360 0108 FFF7FEFF 		bl	CyDmaTdSetConfiguration
 138:main.c        ****     CyDmaTdSetAddress(DMA_B_TD[0], LO16((uint32)ADC_SAR_B_SAR_WRK0_PTR), LO16((uint32)Filter_STAGEB
 361              		.loc 1 138 0
 362 010c 7E4B     		ldr	r3, .L33+20
 363 010e 1B78     		ldrb	r3, [r3]	@ zero_extendqisi2
 364 0110 4CF2A472 		movw	r2, #51108
 365 0114 45F6A031 		movw	r1, #23456
 366 0118 1846     		mov	r0, r3
 367 011a FFF7FEFF 		bl	CyDmaTdSetAddress
 139:main.c        ****     CyDmaChSetInitialTd(DMA_B_Chan, DMA_B_TD[0]);
 368              		.loc 1 139 0
 369 011e 794B     		ldr	r3, .L33+16
 370 0120 1A78     		ldrb	r2, [r3]	@ zero_extendqisi2
 371 0122 794B     		ldr	r3, .L33+20
 372 0124 1B78     		ldrb	r3, [r3]	@ zero_extendqisi2
 373 0126 1946     		mov	r1, r3
 374 0128 1046     		mov	r0, r2
ARM GAS  C:\Users\rens_\AppData\Local\Temp\ccrM3B9b.s 			page 10


 375 012a FFF7FEFF 		bl	CyDmaChSetInitialTd
 140:main.c        ****     CyDmaChEnable(DMA_B_Chan, 1);
 376              		.loc 1 140 0
 377 012e 754B     		ldr	r3, .L33+16
 378 0130 1B78     		ldrb	r3, [r3]	@ zero_extendqisi2
 379 0132 0121     		movs	r1, #1
 380 0134 1846     		mov	r0, r3
 381 0136 FFF7FEFF 		bl	CyDmaChEnable
 141:main.c        **** 
 142:main.c        ****     DMA_A_Filter_Chan = DMA_A_Filter_DmaInitialize(DMA_A_Filter_BYTES_PER_BURST, DMA_A_Filter_REQUE
 382              		.loc 1 142 0
 383 013a 41F6FF73 		movw	r3, #8191
 384 013e 4FF48042 		mov	r2, #16384
 385 0142 0121     		movs	r1, #1
 386 0144 0220     		movs	r0, #2
 387 0146 FFF7FEFF 		bl	DMA_A_Filter_DmaInitialize
 388 014a 0346     		mov	r3, r0
 389 014c 1A46     		mov	r2, r3
 390 014e 6F4B     		ldr	r3, .L33+24
 391 0150 1A70     		strb	r2, [r3]
 143:main.c        ****         HI16(DMA_A_Filter_SRC_BASE), HI16(DMA_A_Filter_DST_BASE));
 144:main.c        ****     DMA_A_Filter_TD[0] = CyDmaTdAllocate();
 392              		.loc 1 144 0
 393 0152 FFF7FEFF 		bl	CyDmaTdAllocate
 394 0156 0346     		mov	r3, r0
 395 0158 1A46     		mov	r2, r3
 396 015a 6D4B     		ldr	r3, .L33+28
 397 015c 1A70     		strb	r2, [r3]
 145:main.c        ****     CyDmaTdSetConfiguration(DMA_A_Filter_TD[0], DATA_SIZE, DMA_A_Filter_TD[0], DMA_A_Filter__TD_TER
 398              		.loc 1 145 0
 399 015e 6C4B     		ldr	r3, .L33+28
 400 0160 1878     		ldrb	r0, [r3]	@ zero_extendqisi2
 401 0162 6B4B     		ldr	r3, .L33+28
 402 0164 1A78     		ldrb	r2, [r3]	@ zero_extendqisi2
 403 0166 0623     		movs	r3, #6
 404 0168 40F2DC51 		movw	r1, #1500
 405 016c FFF7FEFF 		bl	CyDmaTdSetConfiguration
 146:main.c        ****     CyDmaTdSetAddress(DMA_A_Filter_TD[0], LO16((uint32)Filter_HOLDA_PTR), LO16((uint32)DataA));
 406              		.loc 1 146 0
 407 0170 674B     		ldr	r3, .L33+28
 408 0172 1B78     		ldrb	r3, [r3]	@ zero_extendqisi2
 409 0174 674A     		ldr	r2, .L33+32
 410 0176 92B2     		uxth	r2, r2
 411 0178 4CF2A871 		movw	r1, #51112
 412 017c 1846     		mov	r0, r3
 413 017e FFF7FEFF 		bl	CyDmaTdSetAddress
 147:main.c        ****     CyDmaChSetInitialTd(DMA_A_Filter_Chan, DMA_A_Filter_TD[0]);
 414              		.loc 1 147 0
 415 0182 624B     		ldr	r3, .L33+24
 416 0184 1A78     		ldrb	r2, [r3]	@ zero_extendqisi2
 417 0186 624B     		ldr	r3, .L33+28
 418 0188 1B78     		ldrb	r3, [r3]	@ zero_extendqisi2
 419 018a 1946     		mov	r1, r3
 420 018c 1046     		mov	r0, r2
 421 018e FFF7FEFF 		bl	CyDmaChSetInitialTd
 148:main.c        ****     CyDmaChEnable(DMA_A_Filter_Chan, 1);
 422              		.loc 1 148 0
ARM GAS  C:\Users\rens_\AppData\Local\Temp\ccrM3B9b.s 			page 11


 423 0192 5E4B     		ldr	r3, .L33+24
 424 0194 1B78     		ldrb	r3, [r3]	@ zero_extendqisi2
 425 0196 0121     		movs	r1, #1
 426 0198 1846     		mov	r0, r3
 427 019a FFF7FEFF 		bl	CyDmaChEnable
 149:main.c        **** 
 150:main.c        ****     DMA_B_Filter_Chan = DMA_B_Filter_DmaInitialize(DMA_B_Filter_BYTES_PER_BURST, DMA_B_Filter_REQUE
 428              		.loc 1 150 0
 429 019e 41F6FF73 		movw	r3, #8191
 430 01a2 4FF48042 		mov	r2, #16384
 431 01a6 0121     		movs	r1, #1
 432 01a8 0220     		movs	r0, #2
 433 01aa FFF7FEFF 		bl	DMA_B_Filter_DmaInitialize
 434 01ae 0346     		mov	r3, r0
 435 01b0 1A46     		mov	r2, r3
 436 01b2 594B     		ldr	r3, .L33+36
 437 01b4 1A70     		strb	r2, [r3]
 151:main.c        ****         HI16(DMA_B_Filter_SRC_BASE), HI16(DMA_B_Filter_DST_BASE));
 152:main.c        ****     DMA_B_Filter_TD[0] = CyDmaTdAllocate();
 438              		.loc 1 152 0
 439 01b6 FFF7FEFF 		bl	CyDmaTdAllocate
 440 01ba 0346     		mov	r3, r0
 441 01bc 1A46     		mov	r2, r3
 442 01be 574B     		ldr	r3, .L33+40
 443 01c0 1A70     		strb	r2, [r3]
 153:main.c        ****     CyDmaTdSetConfiguration(DMA_B_Filter_TD[0], DATA_SIZE * 2, DMA_B_Filter_TD[0], DMA_B_Filter__TD
 444              		.loc 1 153 0
 445 01c2 564B     		ldr	r3, .L33+40
 446 01c4 1878     		ldrb	r0, [r3]	@ zero_extendqisi2
 447 01c6 554B     		ldr	r3, .L33+40
 448 01c8 1A78     		ldrb	r2, [r3]	@ zero_extendqisi2
 449 01ca 0623     		movs	r3, #6
 450 01cc 40F6B831 		movw	r1, #3000
 451 01d0 FFF7FEFF 		bl	CyDmaTdSetConfiguration
 154:main.c        ****     CyDmaTdSetAddress(DMA_B_Filter_TD[0], LO16((uint32)Filter_HOLDB_PTR), LO16((uint32)DataB));
 452              		.loc 1 154 0
 453 01d4 514B     		ldr	r3, .L33+40
 454 01d6 1B78     		ldrb	r3, [r3]	@ zero_extendqisi2
 455 01d8 514A     		ldr	r2, .L33+44
 456 01da 92B2     		uxth	r2, r2
 457 01dc 4CF2AC71 		movw	r1, #51116
 458 01e0 1846     		mov	r0, r3
 459 01e2 FFF7FEFF 		bl	CyDmaTdSetAddress
 155:main.c        ****     CyDmaChSetInitialTd(DMA_B_Filter_Chan, DMA_B_Filter_TD[0]);
 460              		.loc 1 155 0
 461 01e6 4C4B     		ldr	r3, .L33+36
 462 01e8 1A78     		ldrb	r2, [r3]	@ zero_extendqisi2
 463 01ea 4C4B     		ldr	r3, .L33+40
 464 01ec 1B78     		ldrb	r3, [r3]	@ zero_extendqisi2
 465 01ee 1946     		mov	r1, r3
 466 01f0 1046     		mov	r0, r2
 467 01f2 FFF7FEFF 		bl	CyDmaChSetInitialTd
 156:main.c        ****     CyDmaChEnable(DMA_B_Filter_Chan, 1);
 468              		.loc 1 156 0
 469 01f6 484B     		ldr	r3, .L33+36
 470 01f8 1B78     		ldrb	r3, [r3]	@ zero_extendqisi2
 471 01fa 0121     		movs	r1, #1
ARM GAS  C:\Users\rens_\AppData\Local\Temp\ccrM3B9b.s 			page 12


 472 01fc 1846     		mov	r0, r3
 473 01fe FFF7FEFF 		bl	CyDmaChEnable
 157:main.c        ****     
 158:main.c        ****     const uint8_t RX_ADDR[5]= {0xBA, 0xAD, 0xC0, 0xFF, 0xEE};
 474              		.loc 1 158 0
 475 0202 484A     		ldr	r2, .L33+48
 476 0204 07F10C03 		add	r3, r7, #12
 477 0208 1068     		ldr	r0, [r2]	@ unaligned
 478 020a 1860     		str	r0, [r3]	@ unaligned
 479 020c 1279     		ldrb	r2, [r2, #4]
 480 020e 1A71     		strb	r2, [r3, #4]
 159:main.c        ****     isr_IRQ_StartEx(IRQ_Handler); // enable real network ping interrupt
 481              		.loc 1 159 0
 482 0210 4548     		ldr	r0, .L33+52
 483 0212 FFF7FEFF 		bl	isr_IRQ_StartEx
 160:main.c        ****     
 161:main.c        ****     // enable nRF24 with settings
 162:main.c        ****     nRF24_start();
 484              		.loc 1 162 0
 485 0216 FFF7FEFF 		bl	nRF24_start
 163:main.c        ****     nRF24_set_rx_pipe_address(NRF_ADDR_PIPE0, RX_ADDR, 5);
 486              		.loc 1 163 0
 487 021a 07F10C03 		add	r3, r7, #12
 488 021e 0522     		movs	r2, #5
 489 0220 1946     		mov	r1, r3
 490 0222 0A20     		movs	r0, #10
 491 0224 FFF7FEFF 		bl	nRF24_set_rx_pipe_address
 164:main.c        ****     nRF24_start_listening();
 492              		.loc 1 164 0
 493 0228 FFF7FEFF 		bl	nRF24_start_listening
 165:main.c        ****     
 166:main.c        ****     // distance control system variables
 167:main.c        ****     int16_t err_dist = 0; // error
 494              		.loc 1 167 0
 495 022c 0023     		movs	r3, #0
 496 022e A7F84630 		strh	r3, [r7, #70]	@ movhi
 168:main.c        ****     const int16_t reference_dist = 200; // input
 497              		.loc 1 168 0
 498 0232 C823     		movs	r3, #200
 499 0234 A7F84430 		strh	r3, [r7, #68]	@ movhi
 169:main.c        ****     const float Kp_dist = -0.5; // control system value for P-controller (spørg casper og bjørnef
 500              		.loc 1 169 0
 501 0238 4FF03F43 		mov	r3, #-1090519040
 502 023c 3B64     		str	r3, [r7, #64]	@ float
 170:main.c        ****     int32_t duty_cycle_dist = 0;
 503              		.loc 1 170 0
 504 023e 0023     		movs	r3, #0
 505 0240 FB66     		str	r3, [r7, #108]
 171:main.c        ****     
 172:main.c        ****     // angle control system variables
 173:main.c        ****     float Kp_ang = -1.2;
 506              		.loc 1 173 0
 507 0242 3A4B     		ldr	r3, .L33+56
 508 0244 FB63     		str	r3, [r7, #60]	@ float
 174:main.c        ****     float Kd_ang = -0.01;
 509              		.loc 1 174 0
 510 0246 3A4B     		ldr	r3, .L33+60
ARM GAS  C:\Users\rens_\AppData\Local\Temp\ccrM3B9b.s 			page 13


 511 0248 BB63     		str	r3, [r7, #56]	@ float
 175:main.c        ****     float Ki_ang = -0.1;
 512              		.loc 1 175 0
 513 024a 3A4B     		ldr	r3, .L33+64
 514 024c 7B63     		str	r3, [r7, #52]	@ float
 176:main.c        ****     //const float vel_ang = 2.5;
 177:main.c        ****     //const float width_car = 0.17;
 178:main.c        ****     int16_t servo_signal = 0;
 515              		.loc 1 178 0
 516 024e 0023     		movs	r3, #0
 517 0250 7B86     		strh	r3, [r7, #50]	@ movhi
 179:main.c        ****     const uint16_t t_right = 1035;
 518              		.loc 1 179 0
 519 0252 40F20B43 		movw	r3, #1035
 520 0256 3B86     		strh	r3, [r7, #48]	@ movhi
 180:main.c        ****     const uint16_t t_left = 1694;
 521              		.loc 1 180 0
 522 0258 40F29E63 		movw	r3, #1694
 523 025c FB85     		strh	r3, [r7, #46]	@ movhi
 181:main.c        ****     const uint16_t t_center = (t_left + t_right)/2;
 524              		.loc 1 181 0
 525 025e FA8D     		ldrh	r2, [r7, #46]
 526 0260 3B8E     		ldrh	r3, [r7, #48]
 527 0262 1344     		add	r3, r3, r2
 528 0264 DA0F     		lsrs	r2, r3, #31
 529 0266 1344     		add	r3, r3, r2
 530 0268 5B10     		asrs	r3, r3, #1
 531 026a BB85     		strh	r3, [r7, #44]	@ movhi
 182:main.c        ****     const uint8_t theta_tot = 60;
 532              		.loc 1 182 0
 533 026c 3C23     		movs	r3, #60
 534 026e 87F82B30 		strb	r3, [r7, #43]
 183:main.c        ****     float angle_servo = 0;
 535              		.loc 1 183 0
 536 0272 4FF00003 		mov	r3, #0
 537 0276 BB66     		str	r3, [r7, #104]	@ float
 184:main.c        ****     float prev_error_angle = 0;
 538              		.loc 1 184 0
 539 0278 4FF00003 		mov	r3, #0
 540 027c 7B66     		str	r3, [r7, #100]	@ float
 185:main.c        ****     float error_angle = 0;
 541              		.loc 1 185 0
 542 027e 4FF00003 		mov	r3, #0
 543 0282 7B62     		str	r3, [r7, #36]	@ float
 186:main.c        ****     uint8_t z_point_angle = 0;
 544              		.loc 1 186 0
 545 0284 0023     		movs	r3, #0
 546 0286 87F82330 		strb	r3, [r7, #35]
 187:main.c        ****     int16_t servo_signal_RB[4] = {0,0,0,0};
 547              		.loc 1 187 0
 548 028a 3B1D     		adds	r3, r7, #4
 549 028c 0022     		movs	r2, #0
 550 028e 1A60     		str	r2, [r3]
 551 0290 5A60     		str	r2, [r3, #4]
 188:main.c        ****     int8_t servo_signal_counter = 0;
 552              		.loc 1 188 0
 553 0292 0023     		movs	r3, #0
ARM GAS  C:\Users\rens_\AppData\Local\Temp\ccrM3B9b.s 			page 14


 554 0294 87F86330 		strb	r3, [r7, #99]
 189:main.c        ****     int16_t servo_signal_avg = 0;
 555              		.loc 1 189 0
 556 0298 0023     		movs	r3, #0
 557 029a 3B84     		strh	r3, [r7, #32]	@ movhi
 190:main.c        ****     
 191:main.c        ****     int integrations = 0;
 558              		.loc 1 191 0
 559 029c 0023     		movs	r3, #0
 560 029e FB61     		str	r3, [r7, #28]
 192:main.c        ****     
 193:main.c        ****     float previous_angle2 = 0;
 561              		.loc 1 193 0
 562 02a0 4FF00003 		mov	r3, #0
 563 02a4 BB61     		str	r3, [r7, #24]	@ float
 194:main.c        ****     float previous_angle1 = 0;
 564              		.loc 1 194 0
 565 02a6 4FF00003 		mov	r3, #0
 566 02aa FB65     		str	r3, [r7, #92]	@ float
 195:main.c        ****     
 196:main.c        ****     float derivative = 0;
 567              		.loc 1 196 0
 568 02ac 4FF00003 		mov	r3, #0
 569 02b0 7B61     		str	r3, [r7, #20]	@ float
 197:main.c        ****     float integral = 0;
 570              		.loc 1 197 0
 571 02b2 4FF00003 		mov	r3, #0
 572 02b6 BB65     		str	r3, [r7, #88]	@ float
 198:main.c        ****     
 199:main.c        ****     CyGlobalIntEnable;
 573              		.loc 1 199 0
 574              		.syntax unified
 575              	@ 199 "main.c" 1
 576 02b8 62B6     		CPSIE   i
 577              	@ 0 "" 2
 578              		.thumb
 579              		.syntax unified
 580              	.L29:
 200:main.c        ****     
 201:main.c        ****     for(;;)
 202:main.c        ****     {
 203:main.c        ****         if (ISR_A_done && ISR_B_done) {
 581              		.loc 1 203 0
 582 02ba 1F4B     		ldr	r3, .L33+68
 583 02bc 1B78     		ldrb	r3, [r3]	@ zero_extendqisi2
 584 02be 002B     		cmp	r3, #0
 585 02c0 FBD0     		beq	.L29
 586              		.loc 1 203 0 is_stmt 0 discriminator 1
 587 02c2 1E4B     		ldr	r3, .L33+72
 588 02c4 1B78     		ldrb	r3, [r3]	@ zero_extendqisi2
 589 02c6 002B     		cmp	r3, #0
 590 02c8 F7D0     		beq	.L29
 591              	.LBB2:
 204:main.c        ****             CyGlobalIntDisable;
 592              		.loc 1 204 0 is_stmt 1
 593              		.syntax unified
 594              	@ 204 "main.c" 1
ARM GAS  C:\Users\rens_\AppData\Local\Temp\ccrM3B9b.s 			page 15


 595 02ca 72B6     		CPSID   i
 596              	@ 0 "" 2
 205:main.c        ****             rec = 0;
 597              		.loc 1 205 0
 598              		.thumb
 599              		.syntax unified
 600 02cc 1C4B     		ldr	r3, .L33+76
 601 02ce 0022     		movs	r2, #0
 602 02d0 1A60     		str	r2, [r3]
 206:main.c        ****             
 207:main.c        ****             // defining a and b for the highest amplitude of the signals
 208:main.c        ****             uint16_t a = 0, b = 0;
 603              		.loc 1 208 0
 604 02d2 0023     		movs	r3, #0
 605 02d4 A7F85630 		strh	r3, [r7, #86]	@ movhi
 606 02d8 0023     		movs	r3, #0
 607 02da A7F85430 		strh	r3, [r7, #84]	@ movhi
 209:main.c        ****             uint16_t ai = 0, bi = 0;
 608              		.loc 1 209 0
 609 02de 0023     		movs	r3, #0
 610 02e0 A7F85230 		strh	r3, [r7, #82]	@ movhi
 611 02e4 0023     		movs	r3, #0
 612 02e6 A7F85030 		strh	r3, [r7, #80]	@ movhi
 613              	.LBB3:
 210:main.c        ****             
 211:main.c        ****             // find the 3 biggest time indices of DataA and DataB
 212:main.c        ****             for (uint16_t i = 0; i < DATA_SIZE; i++) {
 614              		.loc 1 212 0
 615 02ea 0023     		movs	r3, #0
 616 02ec A7F84E30 		strh	r3, [r7, #78]	@ movhi
 617 02f0 55E0     		b	.L12
 618              	.L34:
 619 02f2 00BF     		.align	2
 620              	.L33:
 621 02f4 00000000 		.word	ISR_OUT_A_Handler
 622 02f8 00000000 		.word	ISR_OUT_B_Handler
 623 02fc 00000000 		.word	DMA_A_Chan
 624 0300 00000000 		.word	DMA_A_TD
 625 0304 00000000 		.word	DMA_B_Chan
 626 0308 00000000 		.word	DMA_B_TD
 627 030c 00000000 		.word	DMA_A_Filter_Chan
 628 0310 00000000 		.word	DMA_A_Filter_TD
 629 0314 00000000 		.word	DataA
 630 0318 00000000 		.word	DMA_B_Filter_Chan
 631 031c 00000000 		.word	DMA_B_Filter_TD
 632 0320 00000000 		.word	DataB
 633 0324 00000000 		.word	.LC0
 634 0328 00000000 		.word	IRQ_Handler
 635 032c 9A9999BF 		.word	-1080452710
 636 0330 0AD723BC 		.word	-1138501878
 637 0334 CDCCCCBD 		.word	-1110651699
 638 0338 00000000 		.word	ISR_A_done
 639 033c 00000000 		.word	ISR_B_done
 640 0340 00000000 		.word	rec
 641              	.L15:
 213:main.c        ****                 if (DataA[i] > a) {
 642              		.loc 1 213 0
ARM GAS  C:\Users\rens_\AppData\Local\Temp\ccrM3B9b.s 			page 16


 643 0344 B7F84E30 		ldrh	r3, [r7, #78]
 644 0348 634A     		ldr	r2, .L35+16
 645 034a 32F81330 		ldrh	r3, [r2, r3, lsl #1]
 646 034e B7F85620 		ldrh	r2, [r7, #86]
 647 0352 9A42     		cmp	r2, r3
 648 0354 0AD2     		bcs	.L13
 214:main.c        ****                     a = DataA[i];
 649              		.loc 1 214 0
 650 0356 B7F84E30 		ldrh	r3, [r7, #78]
 651 035a 5F4A     		ldr	r2, .L35+16
 652 035c 32F81330 		ldrh	r3, [r2, r3, lsl #1]	@ movhi
 653 0360 A7F85630 		strh	r3, [r7, #86]	@ movhi
 215:main.c        ****                     ai = i;
 654              		.loc 1 215 0
 655 0364 B7F84E30 		ldrh	r3, [r7, #78]	@ movhi
 656 0368 A7F85230 		strh	r3, [r7, #82]	@ movhi
 657              	.L13:
 216:main.c        ****                 }
 217:main.c        ****                 
 218:main.c        ****                 if (DataB[i] > b) {
 658              		.loc 1 218 0
 659 036c B7F84E30 		ldrh	r3, [r7, #78]
 660 0370 5A4A     		ldr	r2, .L35+20
 661 0372 32F81330 		ldrh	r3, [r2, r3, lsl #1]
 662 0376 B7F85420 		ldrh	r2, [r7, #84]
 663 037a 9A42     		cmp	r2, r3
 664 037c 0AD2     		bcs	.L14
 219:main.c        ****                     b = DataB[i];
 665              		.loc 1 219 0
 666 037e B7F84E30 		ldrh	r3, [r7, #78]
 667 0382 564A     		ldr	r2, .L35+20
 668 0384 32F81330 		ldrh	r3, [r2, r3, lsl #1]	@ movhi
 669 0388 A7F85430 		strh	r3, [r7, #84]	@ movhi
 220:main.c        ****                     bi = i;
 670              		.loc 1 220 0
 671 038c B7F84E30 		ldrh	r3, [r7, #78]	@ movhi
 672 0390 A7F85030 		strh	r3, [r7, #80]	@ movhi
 673              	.L14:
 212:main.c        ****                 if (DataA[i] > a) {
 674              		.loc 1 212 0 discriminator 2
 675 0394 B7F84E30 		ldrh	r3, [r7, #78]
 676 0398 0133     		adds	r3, r3, #1
 677 039a A7F84E30 		strh	r3, [r7, #78]	@ movhi
 678              	.L12:
 212:main.c        ****                 if (DataA[i] > a) {
 679              		.loc 1 212 0 is_stmt 0 discriminator 1
 680 039e B7F84E30 		ldrh	r3, [r7, #78]
 681 03a2 40F2DB52 		movw	r2, #1499
 682 03a6 9342     		cmp	r3, r2
 683 03a8 CCD9     		bls	.L15
 684              	.LBE3:
 221:main.c        ****                 }
 222:main.c        ****             }
 223:main.c        ****             
 224:main.c        ****             previous_angle2 = previous_angle1;
 685              		.loc 1 224 0 is_stmt 1
 686 03aa FB6D     		ldr	r3, [r7, #92]	@ float
ARM GAS  C:\Users\rens_\AppData\Local\Temp\ccrM3B9b.s 			page 17


 687 03ac BB61     		str	r3, [r7, #24]	@ float
 225:main.c        ****             previous_angle1 = angle;
 688              		.loc 1 225 0
 689 03ae 4C4B     		ldr	r3, .L35+24
 690 03b0 1B68     		ldr	r3, [r3]	@ float
 691 03b2 FB65     		str	r3, [r7, #92]	@ float
 226:main.c        ****             
 227:main.c        ****             // angle from -60 to 60
 228:main.c        ****             // 2.25 us per sample
 229:main.c        ****             // 1 us = 0.2 degrees
 230:main.c        ****             // 0.45 = 2.25 * 0.2
 231:main.c        ****             angle = (ai - bi) * 0.45;
 692              		.loc 1 231 0
 693 03b4 B7F85220 		ldrh	r2, [r7, #82]
 694 03b8 B7F85030 		ldrh	r3, [r7, #80]
 695 03bc D31A     		subs	r3, r2, r3
 696 03be 1846     		mov	r0, r3
 697 03c0 FFF7FEFF 		bl	__aeabi_i2d
 698 03c4 40A3     		adr	r3, .L35
 699 03c6 D3E90023 		ldrd	r2, [r3]
 700 03ca FFF7FEFF 		bl	__aeabi_dmul
 701 03ce 0346     		mov	r3, r0
 702 03d0 0C46     		mov	r4, r1
 703 03d2 1846     		mov	r0, r3
 704 03d4 2146     		mov	r1, r4
 705 03d6 FFF7FEFF 		bl	__aeabi_d2f
 706 03da 0246     		mov	r2, r0
 707 03dc 404B     		ldr	r3, .L35+24
 708 03de 1A60     		str	r2, [r3]	@ float
 232:main.c        ****             
 233:main.c        ****             //sprintf(output, "%d\n", angle);
 234:main.c        ****             //UART_PutString(output);
 235:main.c        ****             // distance in mm, where speed of sound is 343 mm/ms
 236:main.c        ****             // first convert the time difference from us to ms, and then multiply by the speed of s
 237:main.c        ****             // use ai and bi depending on which has the closest peak to the network ping
 238:main.c        ****             // The 500 value subtracted has been experimentally found
 239:main.c        ****             // 0.77 = 2.25/1000.0 * 343
 240:main.c        ****             if (ai < bi) {
 709              		.loc 1 240 0
 710 03e0 B7F85220 		ldrh	r2, [r7, #82]
 711 03e4 B7F85030 		ldrh	r3, [r7, #80]
 712 03e8 9A42     		cmp	r2, r3
 713 03ea 1DD2     		bcs	.L16
 241:main.c        ****                 distance = ai*0.77 - 100;
 714              		.loc 1 241 0
 715 03ec B7F85230 		ldrh	r3, [r7, #82]
 716 03f0 1846     		mov	r0, r3
 717 03f2 FFF7FEFF 		bl	__aeabi_i2d
 718 03f6 36A3     		adr	r3, .L35+8
 719 03f8 D3E90023 		ldrd	r2, [r3]
 720 03fc FFF7FEFF 		bl	__aeabi_dmul
 721 0400 0346     		mov	r3, r0
 722 0402 0C46     		mov	r4, r1
 723 0404 1846     		mov	r0, r3
 724 0406 2146     		mov	r1, r4
 725 0408 4FF00002 		mov	r2, #0
 726 040c 354B     		ldr	r3, .L35+28
ARM GAS  C:\Users\rens_\AppData\Local\Temp\ccrM3B9b.s 			page 18


 727 040e FFF7FEFF 		bl	__aeabi_dsub
 728 0412 0346     		mov	r3, r0
 729 0414 0C46     		mov	r4, r1
 730 0416 1846     		mov	r0, r3
 731 0418 2146     		mov	r1, r4
 732 041a FFF7FEFF 		bl	__aeabi_d2iz
 733 041e 0346     		mov	r3, r0
 734 0420 1AB2     		sxth	r2, r3
 735 0422 314B     		ldr	r3, .L35+32
 736 0424 1A80     		strh	r2, [r3]	@ movhi
 737 0426 1CE0     		b	.L17
 738              	.L16:
 242:main.c        ****             } else {
 243:main.c        ****                 distance = bi * 0.77 -100;
 739              		.loc 1 243 0
 740 0428 B7F85030 		ldrh	r3, [r7, #80]
 741 042c 1846     		mov	r0, r3
 742 042e FFF7FEFF 		bl	__aeabi_i2d
 743 0432 27A3     		adr	r3, .L35+8
 744 0434 D3E90023 		ldrd	r2, [r3]
 745 0438 FFF7FEFF 		bl	__aeabi_dmul
 746 043c 0346     		mov	r3, r0
 747 043e 0C46     		mov	r4, r1
 748 0440 1846     		mov	r0, r3
 749 0442 2146     		mov	r1, r4
 750 0444 4FF00002 		mov	r2, #0
 751 0448 264B     		ldr	r3, .L35+28
 752 044a FFF7FEFF 		bl	__aeabi_dsub
 753 044e 0346     		mov	r3, r0
 754 0450 0C46     		mov	r4, r1
 755 0452 1846     		mov	r0, r3
 756 0454 2146     		mov	r1, r4
 757 0456 FFF7FEFF 		bl	__aeabi_d2iz
 758 045a 0346     		mov	r3, r0
 759 045c 1AB2     		sxth	r2, r3
 760 045e 224B     		ldr	r3, .L35+32
 761 0460 1A80     		strh	r2, [r3]	@ movhi
 762              	.L17:
 244:main.c        ****             }
 245:main.c        **** 
 246:main.c        ****             ISR_A_done = ISR_B_done = 0;
 763              		.loc 1 246 0
 764 0462 224B     		ldr	r3, .L35+36
 765 0464 0022     		movs	r2, #0
 766 0466 1A70     		strb	r2, [r3]
 767 0468 204B     		ldr	r3, .L35+36
 768 046a 1A78     		ldrb	r2, [r3]	@ zero_extendqisi2
 769 046c 204B     		ldr	r3, .L35+40
 770 046e 1A70     		strb	r2, [r3]
 247:main.c        ****                 
 248:main.c        ****             // CONTROL SYSTEM - DISTANCE:
 249:main.c        ****             
 250:main.c        ****             err_dist = reference_dist - distance;
 771              		.loc 1 250 0
 772 0470 B7F84420 		ldrh	r2, [r7, #68]
 773 0474 1C4B     		ldr	r3, .L35+32
 774 0476 B3F90030 		ldrsh	r3, [r3]
ARM GAS  C:\Users\rens_\AppData\Local\Temp\ccrM3B9b.s 			page 19


 775 047a 9BB2     		uxth	r3, r3
 776 047c D31A     		subs	r3, r2, r3
 777 047e 9BB2     		uxth	r3, r3
 778 0480 A7F84630 		strh	r3, [r7, #70]	@ movhi
 251:main.c        ****             duty_cycle_dist = Kp_dist * err_dist + velocity;
 779              		.loc 1 251 0
 780 0484 B7F94630 		ldrsh	r3, [r7, #70]
 781 0488 1846     		mov	r0, r3
 782 048a FFF7FEFF 		bl	__aeabi_i2f
 783 048e 0346     		mov	r3, r0
 784 0490 396C     		ldr	r1, [r7, #64]	@ float
 785 0492 1846     		mov	r0, r3
 786 0494 FFF7FEFF 		bl	__aeabi_fmul
 787 0498 0346     		mov	r3, r0
 788 049a 1C46     		mov	r4, r3
 789 049c 154B     		ldr	r3, .L35+44
 790 049e 1B78     		ldrb	r3, [r3]	@ zero_extendqisi2
 791 04a0 1846     		mov	r0, r3
 792 04a2 FFF7FEFF 		bl	__aeabi_i2f
 793 04a6 0346     		mov	r3, r0
 794 04a8 1946     		mov	r1, r3
 795 04aa 2046     		mov	r0, r4
 796 04ac FFF7FEFF 		bl	__aeabi_fadd
 797 04b0 0346     		mov	r3, r0
 798 04b2 1846     		mov	r0, r3
 799 04b4 FFF7FEFF 		bl	__aeabi_f2iz
 800 04b8 0346     		mov	r3, r0
 801 04ba FB66     		str	r3, [r7, #108]
 252:main.c        ****             
 253:main.c        ****             // if duty_cycle ends up being negative, it needs to be capped at 0
 254:main.c        ****             if (duty_cycle_dist < 0)
 802              		.loc 1 254 0
 803 04bc FB6E     		ldr	r3, [r7, #108]
 804 04be 002B     		cmp	r3, #0
 805 04c0 1ADA     		bge	.L18
 255:main.c        ****             {
 256:main.c        ****                 duty_cycle_dist = 0;
 806              		.loc 1 256 0
 807 04c2 0023     		movs	r3, #0
 808 04c4 FB66     		str	r3, [r7, #108]
 809 04c6 1CE0     		b	.L19
 810              	.L36:
 811              		.align	3
 812              	.L35:
 813 04c8 CDCCCCCC 		.word	-858993459
 814 04cc CCCCDC3F 		.word	1071434956
 815 04d0 A4703D0A 		.word	171798692
 816 04d4 D7A3E83F 		.word	1072210903
 817 04d8 00000000 		.word	DataA
 818 04dc 00000000 		.word	DataB
 819 04e0 00000000 		.word	angle
 820 04e4 00005940 		.word	1079574528
 821 04e8 00000000 		.word	distance
 822 04ec 00000000 		.word	ISR_B_done
 823 04f0 00000000 		.word	ISR_A_done
 824 04f4 00000000 		.word	velocity
 825              	.L18:
ARM GAS  C:\Users\rens_\AppData\Local\Temp\ccrM3B9b.s 			page 20


 257:main.c        ****             }else if(duty_cycle_dist > 150){
 826              		.loc 1 257 0
 827 04f8 FB6E     		ldr	r3, [r7, #108]
 828 04fa 962B     		cmp	r3, #150
 829 04fc 01DD     		ble	.L19
 258:main.c        ****                 duty_cycle_dist = 150;
 830              		.loc 1 258 0
 831 04fe 9623     		movs	r3, #150
 832 0500 FB66     		str	r3, [r7, #108]
 833              	.L19:
 259:main.c        ****             }
 260:main.c        ****             
 261:main.c        ****             PWM_H_BRIDGE_WriteCompare(duty_cycle_dist*killswitchS_Read());
 834              		.loc 1 261 0
 835 0502 FFF7FEFF 		bl	killswitchS_Read
 836 0506 0346     		mov	r3, r0
 837 0508 1A46     		mov	r2, r3
 838 050a FB6E     		ldr	r3, [r7, #108]
 839 050c DBB2     		uxtb	r3, r3
 840 050e 03FB02F3 		mul	r3, r3, r2
 841 0512 DBB2     		uxtb	r3, r3
 842 0514 1846     		mov	r0, r3
 843 0516 FFF7FEFF 		bl	PWM_H_BRIDGE_WriteCompare
 262:main.c        ****             
 263:main.c        ****             
 264:main.c        ****         //CONTROL SYSTEM - ANGLE:
 265:main.c        ****             
 266:main.c        ****             float weighted_Kp_angle;
 267:main.c        ****             
 268:main.c        ****             weighted_Kp_angle = Kp_ang;
 844              		.loc 1 268 0
 845 051a FB6B     		ldr	r3, [r7, #60]	@ float
 846 051c BB64     		str	r3, [r7, #72]	@ float
 269:main.c        ****             
 270:main.c        ****             if (velocity) {
 847              		.loc 1 270 0
 848 051e A44B     		ldr	r3, .L37+24
 849 0520 1B78     		ldrb	r3, [r3]	@ zero_extendqisi2
 850 0522 002B     		cmp	r3, #0
 851 0524 5FD0     		beq	.L20
 271:main.c        ****                 if (!(Kp_ang/(velocity*0.031*0.58) < Kp_ang)) {
 852              		.loc 1 271 0
 853 0526 F86B     		ldr	r0, [r7, #60]	@ float
 854 0528 FFF7FEFF 		bl	__aeabi_f2d
 855 052c 0446     		mov	r4, r0
 856 052e 0D46     		mov	r5, r1
 857 0530 9F4B     		ldr	r3, .L37+24
 858 0532 1B78     		ldrb	r3, [r3]	@ zero_extendqisi2
 859 0534 1846     		mov	r0, r3
 860 0536 FFF7FEFF 		bl	__aeabi_i2d
 861 053a 97A3     		adr	r3, .L37
 862 053c D3E90023 		ldrd	r2, [r3]
 863 0540 FFF7FEFF 		bl	__aeabi_dmul
 864 0544 0246     		mov	r2, r0
 865 0546 0B46     		mov	r3, r1
 866 0548 1046     		mov	r0, r2
 867 054a 1946     		mov	r1, r3
ARM GAS  C:\Users\rens_\AppData\Local\Temp\ccrM3B9b.s 			page 21


 868 054c 94A3     		adr	r3, .L37+8
 869 054e D3E90023 		ldrd	r2, [r3]
 870 0552 FFF7FEFF 		bl	__aeabi_dmul
 871 0556 0246     		mov	r2, r0
 872 0558 0B46     		mov	r3, r1
 873 055a 2046     		mov	r0, r4
 874 055c 2946     		mov	r1, r5
 875 055e FFF7FEFF 		bl	__aeabi_ddiv
 876 0562 0346     		mov	r3, r0
 877 0564 0C46     		mov	r4, r1
 878 0566 2546     		mov	r5, r4
 879 0568 1C46     		mov	r4, r3
 880 056a F86B     		ldr	r0, [r7, #60]	@ float
 881 056c FFF7FEFF 		bl	__aeabi_f2d
 882 0570 0A46     		mov	r2, r1
 883 0572 0146     		mov	r1, r0
 884 0574 0123     		movs	r3, #1
 885 0576 1E46     		mov	r6, r3
 886 0578 1346     		mov	r3, r2
 887 057a 0A46     		mov	r2, r1
 888 057c 2046     		mov	r0, r4
 889 057e 2946     		mov	r1, r5
 890 0580 FFF7FEFF 		bl	__aeabi_dcmplt
 891 0584 0346     		mov	r3, r0
 892 0586 002B     		cmp	r3, #0
 893 0588 01D1     		bne	.L21
 894 058a 0023     		movs	r3, #0
 895 058c 1E46     		mov	r6, r3
 896              	.L21:
 897 058e F3B2     		uxtb	r3, r6
 898 0590 83F00103 		eor	r3, r3, #1
 899 0594 DBB2     		uxtb	r3, r3
 900 0596 002B     		cmp	r3, #0
 901 0598 25D0     		beq	.L20
 272:main.c        ****                     weighted_Kp_angle = Kp_ang/(velocity*0.031*0.58);
 902              		.loc 1 272 0
 903 059a F86B     		ldr	r0, [r7, #60]	@ float
 904 059c FFF7FEFF 		bl	__aeabi_f2d
 905 05a0 0446     		mov	r4, r0
 906 05a2 0D46     		mov	r5, r1
 907 05a4 824B     		ldr	r3, .L37+24
 908 05a6 1B78     		ldrb	r3, [r3]	@ zero_extendqisi2
 909 05a8 1846     		mov	r0, r3
 910 05aa FFF7FEFF 		bl	__aeabi_i2d
 911 05ae 7AA3     		adr	r3, .L37
 912 05b0 D3E90023 		ldrd	r2, [r3]
 913 05b4 FFF7FEFF 		bl	__aeabi_dmul
 914 05b8 0246     		mov	r2, r0
 915 05ba 0B46     		mov	r3, r1
 916 05bc 1046     		mov	r0, r2
 917 05be 1946     		mov	r1, r3
 918 05c0 77A3     		adr	r3, .L37+8
 919 05c2 D3E90023 		ldrd	r2, [r3]
 920 05c6 FFF7FEFF 		bl	__aeabi_dmul
 921 05ca 0246     		mov	r2, r0
 922 05cc 0B46     		mov	r3, r1
 923 05ce 2046     		mov	r0, r4
ARM GAS  C:\Users\rens_\AppData\Local\Temp\ccrM3B9b.s 			page 22


 924 05d0 2946     		mov	r1, r5
 925 05d2 FFF7FEFF 		bl	__aeabi_ddiv
 926 05d6 0346     		mov	r3, r0
 927 05d8 0C46     		mov	r4, r1
 928 05da 1846     		mov	r0, r3
 929 05dc 2146     		mov	r1, r4
 930 05de FFF7FEFF 		bl	__aeabi_d2f
 931 05e2 0346     		mov	r3, r0
 932 05e4 BB64     		str	r3, [r7, #72]	@ float
 933              	.L20:
 273:main.c        ****                 }
 274:main.c        ****             }
 275:main.c        ****             
 276:main.c        ****             if (integrations > 500) {
 934              		.loc 1 276 0
 935 05e6 FB69     		ldr	r3, [r7, #28]
 936 05e8 B3F5FA7F 		cmp	r3, #500
 937 05ec 02DD     		ble	.L22
 277:main.c        ****                 integral = 0;
 938              		.loc 1 277 0
 939 05ee 4FF00003 		mov	r3, #0
 940 05f2 BB65     		str	r3, [r7, #88]	@ float
 941              	.L22:
 278:main.c        ****             }
 279:main.c        ****             
 280:main.c        ****             error_angle = z_point_angle - (angle + previous_angle1 + previous_angle2)/3.0;
 942              		.loc 1 280 0
 943 05f4 97F82330 		ldrb	r3, [r7, #35]	@ zero_extendqisi2
 944 05f8 1846     		mov	r0, r3
 945 05fa FFF7FEFF 		bl	__aeabi_i2d
 946 05fe 0446     		mov	r4, r0
 947 0600 0D46     		mov	r5, r1
 948 0602 6C4B     		ldr	r3, .L37+28
 949 0604 1B68     		ldr	r3, [r3]	@ float
 950 0606 F96D     		ldr	r1, [r7, #92]	@ float
 951 0608 1846     		mov	r0, r3
 952 060a FFF7FEFF 		bl	__aeabi_fadd
 953 060e 0346     		mov	r3, r0
 954 0610 B969     		ldr	r1, [r7, #24]	@ float
 955 0612 1846     		mov	r0, r3
 956 0614 FFF7FEFF 		bl	__aeabi_fadd
 957 0618 0346     		mov	r3, r0
 958 061a 1846     		mov	r0, r3
 959 061c FFF7FEFF 		bl	__aeabi_f2d
 960 0620 4FF00002 		mov	r2, #0
 961 0624 644B     		ldr	r3, .L37+32
 962 0626 FFF7FEFF 		bl	__aeabi_ddiv
 963 062a 0246     		mov	r2, r0
 964 062c 0B46     		mov	r3, r1
 965 062e 2046     		mov	r0, r4
 966 0630 2946     		mov	r1, r5
 967 0632 FFF7FEFF 		bl	__aeabi_dsub
 968 0636 0346     		mov	r3, r0
 969 0638 0C46     		mov	r4, r1
 970 063a 1846     		mov	r0, r3
 971 063c 2146     		mov	r1, r4
 972 063e FFF7FEFF 		bl	__aeabi_d2f
ARM GAS  C:\Users\rens_\AppData\Local\Temp\ccrM3B9b.s 			page 23


 973 0642 0346     		mov	r3, r0
 974 0644 7B62     		str	r3, [r7, #36]	@ float
 281:main.c        ****             derivative = (error_angle - prev_error_angle) / 0.01; // 0.01 deltatime
 975              		.loc 1 281 0
 976 0646 796E     		ldr	r1, [r7, #100]	@ float
 977 0648 786A     		ldr	r0, [r7, #36]	@ float
 978 064a FFF7FEFF 		bl	__aeabi_fsub
 979 064e 0346     		mov	r3, r0
 980 0650 1846     		mov	r0, r3
 981 0652 FFF7FEFF 		bl	__aeabi_f2d
 982 0656 54A3     		adr	r3, .L37+16
 983 0658 D3E90023 		ldrd	r2, [r3]
 984 065c FFF7FEFF 		bl	__aeabi_ddiv
 985 0660 0346     		mov	r3, r0
 986 0662 0C46     		mov	r4, r1
 987 0664 1846     		mov	r0, r3
 988 0666 2146     		mov	r1, r4
 989 0668 FFF7FEFF 		bl	__aeabi_d2f
 990 066c 0346     		mov	r3, r0
 991 066e 7B61     		str	r3, [r7, #20]	@ float
 282:main.c        ****             integral = integral + error_angle * 0.01;
 992              		.loc 1 282 0
 993 0670 B86D     		ldr	r0, [r7, #88]	@ float
 994 0672 FFF7FEFF 		bl	__aeabi_f2d
 995 0676 0446     		mov	r4, r0
 996 0678 0D46     		mov	r5, r1
 997 067a 786A     		ldr	r0, [r7, #36]	@ float
 998 067c FFF7FEFF 		bl	__aeabi_f2d
 999 0680 49A3     		adr	r3, .L37+16
 1000 0682 D3E90023 		ldrd	r2, [r3]
 1001 0686 FFF7FEFF 		bl	__aeabi_dmul
 1002 068a 0246     		mov	r2, r0
 1003 068c 0B46     		mov	r3, r1
 1004 068e 2046     		mov	r0, r4
 1005 0690 2946     		mov	r1, r5
 1006 0692 FFF7FEFF 		bl	__aeabi_dadd
 1007 0696 0346     		mov	r3, r0
 1008 0698 0C46     		mov	r4, r1
 1009 069a 1846     		mov	r0, r3
 1010 069c 2146     		mov	r1, r4
 1011 069e FFF7FEFF 		bl	__aeabi_d2f
 1012 06a2 0346     		mov	r3, r0
 1013 06a4 BB65     		str	r3, [r7, #88]	@ float
 283:main.c        ****             angle_servo = weighted_Kp_angle * error_angle + derivative*Kd_ang;
 1014              		.loc 1 283 0
 1015 06a6 796A     		ldr	r1, [r7, #36]	@ float
 1016 06a8 B86C     		ldr	r0, [r7, #72]	@ float
 1017 06aa FFF7FEFF 		bl	__aeabi_fmul
 1018 06ae 0346     		mov	r3, r0
 1019 06b0 1C46     		mov	r4, r3
 1020 06b2 B96B     		ldr	r1, [r7, #56]	@ float
 1021 06b4 7869     		ldr	r0, [r7, #20]	@ float
 1022 06b6 FFF7FEFF 		bl	__aeabi_fmul
 1023 06ba 0346     		mov	r3, r0
 1024 06bc 1946     		mov	r1, r3
 1025 06be 2046     		mov	r0, r4
 1026 06c0 FFF7FEFF 		bl	__aeabi_fadd
ARM GAS  C:\Users\rens_\AppData\Local\Temp\ccrM3B9b.s 			page 24


 1027 06c4 0346     		mov	r3, r0
 1028 06c6 BB66     		str	r3, [r7, #104]	@ float
 284:main.c        ****             prev_error_angle = error_angle;
 1029              		.loc 1 284 0
 1030 06c8 7B6A     		ldr	r3, [r7, #36]	@ float
 1031 06ca 7B66     		str	r3, [r7, #100]	@ float
 285:main.c        ****             if(angle_servo > 30){
 1032              		.loc 1 285 0
 1033 06cc 3B49     		ldr	r1, .L37+36
 1034 06ce B86E     		ldr	r0, [r7, #104]	@ float
 1035 06d0 FFF7FEFF 		bl	__aeabi_fcmpgt
 1036 06d4 0346     		mov	r3, r0
 1037 06d6 002B     		cmp	r3, #0
 1038 06d8 02D0     		beq	.L32
 286:main.c        ****                 angle_servo = 30;
 1039              		.loc 1 286 0
 1040 06da 384B     		ldr	r3, .L37+36
 1041 06dc BB66     		str	r3, [r7, #104]	@ float
 1042 06de 08E0     		b	.L25
 1043              	.L32:
 287:main.c        ****             } else if(angle_servo < -30){
 1044              		.loc 1 287 0
 1045 06e0 3749     		ldr	r1, .L37+40
 1046 06e2 B86E     		ldr	r0, [r7, #104]	@ float
 1047 06e4 FFF7FEFF 		bl	__aeabi_fcmplt
 1048 06e8 0346     		mov	r3, r0
 1049 06ea 002B     		cmp	r3, #0
 1050 06ec 01D0     		beq	.L25
 288:main.c        ****                 angle_servo = -30;
 1051              		.loc 1 288 0
 1052 06ee 344B     		ldr	r3, .L37+40
 1053 06f0 BB66     		str	r3, [r7, #104]	@ float
 1054              	.L25:
 289:main.c        ****             }
 290:main.c        ****             
 291:main.c        ****             // ((t_right - t_left)/theta_tot) approx -11
 292:main.c        ****             servo_signal = angle_servo * -11 + t_center - 100;
 1055              		.loc 1 292 0
 1056 06f2 3449     		ldr	r1, .L37+44
 1057 06f4 B86E     		ldr	r0, [r7, #104]	@ float
 1058 06f6 FFF7FEFF 		bl	__aeabi_fmul
 1059 06fa 0346     		mov	r3, r0
 1060 06fc 1C46     		mov	r4, r3
 1061 06fe BB8D     		ldrh	r3, [r7, #44]
 1062 0700 1846     		mov	r0, r3
 1063 0702 FFF7FEFF 		bl	__aeabi_i2f
 1064 0706 0346     		mov	r3, r0
 1065 0708 1946     		mov	r1, r3
 1066 070a 2046     		mov	r0, r4
 1067 070c FFF7FEFF 		bl	__aeabi_fadd
 1068 0710 0346     		mov	r3, r0
 1069 0712 2D49     		ldr	r1, .L37+48
 1070 0714 1846     		mov	r0, r3
 1071 0716 FFF7FEFF 		bl	__aeabi_fsub
 1072 071a 0346     		mov	r3, r0
 1073 071c 1846     		mov	r0, r3
 1074 071e FFF7FEFF 		bl	__aeabi_f2iz
ARM GAS  C:\Users\rens_\AppData\Local\Temp\ccrM3B9b.s 			page 25


 1075 0722 0346     		mov	r3, r0
 1076 0724 7B86     		strh	r3, [r7, #50]	@ movhi
 293:main.c        ****             
 294:main.c        ****             if(servo_signal_counter == 3){
 1077              		.loc 1 294 0
 1078 0726 97F96330 		ldrsb	r3, [r7, #99]
 1079 072a 032B     		cmp	r3, #3
 1080 072c 0CD1     		bne	.L27
 295:main.c        ****                 servo_signal_RB[servo_signal_counter] = servo_signal;
 1081              		.loc 1 295 0
 1082 072e 97F96330 		ldrsb	r3, [r7, #99]
 1083 0732 5B00     		lsls	r3, r3, #1
 1084 0734 07F17002 		add	r2, r7, #112
 1085 0738 1344     		add	r3, r3, r2
 1086 073a 7A8E     		ldrh	r2, [r7, #50]	@ movhi
 1087 073c 23F86C2C 		strh	r2, [r3, #-108]	@ movhi
 296:main.c        ****                 servo_signal_counter = 0;
 1088              		.loc 1 296 0
 1089 0740 0023     		movs	r3, #0
 1090 0742 87F86330 		strb	r3, [r7, #99]
 1091 0746 0FE0     		b	.L28
 1092              	.L27:
 297:main.c        ****             }else{
 298:main.c        ****                 servo_signal_RB[servo_signal_counter] = servo_signal;
 1093              		.loc 1 298 0
 1094 0748 97F96330 		ldrsb	r3, [r7, #99]
 1095 074c 5B00     		lsls	r3, r3, #1
 1096 074e 07F17002 		add	r2, r7, #112
 1097 0752 1344     		add	r3, r3, r2
 1098 0754 7A8E     		ldrh	r2, [r7, #50]	@ movhi
 1099 0756 23F86C2C 		strh	r2, [r3, #-108]	@ movhi
 299:main.c        ****                 servo_signal_counter++;
 1100              		.loc 1 299 0
 1101 075a 97F96330 		ldrsb	r3, [r7, #99]
 1102 075e DBB2     		uxtb	r3, r3
 1103 0760 0133     		adds	r3, r3, #1
 1104 0762 DBB2     		uxtb	r3, r3
 1105 0764 87F86330 		strb	r3, [r7, #99]
 1106              	.L28:
 300:main.c        ****             }
 301:main.c        ****             servo_signal_avg = (servo_signal_RB[0] + servo_signal_RB[1] + servo_signal_RB[2])/3;
 1107              		.loc 1 301 0
 1108 0768 B7F90430 		ldrsh	r3, [r7, #4]
 1109 076c 1A46     		mov	r2, r3
 1110 076e B7F90630 		ldrsh	r3, [r7, #6]
 1111 0772 1344     		add	r3, r3, r2
 1112 0774 B7F90820 		ldrsh	r2, [r7, #8]
 1113 0778 1344     		add	r3, r3, r2
 1114 077a 144A     		ldr	r2, .L37+52
 1115 077c 82FB0312 		smull	r1, r2, r2, r3
 1116 0780 DB17     		asrs	r3, r3, #31
 1117 0782 D31A     		subs	r3, r2, r3
 1118 0784 3B84     		strh	r3, [r7, #32]	@ movhi
 302:main.c        ****                         
 303:main.c        ****             PWM_SERVO_WriteCompare(servo_signal_avg);
 1119              		.loc 1 303 0
 1120 0786 3B8C     		ldrh	r3, [r7, #32]
ARM GAS  C:\Users\rens_\AppData\Local\Temp\ccrM3B9b.s 			page 26


 1121 0788 1846     		mov	r0, r3
 1122 078a FFF7FEFF 		bl	PWM_SERVO_WriteCompare
 304:main.c        ****             
 305:main.c        ****             Pin_3_Write(0);
 1123              		.loc 1 305 0
 1124 078e 0020     		movs	r0, #0
 1125 0790 FFF7FEFF 		bl	Pin_3_Write
 306:main.c        **** 
 307:main.c        ****             CyGlobalIntEnable;
 1126              		.loc 1 307 0
 1127              		.syntax unified
 1128              	@ 307 "main.c" 1
 1129 0794 62B6     		CPSIE   i
 1130              	@ 0 "" 2
 1131              		.thumb
 1132              		.syntax unified
 1133              	.LBE2:
 308:main.c        ****         }
 309:main.c        ****     }
 1134              		.loc 1 309 0
 1135 0796 90E5     		b	.L29
 1136              	.L38:
 1137              		.align	3
 1138              	.L37:
 1139 0798 5839B4C8 		.word	-927712936
 1140 079c 76BE9F3F 		.word	1067433590
 1141 07a0 8FC2F528 		.word	687194767
 1142 07a4 5C8FE23F 		.word	1071812444
 1143 07a8 7B14AE47 		.word	1202590843
 1144 07ac E17A843F 		.word	1065646817
 1145 07b0 00000000 		.word	velocity
 1146 07b4 00000000 		.word	angle
 1147 07b8 00000840 		.word	1074266112
 1148 07bc 0000F041 		.word	1106247680
 1149 07c0 0000F0C1 		.word	-1041235968
 1150 07c4 000030C1 		.word	-1053818880
 1151 07c8 0000C842 		.word	1120403456
 1152 07cc 56555555 		.word	1431655766
 1153              		.cfi_endproc
 1154              	.LFE67:
 1155              		.size	main, .-main
 1156              		.text
 1157              	.Letext0:
 1158              		.file 2 "c:\\program files (x86)\\cypress\\psoc creator\\4.2\\psoc creator\\import\\gnu\\arm\\5.4.
 1159              		.file 3 "c:\\program files (x86)\\cypress\\psoc creator\\4.2\\psoc creator\\import\\gnu\\arm\\5.4.
 1160              		.file 4 "Generated_Source\\PSoC5/cytypes.h"
 1161              		.file 5 "Generated_Source\\PSoC5/nRF24_DEFS.h"
 1162              		.file 6 "Generated_Source\\PSoC5/core_cm3.h"
 1163              		.section	.debug_info,"",%progbits
 1164              	.Ldebug_info0:
 1165 0000 47070000 		.4byte	0x747
 1166 0004 0400     		.2byte	0x4
 1167 0006 00000000 		.4byte	.Ldebug_abbrev0
 1168 000a 04       		.byte	0x4
 1169 000b 01       		.uleb128 0x1
 1170 000c 62000000 		.4byte	.LASF147
 1171 0010 0C       		.byte	0xc
ARM GAS  C:\Users\rens_\AppData\Local\Temp\ccrM3B9b.s 			page 27


 1172 0011 54040000 		.4byte	.LASF148
 1173 0015 B5040000 		.4byte	.LASF149
 1174 0019 00000000 		.4byte	.Ldebug_ranges0+0
 1175 001d 00000000 		.4byte	0
 1176 0021 00000000 		.4byte	.Ldebug_line0
 1177 0025 02       		.uleb128 0x2
 1178 0026 80010000 		.4byte	.LASF0
 1179 002a 02       		.byte	0x2
 1180 002b 1B       		.byte	0x1b
 1181 002c 30000000 		.4byte	0x30
 1182 0030 03       		.uleb128 0x3
 1183 0031 01       		.byte	0x1
 1184 0032 06       		.byte	0x6
 1185 0033 BB010000 		.4byte	.LASF2
 1186 0037 02       		.uleb128 0x2
 1187 0038 58000000 		.4byte	.LASF1
 1188 003c 02       		.byte	0x2
 1189 003d 1D       		.byte	0x1d
 1190 003e 42000000 		.4byte	0x42
 1191 0042 03       		.uleb128 0x3
 1192 0043 01       		.byte	0x1
 1193 0044 08       		.byte	0x8
 1194 0045 EB060000 		.4byte	.LASF3
 1195 0049 02       		.uleb128 0x2
 1196 004a 8A030000 		.4byte	.LASF4
 1197 004e 02       		.byte	0x2
 1198 004f 29       		.byte	0x29
 1199 0050 54000000 		.4byte	0x54
 1200 0054 03       		.uleb128 0x3
 1201 0055 02       		.byte	0x2
 1202 0056 05       		.byte	0x5
 1203 0057 84040000 		.4byte	.LASF5
 1204 005b 02       		.uleb128 0x2
 1205 005c D4070000 		.4byte	.LASF6
 1206 0060 02       		.byte	0x2
 1207 0061 2B       		.byte	0x2b
 1208 0062 66000000 		.4byte	0x66
 1209 0066 03       		.uleb128 0x3
 1210 0067 02       		.byte	0x2
 1211 0068 07       		.byte	0x7
 1212 0069 35040000 		.4byte	.LASF7
 1213 006d 02       		.uleb128 0x2
 1214 006e AB040000 		.4byte	.LASF8
 1215 0072 02       		.byte	0x2
 1216 0073 3F       		.byte	0x3f
 1217 0074 78000000 		.4byte	0x78
 1218 0078 03       		.uleb128 0x3
 1219 0079 04       		.byte	0x4
 1220 007a 05       		.byte	0x5
 1221 007b 66020000 		.4byte	.LASF9
 1222 007f 03       		.uleb128 0x3
 1223 0080 04       		.byte	0x4
 1224 0081 07       		.byte	0x7
 1225 0082 76070000 		.4byte	.LASF10
 1226 0086 03       		.uleb128 0x3
 1227 0087 08       		.byte	0x8
 1228 0088 05       		.byte	0x5
ARM GAS  C:\Users\rens_\AppData\Local\Temp\ccrM3B9b.s 			page 28


 1229 0089 AD010000 		.4byte	.LASF11
 1230 008d 03       		.uleb128 0x3
 1231 008e 08       		.byte	0x8
 1232 008f 07       		.byte	0x7
 1233 0090 3E010000 		.4byte	.LASF12
 1234 0094 04       		.uleb128 0x4
 1235 0095 04       		.byte	0x4
 1236 0096 05       		.byte	0x5
 1237 0097 696E7400 		.ascii	"int\000"
 1238 009b 03       		.uleb128 0x3
 1239 009c 04       		.byte	0x4
 1240 009d 07       		.byte	0x7
 1241 009e AA070000 		.4byte	.LASF13
 1242 00a2 02       		.uleb128 0x2
 1243 00a3 62080000 		.4byte	.LASF14
 1244 00a7 03       		.byte	0x3
 1245 00a8 14       		.byte	0x14
 1246 00a9 25000000 		.4byte	0x25
 1247 00ad 02       		.uleb128 0x2
 1248 00ae 05090000 		.4byte	.LASF15
 1249 00b2 03       		.byte	0x3
 1250 00b3 18       		.byte	0x18
 1251 00b4 37000000 		.4byte	0x37
 1252 00b8 02       		.uleb128 0x2
 1253 00b9 A5010000 		.4byte	.LASF16
 1254 00bd 03       		.byte	0x3
 1255 00be 20       		.byte	0x20
 1256 00bf 49000000 		.4byte	0x49
 1257 00c3 02       		.uleb128 0x2
 1258 00c4 AE020000 		.4byte	.LASF17
 1259 00c8 03       		.byte	0x3
 1260 00c9 24       		.byte	0x24
 1261 00ca 5B000000 		.4byte	0x5b
 1262 00ce 02       		.uleb128 0x2
 1263 00cf E3060000 		.4byte	.LASF18
 1264 00d3 03       		.byte	0x3
 1265 00d4 2C       		.byte	0x2c
 1266 00d5 6D000000 		.4byte	0x6d
 1267 00d9 05       		.uleb128 0x5
 1268 00da 2A040000 		.4byte	.LASF19
 1269 00de 04       		.byte	0x4
 1270 00df 9201     		.2byte	0x192
 1271 00e1 42000000 		.4byte	0x42
 1272 00e5 05       		.uleb128 0x5
 1273 00e6 00000000 		.4byte	.LASF20
 1274 00ea 04       		.byte	0x4
 1275 00eb 9301     		.2byte	0x193
 1276 00ed 66000000 		.4byte	0x66
 1277 00f1 05       		.uleb128 0x5
 1278 00f2 4A030000 		.4byte	.LASF21
 1279 00f6 04       		.byte	0x4
 1280 00f7 9401     		.2byte	0x194
 1281 00f9 7F000000 		.4byte	0x7f
 1282 00fd 03       		.uleb128 0x3
 1283 00fe 04       		.byte	0x4
 1284 00ff 04       		.byte	0x4
 1285 0100 70060000 		.4byte	.LASF22
ARM GAS  C:\Users\rens_\AppData\Local\Temp\ccrM3B9b.s 			page 29


 1286 0104 03       		.uleb128 0x3
 1287 0105 08       		.byte	0x8
 1288 0106 04       		.byte	0x4
 1289 0107 B7020000 		.4byte	.LASF23
 1290 010b 03       		.uleb128 0x3
 1291 010c 01       		.byte	0x1
 1292 010d 08       		.byte	0x8
 1293 010e 88070000 		.4byte	.LASF24
 1294 0112 05       		.uleb128 0x5
 1295 0113 92060000 		.4byte	.LASF25
 1296 0117 04       		.byte	0x4
 1297 0118 3C02     		.2byte	0x23c
 1298 011a 1E010000 		.4byte	0x11e
 1299 011e 06       		.uleb128 0x6
 1300 011f D9000000 		.4byte	0xd9
 1301 0123 03       		.uleb128 0x3
 1302 0124 08       		.byte	0x8
 1303 0125 04       		.byte	0x4
 1304 0126 51050000 		.4byte	.LASF26
 1305 012a 03       		.uleb128 0x3
 1306 012b 04       		.byte	0x4
 1307 012c 07       		.byte	0x7
 1308 012d 48050000 		.4byte	.LASF27
 1309 0131 07       		.uleb128 0x7
 1310 0132 01       		.byte	0x1
 1311 0133 42000000 		.4byte	0x42
 1312 0137 05       		.byte	0x5
 1313 0138 1E       		.byte	0x1e
 1314 0139 DA010000 		.4byte	0x1da
 1315 013d 08       		.uleb128 0x8
 1316 013e 78020000 		.4byte	.LASF28
 1317 0142 00       		.byte	0
 1318 0143 08       		.uleb128 0x8
 1319 0144 3B080000 		.4byte	.LASF29
 1320 0148 01       		.byte	0x1
 1321 0149 08       		.uleb128 0x8
 1322 014a 5D050000 		.4byte	.LASF30
 1323 014e 02       		.byte	0x2
 1324 014f 08       		.uleb128 0x8
 1325 0150 8F020000 		.4byte	.LASF31
 1326 0154 03       		.byte	0x3
 1327 0155 08       		.uleb128 0x8
 1328 0156 FB030000 		.4byte	.LASF32
 1329 015a 04       		.byte	0x4
 1330 015b 08       		.uleb128 0x8
 1331 015c A0020000 		.4byte	.LASF33
 1332 0160 05       		.byte	0x5
 1333 0161 08       		.uleb128 0x8
 1334 0162 19040000 		.4byte	.LASF34
 1335 0166 06       		.byte	0x6
 1336 0167 08       		.uleb128 0x8
 1337 0168 A1030000 		.4byte	.LASF35
 1338 016c 07       		.byte	0x7
 1339 016d 08       		.uleb128 0x8
 1340 016e BC090000 		.4byte	.LASF36
 1341 0172 08       		.byte	0x8
 1342 0173 08       		.uleb128 0x8
ARM GAS  C:\Users\rens_\AppData\Local\Temp\ccrM3B9b.s 			page 30


 1343 0174 33050000 		.4byte	.LASF37
 1344 0178 09       		.byte	0x9
 1345 0179 08       		.uleb128 0x8
 1346 017a 7F060000 		.4byte	.LASF38
 1347 017e 0A       		.byte	0xa
 1348 017f 08       		.uleb128 0x8
 1349 0180 E1030000 		.4byte	.LASF39
 1350 0184 0B       		.byte	0xb
 1351 0185 08       		.uleb128 0x8
 1352 0186 97060000 		.4byte	.LASF40
 1353 018a 0C       		.byte	0xc
 1354 018b 08       		.uleb128 0x8
 1355 018c AA060000 		.4byte	.LASF41
 1356 0190 0D       		.byte	0xd
 1357 0191 08       		.uleb128 0x8
 1358 0192 BD060000 		.4byte	.LASF42
 1359 0196 0E       		.byte	0xe
 1360 0197 08       		.uleb128 0x8
 1361 0198 D0060000 		.4byte	.LASF43
 1362 019c 0F       		.byte	0xf
 1363 019d 08       		.uleb128 0x8
 1364 019e B6080000 		.4byte	.LASF44
 1365 01a2 10       		.byte	0x10
 1366 01a3 08       		.uleb128 0x8
 1367 01a4 51080000 		.4byte	.LASF45
 1368 01a8 11       		.byte	0x11
 1369 01a9 08       		.uleb128 0x8
 1370 01aa FE050000 		.4byte	.LASF46
 1371 01ae 12       		.byte	0x12
 1372 01af 08       		.uleb128 0x8
 1373 01b0 69080000 		.4byte	.LASF47
 1374 01b4 13       		.byte	0x13
 1375 01b5 08       		.uleb128 0x8
 1376 01b6 7A080000 		.4byte	.LASF48
 1377 01ba 14       		.byte	0x14
 1378 01bb 08       		.uleb128 0x8
 1379 01bc 2A060000 		.4byte	.LASF49
 1380 01c0 15       		.byte	0x15
 1381 01c1 08       		.uleb128 0x8
 1382 01c2 A5080000 		.4byte	.LASF50
 1383 01c6 16       		.byte	0x16
 1384 01c7 08       		.uleb128 0x8
 1385 01c8 0F060000 		.4byte	.LASF51
 1386 01cc 17       		.byte	0x17
 1387 01cd 08       		.uleb128 0x8
 1388 01ce 72010000 		.4byte	.LASF52
 1389 01d2 1C       		.byte	0x1c
 1390 01d3 08       		.uleb128 0x8
 1391 01d4 2C000000 		.4byte	.LASF53
 1392 01d8 1D       		.byte	0x1d
 1393 01d9 00       		.byte	0
 1394 01da 07       		.uleb128 0x7
 1395 01db 01       		.byte	0x1
 1396 01dc 42000000 		.4byte	0x42
 1397 01e0 05       		.byte	0x5
 1398 01e1 55       		.byte	0x55
 1399 01e2 0B020000 		.4byte	0x20b
ARM GAS  C:\Users\rens_\AppData\Local\Temp\ccrM3B9b.s 			page 31


 1400 01e6 08       		.uleb128 0x8
 1401 01e7 4B070000 		.4byte	.LASF54
 1402 01eb 0A       		.byte	0xa
 1403 01ec 08       		.uleb128 0x8
 1404 01ed C7010000 		.4byte	.LASF55
 1405 01f1 0B       		.byte	0xb
 1406 01f2 08       		.uleb128 0x8
 1407 01f3 D6010000 		.4byte	.LASF56
 1408 01f7 0C       		.byte	0xc
 1409 01f8 08       		.uleb128 0x8
 1410 01f9 E5010000 		.4byte	.LASF57
 1411 01fd 0D       		.byte	0xd
 1412 01fe 08       		.uleb128 0x8
 1413 01ff F4010000 		.4byte	.LASF58
 1414 0203 0E       		.byte	0xe
 1415 0204 08       		.uleb128 0x8
 1416 0205 03020000 		.4byte	.LASF59
 1417 0209 0F       		.byte	0xf
 1418 020a 00       		.byte	0
 1419 020b 07       		.uleb128 0x7
 1420 020c 01       		.byte	0x1
 1421 020d 42000000 		.4byte	0x42
 1422 0211 05       		.byte	0x5
 1423 0212 6D       		.byte	0x6d
 1424 0213 30020000 		.4byte	0x230
 1425 0217 08       		.uleb128 0x8
 1426 0218 94030000 		.4byte	.LASF60
 1427 021c 00       		.byte	0
 1428 021d 08       		.uleb128 0x8
 1429 021e B7030000 		.4byte	.LASF61
 1430 0222 04       		.byte	0x4
 1431 0223 08       		.uleb128 0x8
 1432 0224 3E020000 		.4byte	.LASF62
 1433 0228 05       		.byte	0x5
 1434 0229 08       		.uleb128 0x8
 1435 022a D8020000 		.4byte	.LASF63
 1436 022e 06       		.byte	0x6
 1437 022f 00       		.byte	0
 1438 0230 02       		.uleb128 0x2
 1439 0231 87020000 		.4byte	.LASF64
 1440 0235 05       		.byte	0x5
 1441 0236 72       		.byte	0x72
 1442 0237 0B020000 		.4byte	0x20b
 1443 023b 07       		.uleb128 0x7
 1444 023c 01       		.byte	0x1
 1445 023d 42000000 		.4byte	0x42
 1446 0241 05       		.byte	0x5
 1447 0242 75       		.byte	0x75
 1448 0243 72020000 		.4byte	0x272
 1449 0247 08       		.uleb128 0x8
 1450 0248 5B010000 		.4byte	.LASF65
 1451 024c 00       		.byte	0
 1452 024d 08       		.uleb128 0x8
 1453 024e 07070000 		.4byte	.LASF66
 1454 0252 01       		.byte	0x1
 1455 0253 08       		.uleb128 0x8
 1456 0254 18000000 		.4byte	.LASF67
ARM GAS  C:\Users\rens_\AppData\Local\Temp\ccrM3B9b.s 			page 32


 1457 0258 02       		.byte	0x2
 1458 0259 08       		.uleb128 0x8
 1459 025a 1D070000 		.4byte	.LASF68
 1460 025e 03       		.byte	0x3
 1461 025f 08       		.uleb128 0x8
 1462 0260 C6030000 		.4byte	.LASF69
 1463 0264 04       		.byte	0x4
 1464 0265 08       		.uleb128 0x8
 1465 0266 8B080000 		.4byte	.LASF70
 1466 026a 05       		.byte	0x5
 1467 026b 08       		.uleb128 0x8
 1468 026c 3B060000 		.4byte	.LASF71
 1469 0270 06       		.byte	0x6
 1470 0271 00       		.byte	0
 1471 0272 07       		.uleb128 0x7
 1472 0273 01       		.byte	0x1
 1473 0274 42000000 		.4byte	0x42
 1474 0278 05       		.byte	0x5
 1475 0279 91       		.byte	0x91
 1476 027a A3020000 		.4byte	0x2a3
 1477 027e 08       		.uleb128 0x8
 1478 027f 7A050000 		.4byte	.LASF72
 1479 0283 00       		.byte	0
 1480 0284 08       		.uleb128 0x8
 1481 0285 90050000 		.4byte	.LASF73
 1482 0289 01       		.byte	0x1
 1483 028a 08       		.uleb128 0x8
 1484 028b A6050000 		.4byte	.LASF74
 1485 028f 02       		.byte	0x2
 1486 0290 08       		.uleb128 0x8
 1487 0291 BC050000 		.4byte	.LASF75
 1488 0295 03       		.byte	0x3
 1489 0296 08       		.uleb128 0x8
 1490 0297 D2050000 		.4byte	.LASF76
 1491 029b 04       		.byte	0x4
 1492 029c 08       		.uleb128 0x8
 1493 029d E8050000 		.4byte	.LASF77
 1494 02a1 05       		.byte	0x5
 1495 02a2 00       		.byte	0
 1496 02a3 07       		.uleb128 0x7
 1497 02a4 01       		.byte	0x1
 1498 02a5 42000000 		.4byte	0x42
 1499 02a9 05       		.byte	0x5
 1500 02aa AA       		.byte	0xaa
 1501 02ab D4020000 		.4byte	0x2d4
 1502 02af 08       		.uleb128 0x8
 1503 02b0 E6020000 		.4byte	.LASF78
 1504 02b4 00       		.byte	0
 1505 02b5 08       		.uleb128 0x8
 1506 02b6 FF020000 		.4byte	.LASF79
 1507 02ba 01       		.byte	0x1
 1508 02bb 08       		.uleb128 0x8
 1509 02bc 18030000 		.4byte	.LASF80
 1510 02c0 02       		.byte	0x2
 1511 02c1 08       		.uleb128 0x8
 1512 02c2 31030000 		.4byte	.LASF81
 1513 02c6 03       		.byte	0x3
ARM GAS  C:\Users\rens_\AppData\Local\Temp\ccrM3B9b.s 			page 33


 1514 02c7 08       		.uleb128 0x8
 1515 02c8 22090000 		.4byte	.LASF82
 1516 02cc 04       		.byte	0x4
 1517 02cd 08       		.uleb128 0x8
 1518 02ce 51030000 		.4byte	.LASF83
 1519 02d2 05       		.byte	0x5
 1520 02d3 00       		.byte	0
 1521 02d4 07       		.uleb128 0x7
 1522 02d5 01       		.byte	0x1
 1523 02d6 42000000 		.4byte	0x42
 1524 02da 05       		.byte	0x5
 1525 02db D1       		.byte	0xd1
 1526 02dc ED020000 		.4byte	0x2ed
 1527 02e0 08       		.uleb128 0x8
 1528 02e1 3B090000 		.4byte	.LASF84
 1529 02e5 00       		.byte	0
 1530 02e6 08       		.uleb128 0x8
 1531 02e7 52090000 		.4byte	.LASF85
 1532 02eb 04       		.byte	0x4
 1533 02ec 00       		.byte	0
 1534 02ed 09       		.uleb128 0x9
 1535 02ee 01       		.byte	0x1
 1536 02ef 42000000 		.4byte	0x42
 1537 02f3 05       		.byte	0x5
 1538 02f4 4A01     		.2byte	0x14a
 1539 02f6 19030000 		.4byte	0x319
 1540 02fa 08       		.uleb128 0x8
 1541 02fb B7070000 		.4byte	.LASF86
 1542 02ff 00       		.byte	0
 1543 0300 08       		.uleb128 0x8
 1544 0301 3C000000 		.4byte	.LASF87
 1545 0305 01       		.byte	0x1
 1546 0306 08       		.uleb128 0x8
 1547 0307 0D050000 		.4byte	.LASF88
 1548 030b 04       		.byte	0x4
 1549 030c 08       		.uleb128 0x8
 1550 030d 08010000 		.4byte	.LASF89
 1551 0311 05       		.byte	0x5
 1552 0312 08       		.uleb128 0x8
 1553 0313 8E040000 		.4byte	.LASF90
 1554 0317 06       		.byte	0x6
 1555 0318 00       		.byte	0
 1556 0319 09       		.uleb128 0x9
 1557 031a 01       		.byte	0x1
 1558 031b 42000000 		.4byte	0x42
 1559 031f 05       		.byte	0x5
 1560 0320 5B01     		.2byte	0x15b
 1561 0322 4B030000 		.4byte	0x34b
 1562 0326 08       		.uleb128 0x8
 1563 0327 69090000 		.4byte	.LASF91
 1564 032b 00       		.byte	0
 1565 032c 08       		.uleb128 0x8
 1566 032d C6080000 		.4byte	.LASF92
 1567 0331 01       		.byte	0x1
 1568 0332 08       		.uleb128 0x8
 1569 0333 DB080000 		.4byte	.LASF93
 1570 0337 02       		.byte	0x2
ARM GAS  C:\Users\rens_\AppData\Local\Temp\ccrM3B9b.s 			page 34


 1571 0338 08       		.uleb128 0x8
 1572 0339 F0080000 		.4byte	.LASF94
 1573 033d 03       		.byte	0x3
 1574 033e 08       		.uleb128 0x8
 1575 033f 7E090000 		.4byte	.LASF95
 1576 0343 04       		.byte	0x4
 1577 0344 08       		.uleb128 0x8
 1578 0345 0D090000 		.4byte	.LASF96
 1579 0349 05       		.byte	0x5
 1580 034a 00       		.byte	0
 1581 034b 09       		.uleb128 0x9
 1582 034c 01       		.byte	0x1
 1583 034d 42000000 		.4byte	0x42
 1584 0351 05       		.byte	0x5
 1585 0352 7401     		.2byte	0x174
 1586 0354 6B030000 		.4byte	0x36b
 1587 0358 08       		.uleb128 0x8
 1588 0359 93090000 		.4byte	.LASF97
 1589 035d 00       		.byte	0
 1590 035e 08       		.uleb128 0x8
 1591 035f DF070000 		.4byte	.LASF98
 1592 0363 01       		.byte	0x1
 1593 0364 08       		.uleb128 0x8
 1594 0365 8D070000 		.4byte	.LASF99
 1595 0369 02       		.byte	0x2
 1596 036a 00       		.byte	0
 1597 036b 0A       		.uleb128 0xa
 1598 036c 2C010000 		.4byte	.LASF100
 1599 0370 01       		.byte	0x1
 1600 0371 41       		.byte	0x41
 1601 0372 00000000 		.4byte	.LFB64
 1602 0376 18000000 		.4byte	.LFE64-.LFB64
 1603 037a 01       		.uleb128 0x1
 1604 037b 9C       		.byte	0x9c
 1605 037c 0A       		.uleb128 0xa
 1606 037d BE020000 		.4byte	.LASF101
 1607 0381 01       		.byte	0x1
 1608 0382 47       		.byte	0x47
 1609 0383 00000000 		.4byte	.LFB65
 1610 0387 18000000 		.4byte	.LFE65-.LFB65
 1611 038b 01       		.uleb128 0x1
 1612 038c 9C       		.byte	0x9c
 1613 038d 0B       		.uleb128 0xb
 1614 038e 48040000 		.4byte	.LASF150
 1615 0392 01       		.byte	0x1
 1616 0393 50       		.byte	0x50
 1617 0394 00000000 		.4byte	.LFB66
 1618 0398 3C000000 		.4byte	.LFE66-.LFB66
 1619 039c 01       		.uleb128 0x1
 1620 039d 9C       		.byte	0x9c
 1621 039e B1030000 		.4byte	0x3b1
 1622 03a2 0C       		.uleb128 0xc
 1623 03a3 5A070000 		.4byte	.LASF102
 1624 03a7 01       		.byte	0x1
 1625 03a8 58       		.byte	0x58
 1626 03a9 30020000 		.4byte	0x230
 1627 03ad 02       		.uleb128 0x2
ARM GAS  C:\Users\rens_\AppData\Local\Temp\ccrM3B9b.s 			page 35


 1628 03ae 91       		.byte	0x91
 1629 03af 77       		.sleb128 -9
 1630 03b0 00       		.byte	0
 1631 03b1 0D       		.uleb128 0xd
 1632 03b2 AE090000 		.4byte	.LASF151
 1633 03b6 01       		.byte	0x1
 1634 03b7 62       		.byte	0x62
 1635 03b8 94000000 		.4byte	0x94
 1636 03bc 00000000 		.4byte	.LFB67
 1637 03c0 D0070000 		.4byte	.LFE67-.LFB67
 1638 03c4 01       		.uleb128 0x1
 1639 03c5 9C       		.byte	0x9c
 1640 03c6 9D050000 		.4byte	0x59d
 1641 03ca 0C       		.uleb128 0xc
 1642 03cb 24010000 		.4byte	.LASF103
 1643 03cf 01       		.byte	0x1
 1644 03d0 9E       		.byte	0x9e
 1645 03d1 B2050000 		.4byte	0x5b2
 1646 03d5 03       		.uleb128 0x3
 1647 03d6 91       		.byte	0x91
 1648 03d7 847F     		.sleb128 -124
 1649 03d9 0C       		.uleb128 0xc
 1650 03da 3F050000 		.4byte	.LASF104
 1651 03de 01       		.byte	0x1
 1652 03df A7       		.byte	0xa7
 1653 03e0 B8000000 		.4byte	0xb8
 1654 03e4 03       		.uleb128 0x3
 1655 03e5 91       		.byte	0x91
 1656 03e6 BE7F     		.sleb128 -66
 1657 03e8 0C       		.uleb128 0xc
 1658 03e9 96010000 		.4byte	.LASF105
 1659 03ed 01       		.byte	0x1
 1660 03ee A8       		.byte	0xa8
 1661 03ef B7050000 		.4byte	0x5b7
 1662 03f3 03       		.uleb128 0x3
 1663 03f4 91       		.byte	0x91
 1664 03f5 BC7F     		.sleb128 -68
 1665 03f7 0C       		.uleb128 0xc
 1666 03f8 D0020000 		.4byte	.LASF106
 1667 03fc 01       		.byte	0x1
 1668 03fd A9       		.byte	0xa9
 1669 03fe BC050000 		.4byte	0x5bc
 1670 0402 03       		.uleb128 0x3
 1671 0403 91       		.byte	0x91
 1672 0404 B87F     		.sleb128 -72
 1673 0406 0C       		.uleb128 0xc
 1674 0407 56020000 		.4byte	.LASF107
 1675 040b 01       		.byte	0x1
 1676 040c AA       		.byte	0xaa
 1677 040d CE000000 		.4byte	0xce
 1678 0411 02       		.uleb128 0x2
 1679 0412 91       		.byte	0x91
 1680 0413 64       		.sleb128 -28
 1681 0414 0C       		.uleb128 0xc
 1682 0415 23060000 		.4byte	.LASF108
 1683 0419 01       		.byte	0x1
 1684 041a AD       		.byte	0xad
ARM GAS  C:\Users\rens_\AppData\Local\Temp\ccrM3B9b.s 			page 36


 1685 041b FD000000 		.4byte	0xfd
 1686 041f 03       		.uleb128 0x3
 1687 0420 91       		.byte	0x91
 1688 0421 B47F     		.sleb128 -76
 1689 0423 0C       		.uleb128 0xc
 1690 0424 6F070000 		.4byte	.LASF109
 1691 0428 01       		.byte	0x1
 1692 0429 AE       		.byte	0xae
 1693 042a FD000000 		.4byte	0xfd
 1694 042e 03       		.uleb128 0x3
 1695 042f 91       		.byte	0x91
 1696 0430 B07F     		.sleb128 -80
 1697 0432 0C       		.uleb128 0xc
 1698 0433 27020000 		.4byte	.LASF110
 1699 0437 01       		.byte	0x1
 1700 0438 AF       		.byte	0xaf
 1701 0439 FD000000 		.4byte	0xfd
 1702 043d 03       		.uleb128 0x3
 1703 043e 91       		.byte	0x91
 1704 043f AC7F     		.sleb128 -84
 1705 0441 0C       		.uleb128 0xc
 1706 0442 3E070000 		.4byte	.LASF111
 1707 0446 01       		.byte	0x1
 1708 0447 B2       		.byte	0xb2
 1709 0448 B8000000 		.4byte	0xb8
 1710 044c 03       		.uleb128 0x3
 1711 044d 91       		.byte	0x91
 1712 044e AA7F     		.sleb128 -86
 1713 0450 0C       		.uleb128 0xc
 1714 0451 49080000 		.4byte	.LASF112
 1715 0455 01       		.byte	0x1
 1716 0456 B3       		.byte	0xb3
 1717 0457 C1050000 		.4byte	0x5c1
 1718 045b 03       		.uleb128 0x3
 1719 045c 91       		.byte	0x91
 1720 045d A87F     		.sleb128 -88
 1721 045f 0C       		.uleb128 0xc
 1722 0460 B0030000 		.4byte	.LASF113
 1723 0464 01       		.byte	0x1
 1724 0465 B4       		.byte	0xb4
 1725 0466 C1050000 		.4byte	0x5c1
 1726 046a 03       		.uleb128 0x3
 1727 046b 91       		.byte	0x91
 1728 046c A67F     		.sleb128 -90
 1729 046e 0C       		.uleb128 0xc
 1730 046f B3090000 		.4byte	.LASF114
 1731 0473 01       		.byte	0x1
 1732 0474 B5       		.byte	0xb5
 1733 0475 C1050000 		.4byte	0x5c1
 1734 0479 03       		.uleb128 0x3
 1735 047a 91       		.byte	0x91
 1736 047b A47F     		.sleb128 -92
 1737 047d 0C       		.uleb128 0xc
 1738 047e 4C020000 		.4byte	.LASF115
 1739 0482 01       		.byte	0x1
 1740 0483 B6       		.byte	0xb6
 1741 0484 AD050000 		.4byte	0x5ad
ARM GAS  C:\Users\rens_\AppData\Local\Temp\ccrM3B9b.s 			page 37


 1742 0488 03       		.uleb128 0x3
 1743 0489 91       		.byte	0x91
 1744 048a A37F     		.sleb128 -93
 1745 048c 0C       		.uleb128 0xc
 1746 048d F0000000 		.4byte	.LASF116
 1747 0491 01       		.byte	0x1
 1748 0492 B7       		.byte	0xb7
 1749 0493 FD000000 		.4byte	0xfd
 1750 0497 02       		.uleb128 0x2
 1751 0498 91       		.byte	0x91
 1752 0499 60       		.sleb128 -32
 1753 049a 0C       		.uleb128 0xc
 1754 049b 07000000 		.4byte	.LASF117
 1755 049f 01       		.byte	0x1
 1756 04a0 B8       		.byte	0xb8
 1757 04a1 FD000000 		.4byte	0xfd
 1758 04a5 02       		.uleb128 0x2
 1759 04a6 91       		.byte	0x91
 1760 04a7 5C       		.sleb128 -36
 1761 04a8 0C       		.uleb128 0xc
 1762 04a9 FC000000 		.4byte	.LASF118
 1763 04ad 01       		.byte	0x1
 1764 04ae B9       		.byte	0xb9
 1765 04af FD000000 		.4byte	0xfd
 1766 04b3 03       		.uleb128 0x3
 1767 04b4 91       		.byte	0x91
 1768 04b5 9C7F     		.sleb128 -100
 1769 04b7 0C       		.uleb128 0xc
 1770 04b8 F9060000 		.4byte	.LASF119
 1771 04bc 01       		.byte	0x1
 1772 04bd BA       		.byte	0xba
 1773 04be AD000000 		.4byte	0xad
 1774 04c2 03       		.uleb128 0x3
 1775 04c3 91       		.byte	0x91
 1776 04c4 9B7F     		.sleb128 -101
 1777 04c6 0C       		.uleb128 0xc
 1778 04c7 5F070000 		.4byte	.LASF120
 1779 04cb 01       		.byte	0x1
 1780 04cc BB       		.byte	0xbb
 1781 04cd C6050000 		.4byte	0x5c6
 1782 04d1 03       		.uleb128 0x3
 1783 04d2 91       		.byte	0x91
 1784 04d3 FC7E     		.sleb128 -132
 1785 04d5 0C       		.uleb128 0xc
 1786 04d6 12020000 		.4byte	.LASF121
 1787 04da 01       		.byte	0x1
 1788 04db BC       		.byte	0xbc
 1789 04dc A2000000 		.4byte	0xa2
 1790 04e0 02       		.uleb128 0x2
 1791 04e1 91       		.byte	0x91
 1792 04e2 5B       		.sleb128 -37
 1793 04e3 0C       		.uleb128 0xc
 1794 04e4 73040000 		.4byte	.LASF122
 1795 04e8 01       		.byte	0x1
 1796 04e9 BD       		.byte	0xbd
 1797 04ea B8000000 		.4byte	0xb8
 1798 04ee 03       		.uleb128 0x3
ARM GAS  C:\Users\rens_\AppData\Local\Temp\ccrM3B9b.s 			page 38


 1799 04ef 91       		.byte	0x91
 1800 04f0 987F     		.sleb128 -104
 1801 04f2 0C       		.uleb128 0xc
 1802 04f3 00050000 		.4byte	.LASF123
 1803 04f7 01       		.byte	0x1
 1804 04f8 BF       		.byte	0xbf
 1805 04f9 94000000 		.4byte	0x94
 1806 04fd 03       		.uleb128 0x3
 1807 04fe 91       		.byte	0x91
 1808 04ff 947F     		.sleb128 -108
 1809 0501 0C       		.uleb128 0xc
 1810 0502 7A030000 		.4byte	.LASF124
 1811 0506 01       		.byte	0x1
 1812 0507 C1       		.byte	0xc1
 1813 0508 FD000000 		.4byte	0xfd
 1814 050c 03       		.uleb128 0x3
 1815 050d 91       		.byte	0x91
 1816 050e 907F     		.sleb128 -112
 1817 0510 0C       		.uleb128 0xc
 1818 0511 6A030000 		.4byte	.LASF125
 1819 0515 01       		.byte	0x1
 1820 0516 C2       		.byte	0xc2
 1821 0517 FD000000 		.4byte	0xfd
 1822 051b 02       		.uleb128 0x2
 1823 051c 91       		.byte	0x91
 1824 051d 54       		.sleb128 -44
 1825 051e 0C       		.uleb128 0xc
 1826 051f 33070000 		.4byte	.LASF126
 1827 0523 01       		.byte	0x1
 1828 0524 C4       		.byte	0xc4
 1829 0525 FD000000 		.4byte	0xfd
 1830 0529 03       		.uleb128 0x3
 1831 052a 91       		.byte	0x91
 1832 052b 8C7F     		.sleb128 -116
 1833 052d 0C       		.uleb128 0xc
 1834 052e 6F020000 		.4byte	.LASF127
 1835 0532 01       		.byte	0x1
 1836 0533 C5       		.byte	0xc5
 1837 0534 FD000000 		.4byte	0xfd
 1838 0538 02       		.uleb128 0x2
 1839 0539 91       		.byte	0x91
 1840 053a 50       		.sleb128 -48
 1841 053b 0E       		.uleb128 0xe
 1842 053c CA020000 		.4byte	.LBB2
 1843 0540 CC040000 		.4byte	.LBE2-.LBB2
 1844 0544 0F       		.uleb128 0xf
 1845 0545 6100     		.ascii	"a\000"
 1846 0547 01       		.byte	0x1
 1847 0548 D0       		.byte	0xd0
 1848 0549 C3000000 		.4byte	0xc3
 1849 054d 02       		.uleb128 0x2
 1850 054e 91       		.byte	0x91
 1851 054f 4E       		.sleb128 -50
 1852 0550 0F       		.uleb128 0xf
 1853 0551 6200     		.ascii	"b\000"
 1854 0553 01       		.byte	0x1
 1855 0554 D0       		.byte	0xd0
ARM GAS  C:\Users\rens_\AppData\Local\Temp\ccrM3B9b.s 			page 39


 1856 0555 C3000000 		.4byte	0xc3
 1857 0559 02       		.uleb128 0x2
 1858 055a 91       		.byte	0x91
 1859 055b 4C       		.sleb128 -52
 1860 055c 0F       		.uleb128 0xf
 1861 055d 616900   		.ascii	"ai\000"
 1862 0560 01       		.byte	0x1
 1863 0561 D1       		.byte	0xd1
 1864 0562 C3000000 		.4byte	0xc3
 1865 0566 02       		.uleb128 0x2
 1866 0567 91       		.byte	0x91
 1867 0568 4A       		.sleb128 -54
 1868 0569 0F       		.uleb128 0xf
 1869 056a 626900   		.ascii	"bi\000"
 1870 056d 01       		.byte	0x1
 1871 056e D1       		.byte	0xd1
 1872 056f C3000000 		.4byte	0xc3
 1873 0573 02       		.uleb128 0x2
 1874 0574 91       		.byte	0x91
 1875 0575 48       		.sleb128 -56
 1876 0576 10       		.uleb128 0x10
 1877 0577 05080000 		.4byte	.LASF128
 1878 057b 01       		.byte	0x1
 1879 057c 0A01     		.2byte	0x10a
 1880 057e FD000000 		.4byte	0xfd
 1881 0582 02       		.uleb128 0x2
 1882 0583 91       		.byte	0x91
 1883 0584 40       		.sleb128 -64
 1884 0585 0E       		.uleb128 0xe
 1885 0586 EA020000 		.4byte	.LBB3
 1886 058a C0000000 		.4byte	.LBE3-.LBB3
 1887 058e 0F       		.uleb128 0xf
 1888 058f 6900     		.ascii	"i\000"
 1889 0591 01       		.byte	0x1
 1890 0592 D4       		.byte	0xd4
 1891 0593 C3000000 		.4byte	0xc3
 1892 0597 02       		.uleb128 0x2
 1893 0598 91       		.byte	0x91
 1894 0599 46       		.sleb128 -58
 1895 059a 00       		.byte	0
 1896 059b 00       		.byte	0
 1897 059c 00       		.byte	0
 1898 059d 11       		.uleb128 0x11
 1899 059e AD050000 		.4byte	0x5ad
 1900 05a2 AD050000 		.4byte	0x5ad
 1901 05a6 12       		.uleb128 0x12
 1902 05a7 2A010000 		.4byte	0x12a
 1903 05ab 04       		.byte	0x4
 1904 05ac 00       		.byte	0
 1905 05ad 13       		.uleb128 0x13
 1906 05ae AD000000 		.4byte	0xad
 1907 05b2 13       		.uleb128 0x13
 1908 05b3 9D050000 		.4byte	0x59d
 1909 05b7 13       		.uleb128 0x13
 1910 05b8 B8000000 		.4byte	0xb8
 1911 05bc 13       		.uleb128 0x13
 1912 05bd FD000000 		.4byte	0xfd
ARM GAS  C:\Users\rens_\AppData\Local\Temp\ccrM3B9b.s 			page 40


 1913 05c1 13       		.uleb128 0x13
 1914 05c2 C3000000 		.4byte	0xc3
 1915 05c6 11       		.uleb128 0x11
 1916 05c7 B8000000 		.4byte	0xb8
 1917 05cb D6050000 		.4byte	0x5d6
 1918 05cf 12       		.uleb128 0x12
 1919 05d0 2A010000 		.4byte	0x12a
 1920 05d4 03       		.byte	0x3
 1921 05d5 00       		.byte	0
 1922 05d6 14       		.uleb128 0x14
 1923 05d7 89010000 		.4byte	.LASF129
 1924 05db 06       		.byte	0x6
 1925 05dc 1207     		.2byte	0x712
 1926 05de E2050000 		.4byte	0x5e2
 1927 05e2 06       		.uleb128 0x6
 1928 05e3 CE000000 		.4byte	0xce
 1929 05e7 15       		.uleb128 0x15
 1930 05e8 30040000 		.4byte	.LASF130
 1931 05ec 01       		.byte	0x1
 1932 05ed 07       		.byte	0x7
 1933 05ee 42000000 		.4byte	0x42
 1934 05f2 05       		.uleb128 0x5
 1935 05f3 03       		.byte	0x3
 1936 05f4 00000000 		.4byte	data
 1937 05f8 11       		.uleb128 0x11
 1938 05f9 C3000000 		.4byte	0xc3
 1939 05fd 09060000 		.4byte	0x609
 1940 0601 16       		.uleb128 0x16
 1941 0602 2A010000 		.4byte	0x12a
 1942 0606 DB05     		.2byte	0x5db
 1943 0608 00       		.byte	0
 1944 0609 15       		.uleb128 0x15
 1945 060a A4070000 		.4byte	.LASF131
 1946 060e 01       		.byte	0x1
 1947 060f 0F       		.byte	0xf
 1948 0610 F8050000 		.4byte	0x5f8
 1949 0614 05       		.uleb128 0x5
 1950 0615 03       		.byte	0x3
 1951 0616 00000000 		.4byte	DataA
 1952 061a 15       		.uleb128 0x15
 1953 061b 5B040000 		.4byte	.LASF132
 1954 061f 01       		.byte	0x1
 1955 0620 10       		.byte	0x10
 1956 0621 F8050000 		.4byte	0x5f8
 1957 0625 05       		.uleb128 0x5
 1958 0626 03       		.byte	0x3
 1959 0627 00000000 		.4byte	DataB
 1960 062b 15       		.uleb128 0x15
 1961 062c 0E040000 		.4byte	.LASF133
 1962 0630 01       		.byte	0x1
 1963 0631 19       		.byte	0x19
 1964 0632 D9000000 		.4byte	0xd9
 1965 0636 05       		.uleb128 0x5
 1966 0637 03       		.byte	0x3
 1967 0638 00000000 		.4byte	DMA_A_Chan
 1968 063c 11       		.uleb128 0x11
 1969 063d D9000000 		.4byte	0xd9
ARM GAS  C:\Users\rens_\AppData\Local\Temp\ccrM3B9b.s 			page 41


 1970 0641 4C060000 		.4byte	0x64c
 1971 0645 12       		.uleb128 0x12
 1972 0646 2A010000 		.4byte	0x12a
 1973 064a 00       		.byte	0
 1974 064b 00       		.byte	0
 1975 064c 15       		.uleb128 0x15
 1976 064d 67060000 		.4byte	.LASF134
 1977 0651 01       		.byte	0x1
 1978 0652 1A       		.byte	0x1a
 1979 0653 3C060000 		.4byte	0x63c
 1980 0657 05       		.uleb128 0x5
 1981 0658 03       		.byte	0x3
 1982 0659 00000000 		.4byte	DMA_A_TD
 1983 065d 15       		.uleb128 0x15
 1984 065e FA070000 		.4byte	.LASF135
 1985 0662 01       		.byte	0x1
 1986 0663 23       		.byte	0x23
 1987 0664 D9000000 		.4byte	0xd9
 1988 0668 05       		.uleb128 0x5
 1989 0669 03       		.byte	0x3
 1990 066a 00000000 		.4byte	DMA_B_Chan
 1991 066e 15       		.uleb128 0x15
 1992 066f 2A050000 		.4byte	.LASF136
 1993 0673 01       		.byte	0x1
 1994 0674 24       		.byte	0x24
 1995 0675 3C060000 		.4byte	0x63c
 1996 0679 05       		.uleb128 0x5
 1997 067a 03       		.byte	0x3
 1998 067b 00000000 		.4byte	DMA_B_TD
 1999 067f 15       		.uleb128 0x15
 2000 0680 61040000 		.4byte	.LASF137
 2001 0684 01       		.byte	0x1
 2002 0685 2C       		.byte	0x2c
 2003 0686 D9000000 		.4byte	0xd9
 2004 068a 05       		.uleb128 0x5
 2005 068b 03       		.byte	0x3
 2006 068c 00000000 		.4byte	DMA_A_Filter_Chan
 2007 0690 15       		.uleb128 0x15
 2008 0691 22080000 		.4byte	.LASF138
 2009 0695 01       		.byte	0x1
 2010 0696 2D       		.byte	0x2d
 2011 0697 3C060000 		.4byte	0x63c
 2012 069b 05       		.uleb128 0x5
 2013 069c 03       		.byte	0x3
 2014 069d 00000000 		.4byte	DMA_A_Filter_TD
 2015 06a1 15       		.uleb128 0x15
 2016 06a2 55060000 		.4byte	.LASF139
 2017 06a6 01       		.byte	0x1
 2018 06a7 35       		.byte	0x35
 2019 06a8 D9000000 		.4byte	0xd9
 2020 06ac 05       		.uleb128 0x5
 2021 06ad 03       		.byte	0x3
 2022 06ae 00000000 		.4byte	DMA_B_Filter_Chan
 2023 06b2 15       		.uleb128 0x15
 2024 06b3 2E020000 		.4byte	.LASF140
 2025 06b7 01       		.byte	0x1
 2026 06b8 36       		.byte	0x36
ARM GAS  C:\Users\rens_\AppData\Local\Temp\ccrM3B9b.s 			page 42


 2027 06b9 3C060000 		.4byte	0x63c
 2028 06bd 05       		.uleb128 0x5
 2029 06be 03       		.byte	0x3
 2030 06bf 00000000 		.4byte	DMA_B_Filter_TD
 2031 06c3 15       		.uleb128 0x15
 2032 06c4 6F050000 		.4byte	.LASF141
 2033 06c8 01       		.byte	0x1
 2034 06c9 38       		.byte	0x38
 2035 06ca AD000000 		.4byte	0xad
 2036 06ce 05       		.uleb128 0x5
 2037 06cf 03       		.byte	0x3
 2038 06d0 00000000 		.4byte	ISR_A_done
 2039 06d4 15       		.uleb128 0x15
 2040 06d5 17080000 		.4byte	.LASF142
 2041 06d9 01       		.byte	0x1
 2042 06da 39       		.byte	0x39
 2043 06db AD000000 		.4byte	0xad
 2044 06df 05       		.uleb128 0x5
 2045 06e0 03       		.byte	0x3
 2046 06e1 00000000 		.4byte	ISR_B_done
 2047 06e5 15       		.uleb128 0x15
 2048 06e6 55010000 		.4byte	.LASF143
 2049 06ea 01       		.byte	0x1
 2050 06eb 3B       		.byte	0x3b
 2051 06ec FD000000 		.4byte	0xfd
 2052 06f0 05       		.uleb128 0x5
 2053 06f1 03       		.byte	0x3
 2054 06f2 00000000 		.4byte	angle
 2055 06f6 15       		.uleb128 0x15
 2056 06f7 32080000 		.4byte	.LASF144
 2057 06fb 01       		.byte	0x1
 2058 06fc 3C       		.byte	0x3c
 2059 06fd B8000000 		.4byte	0xb8
 2060 0701 05       		.uleb128 0x5
 2061 0702 03       		.byte	0x3
 2062 0703 00000000 		.4byte	distance
 2063 0707 15       		.uleb128 0x15
 2064 0708 76060000 		.4byte	.LASF145
 2065 070c 01       		.byte	0x1
 2066 070d 3D       		.byte	0x3d
 2067 070e AD000000 		.4byte	0xad
 2068 0712 05       		.uleb128 0x5
 2069 0713 03       		.byte	0x3
 2070 0714 00000000 		.4byte	velocity
 2071 0718 11       		.uleb128 0x11
 2072 0719 0B010000 		.4byte	0x10b
 2073 071d 28070000 		.4byte	0x728
 2074 0721 12       		.uleb128 0x12
 2075 0722 2A010000 		.4byte	0x12a
 2076 0726 C7       		.byte	0xc7
 2077 0727 00       		.byte	0
 2078 0728 15       		.uleb128 0x15
 2079 0729 F4030000 		.4byte	.LASF146
 2080 072d 01       		.byte	0x1
 2081 072e 3F       		.byte	0x3f
 2082 072f 18070000 		.4byte	0x718
 2083 0733 05       		.uleb128 0x5
ARM GAS  C:\Users\rens_\AppData\Local\Temp\ccrM3B9b.s 			page 43


 2084 0734 03       		.byte	0x3
 2085 0735 00000000 		.4byte	output
 2086 0739 17       		.uleb128 0x17
 2087 073a 72656300 		.ascii	"rec\000"
 2088 073e 01       		.byte	0x1
 2089 073f 4D       		.byte	0x4d
 2090 0740 94000000 		.4byte	0x94
 2091 0744 05       		.uleb128 0x5
 2092 0745 03       		.byte	0x3
 2093 0746 00000000 		.4byte	rec
 2094 074a 00       		.byte	0
 2095              		.section	.debug_abbrev,"",%progbits
 2096              	.Ldebug_abbrev0:
 2097 0000 01       		.uleb128 0x1
 2098 0001 11       		.uleb128 0x11
 2099 0002 01       		.byte	0x1
 2100 0003 25       		.uleb128 0x25
 2101 0004 0E       		.uleb128 0xe
 2102 0005 13       		.uleb128 0x13
 2103 0006 0B       		.uleb128 0xb
 2104 0007 03       		.uleb128 0x3
 2105 0008 0E       		.uleb128 0xe
 2106 0009 1B       		.uleb128 0x1b
 2107 000a 0E       		.uleb128 0xe
 2108 000b 55       		.uleb128 0x55
 2109 000c 17       		.uleb128 0x17
 2110 000d 11       		.uleb128 0x11
 2111 000e 01       		.uleb128 0x1
 2112 000f 10       		.uleb128 0x10
 2113 0010 17       		.uleb128 0x17
 2114 0011 00       		.byte	0
 2115 0012 00       		.byte	0
 2116 0013 02       		.uleb128 0x2
 2117 0014 16       		.uleb128 0x16
 2118 0015 00       		.byte	0
 2119 0016 03       		.uleb128 0x3
 2120 0017 0E       		.uleb128 0xe
 2121 0018 3A       		.uleb128 0x3a
 2122 0019 0B       		.uleb128 0xb
 2123 001a 3B       		.uleb128 0x3b
 2124 001b 0B       		.uleb128 0xb
 2125 001c 49       		.uleb128 0x49
 2126 001d 13       		.uleb128 0x13
 2127 001e 00       		.byte	0
 2128 001f 00       		.byte	0
 2129 0020 03       		.uleb128 0x3
 2130 0021 24       		.uleb128 0x24
 2131 0022 00       		.byte	0
 2132 0023 0B       		.uleb128 0xb
 2133 0024 0B       		.uleb128 0xb
 2134 0025 3E       		.uleb128 0x3e
 2135 0026 0B       		.uleb128 0xb
 2136 0027 03       		.uleb128 0x3
 2137 0028 0E       		.uleb128 0xe
 2138 0029 00       		.byte	0
 2139 002a 00       		.byte	0
 2140 002b 04       		.uleb128 0x4
ARM GAS  C:\Users\rens_\AppData\Local\Temp\ccrM3B9b.s 			page 44


 2141 002c 24       		.uleb128 0x24
 2142 002d 00       		.byte	0
 2143 002e 0B       		.uleb128 0xb
 2144 002f 0B       		.uleb128 0xb
 2145 0030 3E       		.uleb128 0x3e
 2146 0031 0B       		.uleb128 0xb
 2147 0032 03       		.uleb128 0x3
 2148 0033 08       		.uleb128 0x8
 2149 0034 00       		.byte	0
 2150 0035 00       		.byte	0
 2151 0036 05       		.uleb128 0x5
 2152 0037 16       		.uleb128 0x16
 2153 0038 00       		.byte	0
 2154 0039 03       		.uleb128 0x3
 2155 003a 0E       		.uleb128 0xe
 2156 003b 3A       		.uleb128 0x3a
 2157 003c 0B       		.uleb128 0xb
 2158 003d 3B       		.uleb128 0x3b
 2159 003e 05       		.uleb128 0x5
 2160 003f 49       		.uleb128 0x49
 2161 0040 13       		.uleb128 0x13
 2162 0041 00       		.byte	0
 2163 0042 00       		.byte	0
 2164 0043 06       		.uleb128 0x6
 2165 0044 35       		.uleb128 0x35
 2166 0045 00       		.byte	0
 2167 0046 49       		.uleb128 0x49
 2168 0047 13       		.uleb128 0x13
 2169 0048 00       		.byte	0
 2170 0049 00       		.byte	0
 2171 004a 07       		.uleb128 0x7
 2172 004b 04       		.uleb128 0x4
 2173 004c 01       		.byte	0x1
 2174 004d 0B       		.uleb128 0xb
 2175 004e 0B       		.uleb128 0xb
 2176 004f 49       		.uleb128 0x49
 2177 0050 13       		.uleb128 0x13
 2178 0051 3A       		.uleb128 0x3a
 2179 0052 0B       		.uleb128 0xb
 2180 0053 3B       		.uleb128 0x3b
 2181 0054 0B       		.uleb128 0xb
 2182 0055 01       		.uleb128 0x1
 2183 0056 13       		.uleb128 0x13
 2184 0057 00       		.byte	0
 2185 0058 00       		.byte	0
 2186 0059 08       		.uleb128 0x8
 2187 005a 28       		.uleb128 0x28
 2188 005b 00       		.byte	0
 2189 005c 03       		.uleb128 0x3
 2190 005d 0E       		.uleb128 0xe
 2191 005e 1C       		.uleb128 0x1c
 2192 005f 0B       		.uleb128 0xb
 2193 0060 00       		.byte	0
 2194 0061 00       		.byte	0
 2195 0062 09       		.uleb128 0x9
 2196 0063 04       		.uleb128 0x4
 2197 0064 01       		.byte	0x1
ARM GAS  C:\Users\rens_\AppData\Local\Temp\ccrM3B9b.s 			page 45


 2198 0065 0B       		.uleb128 0xb
 2199 0066 0B       		.uleb128 0xb
 2200 0067 49       		.uleb128 0x49
 2201 0068 13       		.uleb128 0x13
 2202 0069 3A       		.uleb128 0x3a
 2203 006a 0B       		.uleb128 0xb
 2204 006b 3B       		.uleb128 0x3b
 2205 006c 05       		.uleb128 0x5
 2206 006d 01       		.uleb128 0x1
 2207 006e 13       		.uleb128 0x13
 2208 006f 00       		.byte	0
 2209 0070 00       		.byte	0
 2210 0071 0A       		.uleb128 0xa
 2211 0072 2E       		.uleb128 0x2e
 2212 0073 00       		.byte	0
 2213 0074 3F       		.uleb128 0x3f
 2214 0075 19       		.uleb128 0x19
 2215 0076 03       		.uleb128 0x3
 2216 0077 0E       		.uleb128 0xe
 2217 0078 3A       		.uleb128 0x3a
 2218 0079 0B       		.uleb128 0xb
 2219 007a 3B       		.uleb128 0x3b
 2220 007b 0B       		.uleb128 0xb
 2221 007c 27       		.uleb128 0x27
 2222 007d 19       		.uleb128 0x19
 2223 007e 11       		.uleb128 0x11
 2224 007f 01       		.uleb128 0x1
 2225 0080 12       		.uleb128 0x12
 2226 0081 06       		.uleb128 0x6
 2227 0082 40       		.uleb128 0x40
 2228 0083 18       		.uleb128 0x18
 2229 0084 9642     		.uleb128 0x2116
 2230 0086 19       		.uleb128 0x19
 2231 0087 00       		.byte	0
 2232 0088 00       		.byte	0
 2233 0089 0B       		.uleb128 0xb
 2234 008a 2E       		.uleb128 0x2e
 2235 008b 01       		.byte	0x1
 2236 008c 3F       		.uleb128 0x3f
 2237 008d 19       		.uleb128 0x19
 2238 008e 03       		.uleb128 0x3
 2239 008f 0E       		.uleb128 0xe
 2240 0090 3A       		.uleb128 0x3a
 2241 0091 0B       		.uleb128 0xb
 2242 0092 3B       		.uleb128 0x3b
 2243 0093 0B       		.uleb128 0xb
 2244 0094 27       		.uleb128 0x27
 2245 0095 19       		.uleb128 0x19
 2246 0096 11       		.uleb128 0x11
 2247 0097 01       		.uleb128 0x1
 2248 0098 12       		.uleb128 0x12
 2249 0099 06       		.uleb128 0x6
 2250 009a 40       		.uleb128 0x40
 2251 009b 18       		.uleb128 0x18
 2252 009c 9642     		.uleb128 0x2116
 2253 009e 19       		.uleb128 0x19
 2254 009f 01       		.uleb128 0x1
ARM GAS  C:\Users\rens_\AppData\Local\Temp\ccrM3B9b.s 			page 46


 2255 00a0 13       		.uleb128 0x13
 2256 00a1 00       		.byte	0
 2257 00a2 00       		.byte	0
 2258 00a3 0C       		.uleb128 0xc
 2259 00a4 34       		.uleb128 0x34
 2260 00a5 00       		.byte	0
 2261 00a6 03       		.uleb128 0x3
 2262 00a7 0E       		.uleb128 0xe
 2263 00a8 3A       		.uleb128 0x3a
 2264 00a9 0B       		.uleb128 0xb
 2265 00aa 3B       		.uleb128 0x3b
 2266 00ab 0B       		.uleb128 0xb
 2267 00ac 49       		.uleb128 0x49
 2268 00ad 13       		.uleb128 0x13
 2269 00ae 02       		.uleb128 0x2
 2270 00af 18       		.uleb128 0x18
 2271 00b0 00       		.byte	0
 2272 00b1 00       		.byte	0
 2273 00b2 0D       		.uleb128 0xd
 2274 00b3 2E       		.uleb128 0x2e
 2275 00b4 01       		.byte	0x1
 2276 00b5 3F       		.uleb128 0x3f
 2277 00b6 19       		.uleb128 0x19
 2278 00b7 03       		.uleb128 0x3
 2279 00b8 0E       		.uleb128 0xe
 2280 00b9 3A       		.uleb128 0x3a
 2281 00ba 0B       		.uleb128 0xb
 2282 00bb 3B       		.uleb128 0x3b
 2283 00bc 0B       		.uleb128 0xb
 2284 00bd 27       		.uleb128 0x27
 2285 00be 19       		.uleb128 0x19
 2286 00bf 49       		.uleb128 0x49
 2287 00c0 13       		.uleb128 0x13
 2288 00c1 11       		.uleb128 0x11
 2289 00c2 01       		.uleb128 0x1
 2290 00c3 12       		.uleb128 0x12
 2291 00c4 06       		.uleb128 0x6
 2292 00c5 40       		.uleb128 0x40
 2293 00c6 18       		.uleb128 0x18
 2294 00c7 9642     		.uleb128 0x2116
 2295 00c9 19       		.uleb128 0x19
 2296 00ca 01       		.uleb128 0x1
 2297 00cb 13       		.uleb128 0x13
 2298 00cc 00       		.byte	0
 2299 00cd 00       		.byte	0
 2300 00ce 0E       		.uleb128 0xe
 2301 00cf 0B       		.uleb128 0xb
 2302 00d0 01       		.byte	0x1
 2303 00d1 11       		.uleb128 0x11
 2304 00d2 01       		.uleb128 0x1
 2305 00d3 12       		.uleb128 0x12
 2306 00d4 06       		.uleb128 0x6
 2307 00d5 00       		.byte	0
 2308 00d6 00       		.byte	0
 2309 00d7 0F       		.uleb128 0xf
 2310 00d8 34       		.uleb128 0x34
 2311 00d9 00       		.byte	0
ARM GAS  C:\Users\rens_\AppData\Local\Temp\ccrM3B9b.s 			page 47


 2312 00da 03       		.uleb128 0x3
 2313 00db 08       		.uleb128 0x8
 2314 00dc 3A       		.uleb128 0x3a
 2315 00dd 0B       		.uleb128 0xb
 2316 00de 3B       		.uleb128 0x3b
 2317 00df 0B       		.uleb128 0xb
 2318 00e0 49       		.uleb128 0x49
 2319 00e1 13       		.uleb128 0x13
 2320 00e2 02       		.uleb128 0x2
 2321 00e3 18       		.uleb128 0x18
 2322 00e4 00       		.byte	0
 2323 00e5 00       		.byte	0
 2324 00e6 10       		.uleb128 0x10
 2325 00e7 34       		.uleb128 0x34
 2326 00e8 00       		.byte	0
 2327 00e9 03       		.uleb128 0x3
 2328 00ea 0E       		.uleb128 0xe
 2329 00eb 3A       		.uleb128 0x3a
 2330 00ec 0B       		.uleb128 0xb
 2331 00ed 3B       		.uleb128 0x3b
 2332 00ee 05       		.uleb128 0x5
 2333 00ef 49       		.uleb128 0x49
 2334 00f0 13       		.uleb128 0x13
 2335 00f1 02       		.uleb128 0x2
 2336 00f2 18       		.uleb128 0x18
 2337 00f3 00       		.byte	0
 2338 00f4 00       		.byte	0
 2339 00f5 11       		.uleb128 0x11
 2340 00f6 01       		.uleb128 0x1
 2341 00f7 01       		.byte	0x1
 2342 00f8 49       		.uleb128 0x49
 2343 00f9 13       		.uleb128 0x13
 2344 00fa 01       		.uleb128 0x1
 2345 00fb 13       		.uleb128 0x13
 2346 00fc 00       		.byte	0
 2347 00fd 00       		.byte	0
 2348 00fe 12       		.uleb128 0x12
 2349 00ff 21       		.uleb128 0x21
 2350 0100 00       		.byte	0
 2351 0101 49       		.uleb128 0x49
 2352 0102 13       		.uleb128 0x13
 2353 0103 2F       		.uleb128 0x2f
 2354 0104 0B       		.uleb128 0xb
 2355 0105 00       		.byte	0
 2356 0106 00       		.byte	0
 2357 0107 13       		.uleb128 0x13
 2358 0108 26       		.uleb128 0x26
 2359 0109 00       		.byte	0
 2360 010a 49       		.uleb128 0x49
 2361 010b 13       		.uleb128 0x13
 2362 010c 00       		.byte	0
 2363 010d 00       		.byte	0
 2364 010e 14       		.uleb128 0x14
 2365 010f 34       		.uleb128 0x34
 2366 0110 00       		.byte	0
 2367 0111 03       		.uleb128 0x3
 2368 0112 0E       		.uleb128 0xe
ARM GAS  C:\Users\rens_\AppData\Local\Temp\ccrM3B9b.s 			page 48


 2369 0113 3A       		.uleb128 0x3a
 2370 0114 0B       		.uleb128 0xb
 2371 0115 3B       		.uleb128 0x3b
 2372 0116 05       		.uleb128 0x5
 2373 0117 49       		.uleb128 0x49
 2374 0118 13       		.uleb128 0x13
 2375 0119 3F       		.uleb128 0x3f
 2376 011a 19       		.uleb128 0x19
 2377 011b 3C       		.uleb128 0x3c
 2378 011c 19       		.uleb128 0x19
 2379 011d 00       		.byte	0
 2380 011e 00       		.byte	0
 2381 011f 15       		.uleb128 0x15
 2382 0120 34       		.uleb128 0x34
 2383 0121 00       		.byte	0
 2384 0122 03       		.uleb128 0x3
 2385 0123 0E       		.uleb128 0xe
 2386 0124 3A       		.uleb128 0x3a
 2387 0125 0B       		.uleb128 0xb
 2388 0126 3B       		.uleb128 0x3b
 2389 0127 0B       		.uleb128 0xb
 2390 0128 49       		.uleb128 0x49
 2391 0129 13       		.uleb128 0x13
 2392 012a 3F       		.uleb128 0x3f
 2393 012b 19       		.uleb128 0x19
 2394 012c 02       		.uleb128 0x2
 2395 012d 18       		.uleb128 0x18
 2396 012e 00       		.byte	0
 2397 012f 00       		.byte	0
 2398 0130 16       		.uleb128 0x16
 2399 0131 21       		.uleb128 0x21
 2400 0132 00       		.byte	0
 2401 0133 49       		.uleb128 0x49
 2402 0134 13       		.uleb128 0x13
 2403 0135 2F       		.uleb128 0x2f
 2404 0136 05       		.uleb128 0x5
 2405 0137 00       		.byte	0
 2406 0138 00       		.byte	0
 2407 0139 17       		.uleb128 0x17
 2408 013a 34       		.uleb128 0x34
 2409 013b 00       		.byte	0
 2410 013c 03       		.uleb128 0x3
 2411 013d 08       		.uleb128 0x8
 2412 013e 3A       		.uleb128 0x3a
 2413 013f 0B       		.uleb128 0xb
 2414 0140 3B       		.uleb128 0x3b
 2415 0141 0B       		.uleb128 0xb
 2416 0142 49       		.uleb128 0x49
 2417 0143 13       		.uleb128 0x13
 2418 0144 3F       		.uleb128 0x3f
 2419 0145 19       		.uleb128 0x19
 2420 0146 02       		.uleb128 0x2
 2421 0147 18       		.uleb128 0x18
 2422 0148 00       		.byte	0
 2423 0149 00       		.byte	0
 2424 014a 00       		.byte	0
 2425              		.section	.debug_aranges,"",%progbits
ARM GAS  C:\Users\rens_\AppData\Local\Temp\ccrM3B9b.s 			page 49


 2426 0000 34000000 		.4byte	0x34
 2427 0004 0200     		.2byte	0x2
 2428 0006 00000000 		.4byte	.Ldebug_info0
 2429 000a 04       		.byte	0x4
 2430 000b 00       		.byte	0
 2431 000c 0000     		.2byte	0
 2432 000e 0000     		.2byte	0
 2433 0010 00000000 		.4byte	.LFB64
 2434 0014 18000000 		.4byte	.LFE64-.LFB64
 2435 0018 00000000 		.4byte	.LFB65
 2436 001c 18000000 		.4byte	.LFE65-.LFB65
 2437 0020 00000000 		.4byte	.LFB66
 2438 0024 3C000000 		.4byte	.LFE66-.LFB66
 2439 0028 00000000 		.4byte	.LFB67
 2440 002c D0070000 		.4byte	.LFE67-.LFB67
 2441 0030 00000000 		.4byte	0
 2442 0034 00000000 		.4byte	0
 2443              		.section	.debug_ranges,"",%progbits
 2444              	.Ldebug_ranges0:
 2445 0000 00000000 		.4byte	.LFB64
 2446 0004 18000000 		.4byte	.LFE64
 2447 0008 00000000 		.4byte	.LFB65
 2448 000c 18000000 		.4byte	.LFE65
 2449 0010 00000000 		.4byte	.LFB66
 2450 0014 3C000000 		.4byte	.LFE66
 2451 0018 00000000 		.4byte	.LFB67
 2452 001c D0070000 		.4byte	.LFE67
 2453 0020 00000000 		.4byte	0
 2454 0024 00000000 		.4byte	0
 2455              		.section	.debug_line,"",%progbits
 2456              	.Ldebug_line0:
 2457 0000 5A020000 		.section	.debug_str,"MS",%progbits,1
 2457      02005C01 
 2457      00000201 
 2457      FB0E0D00 
 2457      01010101 
 2458              	.LASF20:
 2459 0000 75696E74 		.ascii	"uint16\000"
 2459      313600
 2460              	.LASF117:
 2461 0007 70726576 		.ascii	"prev_error_angle\000"
 2461      5F657272 
 2461      6F725F61 
 2461      6E676C65 
 2461      00
 2462              	.LASF67:
 2463 0018 4E52465F 		.ascii	"NRF_CONFIG_BIT_CRCO\000"
 2463      434F4E46 
 2463      49475F42 
 2463      49545F43 
 2463      52434F00 
 2464              	.LASF53:
 2465 002c 4E52465F 		.ascii	"NRF_REG_FEATURE\000"
 2465      5245475F 
 2465      46454154 
 2465      55524500 
 2466              	.LASF87:
ARM GAS  C:\Users\rens_\AppData\Local\Temp\ccrM3B9b.s 			page 50


 2467 003c 4E52465F 		.ascii	"NRF_FIFO_STATUS_BIT_RX_FULL\000"
 2467      4649464F 
 2467      5F535441 
 2467      5455535F 
 2467      4249545F 
 2468              	.LASF1:
 2469 0058 5F5F7569 		.ascii	"__uint8_t\000"
 2469      6E74385F 
 2469      7400
 2470              	.LASF147:
 2471 0062 474E5520 		.ascii	"GNU C11 5.4.1 20160609 (release) [ARM/embedded-5-br"
 2471      43313120 
 2471      352E342E 
 2471      31203230 
 2471      31363036 
 2472 0095 616E6368 		.ascii	"anch revision 237715] -mcpu=cortex-m3 -mthumb -g -O"
 2472      20726576 
 2472      6973696F 
 2472      6E203233 
 2472      37373135 
 2473 00c8 30202D66 		.ascii	"0 -ffunction-sections -ffat-lto-objects\000"
 2473      66756E63 
 2473      74696F6E 
 2473      2D736563 
 2473      74696F6E 
 2474              	.LASF116:
 2475 00f0 616E676C 		.ascii	"angle_servo\000"
 2475      655F7365 
 2475      72766F00 
 2476              	.LASF118:
 2477 00fc 6572726F 		.ascii	"error_angle\000"
 2477      725F616E 
 2477      676C6500 
 2478              	.LASF89:
 2479 0108 4E52465F 		.ascii	"NRF_FIFO_STATUS_BIT_TX_FULL\000"
 2479      4649464F 
 2479      5F535441 
 2479      5455535F 
 2479      4249545F 
 2480              	.LASF103:
 2481 0124 52585F41 		.ascii	"RX_ADDR\000"
 2481      44445200 
 2482              	.LASF100:
 2483 012c 4953525F 		.ascii	"ISR_OUT_A_Handler\000"
 2483      4F55545F 
 2483      415F4861 
 2483      6E646C65 
 2483      7200
 2484              	.LASF12:
 2485 013e 6C6F6E67 		.ascii	"long long unsigned int\000"
 2485      206C6F6E 
 2485      6720756E 
 2485      7369676E 
 2485      65642069 
 2486              	.LASF143:
 2487 0155 616E676C 		.ascii	"angle\000"
 2487      6500
ARM GAS  C:\Users\rens_\AppData\Local\Temp\ccrM3B9b.s 			page 51


 2488              	.LASF65:
 2489 015b 4E52465F 		.ascii	"NRF_CONFIG_BIT_PRIM_RX\000"
 2489      434F4E46 
 2489      49475F42 
 2489      49545F50 
 2489      52494D5F 
 2490              	.LASF52:
 2491 0172 4E52465F 		.ascii	"NRF_REG_DYNPD\000"
 2491      5245475F 
 2491      44594E50 
 2491      4400
 2492              	.LASF0:
 2493 0180 5F5F696E 		.ascii	"__int8_t\000"
 2493      74385F74 
 2493      00
 2494              	.LASF129:
 2495 0189 49544D5F 		.ascii	"ITM_RxBuffer\000"
 2495      52784275 
 2495      66666572 
 2495      00
 2496              	.LASF105:
 2497 0196 72656665 		.ascii	"reference_dist\000"
 2497      72656E63 
 2497      655F6469 
 2497      737400
 2498              	.LASF16:
 2499 01a5 696E7431 		.ascii	"int16_t\000"
 2499      365F7400 
 2500              	.LASF11:
 2501 01ad 6C6F6E67 		.ascii	"long long int\000"
 2501      206C6F6E 
 2501      6720696E 
 2501      7400
 2502              	.LASF2:
 2503 01bb 7369676E 		.ascii	"signed char\000"
 2503      65642063 
 2503      68617200 
 2504              	.LASF55:
 2505 01c7 4E52465F 		.ascii	"NRF_ADDR_PIPE1\000"
 2505      41444452 
 2505      5F504950 
 2505      453100
 2506              	.LASF56:
 2507 01d6 4E52465F 		.ascii	"NRF_ADDR_PIPE2\000"
 2507      41444452 
 2507      5F504950 
 2507      453200
 2508              	.LASF57:
 2509 01e5 4E52465F 		.ascii	"NRF_ADDR_PIPE3\000"
 2509      41444452 
 2509      5F504950 
 2509      453300
 2510              	.LASF58:
 2511 01f4 4E52465F 		.ascii	"NRF_ADDR_PIPE4\000"
 2511      41444452 
 2511      5F504950 
 2511      453400
ARM GAS  C:\Users\rens_\AppData\Local\Temp\ccrM3B9b.s 			page 52


 2512              	.LASF59:
 2513 0203 4E52465F 		.ascii	"NRF_ADDR_PIPE5\000"
 2513      41444452 
 2513      5F504950 
 2513      453500
 2514              	.LASF121:
 2515 0212 73657276 		.ascii	"servo_signal_counter\000"
 2515      6F5F7369 
 2515      676E616C 
 2515      5F636F75 
 2515      6E746572 
 2516              	.LASF110:
 2517 0227 4B695F61 		.ascii	"Ki_ang\000"
 2517      6E6700
 2518              	.LASF140:
 2519 022e 444D415F 		.ascii	"DMA_B_Filter_TD\000"
 2519      425F4669 
 2519      6C746572 
 2519      5F544400 
 2520              	.LASF62:
 2521 023e 4E52465F 		.ascii	"NRF_TX_DS_IRQ\000"
 2521      54585F44 
 2521      535F4952 
 2521      5100
 2522              	.LASF115:
 2523 024c 74686574 		.ascii	"theta_tot\000"
 2523      615F746F 
 2523      7400
 2524              	.LASF107:
 2525 0256 64757479 		.ascii	"duty_cycle_dist\000"
 2525      5F637963 
 2525      6C655F64 
 2525      69737400 
 2526              	.LASF9:
 2527 0266 6C6F6E67 		.ascii	"long int\000"
 2527      20696E74 
 2527      00
 2528              	.LASF127:
 2529 026f 696E7465 		.ascii	"integral\000"
 2529      6772616C 
 2529      00
 2530              	.LASF28:
 2531 0278 4E52465F 		.ascii	"NRF_REG_CONFIG\000"
 2531      5245475F 
 2531      434F4E46 
 2531      494700
 2532              	.LASF64:
 2533 0287 6E72665F 		.ascii	"nrf_irq\000"
 2533      69727100 
 2534              	.LASF31:
 2535 028f 4E52465F 		.ascii	"NRF_REG_SETUP_AW\000"
 2535      5245475F 
 2535      53455455 
 2535      505F4157 
 2535      00
 2536              	.LASF33:
 2537 02a0 4E52465F 		.ascii	"NRF_REG_RF_CH\000"
ARM GAS  C:\Users\rens_\AppData\Local\Temp\ccrM3B9b.s 			page 53


 2537      5245475F 
 2537      52465F43 
 2537      4800
 2538              	.LASF17:
 2539 02ae 75696E74 		.ascii	"uint16_t\000"
 2539      31365F74 
 2539      00
 2540              	.LASF23:
 2541 02b7 646F7562 		.ascii	"double\000"
 2541      6C6500
 2542              	.LASF101:
 2543 02be 4953525F 		.ascii	"ISR_OUT_B_Handler\000"
 2543      4F55545F 
 2543      425F4861 
 2543      6E646C65 
 2543      7200
 2544              	.LASF106:
 2545 02d0 4B705F64 		.ascii	"Kp_dist\000"
 2545      69737400 
 2546              	.LASF63:
 2547 02d8 4E52465F 		.ascii	"NRF_RX_DR_IRQ\000"
 2547      52585F44 
 2547      525F4952 
 2547      5100
 2548              	.LASF78:
 2549 02e6 4E52465F 		.ascii	"NRF_EN_RXADDR_BIT_ERX_P0\000"
 2549      454E5F52 
 2549      58414444 
 2549      525F4249 
 2549      545F4552 
 2550              	.LASF79:
 2551 02ff 4E52465F 		.ascii	"NRF_EN_RXADDR_BIT_ERX_P1\000"
 2551      454E5F52 
 2551      58414444 
 2551      525F4249 
 2551      545F4552 
 2552              	.LASF80:
 2553 0318 4E52465F 		.ascii	"NRF_EN_RXADDR_BIT_ERX_P2\000"
 2553      454E5F52 
 2553      58414444 
 2553      525F4249 
 2553      545F4552 
 2554              	.LASF81:
 2555 0331 4E52465F 		.ascii	"NRF_EN_RXADDR_BIT_ERX_P3\000"
 2555      454E5F52 
 2555      58414444 
 2555      525F4249 
 2555      545F4552 
 2556              	.LASF21:
 2557 034a 75696E74 		.ascii	"uint32\000"
 2557      333200
 2558              	.LASF83:
 2559 0351 4E52465F 		.ascii	"NRF_EN_RXADDR_BIT_ERX_P5\000"
 2559      454E5F52 
 2559      58414444 
 2559      525F4249 
 2559      545F4552 
ARM GAS  C:\Users\rens_\AppData\Local\Temp\ccrM3B9b.s 			page 54


 2560              	.LASF125:
 2561 036a 70726576 		.ascii	"previous_angle1\000"
 2561      696F7573 
 2561      5F616E67 
 2561      6C653100 
 2562              	.LASF124:
 2563 037a 70726576 		.ascii	"previous_angle2\000"
 2563      696F7573 
 2563      5F616E67 
 2563      6C653200 
 2564              	.LASF4:
 2565 038a 5F5F696E 		.ascii	"__int16_t\000"
 2565      7431365F 
 2565      7400
 2566              	.LASF60:
 2567 0394 4E52465F 		.ascii	"NRF_NONE_IRQ\000"
 2567      4E4F4E45 
 2567      5F495251 
 2567      00
 2568              	.LASF35:
 2569 03a1 4E52465F 		.ascii	"NRF_REG_STATUS\000"
 2569      5245475F 
 2569      53544154 
 2569      555300
 2570              	.LASF113:
 2571 03b0 745F6C65 		.ascii	"t_left\000"
 2571      667400
 2572              	.LASF61:
 2573 03b7 4E52465F 		.ascii	"NRF_MAX_RT_IRQ\000"
 2573      4D41585F 
 2573      52545F49 
 2573      525100
 2574              	.LASF69:
 2575 03c6 4E52465F 		.ascii	"NRF_CONFIG_BIT_MASK_MAX_RT\000"
 2575      434F4E46 
 2575      49475F42 
 2575      49545F4D 
 2575      41534B5F 
 2576              	.LASF39:
 2577 03e1 4E52465F 		.ascii	"NRF_REG_RX_ADDR_P1\000"
 2577      5245475F 
 2577      52585F41 
 2577      4444525F 
 2577      503100
 2578              	.LASF146:
 2579 03f4 6F757470 		.ascii	"output\000"
 2579      757400
 2580              	.LASF32:
 2581 03fb 4E52465F 		.ascii	"NRF_REG_SETUP_RETR\000"
 2581      5245475F 
 2581      53455455 
 2581      505F5245 
 2581      545200
 2582              	.LASF133:
 2583 040e 444D415F 		.ascii	"DMA_A_Chan\000"
 2583      415F4368 
 2583      616E00
ARM GAS  C:\Users\rens_\AppData\Local\Temp\ccrM3B9b.s 			page 55


 2584              	.LASF34:
 2585 0419 4E52465F 		.ascii	"NRF_REG_RF_SETUP\000"
 2585      5245475F 
 2585      52465F53 
 2585      45545550 
 2585      00
 2586              	.LASF19:
 2587 042a 75696E74 		.ascii	"uint8\000"
 2587      3800
 2588              	.LASF130:
 2589 0430 64617461 		.ascii	"data\000"
 2589      00
 2590              	.LASF7:
 2591 0435 73686F72 		.ascii	"short unsigned int\000"
 2591      7420756E 
 2591      7369676E 
 2591      65642069 
 2591      6E7400
 2592              	.LASF150:
 2593 0448 4952515F 		.ascii	"IRQ_Handler\000"
 2593      48616E64 
 2593      6C657200 
 2594              	.LASF148:
 2595 0454 6D61696E 		.ascii	"main.c\000"
 2595      2E6300
 2596              	.LASF132:
 2597 045b 44617461 		.ascii	"DataB\000"
 2597      4200
 2598              	.LASF137:
 2599 0461 444D415F 		.ascii	"DMA_A_Filter_Chan\000"
 2599      415F4669 
 2599      6C746572 
 2599      5F436861 
 2599      6E00
 2600              	.LASF122:
 2601 0473 73657276 		.ascii	"servo_signal_avg\000"
 2601      6F5F7369 
 2601      676E616C 
 2601      5F617667 
 2601      00
 2602              	.LASF5:
 2603 0484 73686F72 		.ascii	"short int\000"
 2603      7420696E 
 2603      7400
 2604              	.LASF90:
 2605 048e 4E52465F 		.ascii	"NRF_FIFO_STATUS_BIT_TX_REUSE\000"
 2605      4649464F 
 2605      5F535441 
 2605      5455535F 
 2605      4249545F 
 2606              	.LASF8:
 2607 04ab 5F5F696E 		.ascii	"__int32_t\000"
 2607      7433325F 
 2607      7400
 2608              	.LASF149:
 2609 04b5 433A5C55 		.ascii	"C:\\Users\\rens_\\Documents\\platooning\\PSoC\\Plat"
 2609      73657273 
ARM GAS  C:\Users\rens_\AppData\Local\Temp\ccrM3B9b.s 			page 56


 2609      5C72656E 
 2609      735F5C44 
 2609      6F63756D 
 2610 04e2 6F6F6E69 		.ascii	"ooning\\AngleMeasurement.cydsn\000"
 2610      6E675C41 
 2610      6E676C65 
 2610      4D656173 
 2610      7572656D 
 2611              	.LASF123:
 2612 0500 696E7465 		.ascii	"integrations\000"
 2612      67726174 
 2612      696F6E73 
 2612      00
 2613              	.LASF88:
 2614 050d 4E52465F 		.ascii	"NRF_FIFO_STATUS_BIT_TX_EMPTY\000"
 2614      4649464F 
 2614      5F535441 
 2614      5455535F 
 2614      4249545F 
 2615              	.LASF136:
 2616 052a 444D415F 		.ascii	"DMA_B_TD\000"
 2616      425F5444 
 2616      00
 2617              	.LASF37:
 2618 0533 4E52465F 		.ascii	"NRF_REG_RPD\000"
 2618      5245475F 
 2618      52504400 
 2619              	.LASF104:
 2620 053f 6572725F 		.ascii	"err_dist\000"
 2620      64697374 
 2620      00
 2621              	.LASF27:
 2622 0548 73697A65 		.ascii	"sizetype\000"
 2622      74797065 
 2622      00
 2623              	.LASF26:
 2624 0551 6C6F6E67 		.ascii	"long double\000"
 2624      20646F75 
 2624      626C6500 
 2625              	.LASF30:
 2626 055d 4E52465F 		.ascii	"NRF_REG_EN_RXADDR\000"
 2626      5245475F 
 2626      454E5F52 
 2626      58414444 
 2626      5200
 2627              	.LASF141:
 2628 056f 4953525F 		.ascii	"ISR_A_done\000"
 2628      415F646F 
 2628      6E6500
 2629              	.LASF72:
 2630 057a 4E52465F 		.ascii	"NRF_EN_AA_BIT_ENAA_P0\000"
 2630      454E5F41 
 2630      415F4249 
 2630      545F454E 
 2630      41415F50 
 2631              	.LASF73:
 2632 0590 4E52465F 		.ascii	"NRF_EN_AA_BIT_ENAA_P1\000"
ARM GAS  C:\Users\rens_\AppData\Local\Temp\ccrM3B9b.s 			page 57


 2632      454E5F41 
 2632      415F4249 
 2632      545F454E 
 2632      41415F50 
 2633              	.LASF74:
 2634 05a6 4E52465F 		.ascii	"NRF_EN_AA_BIT_ENAA_P2\000"
 2634      454E5F41 
 2634      415F4249 
 2634      545F454E 
 2634      41415F50 
 2635              	.LASF75:
 2636 05bc 4E52465F 		.ascii	"NRF_EN_AA_BIT_ENAA_P3\000"
 2636      454E5F41 
 2636      415F4249 
 2636      545F454E 
 2636      41415F50 
 2637              	.LASF76:
 2638 05d2 4E52465F 		.ascii	"NRF_EN_AA_BIT_ENAA_P4\000"
 2638      454E5F41 
 2638      415F4249 
 2638      545F454E 
 2638      41415F50 
 2639              	.LASF77:
 2640 05e8 4E52465F 		.ascii	"NRF_EN_AA_BIT_ENAA_P5\000"
 2640      454E5F41 
 2640      415F4249 
 2640      545F454E 
 2640      41415F50 
 2641              	.LASF46:
 2642 05fe 4E52465F 		.ascii	"NRF_REG_RX_PW_P1\000"
 2642      5245475F 
 2642      52585F50 
 2642      575F5031 
 2642      00
 2643              	.LASF51:
 2644 060f 4E52465F 		.ascii	"NRF_REG_FIFO_STATUS\000"
 2644      5245475F 
 2644      4649464F 
 2644      5F535441 
 2644      54555300 
 2645              	.LASF108:
 2646 0623 4B705F61 		.ascii	"Kp_ang\000"
 2646      6E6700
 2647              	.LASF49:
 2648 062a 4E52465F 		.ascii	"NRF_REG_RX_PW_P4\000"
 2648      5245475F 
 2648      52585F50 
 2648      575F5034 
 2648      00
 2649              	.LASF71:
 2650 063b 4E52465F 		.ascii	"NRF_CONFIG_BIT_MASK_RX_DR\000"
 2650      434F4E46 
 2650      49475F42 
 2650      49545F4D 
 2650      41534B5F 
 2651              	.LASF139:
 2652 0655 444D415F 		.ascii	"DMA_B_Filter_Chan\000"
ARM GAS  C:\Users\rens_\AppData\Local\Temp\ccrM3B9b.s 			page 58


 2652      425F4669 
 2652      6C746572 
 2652      5F436861 
 2652      6E00
 2653              	.LASF134:
 2654 0667 444D415F 		.ascii	"DMA_A_TD\000"
 2654      415F5444 
 2654      00
 2655              	.LASF22:
 2656 0670 666C6F61 		.ascii	"float\000"
 2656      7400
 2657              	.LASF145:
 2658 0676 76656C6F 		.ascii	"velocity\000"
 2658      63697479 
 2658      00
 2659              	.LASF38:
 2660 067f 4E52465F 		.ascii	"NRF_REG_RX_ADDR_P0\000"
 2660      5245475F 
 2660      52585F41 
 2660      4444525F 
 2660      503000
 2661              	.LASF25:
 2662 0692 72656738 		.ascii	"reg8\000"
 2662      00
 2663              	.LASF40:
 2664 0697 4E52465F 		.ascii	"NRF_REG_RX_ADDR_P2\000"
 2664      5245475F 
 2664      52585F41 
 2664      4444525F 
 2664      503200
 2665              	.LASF41:
 2666 06aa 4E52465F 		.ascii	"NRF_REG_RX_ADDR_P3\000"
 2666      5245475F 
 2666      52585F41 
 2666      4444525F 
 2666      503300
 2667              	.LASF42:
 2668 06bd 4E52465F 		.ascii	"NRF_REG_RX_ADDR_P4\000"
 2668      5245475F 
 2668      52585F41 
 2668      4444525F 
 2668      503400
 2669              	.LASF43:
 2670 06d0 4E52465F 		.ascii	"NRF_REG_RX_ADDR_P5\000"
 2670      5245475F 
 2670      52585F41 
 2670      4444525F 
 2670      503500
 2671              	.LASF18:
 2672 06e3 696E7433 		.ascii	"int32_t\000"
 2672      325F7400 
 2673              	.LASF3:
 2674 06eb 756E7369 		.ascii	"unsigned char\000"
 2674      676E6564 
 2674      20636861 
 2674      7200
 2675              	.LASF119:
ARM GAS  C:\Users\rens_\AppData\Local\Temp\ccrM3B9b.s 			page 59


 2676 06f9 7A5F706F 		.ascii	"z_point_angle\000"
 2676      696E745F 
 2676      616E676C 
 2676      6500
 2677              	.LASF66:
 2678 0707 4E52465F 		.ascii	"NRF_CONFIG_BIT_PWR_UP\000"
 2678      434F4E46 
 2678      49475F42 
 2678      49545F50 
 2678      57525F55 
 2679              	.LASF68:
 2680 071d 4E52465F 		.ascii	"NRF_CONFIG_BIT_EN_CRC\000"
 2680      434F4E46 
 2680      49475F42 
 2680      49545F45 
 2680      4E5F4352 
 2681              	.LASF126:
 2682 0733 64657269 		.ascii	"derivative\000"
 2682      76617469 
 2682      766500
 2683              	.LASF111:
 2684 073e 73657276 		.ascii	"servo_signal\000"
 2684      6F5F7369 
 2684      676E616C 
 2684      00
 2685              	.LASF54:
 2686 074b 4E52465F 		.ascii	"NRF_ADDR_PIPE0\000"
 2686      41444452 
 2686      5F504950 
 2686      453000
 2687              	.LASF102:
 2688 075a 666C6167 		.ascii	"flag\000"
 2688      00
 2689              	.LASF120:
 2690 075f 73657276 		.ascii	"servo_signal_RB\000"
 2690      6F5F7369 
 2690      676E616C 
 2690      5F524200 
 2691              	.LASF109:
 2692 076f 4B645F61 		.ascii	"Kd_ang\000"
 2692      6E6700
 2693              	.LASF10:
 2694 0776 6C6F6E67 		.ascii	"long unsigned int\000"
 2694      20756E73 
 2694      69676E65 
 2694      6420696E 
 2694      7400
 2695              	.LASF24:
 2696 0788 63686172 		.ascii	"char\000"
 2696      00
 2697              	.LASF99:
 2698 078d 4E52465F 		.ascii	"NRF_FEATURE_BIT_EN_DPL\000"
 2698      46454154 
 2698      5552455F 
 2698      4249545F 
 2698      454E5F44 
 2699              	.LASF131:
ARM GAS  C:\Users\rens_\AppData\Local\Temp\ccrM3B9b.s 			page 60


 2700 07a4 44617461 		.ascii	"DataA\000"
 2700      4100
 2701              	.LASF13:
 2702 07aa 756E7369 		.ascii	"unsigned int\000"
 2702      676E6564 
 2702      20696E74 
 2702      00
 2703              	.LASF86:
 2704 07b7 4E52465F 		.ascii	"NRF_FIFO_STATUS_BIT_RX_EMPTY\000"
 2704      4649464F 
 2704      5F535441 
 2704      5455535F 
 2704      4249545F 
 2705              	.LASF6:
 2706 07d4 5F5F7569 		.ascii	"__uint16_t\000"
 2706      6E743136 
 2706      5F7400
 2707              	.LASF98:
 2708 07df 4E52465F 		.ascii	"NRF_FEATURE_BIT_EN_ACK_PAY\000"
 2708      46454154 
 2708      5552455F 
 2708      4249545F 
 2708      454E5F41 
 2709              	.LASF135:
 2710 07fa 444D415F 		.ascii	"DMA_B_Chan\000"
 2710      425F4368 
 2710      616E00
 2711              	.LASF128:
 2712 0805 77656967 		.ascii	"weighted_Kp_angle\000"
 2712      68746564 
 2712      5F4B705F 
 2712      616E676C 
 2712      6500
 2713              	.LASF142:
 2714 0817 4953525F 		.ascii	"ISR_B_done\000"
 2714      425F646F 
 2714      6E6500
 2715              	.LASF138:
 2716 0822 444D415F 		.ascii	"DMA_A_Filter_TD\000"
 2716      415F4669 
 2716      6C746572 
 2716      5F544400 
 2717              	.LASF144:
 2718 0832 64697374 		.ascii	"distance\000"
 2718      616E6365 
 2718      00
 2719              	.LASF29:
 2720 083b 4E52465F 		.ascii	"NRF_REG_EN_AA\000"
 2720      5245475F 
 2720      454E5F41 
 2720      4100
 2721              	.LASF112:
 2722 0849 745F7269 		.ascii	"t_right\000"
 2722      67687400 
 2723              	.LASF45:
 2724 0851 4E52465F 		.ascii	"NRF_REG_RX_PW_P0\000"
 2724      5245475F 
ARM GAS  C:\Users\rens_\AppData\Local\Temp\ccrM3B9b.s 			page 61


 2724      52585F50 
 2724      575F5030 
 2724      00
 2725              	.LASF14:
 2726 0862 696E7438 		.ascii	"int8_t\000"
 2726      5F7400
 2727              	.LASF47:
 2728 0869 4E52465F 		.ascii	"NRF_REG_RX_PW_P2\000"
 2728      5245475F 
 2728      52585F50 
 2728      575F5032 
 2728      00
 2729              	.LASF48:
 2730 087a 4E52465F 		.ascii	"NRF_REG_RX_PW_P3\000"
 2730      5245475F 
 2730      52585F50 
 2730      575F5033 
 2730      00
 2731              	.LASF70:
 2732 088b 4E52465F 		.ascii	"NRF_CONFIG_BIT_MASK_TX_DS\000"
 2732      434F4E46 
 2732      49475F42 
 2732      49545F4D 
 2732      41534B5F 
 2733              	.LASF50:
 2734 08a5 4E52465F 		.ascii	"NRF_REG_RX_PW_P5\000"
 2734      5245475F 
 2734      52585F50 
 2734      575F5035 
 2734      00
 2735              	.LASF44:
 2736 08b6 4E52465F 		.ascii	"NRF_REG_TX_ADDR\000"
 2736      5245475F 
 2736      54585F41 
 2736      44445200 
 2737              	.LASF92:
 2738 08c6 4E52465F 		.ascii	"NRF_DYNPD_BIT_DPL_P1\000"
 2738      44594E50 
 2738      445F4249 
 2738      545F4450 
 2738      4C5F5031 
 2739              	.LASF93:
 2740 08db 4E52465F 		.ascii	"NRF_DYNPD_BIT_DPL_P2\000"
 2740      44594E50 
 2740      445F4249 
 2740      545F4450 
 2740      4C5F5032 
 2741              	.LASF94:
 2742 08f0 4E52465F 		.ascii	"NRF_DYNPD_BIT_DPL_P3\000"
 2742      44594E50 
 2742      445F4249 
 2742      545F4450 
 2742      4C5F5033 
 2743              	.LASF15:
 2744 0905 75696E74 		.ascii	"uint8_t\000"
 2744      385F7400 
 2745              	.LASF96:
ARM GAS  C:\Users\rens_\AppData\Local\Temp\ccrM3B9b.s 			page 62


 2746 090d 4E52465F 		.ascii	"NRF_DYNPD_BIT_DPL_P5\000"
 2746      44594E50 
 2746      445F4249 
 2746      545F4450 
 2746      4C5F5035 
 2747              	.LASF82:
 2748 0922 4E52465F 		.ascii	"NRF_EN_RXADDR_BIT_ERX_P4\000"
 2748      454E5F52 
 2748      58414444 
 2748      525F4249 
 2748      545F4552 
 2749              	.LASF84:
 2750 093b 4E52465F 		.ascii	"NRF_SETUP_RETR_BIT_ARC\000"
 2750      53455455 
 2750      505F5245 
 2750      54525F42 
 2750      49545F41 
 2751              	.LASF85:
 2752 0952 4E52465F 		.ascii	"NRF_SETUP_RETR_BIT_ARD\000"
 2752      53455455 
 2752      505F5245 
 2752      54525F42 
 2752      49545F41 
 2753              	.LASF91:
 2754 0969 4E52465F 		.ascii	"NRF_DYNPD_BIT_DPL_P0\000"
 2754      44594E50 
 2754      445F4249 
 2754      545F4450 
 2754      4C5F5030 
 2755              	.LASF95:
 2756 097e 4E52465F 		.ascii	"NRF_DYNPD_BIT_DPL_P4\000"
 2756      44594E50 
 2756      445F4249 
 2756      545F4450 
 2756      4C5F5034 
 2757              	.LASF97:
 2758 0993 4E52465F 		.ascii	"NRF_FEATURE_BIT_EN_DYN_ACK\000"
 2758      46454154 
 2758      5552455F 
 2758      4249545F 
 2758      454E5F44 
 2759              	.LASF151:
 2760 09ae 6D61696E 		.ascii	"main\000"
 2760      00
 2761              	.LASF114:
 2762 09b3 745F6365 		.ascii	"t_center\000"
 2762      6E746572 
 2762      00
 2763              	.LASF36:
 2764 09bc 4E52465F 		.ascii	"NRF_REG_OBSERVE_TX\000"
 2764      5245475F 
 2764      4F425345 
 2764      5256455F 
 2764      545800
 2765              		.ident	"GCC: (GNU Tools for ARM Embedded Processors) 5.4.1 20160609 (release) [ARM/embedded-5-bran
