ARM GAS  C:\Users\Krist\AppData\Local\Temp\ccEC4FkB.s 			page 1


   1              		.syntax unified
   2              		.cpu cortex-m3
   3              		.fpu softvfp
   4              		.eabi_attribute 20, 1
   5              		.eabi_attribute 21, 1
   6              		.eabi_attribute 23, 3
   7              		.eabi_attribute 24, 1
   8              		.eabi_attribute 25, 1
   9              		.eabi_attribute 26, 1
  10              		.eabi_attribute 30, 6
  11              		.eabi_attribute 34, 1
  12              		.eabi_attribute 18, 4
  13              		.thumb
  14              		.syntax unified
  15              		.file	"Maximum_Peak_Detector_A_Sample_Hold_PM.c"
  16              		.text
  17              	.Ltext0:
  18              		.cfi_sections	.debug_frame
  19              		.bss
  20              		.align	2
  21              	Maximum_Peak_Detector_A_Sample_Hold_backup:
  22 0000 00000000 		.space	4
  23              		.section	.text.Maximum_Peak_Detector_A_Sample_Hold_SaveConfig,"ax",%progbits
  24              		.align	2
  25              		.global	Maximum_Peak_Detector_A_Sample_Hold_SaveConfig
  26              		.thumb
  27              		.thumb_func
  28              		.type	Maximum_Peak_Detector_A_Sample_Hold_SaveConfig, %function
  29              	Maximum_Peak_Detector_A_Sample_Hold_SaveConfig:
  30              	.LFB0:
  31              		.file 1 "Generated_Source\\PSoC5\\Maximum_Peak_Detector_A_Sample_Hold_PM.c"
   1:Generated_Source\PSoC5/Maximum_Peak_Detector_A_Sample_Hold_PM.c **** /*******************************************************************************
   2:Generated_Source\PSoC5/Maximum_Peak_Detector_A_Sample_Hold_PM.c **** * File Name: Maximum_Peak_Detector_A_Sample_Hold_PM.c  
   3:Generated_Source\PSoC5/Maximum_Peak_Detector_A_Sample_Hold_PM.c **** * Version 2.0
   4:Generated_Source\PSoC5/Maximum_Peak_Detector_A_Sample_Hold_PM.c **** *
   5:Generated_Source\PSoC5/Maximum_Peak_Detector_A_Sample_Hold_PM.c **** * Description:
   6:Generated_Source\PSoC5/Maximum_Peak_Detector_A_Sample_Hold_PM.c **** *  This file provides the power manager source code to the API for 
   7:Generated_Source\PSoC5/Maximum_Peak_Detector_A_Sample_Hold_PM.c **** *  the MIXER component.
   8:Generated_Source\PSoC5/Maximum_Peak_Detector_A_Sample_Hold_PM.c **** *
   9:Generated_Source\PSoC5/Maximum_Peak_Detector_A_Sample_Hold_PM.c **** * Note:
  10:Generated_Source\PSoC5/Maximum_Peak_Detector_A_Sample_Hold_PM.c **** *
  11:Generated_Source\PSoC5/Maximum_Peak_Detector_A_Sample_Hold_PM.c **** *******************************************************************************
  12:Generated_Source\PSoC5/Maximum_Peak_Detector_A_Sample_Hold_PM.c **** * Copyright 2008-2012, Cypress Semiconductor Corporation.  All rights reserved.
  13:Generated_Source\PSoC5/Maximum_Peak_Detector_A_Sample_Hold_PM.c **** * You may use this file only in accordance with the license, terms, conditions, 
  14:Generated_Source\PSoC5/Maximum_Peak_Detector_A_Sample_Hold_PM.c **** * disclaimers, and limitations in the end user license agreement accompanying 
  15:Generated_Source\PSoC5/Maximum_Peak_Detector_A_Sample_Hold_PM.c **** * the software package with which this file was provided.
  16:Generated_Source\PSoC5/Maximum_Peak_Detector_A_Sample_Hold_PM.c **** *******************************************************************************/
  17:Generated_Source\PSoC5/Maximum_Peak_Detector_A_Sample_Hold_PM.c **** 
  18:Generated_Source\PSoC5/Maximum_Peak_Detector_A_Sample_Hold_PM.c **** #include "Maximum_Peak_Detector_A_Sample_Hold.h"
  19:Generated_Source\PSoC5/Maximum_Peak_Detector_A_Sample_Hold_PM.c **** 
  20:Generated_Source\PSoC5/Maximum_Peak_Detector_A_Sample_Hold_PM.c **** static Maximum_Peak_Detector_A_Sample_Hold_backupStruct  Maximum_Peak_Detector_A_Sample_Hold_backup
  21:Generated_Source\PSoC5/Maximum_Peak_Detector_A_Sample_Hold_PM.c **** 
  22:Generated_Source\PSoC5/Maximum_Peak_Detector_A_Sample_Hold_PM.c **** 
  23:Generated_Source\PSoC5/Maximum_Peak_Detector_A_Sample_Hold_PM.c **** /*******************************************************************************
  24:Generated_Source\PSoC5/Maximum_Peak_Detector_A_Sample_Hold_PM.c **** * Function Name: Maximum_Peak_Detector_A_Sample_Hold_SaveConfig
  25:Generated_Source\PSoC5/Maximum_Peak_Detector_A_Sample_Hold_PM.c **** ********************************************************************************
  26:Generated_Source\PSoC5/Maximum_Peak_Detector_A_Sample_Hold_PM.c **** *
ARM GAS  C:\Users\Krist\AppData\Local\Temp\ccEC4FkB.s 			page 2


  27:Generated_Source\PSoC5/Maximum_Peak_Detector_A_Sample_Hold_PM.c **** * Summary:
  28:Generated_Source\PSoC5/Maximum_Peak_Detector_A_Sample_Hold_PM.c **** *  Saves the current user configuration.
  29:Generated_Source\PSoC5/Maximum_Peak_Detector_A_Sample_Hold_PM.c **** *  
  30:Generated_Source\PSoC5/Maximum_Peak_Detector_A_Sample_Hold_PM.c **** * Parameters:  
  31:Generated_Source\PSoC5/Maximum_Peak_Detector_A_Sample_Hold_PM.c **** *  void.
  32:Generated_Source\PSoC5/Maximum_Peak_Detector_A_Sample_Hold_PM.c **** *
  33:Generated_Source\PSoC5/Maximum_Peak_Detector_A_Sample_Hold_PM.c **** * Return: 
  34:Generated_Source\PSoC5/Maximum_Peak_Detector_A_Sample_Hold_PM.c **** *  void.
  35:Generated_Source\PSoC5/Maximum_Peak_Detector_A_Sample_Hold_PM.c **** *
  36:Generated_Source\PSoC5/Maximum_Peak_Detector_A_Sample_Hold_PM.c **** *******************************************************************************/
  37:Generated_Source\PSoC5/Maximum_Peak_Detector_A_Sample_Hold_PM.c **** void Maximum_Peak_Detector_A_Sample_Hold_SaveConfig(void) 
  38:Generated_Source\PSoC5/Maximum_Peak_Detector_A_Sample_Hold_PM.c **** {
  32              		.loc 1 38 0
  33              		.cfi_startproc
  34              		@ args = 0, pretend = 0, frame = 0
  35              		@ frame_needed = 1, uses_anonymous_args = 0
  36              		@ link register save eliminated.
  37 0000 80B4     		push	{r7}
  38              		.cfi_def_cfa_offset 4
  39              		.cfi_offset 7, -4
  40 0002 00AF     		add	r7, sp, #0
  41              		.cfi_def_cfa_register 7
  39:Generated_Source\PSoC5/Maximum_Peak_Detector_A_Sample_Hold_PM.c ****     /* Nothing to save before entering into sleep mode as all the registers used 
  40:Generated_Source\PSoC5/Maximum_Peak_Detector_A_Sample_Hold_PM.c ****        here are retension registers. */
  41:Generated_Source\PSoC5/Maximum_Peak_Detector_A_Sample_Hold_PM.c **** }
  42              		.loc 1 41 0
  43 0004 00BF     		nop
  44 0006 BD46     		mov	sp, r7
  45              		.cfi_def_cfa_register 13
  46              		@ sp needed
  47 0008 80BC     		pop	{r7}
  48              		.cfi_restore 7
  49              		.cfi_def_cfa_offset 0
  50 000a 7047     		bx	lr
  51              		.cfi_endproc
  52              	.LFE0:
  53              		.size	Maximum_Peak_Detector_A_Sample_Hold_SaveConfig, .-Maximum_Peak_Detector_A_Sample_Hold_SaveCo
  54              		.section	.text.Maximum_Peak_Detector_A_Sample_Hold_RestoreConfig,"ax",%progbits
  55              		.align	2
  56              		.global	Maximum_Peak_Detector_A_Sample_Hold_RestoreConfig
  57              		.thumb
  58              		.thumb_func
  59              		.type	Maximum_Peak_Detector_A_Sample_Hold_RestoreConfig, %function
  60              	Maximum_Peak_Detector_A_Sample_Hold_RestoreConfig:
  61              	.LFB1:
  42:Generated_Source\PSoC5/Maximum_Peak_Detector_A_Sample_Hold_PM.c **** 
  43:Generated_Source\PSoC5/Maximum_Peak_Detector_A_Sample_Hold_PM.c **** 
  44:Generated_Source\PSoC5/Maximum_Peak_Detector_A_Sample_Hold_PM.c **** /*******************************************************************************
  45:Generated_Source\PSoC5/Maximum_Peak_Detector_A_Sample_Hold_PM.c **** * Function Name: Maximum_Peak_Detector_A_Sample_Hold_RestoreConfig
  46:Generated_Source\PSoC5/Maximum_Peak_Detector_A_Sample_Hold_PM.c **** ********************************************************************************
  47:Generated_Source\PSoC5/Maximum_Peak_Detector_A_Sample_Hold_PM.c **** *
  48:Generated_Source\PSoC5/Maximum_Peak_Detector_A_Sample_Hold_PM.c **** * Summary:
  49:Generated_Source\PSoC5/Maximum_Peak_Detector_A_Sample_Hold_PM.c **** *  Restores the current user configuration.
  50:Generated_Source\PSoC5/Maximum_Peak_Detector_A_Sample_Hold_PM.c **** *
  51:Generated_Source\PSoC5/Maximum_Peak_Detector_A_Sample_Hold_PM.c **** * Parameters:  
  52:Generated_Source\PSoC5/Maximum_Peak_Detector_A_Sample_Hold_PM.c **** *  void.
  53:Generated_Source\PSoC5/Maximum_Peak_Detector_A_Sample_Hold_PM.c **** *
ARM GAS  C:\Users\Krist\AppData\Local\Temp\ccEC4FkB.s 			page 3


  54:Generated_Source\PSoC5/Maximum_Peak_Detector_A_Sample_Hold_PM.c **** * Return: 
  55:Generated_Source\PSoC5/Maximum_Peak_Detector_A_Sample_Hold_PM.c **** *  void
  56:Generated_Source\PSoC5/Maximum_Peak_Detector_A_Sample_Hold_PM.c **** *
  57:Generated_Source\PSoC5/Maximum_Peak_Detector_A_Sample_Hold_PM.c **** *******************************************************************************/
  58:Generated_Source\PSoC5/Maximum_Peak_Detector_A_Sample_Hold_PM.c **** void Maximum_Peak_Detector_A_Sample_Hold_RestoreConfig(void) 
  59:Generated_Source\PSoC5/Maximum_Peak_Detector_A_Sample_Hold_PM.c **** {
  62              		.loc 1 59 0
  63              		.cfi_startproc
  64              		@ args = 0, pretend = 0, frame = 0
  65              		@ frame_needed = 1, uses_anonymous_args = 0
  66              		@ link register save eliminated.
  67 0000 80B4     		push	{r7}
  68              		.cfi_def_cfa_offset 4
  69              		.cfi_offset 7, -4
  70 0002 00AF     		add	r7, sp, #0
  71              		.cfi_def_cfa_register 7
  60:Generated_Source\PSoC5/Maximum_Peak_Detector_A_Sample_Hold_PM.c ****     /* Nothing to restore */
  61:Generated_Source\PSoC5/Maximum_Peak_Detector_A_Sample_Hold_PM.c **** }
  72              		.loc 1 61 0
  73 0004 00BF     		nop
  74 0006 BD46     		mov	sp, r7
  75              		.cfi_def_cfa_register 13
  76              		@ sp needed
  77 0008 80BC     		pop	{r7}
  78              		.cfi_restore 7
  79              		.cfi_def_cfa_offset 0
  80 000a 7047     		bx	lr
  81              		.cfi_endproc
  82              	.LFE1:
  83              		.size	Maximum_Peak_Detector_A_Sample_Hold_RestoreConfig, .-Maximum_Peak_Detector_A_Sample_Hold_Res
  84              		.section	.text.Maximum_Peak_Detector_A_Sample_Hold_Sleep,"ax",%progbits
  85              		.align	2
  86              		.global	Maximum_Peak_Detector_A_Sample_Hold_Sleep
  87              		.thumb
  88              		.thumb_func
  89              		.type	Maximum_Peak_Detector_A_Sample_Hold_Sleep, %function
  90              	Maximum_Peak_Detector_A_Sample_Hold_Sleep:
  91              	.LFB2:
  62:Generated_Source\PSoC5/Maximum_Peak_Detector_A_Sample_Hold_PM.c **** 
  63:Generated_Source\PSoC5/Maximum_Peak_Detector_A_Sample_Hold_PM.c **** 
  64:Generated_Source\PSoC5/Maximum_Peak_Detector_A_Sample_Hold_PM.c **** /*******************************************************************************
  65:Generated_Source\PSoC5/Maximum_Peak_Detector_A_Sample_Hold_PM.c **** * Function Name: Maximum_Peak_Detector_A_Sample_Hold_Sleep
  66:Generated_Source\PSoC5/Maximum_Peak_Detector_A_Sample_Hold_PM.c **** ********************************************************************************
  67:Generated_Source\PSoC5/Maximum_Peak_Detector_A_Sample_Hold_PM.c **** *
  68:Generated_Source\PSoC5/Maximum_Peak_Detector_A_Sample_Hold_PM.c **** * Summary:
  69:Generated_Source\PSoC5/Maximum_Peak_Detector_A_Sample_Hold_PM.c **** *  Disables block's operation and saves its configuration. Should be called 
  70:Generated_Source\PSoC5/Maximum_Peak_Detector_A_Sample_Hold_PM.c **** *  just prior to entering sleep.
  71:Generated_Source\PSoC5/Maximum_Peak_Detector_A_Sample_Hold_PM.c **** *  
  72:Generated_Source\PSoC5/Maximum_Peak_Detector_A_Sample_Hold_PM.c **** * Parameters:  
  73:Generated_Source\PSoC5/Maximum_Peak_Detector_A_Sample_Hold_PM.c **** *  None
  74:Generated_Source\PSoC5/Maximum_Peak_Detector_A_Sample_Hold_PM.c **** *
  75:Generated_Source\PSoC5/Maximum_Peak_Detector_A_Sample_Hold_PM.c **** * Return: 
  76:Generated_Source\PSoC5/Maximum_Peak_Detector_A_Sample_Hold_PM.c **** *  None
  77:Generated_Source\PSoC5/Maximum_Peak_Detector_A_Sample_Hold_PM.c **** *
  78:Generated_Source\PSoC5/Maximum_Peak_Detector_A_Sample_Hold_PM.c **** * Global variables:
  79:Generated_Source\PSoC5/Maximum_Peak_Detector_A_Sample_Hold_PM.c **** *  Maximum_Peak_Detector_A_Sample_Hold_backup:  The structure field 'enableState' is modified 
  80:Generated_Source\PSoC5/Maximum_Peak_Detector_A_Sample_Hold_PM.c **** *  depending on the enable state of the block before entering to sleep mode.
ARM GAS  C:\Users\Krist\AppData\Local\Temp\ccEC4FkB.s 			page 4


  81:Generated_Source\PSoC5/Maximum_Peak_Detector_A_Sample_Hold_PM.c **** *
  82:Generated_Source\PSoC5/Maximum_Peak_Detector_A_Sample_Hold_PM.c **** *******************************************************************************/
  83:Generated_Source\PSoC5/Maximum_Peak_Detector_A_Sample_Hold_PM.c **** void Maximum_Peak_Detector_A_Sample_Hold_Sleep(void) 
  84:Generated_Source\PSoC5/Maximum_Peak_Detector_A_Sample_Hold_PM.c **** {
  92              		.loc 1 84 0
  93              		.cfi_startproc
  94              		@ args = 0, pretend = 0, frame = 0
  95              		@ frame_needed = 1, uses_anonymous_args = 0
  96 0000 80B5     		push	{r7, lr}
  97              		.cfi_def_cfa_offset 8
  98              		.cfi_offset 7, -8
  99              		.cfi_offset 14, -4
 100 0002 00AF     		add	r7, sp, #0
 101              		.cfi_def_cfa_register 7
  85:Generated_Source\PSoC5/Maximum_Peak_Detector_A_Sample_Hold_PM.c ****     /* Save Mixer enable state */
  86:Generated_Source\PSoC5/Maximum_Peak_Detector_A_Sample_Hold_PM.c ****     if((Maximum_Peak_Detector_A_Sample_Hold_PM_ACT_CFG_REG & Maximum_Peak_Detector_A_Sample_Hold_AC
 102              		.loc 1 86 0
 103 0004 094B     		ldr	r3, .L6
 104 0006 1B78     		ldrb	r3, [r3]
 105 0008 DBB2     		uxtb	r3, r3
 106 000a 03F00803 		and	r3, r3, #8
 107 000e 002B     		cmp	r3, #0
 108 0010 05D0     		beq	.L4
  87:Generated_Source\PSoC5/Maximum_Peak_Detector_A_Sample_Hold_PM.c ****     {
  88:Generated_Source\PSoC5/Maximum_Peak_Detector_A_Sample_Hold_PM.c ****         /* Component is enabled */
  89:Generated_Source\PSoC5/Maximum_Peak_Detector_A_Sample_Hold_PM.c ****         Maximum_Peak_Detector_A_Sample_Hold_backup.enableState = 1u;
 109              		.loc 1 89 0
 110 0012 074B     		ldr	r3, .L6+4
 111 0014 0122     		movs	r2, #1
 112 0016 1A70     		strb	r2, [r3]
  90:Generated_Source\PSoC5/Maximum_Peak_Detector_A_Sample_Hold_PM.c ****         /* Stop the configuration */
  91:Generated_Source\PSoC5/Maximum_Peak_Detector_A_Sample_Hold_PM.c ****         Maximum_Peak_Detector_A_Sample_Hold_Stop();
 113              		.loc 1 91 0
 114 0018 FFF7FEFF 		bl	Maximum_Peak_Detector_A_Sample_Hold_Stop
 115 001c 02E0     		b	.L5
 116              	.L4:
  92:Generated_Source\PSoC5/Maximum_Peak_Detector_A_Sample_Hold_PM.c ****     }
  93:Generated_Source\PSoC5/Maximum_Peak_Detector_A_Sample_Hold_PM.c ****     else
  94:Generated_Source\PSoC5/Maximum_Peak_Detector_A_Sample_Hold_PM.c ****     {
  95:Generated_Source\PSoC5/Maximum_Peak_Detector_A_Sample_Hold_PM.c ****         /* Component is disabled */
  96:Generated_Source\PSoC5/Maximum_Peak_Detector_A_Sample_Hold_PM.c ****         Maximum_Peak_Detector_A_Sample_Hold_backup.enableState = 0u;
 117              		.loc 1 96 0
 118 001e 044B     		ldr	r3, .L6+4
 119 0020 0022     		movs	r2, #0
 120 0022 1A70     		strb	r2, [r3]
 121              	.L5:
  97:Generated_Source\PSoC5/Maximum_Peak_Detector_A_Sample_Hold_PM.c ****     }
  98:Generated_Source\PSoC5/Maximum_Peak_Detector_A_Sample_Hold_PM.c ****     /* Saves the user configuration */
  99:Generated_Source\PSoC5/Maximum_Peak_Detector_A_Sample_Hold_PM.c ****     Maximum_Peak_Detector_A_Sample_Hold_SaveConfig();
 122              		.loc 1 99 0
 123 0024 FFF7FEFF 		bl	Maximum_Peak_Detector_A_Sample_Hold_SaveConfig
 100:Generated_Source\PSoC5/Maximum_Peak_Detector_A_Sample_Hold_PM.c **** }
 124              		.loc 1 100 0
 125 0028 00BF     		nop
 126 002a 80BD     		pop	{r7, pc}
 127              	.L7:
 128              		.align	2
ARM GAS  C:\Users\Krist\AppData\Local\Temp\ccEC4FkB.s 			page 5


 129              	.L6:
 130 002c A9430040 		.word	1073759145
 131 0030 00000000 		.word	Maximum_Peak_Detector_A_Sample_Hold_backup
 132              		.cfi_endproc
 133              	.LFE2:
 134              		.size	Maximum_Peak_Detector_A_Sample_Hold_Sleep, .-Maximum_Peak_Detector_A_Sample_Hold_Sleep
 135              		.section	.text.Maximum_Peak_Detector_A_Sample_Hold_Wakeup,"ax",%progbits
 136              		.align	2
 137              		.global	Maximum_Peak_Detector_A_Sample_Hold_Wakeup
 138              		.thumb
 139              		.thumb_func
 140              		.type	Maximum_Peak_Detector_A_Sample_Hold_Wakeup, %function
 141              	Maximum_Peak_Detector_A_Sample_Hold_Wakeup:
 142              	.LFB3:
 101:Generated_Source\PSoC5/Maximum_Peak_Detector_A_Sample_Hold_PM.c **** 
 102:Generated_Source\PSoC5/Maximum_Peak_Detector_A_Sample_Hold_PM.c **** 
 103:Generated_Source\PSoC5/Maximum_Peak_Detector_A_Sample_Hold_PM.c **** /*******************************************************************************
 104:Generated_Source\PSoC5/Maximum_Peak_Detector_A_Sample_Hold_PM.c **** * Function Name: Maximum_Peak_Detector_A_Sample_Hold_Wakeup
 105:Generated_Source\PSoC5/Maximum_Peak_Detector_A_Sample_Hold_PM.c **** ********************************************************************************
 106:Generated_Source\PSoC5/Maximum_Peak_Detector_A_Sample_Hold_PM.c **** *
 107:Generated_Source\PSoC5/Maximum_Peak_Detector_A_Sample_Hold_PM.c **** * Summary:
 108:Generated_Source\PSoC5/Maximum_Peak_Detector_A_Sample_Hold_PM.c **** *  Enables block's operation and restores its configuration. Should be called
 109:Generated_Source\PSoC5/Maximum_Peak_Detector_A_Sample_Hold_PM.c **** *  just after awaking from sleep.
 110:Generated_Source\PSoC5/Maximum_Peak_Detector_A_Sample_Hold_PM.c **** *  
 111:Generated_Source\PSoC5/Maximum_Peak_Detector_A_Sample_Hold_PM.c **** * Parameters:  
 112:Generated_Source\PSoC5/Maximum_Peak_Detector_A_Sample_Hold_PM.c **** *  None
 113:Generated_Source\PSoC5/Maximum_Peak_Detector_A_Sample_Hold_PM.c **** *
 114:Generated_Source\PSoC5/Maximum_Peak_Detector_A_Sample_Hold_PM.c **** * Return: 
 115:Generated_Source\PSoC5/Maximum_Peak_Detector_A_Sample_Hold_PM.c **** *  void
 116:Generated_Source\PSoC5/Maximum_Peak_Detector_A_Sample_Hold_PM.c **** *
 117:Generated_Source\PSoC5/Maximum_Peak_Detector_A_Sample_Hold_PM.c **** * Global variables:
 118:Generated_Source\PSoC5/Maximum_Peak_Detector_A_Sample_Hold_PM.c **** *  Maximum_Peak_Detector_A_Sample_Hold_backup:  The structure field 'enableState' is used to 
 119:Generated_Source\PSoC5/Maximum_Peak_Detector_A_Sample_Hold_PM.c **** *  restore the enable state of block after wakeup from sleep mode.
 120:Generated_Source\PSoC5/Maximum_Peak_Detector_A_Sample_Hold_PM.c **** *
 121:Generated_Source\PSoC5/Maximum_Peak_Detector_A_Sample_Hold_PM.c **** *******************************************************************************/
 122:Generated_Source\PSoC5/Maximum_Peak_Detector_A_Sample_Hold_PM.c **** void Maximum_Peak_Detector_A_Sample_Hold_Wakeup(void) 
 123:Generated_Source\PSoC5/Maximum_Peak_Detector_A_Sample_Hold_PM.c **** {
 143              		.loc 1 123 0
 144              		.cfi_startproc
 145              		@ args = 0, pretend = 0, frame = 0
 146              		@ frame_needed = 1, uses_anonymous_args = 0
 147 0000 80B5     		push	{r7, lr}
 148              		.cfi_def_cfa_offset 8
 149              		.cfi_offset 7, -8
 150              		.cfi_offset 14, -4
 151 0002 00AF     		add	r7, sp, #0
 152              		.cfi_def_cfa_register 7
 124:Generated_Source\PSoC5/Maximum_Peak_Detector_A_Sample_Hold_PM.c ****     /* Restore the user configuration */
 125:Generated_Source\PSoC5/Maximum_Peak_Detector_A_Sample_Hold_PM.c ****     Maximum_Peak_Detector_A_Sample_Hold_RestoreConfig();
 153              		.loc 1 125 0
 154 0004 FFF7FEFF 		bl	Maximum_Peak_Detector_A_Sample_Hold_RestoreConfig
 126:Generated_Source\PSoC5/Maximum_Peak_Detector_A_Sample_Hold_PM.c ****     
 127:Generated_Source\PSoC5/Maximum_Peak_Detector_A_Sample_Hold_PM.c ****     /* Enable's the component operation */
 128:Generated_Source\PSoC5/Maximum_Peak_Detector_A_Sample_Hold_PM.c ****     if(Maximum_Peak_Detector_A_Sample_Hold_backup.enableState == 1u)
 155              		.loc 1 128 0
 156 0008 034B     		ldr	r3, .L11
 157 000a 1B78     		ldrb	r3, [r3]	@ zero_extendqisi2
ARM GAS  C:\Users\Krist\AppData\Local\Temp\ccEC4FkB.s 			page 6


 158 000c 012B     		cmp	r3, #1
 159 000e 01D1     		bne	.L10
 129:Generated_Source\PSoC5/Maximum_Peak_Detector_A_Sample_Hold_PM.c ****     {
 130:Generated_Source\PSoC5/Maximum_Peak_Detector_A_Sample_Hold_PM.c ****         Maximum_Peak_Detector_A_Sample_Hold_Enable();
 160              		.loc 1 130 0
 161 0010 FFF7FEFF 		bl	Maximum_Peak_Detector_A_Sample_Hold_Enable
 162              	.L10:
 131:Generated_Source\PSoC5/Maximum_Peak_Detector_A_Sample_Hold_PM.c ****     } /* Do nothing if component was disable before */
 132:Generated_Source\PSoC5/Maximum_Peak_Detector_A_Sample_Hold_PM.c **** }
 163              		.loc 1 132 0
 164 0014 00BF     		nop
 165 0016 80BD     		pop	{r7, pc}
 166              	.L12:
 167              		.align	2
 168              	.L11:
 169 0018 00000000 		.word	Maximum_Peak_Detector_A_Sample_Hold_backup
 170              		.cfi_endproc
 171              	.LFE3:
 172              		.size	Maximum_Peak_Detector_A_Sample_Hold_Wakeup, .-Maximum_Peak_Detector_A_Sample_Hold_Wakeup
 173              		.text
 174              	.Letext0:
 175              		.file 2 "Generated_Source\\PSoC5\\cytypes.h"
 176              		.file 3 "Generated_Source\\PSoC5\\Maximum_Peak_Detector_A_Sample_Hold.h"