ARM GAS  C:\Users\mikke\AppData\Local\Temp\ccZoPxlt.s 			page 1


   1              		.syntax unified
   2              		.cpu cortex-m3
   3              		.fpu softvfp
   4              		.eabi_attribute 20, 1
   5              		.eabi_attribute 21, 1
   6              		.eabi_attribute 23, 3
   7              		.eabi_attribute 24, 1
   8              		.eabi_attribute 25, 1
   9              		.eabi_attribute 26, 1
  10              		.eabi_attribute 30, 6
  11              		.eabi_attribute 34, 1
  12              		.eabi_attribute 18, 4
  13              		.thumb
  14              		.syntax unified
  15              		.file	"Maximum_Peak_Detector_B.c"
  16              		.text
  17              	.Ltext0:
  18              		.cfi_sections	.debug_frame
  19              		.section	.text.Maximum_Peak_Detector_B_Start,"ax",%progbits
  20              		.align	2
  21              		.global	Maximum_Peak_Detector_B_Start
  22              		.thumb
  23              		.thumb_func
  24              		.type	Maximum_Peak_Detector_B_Start, %function
  25              	Maximum_Peak_Detector_B_Start:
  26              	.LFB0:
  27              		.file 1 "Generated_Source\\PSoC5\\Maximum_Peak_Detector_B.c"
   1:Generated_Source\PSoC5/Maximum_Peak_Detector_B.c **** /******************************************************************************
   2:Generated_Source\PSoC5/Maximum_Peak_Detector_B.c **** * File Name: Maximum_Peak_Detector_B.c
   3:Generated_Source\PSoC5/Maximum_Peak_Detector_B.c **** * Version 1.0
   4:Generated_Source\PSoC5/Maximum_Peak_Detector_B.c **** *
   5:Generated_Source\PSoC5/Maximum_Peak_Detector_B.c **** *  Description: 
   6:Generated_Source\PSoC5/Maximum_Peak_Detector_B.c **** *   API for controlling the maximum peak detector.
   7:Generated_Source\PSoC5/Maximum_Peak_Detector_B.c **** *
   8:Generated_Source\PSoC5/Maximum_Peak_Detector_B.c **** *
   9:Generated_Source\PSoC5/Maximum_Peak_Detector_B.c **** ********************************************************************************
  10:Generated_Source\PSoC5/Maximum_Peak_Detector_B.c **** * Copyright 2008-2010, Cypress Semiconductor Corporation.  All rights reserved.
  11:Generated_Source\PSoC5/Maximum_Peak_Detector_B.c **** * You may use this file only in accordance with the license, terms, conditions, 
  12:Generated_Source\PSoC5/Maximum_Peak_Detector_B.c **** * disclaimers, and limitations in the end user license agreement accompanying 
  13:Generated_Source\PSoC5/Maximum_Peak_Detector_B.c **** * the software package with which this file was provided.
  14:Generated_Source\PSoC5/Maximum_Peak_Detector_B.c **** ********************************************************************************/
  15:Generated_Source\PSoC5/Maximum_Peak_Detector_B.c **** 
  16:Generated_Source\PSoC5/Maximum_Peak_Detector_B.c **** #include <CYDEVICE.H>
  17:Generated_Source\PSoC5/Maximum_Peak_Detector_B.c **** #include "Maximum_Peak_Detector_B.h"
  18:Generated_Source\PSoC5/Maximum_Peak_Detector_B.c **** #include "Maximum_Peak_Detector_B_Comp_1.h"
  19:Generated_Source\PSoC5/Maximum_Peak_Detector_B.c **** #include "Maximum_Peak_Detector_B_Sample_Hold.h"
  20:Generated_Source\PSoC5/Maximum_Peak_Detector_B.c **** 
  21:Generated_Source\PSoC5/Maximum_Peak_Detector_B.c **** /*******************************************************************************
  22:Generated_Source\PSoC5/Maximum_Peak_Detector_B.c **** * Function Name: Maximum_Peak_Detector_B_Start
  23:Generated_Source\PSoC5/Maximum_Peak_Detector_B.c **** ********************************************************************************
  24:Generated_Source\PSoC5/Maximum_Peak_Detector_B.c **** * Summary:
  25:Generated_Source\PSoC5/Maximum_Peak_Detector_B.c **** *   Enables the peak detector component.
  26:Generated_Source\PSoC5/Maximum_Peak_Detector_B.c **** *
  27:Generated_Source\PSoC5/Maximum_Peak_Detector_B.c **** *
  28:Generated_Source\PSoC5/Maximum_Peak_Detector_B.c **** * Parameters:
  29:Generated_Source\PSoC5/Maximum_Peak_Detector_B.c **** *   void.
  30:Generated_Source\PSoC5/Maximum_Peak_Detector_B.c **** *
ARM GAS  C:\Users\mikke\AppData\Local\Temp\ccZoPxlt.s 			page 2


  31:Generated_Source\PSoC5/Maximum_Peak_Detector_B.c **** * Return:
  32:Generated_Source\PSoC5/Maximum_Peak_Detector_B.c **** *   void.
  33:Generated_Source\PSoC5/Maximum_Peak_Detector_B.c **** *   
  34:Generated_Source\PSoC5/Maximum_Peak_Detector_B.c **** *
  35:Generated_Source\PSoC5/Maximum_Peak_Detector_B.c **** *******************************************************************************/
  36:Generated_Source\PSoC5/Maximum_Peak_Detector_B.c **** void Maximum_Peak_Detector_B_Start(void)
  37:Generated_Source\PSoC5/Maximum_Peak_Detector_B.c **** {
  28              		.loc 1 37 0
  29              		.cfi_startproc
  30              		@ args = 0, pretend = 0, frame = 0
  31              		@ frame_needed = 1, uses_anonymous_args = 0
  32 0000 80B5     		push	{r7, lr}
  33              		.cfi_def_cfa_offset 8
  34              		.cfi_offset 7, -8
  35              		.cfi_offset 14, -4
  36 0002 00AF     		add	r7, sp, #0
  37              		.cfi_def_cfa_register 7
  38:Generated_Source\PSoC5/Maximum_Peak_Detector_B.c **** 	Maximum_Peak_Detector_B_Sample_Hold_Start();
  38              		.loc 1 38 0
  39 0004 FFF7FEFF 		bl	Maximum_Peak_Detector_B_Sample_Hold_Start
  39:Generated_Source\PSoC5/Maximum_Peak_Detector_B.c **** 	Maximum_Peak_Detector_B_Comp_1_Start();
  40              		.loc 1 39 0
  41 0008 FFF7FEFF 		bl	Maximum_Peak_Detector_B_Comp_1_Start
  40:Generated_Source\PSoC5/Maximum_Peak_Detector_B.c **** }
  42              		.loc 1 40 0
  43 000c 00BF     		nop
  44 000e 80BD     		pop	{r7, pc}
  45              		.cfi_endproc
  46              	.LFE0:
  47              		.size	Maximum_Peak_Detector_B_Start, .-Maximum_Peak_Detector_B_Start
  48              		.section	.text.Maximum_Peak_Detector_B_Stop,"ax",%progbits
  49              		.align	2
  50              		.global	Maximum_Peak_Detector_B_Stop
  51              		.thumb
  52              		.thumb_func
  53              		.type	Maximum_Peak_Detector_B_Stop, %function
  54              	Maximum_Peak_Detector_B_Stop:
  55              	.LFB1:
  41:Generated_Source\PSoC5/Maximum_Peak_Detector_B.c **** 
  42:Generated_Source\PSoC5/Maximum_Peak_Detector_B.c **** /*******************************************************************************
  43:Generated_Source\PSoC5/Maximum_Peak_Detector_B.c **** * Function Name: Maximum_Peak_Detector_B_Stop
  44:Generated_Source\PSoC5/Maximum_Peak_Detector_B.c **** ********************************************************************************
  45:Generated_Source\PSoC5/Maximum_Peak_Detector_B.c **** * Summary:
  46:Generated_Source\PSoC5/Maximum_Peak_Detector_B.c **** *   Disables the peak detector component.
  47:Generated_Source\PSoC5/Maximum_Peak_Detector_B.c **** *
  48:Generated_Source\PSoC5/Maximum_Peak_Detector_B.c **** *
  49:Generated_Source\PSoC5/Maximum_Peak_Detector_B.c **** * Parameters:
  50:Generated_Source\PSoC5/Maximum_Peak_Detector_B.c **** *   void.
  51:Generated_Source\PSoC5/Maximum_Peak_Detector_B.c **** *
  52:Generated_Source\PSoC5/Maximum_Peak_Detector_B.c **** * Return:
  53:Generated_Source\PSoC5/Maximum_Peak_Detector_B.c **** *   void.
  54:Generated_Source\PSoC5/Maximum_Peak_Detector_B.c **** *   
  55:Generated_Source\PSoC5/Maximum_Peak_Detector_B.c **** *
  56:Generated_Source\PSoC5/Maximum_Peak_Detector_B.c **** *******************************************************************************/
  57:Generated_Source\PSoC5/Maximum_Peak_Detector_B.c **** void Maximum_Peak_Detector_B_Stop(void)
  58:Generated_Source\PSoC5/Maximum_Peak_Detector_B.c **** {
  56              		.loc 1 58 0
ARM GAS  C:\Users\mikke\AppData\Local\Temp\ccZoPxlt.s 			page 3


  57              		.cfi_startproc
  58              		@ args = 0, pretend = 0, frame = 0
  59              		@ frame_needed = 1, uses_anonymous_args = 0
  60 0000 80B5     		push	{r7, lr}
  61              		.cfi_def_cfa_offset 8
  62              		.cfi_offset 7, -8
  63              		.cfi_offset 14, -4
  64 0002 00AF     		add	r7, sp, #0
  65              		.cfi_def_cfa_register 7
  59:Generated_Source\PSoC5/Maximum_Peak_Detector_B.c **** 	Maximum_Peak_Detector_B_Sample_Hold_Stop();
  66              		.loc 1 59 0
  67 0004 FFF7FEFF 		bl	Maximum_Peak_Detector_B_Sample_Hold_Stop
  60:Generated_Source\PSoC5/Maximum_Peak_Detector_B.c **** 	Maximum_Peak_Detector_B_Comp_1_Stop();
  68              		.loc 1 60 0
  69 0008 FFF7FEFF 		bl	Maximum_Peak_Detector_B_Comp_1_Stop
  61:Generated_Source\PSoC5/Maximum_Peak_Detector_B.c **** }
  70              		.loc 1 61 0
  71 000c 00BF     		nop
  72 000e 80BD     		pop	{r7, pc}
  73              		.cfi_endproc
  74              	.LFE1:
  75              		.size	Maximum_Peak_Detector_B_Stop, .-Maximum_Peak_Detector_B_Stop
  76              		.text
  77              	.Letext0: