ARM GAS  C:\Users\rens_\AppData\Local\Temp\cc7sw1WT.s 			page 1


   1              		.syntax unified
   2              		.cpu cortex-m3
   3              		.fpu softvfp
   4              		.eabi_attribute 20, 1
   5              		.eabi_attribute 21, 1
   6              		.eabi_attribute 23, 3
   7              		.eabi_attribute 24, 1
   8              		.eabi_attribute 25, 1
   9              		.eabi_attribute 26, 1
  10              		.eabi_attribute 30, 6
  11              		.eabi_attribute 34, 1
  12              		.eabi_attribute 18, 4
  13              		.thumb
  14              		.syntax unified
  15              		.file	"Mixer_B.c"
  16              		.text
  17              	.Ltext0:
  18              		.cfi_sections	.debug_frame
  19              		.global	Mixer_B_initVar
  20              		.bss
  21              		.type	Mixer_B_initVar, %object
  22              		.size	Mixer_B_initVar, 1
  23              	Mixer_B_initVar:
  24 0000 00       		.space	1
  25              		.global	__aeabi_fcmplt
  26              		.section	.text.Mixer_B_Init,"ax",%progbits
  27              		.align	2
  28              		.global	Mixer_B_Init
  29              		.thumb
  30              		.thumb_func
  31              		.type	Mixer_B_Init, %function
  32              	Mixer_B_Init:
  33              	.LFB0:
  34              		.file 1 "Generated_Source\\PSoC5\\Mixer_B.c"
   1:Generated_Source\PSoC5/Mixer_B.c **** /*******************************************************************************
   2:Generated_Source\PSoC5/Mixer_B.c **** * File Name: Mixer_B.c  
   3:Generated_Source\PSoC5/Mixer_B.c **** * Version 2.0
   4:Generated_Source\PSoC5/Mixer_B.c **** *
   5:Generated_Source\PSoC5/Mixer_B.c **** * Description:
   6:Generated_Source\PSoC5/Mixer_B.c **** *  This file provides the source code to the API for the MIXER Component.
   7:Generated_Source\PSoC5/Mixer_B.c **** *
   8:Generated_Source\PSoC5/Mixer_B.c **** * Note:
   9:Generated_Source\PSoC5/Mixer_B.c **** *
  10:Generated_Source\PSoC5/Mixer_B.c **** *******************************************************************************
  11:Generated_Source\PSoC5/Mixer_B.c **** * Copyright 2008-2012, Cypress Semiconductor Corporation.  All rights reserved.
  12:Generated_Source\PSoC5/Mixer_B.c **** * You may use this file only in accordance with the license, terms, conditions, 
  13:Generated_Source\PSoC5/Mixer_B.c **** * disclaimers, and limitations in the end user license agreement accompanying 
  14:Generated_Source\PSoC5/Mixer_B.c **** * the software package with which this file was provided.
  15:Generated_Source\PSoC5/Mixer_B.c **** *******************************************************************************/
  16:Generated_Source\PSoC5/Mixer_B.c **** 
  17:Generated_Source\PSoC5/Mixer_B.c **** #include "Mixer_B.h"
  18:Generated_Source\PSoC5/Mixer_B.c **** 
  19:Generated_Source\PSoC5/Mixer_B.c **** #if (!CY_PSOC5A)
  20:Generated_Source\PSoC5/Mixer_B.c ****     #if (CYDEV_VARIABLE_VDDA == 1u)
  21:Generated_Source\PSoC5/Mixer_B.c ****         #include "CyScBoostClk.h"
  22:Generated_Source\PSoC5/Mixer_B.c ****     #endif /* (CYDEV_VARIABLE_VDDA == 1u) */
  23:Generated_Source\PSoC5/Mixer_B.c **** #endif /* (!CY_PSOC5A) */
ARM GAS  C:\Users\rens_\AppData\Local\Temp\cc7sw1WT.s 			page 2


  24:Generated_Source\PSoC5/Mixer_B.c **** 
  25:Generated_Source\PSoC5/Mixer_B.c **** #if (Mixer_B_LO_SOURCE == Mixer_B_LO_SOURCE_INTERNAL)
  26:Generated_Source\PSoC5/Mixer_B.c ****     #include "Mixer_B_aclk.h"
  27:Generated_Source\PSoC5/Mixer_B.c **** #endif /* Mixer_B_LO_SOURCE */
  28:Generated_Source\PSoC5/Mixer_B.c **** 
  29:Generated_Source\PSoC5/Mixer_B.c **** /* Fixed configuration of SC Block only performed once */
  30:Generated_Source\PSoC5/Mixer_B.c **** uint8 Mixer_B_initVar = 0u;
  31:Generated_Source\PSoC5/Mixer_B.c **** 
  32:Generated_Source\PSoC5/Mixer_B.c **** /* Only for PSoC5A */
  33:Generated_Source\PSoC5/Mixer_B.c **** #if (CY_PSOC5A)
  34:Generated_Source\PSoC5/Mixer_B.c ****     static Mixer_B_backupStruct Mixer_B_P5backup;
  35:Generated_Source\PSoC5/Mixer_B.c **** #endif /* CY_PSOC5A */
  36:Generated_Source\PSoC5/Mixer_B.c **** 
  37:Generated_Source\PSoC5/Mixer_B.c **** 
  38:Generated_Source\PSoC5/Mixer_B.c **** /*******************************************************************************
  39:Generated_Source\PSoC5/Mixer_B.c **** * Function Name: Mixer_B_Init
  40:Generated_Source\PSoC5/Mixer_B.c **** ********************************************************************************
  41:Generated_Source\PSoC5/Mixer_B.c **** *
  42:Generated_Source\PSoC5/Mixer_B.c **** * Summary:
  43:Generated_Source\PSoC5/Mixer_B.c **** *  Initialize component's parameters to the parameters set by user in the 
  44:Generated_Source\PSoC5/Mixer_B.c **** *  customizer of the component placed onto schematic. Usually called in 
  45:Generated_Source\PSoC5/Mixer_B.c **** *  Mixer_B_Start().
  46:Generated_Source\PSoC5/Mixer_B.c **** *
  47:Generated_Source\PSoC5/Mixer_B.c **** * Parameters:  
  48:Generated_Source\PSoC5/Mixer_B.c **** *  void
  49:Generated_Source\PSoC5/Mixer_B.c **** *
  50:Generated_Source\PSoC5/Mixer_B.c **** * Return: 
  51:Generated_Source\PSoC5/Mixer_B.c **** *  void
  52:Generated_Source\PSoC5/Mixer_B.c **** *
  53:Generated_Source\PSoC5/Mixer_B.c **** *******************************************************************************/
  54:Generated_Source\PSoC5/Mixer_B.c **** void Mixer_B_Init(void) 
  55:Generated_Source\PSoC5/Mixer_B.c **** {
  35              		.loc 1 55 0
  36              		.cfi_startproc
  37              		@ args = 0, pretend = 0, frame = 8
  38              		@ frame_needed = 1, uses_anonymous_args = 0
  39 0000 80B5     		push	{r7, lr}
  40              		.cfi_def_cfa_offset 8
  41              		.cfi_offset 7, -8
  42              		.cfi_offset 14, -4
  43 0002 82B0     		sub	sp, sp, #8
  44              		.cfi_def_cfa_offset 16
  45 0004 00AF     		add	r7, sp, #0
  46              		.cfi_def_cfa_register 7
  56:Generated_Source\PSoC5/Mixer_B.c ****     float LOf = Mixer_B_LO_CLOCK_FREQ;
  47              		.loc 1 56 0
  48 0006 124B     		ldr	r3, .L7
  49 0008 7B60     		str	r3, [r7, #4]	@ float
  57:Generated_Source\PSoC5/Mixer_B.c ****     
  58:Generated_Source\PSoC5/Mixer_B.c ****     /* Configure SC Block based on selected Mixer type */
  59:Generated_Source\PSoC5/Mixer_B.c ****     /* Continuous Time (up) mixer */
  60:Generated_Source\PSoC5/Mixer_B.c ****     #if (Mixer_B_MIXER_TYPE == Mixer_B_CTMIXER) 
  61:Generated_Source\PSoC5/Mixer_B.c ****         /* SC Block mode -  - SCxx_CR0[3:1] */
  62:Generated_Source\PSoC5/Mixer_B.c ****         Mixer_B_CR0_REG = Mixer_B_MODE_CTMIXER;   
  63:Generated_Source\PSoC5/Mixer_B.c **** 
  64:Generated_Source\PSoC5/Mixer_B.c ****         /* SC Block CR1 */ 
  65:Generated_Source\PSoC5/Mixer_B.c ****         Mixer_B_CR1_REG = (Mixer_B_COMP_4P35PF  |
ARM GAS  C:\Users\rens_\AppData\Local\Temp\cc7sw1WT.s 			page 3


  66:Generated_Source\PSoC5/Mixer_B.c ****                                 Mixer_B_DIV2_DISABLE |
  67:Generated_Source\PSoC5/Mixer_B.c ****                                 Mixer_B_GAIN_0DB);                                 
  68:Generated_Source\PSoC5/Mixer_B.c **** 
  69:Generated_Source\PSoC5/Mixer_B.c ****         /* 
  70:Generated_Source\PSoC5/Mixer_B.c ****             Set SC Block resistor values based on Local Oscillator being above 
  71:Generated_Source\PSoC5/Mixer_B.c ****             or below 100kHz - controled by r20_40 (Rmix) bit for CT mode mixer
  72:Generated_Source\PSoC5/Mixer_B.c ****             and SC Block
  73:Generated_Source\PSoC5/Mixer_B.c ****         */
  74:Generated_Source\PSoC5/Mixer_B.c **** 
  75:Generated_Source\PSoC5/Mixer_B.c ****         if (LOf < Mixer_B_LO_CLOCK_FREQ_100_KHz)
  76:Generated_Source\PSoC5/Mixer_B.c ****         {
  77:Generated_Source\PSoC5/Mixer_B.c ****             Mixer_B_CR2_REG = (Mixer_B_BIAS_LOW |
  78:Generated_Source\PSoC5/Mixer_B.c **** 										Mixer_B_REDC_01 |
  79:Generated_Source\PSoC5/Mixer_B.c **** 										Mixer_B_GNDVREF_DI |
  80:Generated_Source\PSoC5/Mixer_B.c **** 										Mixer_B_R20_40B_40K);
  81:Generated_Source\PSoC5/Mixer_B.c ****         }
  82:Generated_Source\PSoC5/Mixer_B.c ****         else
  83:Generated_Source\PSoC5/Mixer_B.c ****         {
  84:Generated_Source\PSoC5/Mixer_B.c ****             Mixer_B_CR2_REG = (Mixer_B_BIAS_LOW |
  85:Generated_Source\PSoC5/Mixer_B.c **** 										Mixer_B_REDC_01 |
  86:Generated_Source\PSoC5/Mixer_B.c **** 										Mixer_B_GNDVREF_DI |
  87:Generated_Source\PSoC5/Mixer_B.c **** 										Mixer_B_R20_40B_20K);
  88:Generated_Source\PSoC5/Mixer_B.c ****         }
  89:Generated_Source\PSoC5/Mixer_B.c ****     #else
  90:Generated_Source\PSoC5/Mixer_B.c ****         /* Discrete Time (down) mixer */
  91:Generated_Source\PSoC5/Mixer_B.c ****         /* SC Block mode -  - SCxx_CR0[3:1] */
  92:Generated_Source\PSoC5/Mixer_B.c ****         Mixer_B_CR0_REG = Mixer_B_MODE_DTMIXER;       
  50              		.loc 1 92 0
  51 000a 124B     		ldr	r3, .L7+4
  52 000c 0622     		movs	r2, #6
  53 000e 1A70     		strb	r2, [r3]
  93:Generated_Source\PSoC5/Mixer_B.c **** 
  94:Generated_Source\PSoC5/Mixer_B.c ****         /* SC Block CR1 */ 
  95:Generated_Source\PSoC5/Mixer_B.c ****         Mixer_B_CR1_REG = (Mixer_B_COMP_4P35PF  |
  54              		.loc 1 95 0
  55 0010 114B     		ldr	r3, .L7+8
  56 0012 1822     		movs	r2, #24
  57 0014 1A70     		strb	r2, [r3]
  96:Generated_Source\PSoC5/Mixer_B.c ****                                 Mixer_B_DIV2_ENABLE |
  97:Generated_Source\PSoC5/Mixer_B.c ****                                 Mixer_B_GAIN_0DB);
  98:Generated_Source\PSoC5/Mixer_B.c **** 
  99:Generated_Source\PSoC5/Mixer_B.c ****         /* 
 100:Generated_Source\PSoC5/Mixer_B.c ****             Set SC Block resistor values based on Local Oscillator beign above 
 101:Generated_Source\PSoC5/Mixer_B.c ****             or below 100kHz - set r20_40 (input resitance) and rval (feedback) 
 102:Generated_Source\PSoC5/Mixer_B.c ****             resistor values seperately for DT mode and SC Block
 103:Generated_Source\PSoC5/Mixer_B.c ****         */
 104:Generated_Source\PSoC5/Mixer_B.c ****         if (LOf < Mixer_B_LO_CLOCK_FREQ_100_KHz)
  58              		.loc 1 104 0
  59 0016 1149     		ldr	r1, .L7+12
  60 0018 7868     		ldr	r0, [r7, #4]	@ float
  61 001a FFF7FEFF 		bl	__aeabi_fcmplt
  62 001e 0346     		mov	r3, r0
  63 0020 002B     		cmp	r3, #0
  64 0022 03D0     		beq	.L6
 105:Generated_Source\PSoC5/Mixer_B.c ****         {
 106:Generated_Source\PSoC5/Mixer_B.c ****             Mixer_B_CR2_REG = (Mixer_B_BIAS_LOW |
  65              		.loc 1 106 0
ARM GAS  C:\Users\rens_\AppData\Local\Temp\cc7sw1WT.s 			page 4


  66 0024 0E4B     		ldr	r3, .L7+16
  67 0026 2122     		movs	r2, #33
  68 0028 1A70     		strb	r2, [r3]
  69 002a 02E0     		b	.L4
  70              	.L6:
 107:Generated_Source\PSoC5/Mixer_B.c **** 										Mixer_B_GNDVREF_DI |
 108:Generated_Source\PSoC5/Mixer_B.c **** 										Mixer_B_R20_40B_40K |
 109:Generated_Source\PSoC5/Mixer_B.c **** 										Mixer_B_RVAL_40K); 
 110:Generated_Source\PSoC5/Mixer_B.c ****         }
 111:Generated_Source\PSoC5/Mixer_B.c ****         else
 112:Generated_Source\PSoC5/Mixer_B.c ****         {
 113:Generated_Source\PSoC5/Mixer_B.c ****             Mixer_B_CR2_REG = (Mixer_B_BIAS_LOW |
  71              		.loc 1 113 0
  72 002c 0C4B     		ldr	r3, .L7+16
  73 002e 0322     		movs	r2, #3
  74 0030 1A70     		strb	r2, [r3]
  75              	.L4:
 114:Generated_Source\PSoC5/Mixer_B.c **** 										Mixer_B_GNDVREF_DI |
 115:Generated_Source\PSoC5/Mixer_B.c **** 										Mixer_B_R20_40B_20K |
 116:Generated_Source\PSoC5/Mixer_B.c **** 										Mixer_B_RVAL_20K);
 117:Generated_Source\PSoC5/Mixer_B.c ****         }
 118:Generated_Source\PSoC5/Mixer_B.c ****     #endif /* end if - Mixer Type */
 119:Generated_Source\PSoC5/Mixer_B.c **** 
 120:Generated_Source\PSoC5/Mixer_B.c ****     /* Enable SC Block clocking */
 121:Generated_Source\PSoC5/Mixer_B.c ****     Mixer_B_CLK_REG |= Mixer_B_CLK_EN;
  76              		.loc 1 121 0
  77 0032 0C4A     		ldr	r2, .L7+20
  78 0034 0B4B     		ldr	r3, .L7+20
  79 0036 1B78     		ldrb	r3, [r3]
  80 0038 DBB2     		uxtb	r3, r3
  81 003a 43F00803 		orr	r3, r3, #8
  82 003e DBB2     		uxtb	r3, r3
  83 0040 1370     		strb	r3, [r2]
 122:Generated_Source\PSoC5/Mixer_B.c **** 
 123:Generated_Source\PSoC5/Mixer_B.c ****     /* Set default power */
 124:Generated_Source\PSoC5/Mixer_B.c ****     Mixer_B_SetPower(Mixer_B_INIT_POWER);
  84              		.loc 1 124 0
  85 0042 0220     		movs	r0, #2
  86 0044 FFF7FEFF 		bl	Mixer_B_SetPower
 125:Generated_Source\PSoC5/Mixer_B.c ****     
 126:Generated_Source\PSoC5/Mixer_B.c ****     /* Set 50 % Duty cycle for LO clock if LO source is internal */
 127:Generated_Source\PSoC5/Mixer_B.c ****     #if(Mixer_B_LO_SOURCE == Mixer_B_LO_SOURCE_INTERNAL)
 128:Generated_Source\PSoC5/Mixer_B.c ****         Mixer_B_aclk_SetMode(CYCLK_DUTY);
 129:Generated_Source\PSoC5/Mixer_B.c ****     #endif /* Mixer_B_LO_SOURCE == Mixer_B_LO_SOURCE_INTERNAL */
 130:Generated_Source\PSoC5/Mixer_B.c **** 
 131:Generated_Source\PSoC5/Mixer_B.c **** }
  87              		.loc 1 131 0
  88 0048 00BF     		nop
  89 004a 0837     		adds	r7, r7, #8
  90              		.cfi_def_cfa_offset 8
  91 004c BD46     		mov	sp, r7
  92              		.cfi_def_cfa_register 13
  93              		@ sp needed
  94 004e 80BD     		pop	{r7, pc}
  95              	.L8:
  96              		.align	2
  97              	.L7:
ARM GAS  C:\Users\rens_\AppData\Local\Temp\cc7sw1WT.s 			page 5


  98 0050 00002442 		.word	1109655552
  99 0054 08580040 		.word	1073764360
 100 0058 09580040 		.word	1073764361
 101 005c 0000C842 		.word	1120403456
 102 0060 0A580040 		.word	1073764362
 103 0064 2B5A0040 		.word	1073764907
 104              		.cfi_endproc
 105              	.LFE0:
 106              		.size	Mixer_B_Init, .-Mixer_B_Init
 107              		.section	.text.Mixer_B_Enable,"ax",%progbits
 108              		.align	2
 109              		.global	Mixer_B_Enable
 110              		.thumb
 111              		.thumb_func
 112              		.type	Mixer_B_Enable, %function
 113              	Mixer_B_Enable:
 114              	.LFB1:
 132:Generated_Source\PSoC5/Mixer_B.c **** 
 133:Generated_Source\PSoC5/Mixer_B.c **** 
 134:Generated_Source\PSoC5/Mixer_B.c **** /*******************************************************************************
 135:Generated_Source\PSoC5/Mixer_B.c **** * Function Name: Mixer_B_Enable
 136:Generated_Source\PSoC5/Mixer_B.c **** ********************************************************************************
 137:Generated_Source\PSoC5/Mixer_B.c **** *  
 138:Generated_Source\PSoC5/Mixer_B.c **** * Summary: 
 139:Generated_Source\PSoC5/Mixer_B.c **** *  Enables the Mixer block operation
 140:Generated_Source\PSoC5/Mixer_B.c **** *
 141:Generated_Source\PSoC5/Mixer_B.c **** * Parameters:  
 142:Generated_Source\PSoC5/Mixer_B.c **** *  void
 143:Generated_Source\PSoC5/Mixer_B.c **** *
 144:Generated_Source\PSoC5/Mixer_B.c **** * Return: 
 145:Generated_Source\PSoC5/Mixer_B.c **** *  void
 146:Generated_Source\PSoC5/Mixer_B.c **** *
 147:Generated_Source\PSoC5/Mixer_B.c **** *******************************************************************************/
 148:Generated_Source\PSoC5/Mixer_B.c **** void Mixer_B_Enable(void) 
 149:Generated_Source\PSoC5/Mixer_B.c **** {
 115              		.loc 1 149 0
 116              		.cfi_startproc
 117              		@ args = 0, pretend = 0, frame = 0
 118              		@ frame_needed = 1, uses_anonymous_args = 0
 119              		@ link register save eliminated.
 120 0000 80B4     		push	{r7}
 121              		.cfi_def_cfa_offset 4
 122              		.cfi_offset 7, -4
 123 0002 00AF     		add	r7, sp, #0
 124              		.cfi_def_cfa_register 7
 150:Generated_Source\PSoC5/Mixer_B.c ****     /* This is to restore the value of register CR1 and CR2 which is saved 
 151:Generated_Source\PSoC5/Mixer_B.c ****       in prior to the modifications in stop() API */
 152:Generated_Source\PSoC5/Mixer_B.c ****     #if (CY_PSOC5A)
 153:Generated_Source\PSoC5/Mixer_B.c ****         if(Mixer_B_P5backup.enableState == 1u)
 154:Generated_Source\PSoC5/Mixer_B.c ****         {
 155:Generated_Source\PSoC5/Mixer_B.c ****             Mixer_B_CR1_REG = Mixer_B_P5backup.scCR1Reg;
 156:Generated_Source\PSoC5/Mixer_B.c ****             Mixer_B_CR2_REG = Mixer_B_P5backup.scCR2Reg;
 157:Generated_Source\PSoC5/Mixer_B.c ****             Mixer_B_P5backup.enableState = 0u;
 158:Generated_Source\PSoC5/Mixer_B.c ****         }
 159:Generated_Source\PSoC5/Mixer_B.c ****     #endif /* CY_PSOC5A */
 160:Generated_Source\PSoC5/Mixer_B.c ****     
 161:Generated_Source\PSoC5/Mixer_B.c ****     /* Enable power to SC block in active mode */
ARM GAS  C:\Users\rens_\AppData\Local\Temp\cc7sw1WT.s 			page 6


 162:Generated_Source\PSoC5/Mixer_B.c ****     Mixer_B_PM_ACT_CFG_REG |= Mixer_B_ACT_PWR_EN;
 125              		.loc 1 162 0
 126 0004 0D4A     		ldr	r2, .L10
 127 0006 0D4B     		ldr	r3, .L10
 128 0008 1B78     		ldrb	r3, [r3]
 129 000a DBB2     		uxtb	r3, r3
 130 000c 43F00403 		orr	r3, r3, #4
 131 0010 DBB2     		uxtb	r3, r3
 132 0012 1370     		strb	r3, [r2]
 163:Generated_Source\PSoC5/Mixer_B.c **** 
 164:Generated_Source\PSoC5/Mixer_B.c ****     /* Enable power to SC block in Alternative active mode */
 165:Generated_Source\PSoC5/Mixer_B.c ****     Mixer_B_PM_STBY_CFG_REG |= Mixer_B_STBY_PWR_EN;
 133              		.loc 1 165 0
 134 0014 0A4A     		ldr	r2, .L10+4
 135 0016 0A4B     		ldr	r3, .L10+4
 136 0018 1B78     		ldrb	r3, [r3]
 137 001a DBB2     		uxtb	r3, r3
 138 001c 43F00403 		orr	r3, r3, #4
 139 0020 DBB2     		uxtb	r3, r3
 140 0022 1370     		strb	r3, [r2]
 166:Generated_Source\PSoC5/Mixer_B.c ****     
 167:Generated_Source\PSoC5/Mixer_B.c ****     /* Enable LO_Internal clock if LO source is choosen as internal */
 168:Generated_Source\PSoC5/Mixer_B.c ****     #if(Mixer_B_LO_SOURCE == Mixer_B_LO_SOURCE_INTERNAL)
 169:Generated_Source\PSoC5/Mixer_B.c ****         /* Enable power to the LO clock */
 170:Generated_Source\PSoC5/Mixer_B.c ****         Mixer_B_PWRMGR_ACLK_REG |= Mixer_B_ACT_PWR_ACLK_EN;        
 171:Generated_Source\PSoC5/Mixer_B.c ****         Mixer_B_STBY_PWRMGR_ACLK_REG |= Mixer_B_STBY_PWR_ACLK_EN;
 172:Generated_Source\PSoC5/Mixer_B.c ****         /* Enable the clock */
 173:Generated_Source\PSoC5/Mixer_B.c ****         Mixer_B_aclk_Enable();        
 174:Generated_Source\PSoC5/Mixer_B.c ****     #endif /* Mixer_B_LO_SOURCE == Mixer_B_LO_SOURCE_INTERNAL */
 175:Generated_Source\PSoC5/Mixer_B.c **** 
 176:Generated_Source\PSoC5/Mixer_B.c ****     Mixer_B_PUMP_CR1_REG |= Mixer_B_PUMP_CR1_SC_CLKSEL;
 141              		.loc 1 176 0
 142 0024 074A     		ldr	r2, .L10+8
 143 0026 074B     		ldr	r3, .L10+8
 144 0028 1B78     		ldrb	r3, [r3]
 145 002a DBB2     		uxtb	r3, r3
 146 002c 63F07F03 		orn	r3, r3, #127
 147 0030 DBB2     		uxtb	r3, r3
 148 0032 1370     		strb	r3, [r2]
 177:Generated_Source\PSoC5/Mixer_B.c ****     
 178:Generated_Source\PSoC5/Mixer_B.c ****     #if (!CY_PSOC5A)
 179:Generated_Source\PSoC5/Mixer_B.c ****         #if (CYDEV_VARIABLE_VDDA == 1u)
 180:Generated_Source\PSoC5/Mixer_B.c ****             if(CyScPumpEnabled == 1u)
 181:Generated_Source\PSoC5/Mixer_B.c ****             {
 182:Generated_Source\PSoC5/Mixer_B.c ****                 Mixer_B_BSTCLK_REG &= (uint8)(~Mixer_B_BST_CLK_INDEX_MASK);
 183:Generated_Source\PSoC5/Mixer_B.c ****                 Mixer_B_BSTCLK_REG |= Mixer_B_BST_CLK_EN | CyScBoostClk__INDEX;
 184:Generated_Source\PSoC5/Mixer_B.c ****                 Mixer_B_SC_MISC_REG |= Mixer_B_PUMP_FORCE;
 185:Generated_Source\PSoC5/Mixer_B.c ****                 CyScBoostClk_Start();
 186:Generated_Source\PSoC5/Mixer_B.c ****             }
 187:Generated_Source\PSoC5/Mixer_B.c ****             else
 188:Generated_Source\PSoC5/Mixer_B.c ****             {
 189:Generated_Source\PSoC5/Mixer_B.c ****                 Mixer_B_BSTCLK_REG &= (uint8)(~Mixer_B_BST_CLK_EN);
 190:Generated_Source\PSoC5/Mixer_B.c ****                 Mixer_B_SC_MISC_REG &= (uint8)(~Mixer_B_PUMP_FORCE);
 191:Generated_Source\PSoC5/Mixer_B.c ****             }
 192:Generated_Source\PSoC5/Mixer_B.c ****         #endif /* (CYDEV_VARIABLE_VDDA == 1u) */
 193:Generated_Source\PSoC5/Mixer_B.c ****     #endif /* (!CY_PSOC5A) */
 194:Generated_Source\PSoC5/Mixer_B.c **** }
ARM GAS  C:\Users\rens_\AppData\Local\Temp\cc7sw1WT.s 			page 7


 149              		.loc 1 194 0
 150 0034 00BF     		nop
 151 0036 BD46     		mov	sp, r7
 152              		.cfi_def_cfa_register 13
 153              		@ sp needed
 154 0038 80BC     		pop	{r7}
 155              		.cfi_restore 7
 156              		.cfi_def_cfa_offset 0
 157 003a 7047     		bx	lr
 158              	.L11:
 159              		.align	2
 160              	.L10:
 161 003c A9430040 		.word	1073759145
 162 0040 B9430040 		.word	1073759161
 163 0044 77580040 		.word	1073764471
 164              		.cfi_endproc
 165              	.LFE1:
 166              		.size	Mixer_B_Enable, .-Mixer_B_Enable
 167              		.section	.text.Mixer_B_Start,"ax",%progbits
 168              		.align	2
 169              		.global	Mixer_B_Start
 170              		.thumb
 171              		.thumb_func
 172              		.type	Mixer_B_Start, %function
 173              	Mixer_B_Start:
 174              	.LFB2:
 195:Generated_Source\PSoC5/Mixer_B.c **** 
 196:Generated_Source\PSoC5/Mixer_B.c **** 
 197:Generated_Source\PSoC5/Mixer_B.c **** /*******************************************************************************
 198:Generated_Source\PSoC5/Mixer_B.c **** * Function Name: Mixer_B_Start
 199:Generated_Source\PSoC5/Mixer_B.c **** ********************************************************************************
 200:Generated_Source\PSoC5/Mixer_B.c **** *
 201:Generated_Source\PSoC5/Mixer_B.c **** * Summary:
 202:Generated_Source\PSoC5/Mixer_B.c **** *  The start function initializes the SC block control registers based on the
 203:Generated_Source\PSoC5/Mixer_B.c **** *  Mixer type selected and and enables power to the SC block
 204:Generated_Source\PSoC5/Mixer_B.c **** *
 205:Generated_Source\PSoC5/Mixer_B.c **** * Parameters:  
 206:Generated_Source\PSoC5/Mixer_B.c **** *  void
 207:Generated_Source\PSoC5/Mixer_B.c **** *
 208:Generated_Source\PSoC5/Mixer_B.c **** * Return: 
 209:Generated_Source\PSoC5/Mixer_B.c **** *  void 
 210:Generated_Source\PSoC5/Mixer_B.c **** *
 211:Generated_Source\PSoC5/Mixer_B.c **** * Global variables:
 212:Generated_Source\PSoC5/Mixer_B.c **** *  Mixer_B_initVar:  Used to check the initial configuration,
 213:Generated_Source\PSoC5/Mixer_B.c **** *  modified when this function is called for the first time.
 214:Generated_Source\PSoC5/Mixer_B.c **** *
 215:Generated_Source\PSoC5/Mixer_B.c **** * Theory: 
 216:Generated_Source\PSoC5/Mixer_B.c **** *  Full initialization of the SC Block configuration registers is only perfomed 
 217:Generated_Source\PSoC5/Mixer_B.c **** *  the first time the routine executes - global variable 
 218:Generated_Source\PSoC5/Mixer_B.c **** *  Mixer_B_initVar is used indicate that the static configuration has 
 219:Generated_Source\PSoC5/Mixer_B.c **** *  been completed.
 220:Generated_Source\PSoC5/Mixer_B.c **** *
 221:Generated_Source\PSoC5/Mixer_B.c **** *******************************************************************************/
 222:Generated_Source\PSoC5/Mixer_B.c **** void Mixer_B_Start(void) 
 223:Generated_Source\PSoC5/Mixer_B.c **** {
 175              		.loc 1 223 0
 176              		.cfi_startproc
ARM GAS  C:\Users\rens_\AppData\Local\Temp\cc7sw1WT.s 			page 8


 177              		@ args = 0, pretend = 0, frame = 0
 178              		@ frame_needed = 1, uses_anonymous_args = 0
 179 0000 80B5     		push	{r7, lr}
 180              		.cfi_def_cfa_offset 8
 181              		.cfi_offset 7, -8
 182              		.cfi_offset 14, -4
 183 0002 00AF     		add	r7, sp, #0
 184              		.cfi_def_cfa_register 7
 224:Generated_Source\PSoC5/Mixer_B.c ****     /* If not Initialized then initialize all required hardware and software */
 225:Generated_Source\PSoC5/Mixer_B.c ****     if(Mixer_B_initVar == 0u)
 185              		.loc 1 225 0
 186 0004 064B     		ldr	r3, .L14
 187 0006 1B78     		ldrb	r3, [r3]	@ zero_extendqisi2
 188 0008 002B     		cmp	r3, #0
 189 000a 04D1     		bne	.L13
 226:Generated_Source\PSoC5/Mixer_B.c ****     {
 227:Generated_Source\PSoC5/Mixer_B.c ****         Mixer_B_Init();
 190              		.loc 1 227 0
 191 000c FFF7FEFF 		bl	Mixer_B_Init
 228:Generated_Source\PSoC5/Mixer_B.c ****         Mixer_B_initVar = 1u;
 192              		.loc 1 228 0
 193 0010 034B     		ldr	r3, .L14
 194 0012 0122     		movs	r2, #1
 195 0014 1A70     		strb	r2, [r3]
 196              	.L13:
 229:Generated_Source\PSoC5/Mixer_B.c ****     }
 230:Generated_Source\PSoC5/Mixer_B.c ****     /* Enable the power to the block */
 231:Generated_Source\PSoC5/Mixer_B.c ****     Mixer_B_Enable();
 197              		.loc 1 231 0
 198 0016 FFF7FEFF 		bl	Mixer_B_Enable
 232:Generated_Source\PSoC5/Mixer_B.c ****     
 233:Generated_Source\PSoC5/Mixer_B.c **** }
 199              		.loc 1 233 0
 200 001a 00BF     		nop
 201 001c 80BD     		pop	{r7, pc}
 202              	.L15:
 203 001e 00BF     		.align	2
 204              	.L14:
 205 0020 00000000 		.word	Mixer_B_initVar
 206              		.cfi_endproc
 207              	.LFE2:
 208              		.size	Mixer_B_Start, .-Mixer_B_Start
 209              		.section	.text.Mixer_B_Stop,"ax",%progbits
 210              		.align	2
 211              		.global	Mixer_B_Stop
 212              		.thumb
 213              		.thumb_func
 214              		.type	Mixer_B_Stop, %function
 215              	Mixer_B_Stop:
 216              	.LFB3:
 234:Generated_Source\PSoC5/Mixer_B.c **** 
 235:Generated_Source\PSoC5/Mixer_B.c **** 
 236:Generated_Source\PSoC5/Mixer_B.c **** /*******************************************************************************
 237:Generated_Source\PSoC5/Mixer_B.c **** * Function Name: Mixer_B_Stop
 238:Generated_Source\PSoC5/Mixer_B.c **** ********************************************************************************
 239:Generated_Source\PSoC5/Mixer_B.c **** *
 240:Generated_Source\PSoC5/Mixer_B.c **** * Summary:
ARM GAS  C:\Users\rens_\AppData\Local\Temp\cc7sw1WT.s 			page 9


 241:Generated_Source\PSoC5/Mixer_B.c **** *  Disables power to SC block.
 242:Generated_Source\PSoC5/Mixer_B.c **** *
 243:Generated_Source\PSoC5/Mixer_B.c **** * Parameters:  
 244:Generated_Source\PSoC5/Mixer_B.c **** *  void 
 245:Generated_Source\PSoC5/Mixer_B.c **** *
 246:Generated_Source\PSoC5/Mixer_B.c **** * Return: 
 247:Generated_Source\PSoC5/Mixer_B.c **** *  void 
 248:Generated_Source\PSoC5/Mixer_B.c **** *
 249:Generated_Source\PSoC5/Mixer_B.c **** *******************************************************************************/
 250:Generated_Source\PSoC5/Mixer_B.c **** void Mixer_B_Stop(void) 
 251:Generated_Source\PSoC5/Mixer_B.c **** {       
 217              		.loc 1 251 0
 218              		.cfi_startproc
 219              		@ args = 0, pretend = 0, frame = 0
 220              		@ frame_needed = 1, uses_anonymous_args = 0
 221              		@ link register save eliminated.
 222 0000 80B4     		push	{r7}
 223              		.cfi_def_cfa_offset 4
 224              		.cfi_offset 7, -4
 225 0002 00AF     		add	r7, sp, #0
 226              		.cfi_def_cfa_register 7
 252:Generated_Source\PSoC5/Mixer_B.c ****     /* Disble power to the Amp in Active mode template */
 253:Generated_Source\PSoC5/Mixer_B.c ****     Mixer_B_PM_ACT_CFG_REG &= (uint8)(~Mixer_B_ACT_PWR_EN);
 227              		.loc 1 253 0
 228 0004 094A     		ldr	r2, .L17
 229 0006 094B     		ldr	r3, .L17
 230 0008 1B78     		ldrb	r3, [r3]
 231 000a DBB2     		uxtb	r3, r3
 232 000c 23F00403 		bic	r3, r3, #4
 233 0010 DBB2     		uxtb	r3, r3
 234 0012 1370     		strb	r3, [r2]
 254:Generated_Source\PSoC5/Mixer_B.c **** 
 255:Generated_Source\PSoC5/Mixer_B.c ****     /* Disble power to the Amp in Alternative Active mode template */
 256:Generated_Source\PSoC5/Mixer_B.c ****     Mixer_B_PM_STBY_CFG_REG &= (uint8)(~Mixer_B_STBY_PWR_EN);
 235              		.loc 1 256 0
 236 0014 064A     		ldr	r2, .L17+4
 237 0016 064B     		ldr	r3, .L17+4
 238 0018 1B78     		ldrb	r3, [r3]
 239 001a DBB2     		uxtb	r3, r3
 240 001c 23F00403 		bic	r3, r3, #4
 241 0020 DBB2     		uxtb	r3, r3
 242 0022 1370     		strb	r3, [r2]
 257:Generated_Source\PSoC5/Mixer_B.c ****     
 258:Generated_Source\PSoC5/Mixer_B.c ****     #if (!CY_PSOC5A)
 259:Generated_Source\PSoC5/Mixer_B.c ****         #if (CYDEV_VARIABLE_VDDA == 1u)
 260:Generated_Source\PSoC5/Mixer_B.c ****             Mixer_B_BSTCLK_REG &= (uint8)(~Mixer_B_BST_CLK_EN);
 261:Generated_Source\PSoC5/Mixer_B.c ****             /* Disable pumps only if there aren't any SC block in use */
 262:Generated_Source\PSoC5/Mixer_B.c ****             if ((Mixer_B_PM_ACT_CFG_REG & Mixer_B_PM_ACT_CFG_MASK) == 0u)
 263:Generated_Source\PSoC5/Mixer_B.c ****             {
 264:Generated_Source\PSoC5/Mixer_B.c ****                 Mixer_B_SC_MISC_REG &= (uint8)(~Mixer_B_PUMP_FORCE);
 265:Generated_Source\PSoC5/Mixer_B.c ****                 Mixer_B_PUMP_CR1_REG &= (uint8)(~Mixer_B_PUMP_CR1_SC_CLKSEL);
 266:Generated_Source\PSoC5/Mixer_B.c ****                 CyScBoostClk_Stop();
 267:Generated_Source\PSoC5/Mixer_B.c ****             }
 268:Generated_Source\PSoC5/Mixer_B.c ****         #endif /* CYDEV_VARIABLE_VDDA == 1u */
 269:Generated_Source\PSoC5/Mixer_B.c ****     #endif /* (CY_PSOC3 || CY_PSOC5LP) */
 270:Generated_Source\PSoC5/Mixer_B.c ****     
 271:Generated_Source\PSoC5/Mixer_B.c ****     /* This sets Sample and hold in zero current mode and output routes are valid */
ARM GAS  C:\Users\rens_\AppData\Local\Temp\cc7sw1WT.s 			page 10


 272:Generated_Source\PSoC5/Mixer_B.c ****     #if (CY_PSOC5A)
 273:Generated_Source\PSoC5/Mixer_B.c ****         Mixer_B_P5backup.scCR1Reg = Mixer_B_CR1_REG;
 274:Generated_Source\PSoC5/Mixer_B.c ****         Mixer_B_P5backup.scCR2Reg = Mixer_B_CR2_REG;
 275:Generated_Source\PSoC5/Mixer_B.c ****         Mixer_B_CR1_REG = 0x00u;
 276:Generated_Source\PSoC5/Mixer_B.c ****         Mixer_B_CR2_REG = 0x00u;
 277:Generated_Source\PSoC5/Mixer_B.c ****         Mixer_B_P5backup.enableState = 1u;
 278:Generated_Source\PSoC5/Mixer_B.c ****     #endif /* CY_PSOC5A */  
 279:Generated_Source\PSoC5/Mixer_B.c ****     
 280:Generated_Source\PSoC5/Mixer_B.c ****     /* Disable aclk */
 281:Generated_Source\PSoC5/Mixer_B.c ****     #if(Mixer_B_LO_SOURCE == Mixer_B_LO_SOURCE_INTERNAL)
 282:Generated_Source\PSoC5/Mixer_B.c ****         /* Disable power to clock */
 283:Generated_Source\PSoC5/Mixer_B.c ****         Mixer_B_PWRMGR_ACLK_REG &= (uint8)(~Mixer_B_ACT_PWR_ACLK_EN);
 284:Generated_Source\PSoC5/Mixer_B.c ****         Mixer_B_STBY_PWRMGR_ACLK_REG &= (uint8)(~Mixer_B_STBY_PWR_ACLK_EN);
 285:Generated_Source\PSoC5/Mixer_B.c ****         /* Disable the clock */
 286:Generated_Source\PSoC5/Mixer_B.c ****         Mixer_B_aclk_Disable();
 287:Generated_Source\PSoC5/Mixer_B.c ****     #endif /* Mixer_B_LO_SOURCE == Mixer_B_LO_SOURCE_INTERNAL */
 288:Generated_Source\PSoC5/Mixer_B.c **** }
 243              		.loc 1 288 0
 244 0024 00BF     		nop
 245 0026 BD46     		mov	sp, r7
 246              		.cfi_def_cfa_register 13
 247              		@ sp needed
 248 0028 80BC     		pop	{r7}
 249              		.cfi_restore 7
 250              		.cfi_def_cfa_offset 0
 251 002a 7047     		bx	lr
 252              	.L18:
 253              		.align	2
 254              	.L17:
 255 002c A9430040 		.word	1073759145
 256 0030 B9430040 		.word	1073759161
 257              		.cfi_endproc
 258              	.LFE3:
 259              		.size	Mixer_B_Stop, .-Mixer_B_Stop
 260              		.section	.text.Mixer_B_SetPower,"ax",%progbits
 261              		.align	2
 262              		.global	Mixer_B_SetPower
 263              		.thumb
 264              		.thumb_func
 265              		.type	Mixer_B_SetPower, %function
 266              	Mixer_B_SetPower:
 267              	.LFB4:
 289:Generated_Source\PSoC5/Mixer_B.c **** 
 290:Generated_Source\PSoC5/Mixer_B.c **** 
 291:Generated_Source\PSoC5/Mixer_B.c **** /*******************************************************************************
 292:Generated_Source\PSoC5/Mixer_B.c **** * Function Name: Mixer_B_SetPower
 293:Generated_Source\PSoC5/Mixer_B.c **** ********************************************************************************
 294:Generated_Source\PSoC5/Mixer_B.c **** *
 295:Generated_Source\PSoC5/Mixer_B.c **** * Summary:
 296:Generated_Source\PSoC5/Mixer_B.c **** *  Set the drive power of the MIXER
 297:Generated_Source\PSoC5/Mixer_B.c **** *
 298:Generated_Source\PSoC5/Mixer_B.c **** * Parameters:  
 299:Generated_Source\PSoC5/Mixer_B.c **** *  power:  Sets power level between (0) and (3) high power
 300:Generated_Source\PSoC5/Mixer_B.c **** *
 301:Generated_Source\PSoC5/Mixer_B.c **** * Return: 
 302:Generated_Source\PSoC5/Mixer_B.c **** *  void 
 303:Generated_Source\PSoC5/Mixer_B.c **** *
ARM GAS  C:\Users\rens_\AppData\Local\Temp\cc7sw1WT.s 			page 11


 304:Generated_Source\PSoC5/Mixer_B.c **** *******************************************************************************/
 305:Generated_Source\PSoC5/Mixer_B.c **** void Mixer_B_SetPower(uint8 power) 
 306:Generated_Source\PSoC5/Mixer_B.c **** {
 268              		.loc 1 306 0
 269              		.cfi_startproc
 270              		@ args = 0, pretend = 0, frame = 16
 271              		@ frame_needed = 1, uses_anonymous_args = 0
 272              		@ link register save eliminated.
 273 0000 80B4     		push	{r7}
 274              		.cfi_def_cfa_offset 4
 275              		.cfi_offset 7, -4
 276 0002 85B0     		sub	sp, sp, #20
 277              		.cfi_def_cfa_offset 24
 278 0004 00AF     		add	r7, sp, #0
 279              		.cfi_def_cfa_register 7
 280 0006 0346     		mov	r3, r0
 281 0008 FB71     		strb	r3, [r7, #7]
 307:Generated_Source\PSoC5/Mixer_B.c ****     uint8 tmpCR;
 308:Generated_Source\PSoC5/Mixer_B.c **** 
 309:Generated_Source\PSoC5/Mixer_B.c ****     /* Sets drive bits in SC Block Control Register 1:  SCxx_CR[1:0] */    
 310:Generated_Source\PSoC5/Mixer_B.c ****     tmpCR = Mixer_B_CR1_REG & (uint8)(~Mixer_B_DRIVE_MASK);
 282              		.loc 1 310 0
 283 000a 0A4B     		ldr	r3, .L20
 284 000c 1B78     		ldrb	r3, [r3]
 285 000e DBB2     		uxtb	r3, r3
 286 0010 23F00303 		bic	r3, r3, #3
 287 0014 FB73     		strb	r3, [r7, #15]
 311:Generated_Source\PSoC5/Mixer_B.c ****     tmpCR |= (power & Mixer_B_DRIVE_MASK);
 288              		.loc 1 311 0
 289 0016 FB79     		ldrb	r3, [r7, #7]
 290 0018 03F00303 		and	r3, r3, #3
 291 001c DAB2     		uxtb	r2, r3
 292 001e FB7B     		ldrb	r3, [r7, #15]
 293 0020 1343     		orrs	r3, r3, r2
 294 0022 FB73     		strb	r3, [r7, #15]
 312:Generated_Source\PSoC5/Mixer_B.c ****     Mixer_B_CR1_REG = tmpCR;  
 295              		.loc 1 312 0
 296 0024 034A     		ldr	r2, .L20
 297 0026 FB7B     		ldrb	r3, [r7, #15]
 298 0028 1370     		strb	r3, [r2]
 313:Generated_Source\PSoC5/Mixer_B.c **** }
 299              		.loc 1 313 0
 300 002a 00BF     		nop
 301 002c 1437     		adds	r7, r7, #20
 302              		.cfi_def_cfa_offset 4
 303 002e BD46     		mov	sp, r7
 304              		.cfi_def_cfa_register 13
 305              		@ sp needed
 306 0030 80BC     		pop	{r7}
 307              		.cfi_restore 7
 308              		.cfi_def_cfa_offset 0
 309 0032 7047     		bx	lr
 310              	.L21:
 311              		.align	2
 312              	.L20:
 313 0034 09580040 		.word	1073764361
 314              		.cfi_endproc
ARM GAS  C:\Users\rens_\AppData\Local\Temp\cc7sw1WT.s 			page 12


 315              	.LFE4:
 316              		.size	Mixer_B_SetPower, .-Mixer_B_SetPower
 317              		.text
 318              	.Letext0:
 319              		.file 2 "Generated_Source\\PSoC5\\cytypes.h"