ARM GAS  C:\Users\Krist\AppData\Local\Temp\cc2s93Yg.s 			page 1


   1              		.syntax unified
   2              		.cpu cortex-m3
   3              		.fpu softvfp
   4              		.eabi_attribute 20, 1
   5              		.eabi_attribute 21, 1
   6              		.eabi_attribute 23, 3
   7              		.eabi_attribute 24, 1
   8              		.eabi_attribute 25, 1
   9              		.eabi_attribute 26, 1
  10              		.eabi_attribute 30, 6
  11              		.eabi_attribute 34, 1
  12              		.eabi_attribute 18, 4
  13              		.thumb
  14              		.syntax unified
  15              		.file	"nRF24_COMMANDS.c"
  16              		.text
  17              	.Ltext0:
  18              		.cfi_sections	.debug_frame
  19              		.section	.text.nRF24_send_command,"ax",%progbits
  20              		.align	2
  21              		.global	nRF24_send_command
  22              		.thumb
  23              		.thumb_func
  24              		.type	nRF24_send_command, %function
  25              	nRF24_send_command:
  26              	.LFB0:
  27              		.file 1 "Generated_Source\\PSoC5\\nRF24_COMMANDS.c"
   1:Generated_Source\PSoC5/nRF24_COMMANDS.c **** /****************************************************************************
   2:Generated_Source\PSoC5/nRF24_COMMANDS.c **** * This file is part of the nRF24 Custom Component for PSoC Devices.
   3:Generated_Source\PSoC5/nRF24_COMMANDS.c **** *
   4:Generated_Source\PSoC5/nRF24_COMMANDS.c **** * Copyright (C) 2017 Carlos Diaz <carlos.santiago.diaz@gmail.com>
   5:Generated_Source\PSoC5/nRF24_COMMANDS.c **** *
   6:Generated_Source\PSoC5/nRF24_COMMANDS.c **** * Permission to use, copy, modify, and/or distribute this software for any
   7:Generated_Source\PSoC5/nRF24_COMMANDS.c **** * purpose with or without fee is hereby granted, provided that the above
   8:Generated_Source\PSoC5/nRF24_COMMANDS.c **** * copyright notice and this permission notice appear in all copies.
   9:Generated_Source\PSoC5/nRF24_COMMANDS.c **** *
  10:Generated_Source\PSoC5/nRF24_COMMANDS.c **** * THE SOFTWARE IS PROVIDED "AS IS" AND THE AUTHOR DISCLAIMS ALL WARRANTIES
  11:Generated_Source\PSoC5/nRF24_COMMANDS.c **** * WITH REGARD TO THIS SOFTWARE INCLUDING ALL IMPLIED WARRANTIES OF
  12:Generated_Source\PSoC5/nRF24_COMMANDS.c **** * MERCHANTABILITY AND FITNESS. IN NO EVENT SHALL THE AUTHOR BE LIABLE FOR
  13:Generated_Source\PSoC5/nRF24_COMMANDS.c **** * ANY SPECIAL, DIRECT, INDIRECT, OR CONSEQUENTIAL DAMAGES OR ANY DAMAGES
  14:Generated_Source\PSoC5/nRF24_COMMANDS.c **** * WHATSOEVER RESULTING FROM LOSS OF USE, DATA OR PROFITS, WHETHER IN AN
  15:Generated_Source\PSoC5/nRF24_COMMANDS.c **** * ACTION OF CONTRACT, NEGLIGENCE OR OTHER TORTIOUS ACTION, ARISING OUT OF
  16:Generated_Source\PSoC5/nRF24_COMMANDS.c **** * OR IN CONNECTION WITH THE USE OR PERFORMANCE OF THIS SOFTWARE.
  17:Generated_Source\PSoC5/nRF24_COMMANDS.c **** ****************************************************************************/
  18:Generated_Source\PSoC5/nRF24_COMMANDS.c **** 
  19:Generated_Source\PSoC5/nRF24_COMMANDS.c **** /**
  20:Generated_Source\PSoC5/nRF24_COMMANDS.c **** * @file nRF24_COMMANDS.c
  21:Generated_Source\PSoC5/nRF24_COMMANDS.c **** *
  22:Generated_Source\PSoC5/nRF24_COMMANDS.c **** * @brief The nRF24 radio is controlled via commands, this file implement all
  23:Generated_Source\PSoC5/nRF24_COMMANDS.c **** * the available commands.
  24:Generated_Source\PSoC5/nRF24_COMMANDS.c **** */
  25:Generated_Source\PSoC5/nRF24_COMMANDS.c **** 
  26:Generated_Source\PSoC5/nRF24_COMMANDS.c **** #include "nRF24_CONFIG.h"
  27:Generated_Source\PSoC5/nRF24_COMMANDS.c **** #include "nRF24_HAL.h"
  28:Generated_Source\PSoC5/nRF24_COMMANDS.c **** #include "nRF24_COMMANDS.h"
  29:Generated_Source\PSoC5/nRF24_COMMANDS.c **** #include "nRF24_DEFS.h"
  30:Generated_Source\PSoC5/nRF24_COMMANDS.c **** 
ARM GAS  C:\Users\Krist\AppData\Local\Temp\cc2s93Yg.s 			page 2


  31:Generated_Source\PSoC5/nRF24_COMMANDS.c **** /**
  32:Generated_Source\PSoC5/nRF24_COMMANDS.c ****  * Send the specified command to the nRF24 radio.
  33:Generated_Source\PSoC5/nRF24_COMMANDS.c ****  *
  34:Generated_Source\PSoC5/nRF24_COMMANDS.c ****  * @param const nrf_cmd cmd: Command to send to the nRF24 radio.
  35:Generated_Source\PSoC5/nRF24_COMMANDS.c ****  */
  36:Generated_Source\PSoC5/nRF24_COMMANDS.c **** void nRF24_send_command(const nrf_cmd cmd)
  37:Generated_Source\PSoC5/nRF24_COMMANDS.c **** {
  28              		.loc 1 37 0
  29              		.cfi_startproc
  30              		@ args = 0, pretend = 0, frame = 16
  31              		@ frame_needed = 1, uses_anonymous_args = 0
  32 0000 80B5     		push	{r7, lr}
  33              		.cfi_def_cfa_offset 8
  34              		.cfi_offset 7, -8
  35              		.cfi_offset 14, -4
  36 0002 84B0     		sub	sp, sp, #16
  37              		.cfi_def_cfa_offset 24
  38 0004 00AF     		add	r7, sp, #0
  39              		.cfi_def_cfa_register 7
  40 0006 0346     		mov	r3, r0
  41 0008 FB71     		strb	r3, [r7, #7]
  38:Generated_Source\PSoC5/nRF24_COMMANDS.c ****     uint8_t status = 0;
  42              		.loc 1 38 0
  43 000a 0023     		movs	r3, #0
  44 000c FB73     		strb	r3, [r7, #15]
  39:Generated_Source\PSoC5/nRF24_COMMANDS.c ****     
  40:Generated_Source\PSoC5/nRF24_COMMANDS.c ****     nRF24_spi_xfer(&cmd, &status, 1);
  45              		.loc 1 40 0
  46 000e 07F10F01 		add	r1, r7, #15
  47 0012 FB1D     		adds	r3, r7, #7
  48 0014 0122     		movs	r2, #1
  49 0016 1846     		mov	r0, r3
  50 0018 FFF7FEFF 		bl	nRF24_spi_xfer
  41:Generated_Source\PSoC5/nRF24_COMMANDS.c **** }
  51              		.loc 1 41 0
  52 001c 00BF     		nop
  53 001e 1037     		adds	r7, r7, #16
  54              		.cfi_def_cfa_offset 8
  55 0020 BD46     		mov	sp, r7
  56              		.cfi_def_cfa_register 13
  57              		@ sp needed
  58 0022 80BD     		pop	{r7, pc}
  59              		.cfi_endproc
  60              	.LFE0:
  61              		.size	nRF24_send_command, .-nRF24_send_command
  62              		.section	.text.nRF24_reuse_tx_payload_cmd,"ax",%progbits
  63              		.align	2
  64              		.global	nRF24_reuse_tx_payload_cmd
  65              		.thumb
  66              		.thumb_func
  67              		.type	nRF24_reuse_tx_payload_cmd, %function
  68              	nRF24_reuse_tx_payload_cmd:
  69              	.LFB1:
  42:Generated_Source\PSoC5/nRF24_COMMANDS.c **** 
  43:Generated_Source\PSoC5/nRF24_COMMANDS.c **** /**
  44:Generated_Source\PSoC5/nRF24_COMMANDS.c ****  * @brief Reuse last transmitted payload.
  45:Generated_Source\PSoC5/nRF24_COMMANDS.c ****  *
ARM GAS  C:\Users\Krist\AppData\Local\Temp\cc2s93Yg.s 			page 3


  46:Generated_Source\PSoC5/nRF24_COMMANDS.c ****  * Used for a PTX device.
  47:Generated_Source\PSoC5/nRF24_COMMANDS.c ****  * Reuse last transmitted payload. TX payload reuse is active until
  48:Generated_Source\PSoC5/nRF24_COMMANDS.c ****  * W_TX_PAYLOAD or FLUSH_TX is executed, TX payload reuse must not be
  49:Generated_Source\PSoC5/nRF24_COMMANDS.c ****  * activated or deactivated during package transmission.
  50:Generated_Source\PSoC5/nRF24_COMMANDS.c ****  */
  51:Generated_Source\PSoC5/nRF24_COMMANDS.c **** void nRF24_reuse_tx_payload_cmd(void)
  52:Generated_Source\PSoC5/nRF24_COMMANDS.c **** {
  70              		.loc 1 52 0
  71              		.cfi_startproc
  72              		@ args = 0, pretend = 0, frame = 0
  73              		@ frame_needed = 1, uses_anonymous_args = 0
  74 0000 80B5     		push	{r7, lr}
  75              		.cfi_def_cfa_offset 8
  76              		.cfi_offset 7, -8
  77              		.cfi_offset 14, -4
  78 0002 00AF     		add	r7, sp, #0
  79              		.cfi_def_cfa_register 7
  53:Generated_Source\PSoC5/nRF24_COMMANDS.c ****     nRF24_send_command(NRF_CMD_REUSE_TX_PL);
  80              		.loc 1 53 0
  81 0004 E320     		movs	r0, #227
  82 0006 FFF7FEFF 		bl	nRF24_send_command
  54:Generated_Source\PSoC5/nRF24_COMMANDS.c **** }
  83              		.loc 1 54 0
  84 000a 00BF     		nop
  85 000c 80BD     		pop	{r7, pc}
  86              		.cfi_endproc
  87              	.LFE1:
  88              		.size	nRF24_reuse_tx_payload_cmd, .-nRF24_reuse_tx_payload_cmd
  89 000e 00BF     		.section	.text.nRF24_flush_rx_cmd,"ax",%progbits
  90              		.align	2
  91              		.global	nRF24_flush_rx_cmd
  92              		.thumb
  93              		.thumb_func
  94              		.type	nRF24_flush_rx_cmd, %function
  95              	nRF24_flush_rx_cmd:
  96              	.LFB2:
  55:Generated_Source\PSoC5/nRF24_COMMANDS.c **** 
  56:Generated_Source\PSoC5/nRF24_COMMANDS.c **** /**
  57:Generated_Source\PSoC5/nRF24_COMMANDS.c ****  * @brief Flush RX FIFO.
  58:Generated_Source\PSoC5/nRF24_COMMANDS.c ****  *
  59:Generated_Source\PSoC5/nRF24_COMMANDS.c ****  * Used in RX mode.
  60:Generated_Source\PSoC5/nRF24_COMMANDS.c ****  * Flush RX FIFO. Should be not executed during transmission of acknowledge,
  61:Generated_Source\PSoC5/nRF24_COMMANDS.c ****  * that is, acknowledge package will not be completed.
  62:Generated_Source\PSoC5/nRF24_COMMANDS.c ****  */
  63:Generated_Source\PSoC5/nRF24_COMMANDS.c **** void nRF24_flush_rx_cmd(void)
  64:Generated_Source\PSoC5/nRF24_COMMANDS.c **** {
  97              		.loc 1 64 0
  98              		.cfi_startproc
  99              		@ args = 0, pretend = 0, frame = 0
 100              		@ frame_needed = 1, uses_anonymous_args = 0
 101 0000 80B5     		push	{r7, lr}
 102              		.cfi_def_cfa_offset 8
 103              		.cfi_offset 7, -8
 104              		.cfi_offset 14, -4
 105 0002 00AF     		add	r7, sp, #0
 106              		.cfi_def_cfa_register 7
  65:Generated_Source\PSoC5/nRF24_COMMANDS.c ****     nRF24_send_command(NRF_CMD_FLUSH_RX);
ARM GAS  C:\Users\Krist\AppData\Local\Temp\cc2s93Yg.s 			page 4


 107              		.loc 1 65 0
 108 0004 E220     		movs	r0, #226
 109 0006 FFF7FEFF 		bl	nRF24_send_command
  66:Generated_Source\PSoC5/nRF24_COMMANDS.c **** }
 110              		.loc 1 66 0
 111 000a 00BF     		nop
 112 000c 80BD     		pop	{r7, pc}
 113              		.cfi_endproc
 114              	.LFE2:
 115              		.size	nRF24_flush_rx_cmd, .-nRF24_flush_rx_cmd
 116 000e 00BF     		.section	.text.nRF24_flush_tx_cmd,"ax",%progbits
 117              		.align	2
 118              		.global	nRF24_flush_tx_cmd
 119              		.thumb
 120              		.thumb_func
 121              		.type	nRF24_flush_tx_cmd, %function
 122              	nRF24_flush_tx_cmd:
 123              	.LFB3:
  67:Generated_Source\PSoC5/nRF24_COMMANDS.c **** 
  68:Generated_Source\PSoC5/nRF24_COMMANDS.c **** /**
  69:Generated_Source\PSoC5/nRF24_COMMANDS.c ****  * Used in TX mode.
  70:Generated_Source\PSoC5/nRF24_COMMANDS.c ****  * Flush TX FIFO.
  71:Generated_Source\PSoC5/nRF24_COMMANDS.c ****  */
  72:Generated_Source\PSoC5/nRF24_COMMANDS.c **** void nRF24_flush_tx_cmd(void)
  73:Generated_Source\PSoC5/nRF24_COMMANDS.c **** {
 124              		.loc 1 73 0
 125              		.cfi_startproc
 126              		@ args = 0, pretend = 0, frame = 0
 127              		@ frame_needed = 1, uses_anonymous_args = 0
 128 0000 80B5     		push	{r7, lr}
 129              		.cfi_def_cfa_offset 8
 130              		.cfi_offset 7, -8
 131              		.cfi_offset 14, -4
 132 0002 00AF     		add	r7, sp, #0
 133              		.cfi_def_cfa_register 7
  74:Generated_Source\PSoC5/nRF24_COMMANDS.c ****     nRF24_send_command(NRF_CMD_FLUSH_TX);
 134              		.loc 1 74 0
 135 0004 E120     		movs	r0, #225
 136 0006 FFF7FEFF 		bl	nRF24_send_command
  75:Generated_Source\PSoC5/nRF24_COMMANDS.c **** }
 137              		.loc 1 75 0
 138 000a 00BF     		nop
 139 000c 80BD     		pop	{r7, pc}
 140              		.cfi_endproc
 141              	.LFE3:
 142              		.size	nRF24_flush_tx_cmd, .-nRF24_flush_tx_cmd
 143 000e 00BF     		.section	.text.nRF24_read_rx_payload_cmd,"ax",%progbits
 144              		.align	2
 145              		.global	nRF24_read_rx_payload_cmd
 146              		.thumb
 147              		.thumb_func
 148              		.type	nRF24_read_rx_payload_cmd, %function
 149              	nRF24_read_rx_payload_cmd:
 150              	.LFB4:
  76:Generated_Source\PSoC5/nRF24_COMMANDS.c **** 
  77:Generated_Source\PSoC5/nRF24_COMMANDS.c **** /**
  78:Generated_Source\PSoC5/nRF24_COMMANDS.c ****  * Used in RX mode.
ARM GAS  C:\Users\Krist\AppData\Local\Temp\cc2s93Yg.s 			page 5


  79:Generated_Source\PSoC5/nRF24_COMMANDS.c ****  * Read RX payload: 1 - 32 bytes. A read operation always starts at byte 0.
  80:Generated_Source\PSoC5/nRF24_COMMANDS.c ****  * Payload is deleted from FIFO after it is read.
  81:Generated_Source\PSoC5/nRF24_COMMANDS.c ****  *
  82:Generated_Source\PSoC5/nRF24_COMMANDS.c ****  * @param data: Data to be read.
  83:Generated_Source\PSoC5/nRF24_COMMANDS.c ****  * @param data_size: Bytes of data to be read (max 32).
  84:Generated_Source\PSoC5/nRF24_COMMANDS.c ****  */
  85:Generated_Source\PSoC5/nRF24_COMMANDS.c **** void nRF24_read_rx_payload_cmd(uint8_t *data, const size_t data_size)
  86:Generated_Source\PSoC5/nRF24_COMMANDS.c **** {
 151              		.loc 1 86 0
 152              		.cfi_startproc
 153              		@ args = 0, pretend = 0, frame = 24
 154              		@ frame_needed = 1, uses_anonymous_args = 0
 155 0000 2DE9F04F 		push	{r4, r5, r6, r7, r8, r9, r10, fp, lr}
 156              		.cfi_def_cfa_offset 36
 157              		.cfi_offset 4, -36
 158              		.cfi_offset 5, -32
 159              		.cfi_offset 6, -28
 160              		.cfi_offset 7, -24
 161              		.cfi_offset 8, -20
 162              		.cfi_offset 9, -16
 163              		.cfi_offset 10, -12
 164              		.cfi_offset 11, -8
 165              		.cfi_offset 14, -4
 166 0004 87B0     		sub	sp, sp, #28
 167              		.cfi_def_cfa_offset 64
 168 0006 00AF     		add	r7, sp, #0
 169              		.cfi_def_cfa_register 7
 170 0008 F860     		str	r0, [r7, #12]
 171 000a B960     		str	r1, [r7, #8]
 172              		.loc 1 86 0
 173 000c 6A46     		mov	r2, sp
 174 000e 7A60     		str	r2, [r7, #4]
  87:Generated_Source\PSoC5/nRF24_COMMANDS.c ****     uint8_t nrf_data_out[data_size + 1];
 175              		.loc 1 87 0
 176 0010 BA68     		ldr	r2, [r7, #8]
 177 0012 0132     		adds	r2, r2, #1
 178 0014 1146     		mov	r1, r2
 179 0016 4FF00002 		mov	r2, #0
 180 001a 4FEAC20B 		lsl	fp, r2, #3
 181 001e 4BEA517B 		orr	fp, fp, r1, lsr #29
 182 0022 4FEAC10A 		lsl	r10, r1, #3
 183 0026 BA68     		ldr	r2, [r7, #8]
 184 0028 0132     		adds	r2, r2, #1
 185 002a 1146     		mov	r1, r2
 186 002c 4FF00002 		mov	r2, #0
 187 0030 4FEAC209 		lsl	r9, r2, #3
 188 0034 49EA5179 		orr	r9, r9, r1, lsr #29
 189 0038 4FEAC108 		lsl	r8, r1, #3
 190 003c BA68     		ldr	r2, [r7, #8]
 191 003e 0132     		adds	r2, r2, #1
 192 0040 0732     		adds	r2, r2, #7
 193 0042 D208     		lsrs	r2, r2, #3
 194 0044 D200     		lsls	r2, r2, #3
 195 0046 ADEB020D 		sub	sp, sp, r2
 196 004a 6A46     		mov	r2, sp
 197 004c 0032     		adds	r2, r2, #0
 198 004e 7A61     		str	r2, [r7, #20]
ARM GAS  C:\Users\Krist\AppData\Local\Temp\cc2s93Yg.s 			page 6


  88:Generated_Source\PSoC5/nRF24_COMMANDS.c ****     // the nrf_data_in array is to keep the spi sending dummy bytes so the
  89:Generated_Source\PSoC5/nRF24_COMMANDS.c ****     // radio can send us the payload, there's no need to set the array to
  90:Generated_Source\PSoC5/nRF24_COMMANDS.c ****     // any specific value, apart of the first element being the command
  91:Generated_Source\PSoC5/nRF24_COMMANDS.c ****     uint8_t nrf_data_in[data_size + 1];
 199              		.loc 1 91 0
 200 0050 BA68     		ldr	r2, [r7, #8]
 201 0052 0132     		adds	r2, r2, #1
 202 0054 1146     		mov	r1, r2
 203 0056 4FF00002 		mov	r2, #0
 204 005a D600     		lsls	r6, r2, #3
 205 005c 46EA5176 		orr	r6, r6, r1, lsr #29
 206 0060 CD00     		lsls	r5, r1, #3
 207 0062 BA68     		ldr	r2, [r7, #8]
 208 0064 0132     		adds	r2, r2, #1
 209 0066 1146     		mov	r1, r2
 210 0068 4FF00002 		mov	r2, #0
 211 006c D400     		lsls	r4, r2, #3
 212 006e 44EA5174 		orr	r4, r4, r1, lsr #29
 213 0072 CB00     		lsls	r3, r1, #3
 214 0074 BB68     		ldr	r3, [r7, #8]
 215 0076 0133     		adds	r3, r3, #1
 216 0078 0733     		adds	r3, r3, #7
 217 007a DB08     		lsrs	r3, r3, #3
 218 007c DB00     		lsls	r3, r3, #3
 219 007e ADEB030D 		sub	sp, sp, r3
 220 0082 6B46     		mov	r3, sp
 221 0084 0033     		adds	r3, r3, #0
 222 0086 3B61     		str	r3, [r7, #16]
  92:Generated_Source\PSoC5/nRF24_COMMANDS.c ****     
  93:Generated_Source\PSoC5/nRF24_COMMANDS.c ****     nrf_data_in[0] = NRF_CMD_R_RX_PAYLOAD;
 223              		.loc 1 93 0
 224 0088 3B69     		ldr	r3, [r7, #16]
 225 008a 6122     		movs	r2, #97
 226 008c 1A70     		strb	r2, [r3]
  94:Generated_Source\PSoC5/nRF24_COMMANDS.c ****     
  95:Generated_Source\PSoC5/nRF24_COMMANDS.c ****     nRF24_spi_xfer(nrf_data_in, nrf_data_out, sizeof(nrf_data_out));
 227              		.loc 1 95 0
 228 008e 3869     		ldr	r0, [r7, #16]
 229 0090 7969     		ldr	r1, [r7, #20]
 230 0092 BB68     		ldr	r3, [r7, #8]
 231 0094 0133     		adds	r3, r3, #1
 232 0096 1A46     		mov	r2, r3
 233 0098 FFF7FEFF 		bl	nRF24_spi_xfer
  96:Generated_Source\PSoC5/nRF24_COMMANDS.c ****     
  97:Generated_Source\PSoC5/nRF24_COMMANDS.c ****     memcpy(data, &nrf_data_out[1], data_size);
 234              		.loc 1 97 0
 235 009c 7B69     		ldr	r3, [r7, #20]
 236 009e 0133     		adds	r3, r3, #1
 237 00a0 BA68     		ldr	r2, [r7, #8]
 238 00a2 1946     		mov	r1, r3
 239 00a4 F868     		ldr	r0, [r7, #12]
 240 00a6 FFF7FEFF 		bl	memcpy
 241 00aa D7F804D0 		ldr	sp, [r7, #4]
  98:Generated_Source\PSoC5/nRF24_COMMANDS.c **** }
 242              		.loc 1 98 0
 243 00ae 00BF     		nop
 244 00b0 1C37     		adds	r7, r7, #28
ARM GAS  C:\Users\Krist\AppData\Local\Temp\cc2s93Yg.s 			page 7


 245              		.cfi_def_cfa_offset 36
 246 00b2 BD46     		mov	sp, r7
 247              		.cfi_def_cfa_register 13
 248              		@ sp needed
 249 00b4 BDE8F08F 		pop	{r4, r5, r6, r7, r8, r9, r10, fp, pc}
 250              		.cfi_endproc
 251              	.LFE4:
 252              		.size	nRF24_read_rx_payload_cmd, .-nRF24_read_rx_payload_cmd
 253              		.section	.text.nRF24_write_tx_payload_cmd,"ax",%progbits
 254              		.align	2
 255              		.global	nRF24_write_tx_payload_cmd
 256              		.thumb
 257              		.thumb_func
 258              		.type	nRF24_write_tx_payload_cmd, %function
 259              	nRF24_write_tx_payload_cmd:
 260              	.LFB5:
  99:Generated_Source\PSoC5/nRF24_COMMANDS.c **** 
 100:Generated_Source\PSoC5/nRF24_COMMANDS.c **** /**
 101:Generated_Source\PSoC5/nRF24_COMMANDS.c ****  * Write TX payload: 1 - 32 bytes.
 102:Generated_Source\PSoC5/nRF24_COMMANDS.c ****  * A write operation always starts at byte 0 used in TX payload.
 103:Generated_Source\PSoC5/nRF24_COMMANDS.c ****  *
 104:Generated_Source\PSoC5/nRF24_COMMANDS.c ****  * @param const uint8_t* data: Data to be sent.
 105:Generated_Source\PSoC5/nRF24_COMMANDS.c ****  * @param const size_t size: Bytes of data to be sent (max 32).
 106:Generated_Source\PSoC5/nRF24_COMMANDS.c ****  */
 107:Generated_Source\PSoC5/nRF24_COMMANDS.c **** void nRF24_write_tx_payload_cmd(const uint8_t *data, const size_t data_size)
 108:Generated_Source\PSoC5/nRF24_COMMANDS.c **** {
 261              		.loc 1 108 0
 262              		.cfi_startproc
 263              		@ args = 0, pretend = 0, frame = 24
 264              		@ frame_needed = 1, uses_anonymous_args = 0
 265 0000 2DE9F04F 		push	{r4, r5, r6, r7, r8, r9, r10, fp, lr}
 266              		.cfi_def_cfa_offset 36
 267              		.cfi_offset 4, -36
 268              		.cfi_offset 5, -32
 269              		.cfi_offset 6, -28
 270              		.cfi_offset 7, -24
 271              		.cfi_offset 8, -20
 272              		.cfi_offset 9, -16
 273              		.cfi_offset 10, -12
 274              		.cfi_offset 11, -8
 275              		.cfi_offset 14, -4
 276 0004 87B0     		sub	sp, sp, #28
 277              		.cfi_def_cfa_offset 64
 278 0006 00AF     		add	r7, sp, #0
 279              		.cfi_def_cfa_register 7
 280 0008 F860     		str	r0, [r7, #12]
 281 000a B960     		str	r1, [r7, #8]
 282              		.loc 1 108 0
 283 000c 6A46     		mov	r2, sp
 284 000e 7A60     		str	r2, [r7, #4]
 109:Generated_Source\PSoC5/nRF24_COMMANDS.c ****     uint8_t nrf_data_in[data_size + 1];
 285              		.loc 1 109 0
 286 0010 BA68     		ldr	r2, [r7, #8]
 287 0012 0132     		adds	r2, r2, #1
 288 0014 1146     		mov	r1, r2
 289 0016 4FF00002 		mov	r2, #0
 290 001a 4FEAC20B 		lsl	fp, r2, #3
ARM GAS  C:\Users\Krist\AppData\Local\Temp\cc2s93Yg.s 			page 8


 291 001e 4BEA517B 		orr	fp, fp, r1, lsr #29
 292 0022 4FEAC10A 		lsl	r10, r1, #3
 293 0026 BA68     		ldr	r2, [r7, #8]
 294 0028 0132     		adds	r2, r2, #1
 295 002a 1146     		mov	r1, r2
 296 002c 4FF00002 		mov	r2, #0
 297 0030 4FEAC209 		lsl	r9, r2, #3
 298 0034 49EA5179 		orr	r9, r9, r1, lsr #29
 299 0038 4FEAC108 		lsl	r8, r1, #3
 300 003c BA68     		ldr	r2, [r7, #8]
 301 003e 0132     		adds	r2, r2, #1
 302 0040 0732     		adds	r2, r2, #7
 303 0042 D208     		lsrs	r2, r2, #3
 304 0044 D200     		lsls	r2, r2, #3
 305 0046 ADEB020D 		sub	sp, sp, r2
 306 004a 6A46     		mov	r2, sp
 307 004c 0032     		adds	r2, r2, #0
 308 004e 7A61     		str	r2, [r7, #20]
 110:Generated_Source\PSoC5/nRF24_COMMANDS.c ****     uint8_t nrf_data_out[data_size + 1];
 309              		.loc 1 110 0
 310 0050 BA68     		ldr	r2, [r7, #8]
 311 0052 0132     		adds	r2, r2, #1
 312 0054 1146     		mov	r1, r2
 313 0056 4FF00002 		mov	r2, #0
 314 005a D600     		lsls	r6, r2, #3
 315 005c 46EA5176 		orr	r6, r6, r1, lsr #29
 316 0060 CD00     		lsls	r5, r1, #3
 317 0062 BA68     		ldr	r2, [r7, #8]
 318 0064 0132     		adds	r2, r2, #1
 319 0066 1146     		mov	r1, r2
 320 0068 4FF00002 		mov	r2, #0
 321 006c D400     		lsls	r4, r2, #3
 322 006e 44EA5174 		orr	r4, r4, r1, lsr #29
 323 0072 CB00     		lsls	r3, r1, #3
 324 0074 BB68     		ldr	r3, [r7, #8]
 325 0076 0133     		adds	r3, r3, #1
 326 0078 0733     		adds	r3, r3, #7
 327 007a DB08     		lsrs	r3, r3, #3
 328 007c DB00     		lsls	r3, r3, #3
 329 007e ADEB030D 		sub	sp, sp, r3
 330 0082 6B46     		mov	r3, sp
 331 0084 0033     		adds	r3, r3, #0
 332 0086 3B61     		str	r3, [r7, #16]
 111:Generated_Source\PSoC5/nRF24_COMMANDS.c ****     
 112:Generated_Source\PSoC5/nRF24_COMMANDS.c ****     nrf_data_in[0] = NRF_CMD_W_TX_PAYLOAD;
 333              		.loc 1 112 0
 334 0088 7B69     		ldr	r3, [r7, #20]
 335 008a A022     		movs	r2, #160
 336 008c 1A70     		strb	r2, [r3]
 113:Generated_Source\PSoC5/nRF24_COMMANDS.c ****     memcpy(&nrf_data_in[1], data, data_size);
 337              		.loc 1 113 0
 338 008e 7B69     		ldr	r3, [r7, #20]
 339 0090 0133     		adds	r3, r3, #1
 340 0092 BA68     		ldr	r2, [r7, #8]
 341 0094 F968     		ldr	r1, [r7, #12]
 342 0096 1846     		mov	r0, r3
 343 0098 FFF7FEFF 		bl	memcpy
ARM GAS  C:\Users\Krist\AppData\Local\Temp\cc2s93Yg.s 			page 9


 114:Generated_Source\PSoC5/nRF24_COMMANDS.c ****     
 115:Generated_Source\PSoC5/nRF24_COMMANDS.c ****     nRF24_spi_xfer(nrf_data_in, nrf_data_out, sizeof(nrf_data_in));
 344              		.loc 1 115 0
 345 009c 7869     		ldr	r0, [r7, #20]
 346 009e 3969     		ldr	r1, [r7, #16]
 347 00a0 BB68     		ldr	r3, [r7, #8]
 348 00a2 0133     		adds	r3, r3, #1
 349 00a4 1A46     		mov	r2, r3
 350 00a6 FFF7FEFF 		bl	nRF24_spi_xfer
 351 00aa D7F804D0 		ldr	sp, [r7, #4]
 116:Generated_Source\PSoC5/nRF24_COMMANDS.c **** }
 352              		.loc 1 116 0
 353 00ae 00BF     		nop
 354 00b0 1C37     		adds	r7, r7, #28
 355              		.cfi_def_cfa_offset 36
 356 00b2 BD46     		mov	sp, r7
 357              		.cfi_def_cfa_register 13
 358              		@ sp needed
 359 00b4 BDE8F08F 		pop	{r4, r5, r6, r7, r8, r9, r10, fp, pc}
 360              		.cfi_endproc
 361              	.LFE5:
 362              		.size	nRF24_write_tx_payload_cmd, .-nRF24_write_tx_payload_cmd
 363              		.section	.rodata
 364              		.align	2
 365              	.LC0:
 366 0000 60       		.byte	96
 367 0001 FF       		.byte	-1
 368              		.section	.text.nRF24_read_payload_width_cmd,"ax",%progbits
 369              		.align	2
 370              		.global	nRF24_read_payload_width_cmd
 371              		.thumb
 372              		.thumb_func
 373              		.type	nRF24_read_payload_width_cmd, %function
 374              	nRF24_read_payload_width_cmd:
 375              	.LFB6:
 117:Generated_Source\PSoC5/nRF24_COMMANDS.c **** 
 118:Generated_Source\PSoC5/nRF24_COMMANDS.c **** /**
 119:Generated_Source\PSoC5/nRF24_COMMANDS.c ****  * Read RX payload width for the top R_RX_PAYLOAD in the RX FIFO.
 120:Generated_Source\PSoC5/nRF24_COMMANDS.c ****  * Note: Flush RX FIFO if the read value is larger than 32 bytes.
 121:Generated_Source\PSoC5/nRF24_COMMANDS.c ****  *
 122:Generated_Source\PSoC5/nRF24_COMMANDS.c ****  * @return uint8_t: width of the payload on the top of the RX FIFO.
 123:Generated_Source\PSoC5/nRF24_COMMANDS.c ****  */
 124:Generated_Source\PSoC5/nRF24_COMMANDS.c **** uint8_t nRF24_read_payload_width_cmd(void)
 125:Generated_Source\PSoC5/nRF24_COMMANDS.c **** {
 376              		.loc 1 125 0
 377              		.cfi_startproc
 378              		@ args = 0, pretend = 0, frame = 8
 379              		@ frame_needed = 1, uses_anonymous_args = 0
 380 0000 80B5     		push	{r7, lr}
 381              		.cfi_def_cfa_offset 8
 382              		.cfi_offset 7, -8
 383              		.cfi_offset 14, -4
 384 0002 82B0     		sub	sp, sp, #8
 385              		.cfi_def_cfa_offset 16
 386 0004 00AF     		add	r7, sp, #0
 387              		.cfi_def_cfa_register 7
 126:Generated_Source\PSoC5/nRF24_COMMANDS.c ****     uint8_t nrf_data_in[2] = {
ARM GAS  C:\Users\Krist\AppData\Local\Temp\cc2s93Yg.s 			page 10


 388              		.loc 1 126 0
 389 0006 0B4A     		ldr	r2, .L10
 390 0008 3B1D     		adds	r3, r7, #4
 391 000a 1288     		ldrh	r2, [r2]	@ unaligned
 392 000c 1A80     		strh	r2, [r3]	@ unaligned
 127:Generated_Source\PSoC5/nRF24_COMMANDS.c ****         NRF_CMD_R_RX_PL_WID, NRF_CMD_NOP
 128:Generated_Source\PSoC5/nRF24_COMMANDS.c ****     };
 129:Generated_Source\PSoC5/nRF24_COMMANDS.c ****     // nrf_data_out[0] = STATUS_REGISTER, nrf_data_out[1] = payload_width
 130:Generated_Source\PSoC5/nRF24_COMMANDS.c ****     uint8_t nrf_data_out[2] = {0};
 393              		.loc 1 130 0
 394 000e 0023     		movs	r3, #0
 395 0010 3B80     		strh	r3, [r7]	@ movhi
 131:Generated_Source\PSoC5/nRF24_COMMANDS.c ****     
 132:Generated_Source\PSoC5/nRF24_COMMANDS.c ****     nRF24_spi_xfer(nrf_data_in, nrf_data_out, sizeof(nrf_data_in));
 396              		.loc 1 132 0
 397 0012 3946     		mov	r1, r7
 398 0014 3B1D     		adds	r3, r7, #4
 399 0016 0222     		movs	r2, #2
 400 0018 1846     		mov	r0, r3
 401 001a FFF7FEFF 		bl	nRF24_spi_xfer
 133:Generated_Source\PSoC5/nRF24_COMMANDS.c **** 
 134:Generated_Source\PSoC5/nRF24_COMMANDS.c ****     // If width is greater than 32 then is garbage, we must flush the RX FIFO
 135:Generated_Source\PSoC5/nRF24_COMMANDS.c ****     if (32 < nrf_data_out[1]) {
 402              		.loc 1 135 0
 403 001e 7B78     		ldrb	r3, [r7, #1]	@ zero_extendqisi2
 404 0020 202B     		cmp	r3, #32
 405 0022 01D9     		bls	.L8
 136:Generated_Source\PSoC5/nRF24_COMMANDS.c ****         nRF24_flush_rx_cmd();
 406              		.loc 1 136 0
 407 0024 FFF7FEFF 		bl	nRF24_flush_rx_cmd
 408              	.L8:
 137:Generated_Source\PSoC5/nRF24_COMMANDS.c ****     }
 138:Generated_Source\PSoC5/nRF24_COMMANDS.c **** 
 139:Generated_Source\PSoC5/nRF24_COMMANDS.c ****     return nrf_data_out[1];
 409              		.loc 1 139 0
 410 0028 7B78     		ldrb	r3, [r7, #1]	@ zero_extendqisi2
 140:Generated_Source\PSoC5/nRF24_COMMANDS.c **** }
 411              		.loc 1 140 0
 412 002a 1846     		mov	r0, r3
 413 002c 0837     		adds	r7, r7, #8
 414              		.cfi_def_cfa_offset 8
 415 002e BD46     		mov	sp, r7
 416              		.cfi_def_cfa_register 13
 417              		@ sp needed
 418 0030 80BD     		pop	{r7, pc}
 419              	.L11:
 420 0032 00BF     		.align	2
 421              	.L10:
 422 0034 00000000 		.word	.LC0
 423              		.cfi_endproc
 424              	.LFE6:
 425              		.size	nRF24_read_payload_width_cmd, .-nRF24_read_payload_width_cmd
 426              		.section	.text.nRF24_write_ack_payload_cmd,"ax",%progbits
 427              		.align	2
 428              		.global	nRF24_write_ack_payload_cmd
 429              		.thumb
 430              		.thumb_func
ARM GAS  C:\Users\Krist\AppData\Local\Temp\cc2s93Yg.s 			page 11


 431              		.type	nRF24_write_ack_payload_cmd, %function
 432              	nRF24_write_ack_payload_cmd:
 433              	.LFB7:
 141:Generated_Source\PSoC5/nRF24_COMMANDS.c **** 
 142:Generated_Source\PSoC5/nRF24_COMMANDS.c **** /**
 143:Generated_Source\PSoC5/nRF24_COMMANDS.c ****  * @brief Write Payload to be transmitted together with ACK packet.
 144:Generated_Source\PSoC5/nRF24_COMMANDS.c ****  *
 145:Generated_Source\PSoC5/nRF24_COMMANDS.c ****  * Used in RX mode.
 146:Generated_Source\PSoC5/nRF24_COMMANDS.c ****  * Write Payload to be transmitted together with ACK packet on PIPE PPP
 147:Generated_Source\PSoC5/nRF24_COMMANDS.c ****  * (PPP valid in the range from 000 to 101). Maximum three ACK packet
 148:Generated_Source\PSoC5/nRF24_COMMANDS.c ****  * payloads can be pending. Payloads with same PPP are handled using
 149:Generated_Source\PSoC5/nRF24_COMMANDS.c ****  * first in - first out principle.
 150:Generated_Source\PSoC5/nRF24_COMMANDS.c ****  * Write payload: 1 - 32 bytes.
 151:Generated_Source\PSoC5/nRF24_COMMANDS.c ****  * A write operation always starts at byte 0.
 152:Generated_Source\PSoC5/nRF24_COMMANDS.c ****  *
 153:Generated_Source\PSoC5/nRF24_COMMANDS.c ****  * @param const nrf_pipe pipe: Pipe to use.
 154:Generated_Source\PSoC5/nRF24_COMMANDS.c ****  * @param const uint8_t* data: Data to be sent.
 155:Generated_Source\PSoC5/nRF24_COMMANDS.c ****  * @param const size_t size: Bytes of data to be sent (max 32)
 156:Generated_Source\PSoC5/nRF24_COMMANDS.c ****  */
 157:Generated_Source\PSoC5/nRF24_COMMANDS.c **** void nRF24_write_ack_payload_cmd(const nrf_pipe pipe, const uint8_t* data,
 158:Generated_Source\PSoC5/nRF24_COMMANDS.c ****                                         const size_t data_size)
 159:Generated_Source\PSoC5/nRF24_COMMANDS.c **** {
 434              		.loc 1 159 0
 435              		.cfi_startproc
 436              		@ args = 0, pretend = 0, frame = 24
 437              		@ frame_needed = 1, uses_anonymous_args = 0
 438 0000 2DE9F04F 		push	{r4, r5, r6, r7, r8, r9, r10, fp, lr}
 439              		.cfi_def_cfa_offset 36
 440              		.cfi_offset 4, -36
 441              		.cfi_offset 5, -32
 442              		.cfi_offset 6, -28
 443              		.cfi_offset 7, -24
 444              		.cfi_offset 8, -20
 445              		.cfi_offset 9, -16
 446              		.cfi_offset 10, -12
 447              		.cfi_offset 11, -8
 448              		.cfi_offset 14, -4
 449 0004 87B0     		sub	sp, sp, #28
 450              		.cfi_def_cfa_offset 64
 451 0006 00AF     		add	r7, sp, #0
 452              		.cfi_def_cfa_register 7
 453 0008 B960     		str	r1, [r7, #8]
 454 000a 7A60     		str	r2, [r7, #4]
 455 000c 0246     		mov	r2, r0
 456 000e FA73     		strb	r2, [r7, #15]
 457              		.loc 1 159 0
 458 0010 6A46     		mov	r2, sp
 459 0012 3A60     		str	r2, [r7]
 160:Generated_Source\PSoC5/nRF24_COMMANDS.c ****     uint8_t nrf_data_in[data_size + 1];
 460              		.loc 1 160 0
 461 0014 7A68     		ldr	r2, [r7, #4]
 462 0016 0132     		adds	r2, r2, #1
 463 0018 1146     		mov	r1, r2
 464 001a 4FF00002 		mov	r2, #0
 465 001e 4FEAC20B 		lsl	fp, r2, #3
 466 0022 4BEA517B 		orr	fp, fp, r1, lsr #29
 467 0026 4FEAC10A 		lsl	r10, r1, #3
ARM GAS  C:\Users\Krist\AppData\Local\Temp\cc2s93Yg.s 			page 12


 468 002a 7A68     		ldr	r2, [r7, #4]
 469 002c 0132     		adds	r2, r2, #1
 470 002e 1146     		mov	r1, r2
 471 0030 4FF00002 		mov	r2, #0
 472 0034 4FEAC209 		lsl	r9, r2, #3
 473 0038 49EA5179 		orr	r9, r9, r1, lsr #29
 474 003c 4FEAC108 		lsl	r8, r1, #3
 475 0040 7A68     		ldr	r2, [r7, #4]
 476 0042 0132     		adds	r2, r2, #1
 477 0044 0732     		adds	r2, r2, #7
 478 0046 D208     		lsrs	r2, r2, #3
 479 0048 D200     		lsls	r2, r2, #3
 480 004a ADEB020D 		sub	sp, sp, r2
 481 004e 6A46     		mov	r2, sp
 482 0050 0032     		adds	r2, r2, #0
 483 0052 7A61     		str	r2, [r7, #20]
 161:Generated_Source\PSoC5/nRF24_COMMANDS.c ****     uint8_t nrf_data_out[data_size + 1];
 484              		.loc 1 161 0
 485 0054 7A68     		ldr	r2, [r7, #4]
 486 0056 0132     		adds	r2, r2, #1
 487 0058 1146     		mov	r1, r2
 488 005a 4FF00002 		mov	r2, #0
 489 005e D600     		lsls	r6, r2, #3
 490 0060 46EA5176 		orr	r6, r6, r1, lsr #29
 491 0064 CD00     		lsls	r5, r1, #3
 492 0066 7A68     		ldr	r2, [r7, #4]
 493 0068 0132     		adds	r2, r2, #1
 494 006a 1146     		mov	r1, r2
 495 006c 4FF00002 		mov	r2, #0
 496 0070 D400     		lsls	r4, r2, #3
 497 0072 44EA5174 		orr	r4, r4, r1, lsr #29
 498 0076 CB00     		lsls	r3, r1, #3
 499 0078 7B68     		ldr	r3, [r7, #4]
 500 007a 0133     		adds	r3, r3, #1
 501 007c 0733     		adds	r3, r3, #7
 502 007e DB08     		lsrs	r3, r3, #3
 503 0080 DB00     		lsls	r3, r3, #3
 504 0082 ADEB030D 		sub	sp, sp, r3
 505 0086 6B46     		mov	r3, sp
 506 0088 0033     		adds	r3, r3, #0
 507 008a 3B61     		str	r3, [r7, #16]
 162:Generated_Source\PSoC5/nRF24_COMMANDS.c ****     
 163:Generated_Source\PSoC5/nRF24_COMMANDS.c ****     nrf_data_in[0] = NRF_CMD_W_ACK_PAYLOAD | pipe;
 508              		.loc 1 163 0
 509 008c FB7B     		ldrb	r3, [r7, #15]
 510 008e 63F05703 		orn	r3, r3, #87
 511 0092 DAB2     		uxtb	r2, r3
 512 0094 7B69     		ldr	r3, [r7, #20]
 513 0096 1A70     		strb	r2, [r3]
 164:Generated_Source\PSoC5/nRF24_COMMANDS.c ****     memcpy(&nrf_data_in[1], data, data_size);
 514              		.loc 1 164 0
 515 0098 7B69     		ldr	r3, [r7, #20]
 516 009a 0133     		adds	r3, r3, #1
 517 009c 7A68     		ldr	r2, [r7, #4]
 518 009e B968     		ldr	r1, [r7, #8]
 519 00a0 1846     		mov	r0, r3
 520 00a2 FFF7FEFF 		bl	memcpy
ARM GAS  C:\Users\Krist\AppData\Local\Temp\cc2s93Yg.s 			page 13


 165:Generated_Source\PSoC5/nRF24_COMMANDS.c ****     
 166:Generated_Source\PSoC5/nRF24_COMMANDS.c ****     nRF24_spi_xfer(nrf_data_in, nrf_data_out, sizeof(nrf_data_in));
 521              		.loc 1 166 0
 522 00a6 7869     		ldr	r0, [r7, #20]
 523 00a8 3969     		ldr	r1, [r7, #16]
 524 00aa 7B68     		ldr	r3, [r7, #4]
 525 00ac 0133     		adds	r3, r3, #1
 526 00ae 1A46     		mov	r2, r3
 527 00b0 FFF7FEFF 		bl	nRF24_spi_xfer
 528 00b4 D7F800D0 		ldr	sp, [r7]
 167:Generated_Source\PSoC5/nRF24_COMMANDS.c **** }
 529              		.loc 1 167 0
 530 00b8 00BF     		nop
 531 00ba 1C37     		adds	r7, r7, #28
 532              		.cfi_def_cfa_offset 36
 533 00bc BD46     		mov	sp, r7
 534              		.cfi_def_cfa_register 13
 535              		@ sp needed
 536 00be BDE8F08F 		pop	{r4, r5, r6, r7, r8, r9, r10, fp, pc}
 537              		.cfi_endproc
 538              	.LFE7:
 539              		.size	nRF24_write_ack_payload_cmd, .-nRF24_write_ack_payload_cmd
 540 00c2 00BF     		.section	.text.nRF24_no_ack_payload_cmd,"ax",%progbits
 541              		.align	2
 542              		.global	nRF24_no_ack_payload_cmd
 543              		.thumb
 544              		.thumb_func
 545              		.type	nRF24_no_ack_payload_cmd, %function
 546              	nRF24_no_ack_payload_cmd:
 547              	.LFB8:
 168:Generated_Source\PSoC5/nRF24_COMMANDS.c **** 
 169:Generated_Source\PSoC5/nRF24_COMMANDS.c **** /**
 170:Generated_Source\PSoC5/nRF24_COMMANDS.c ****  * Used in TX mode.
 171:Generated_Source\PSoC5/nRF24_COMMANDS.c ****  * Disable AUTOACK on this packet.
 172:Generated_Source\PSoC5/nRF24_COMMANDS.c ****  *
 173:Generated_Source\PSoC5/nRF24_COMMANDS.c ****  * @param const uint8_t* data: Data to be sent.
 174:Generated_Source\PSoC5/nRF24_COMMANDS.c ****  * @param const size_t size: Bytes of data to be sent (max 32).
 175:Generated_Source\PSoC5/nRF24_COMMANDS.c ****  */
 176:Generated_Source\PSoC5/nRF24_COMMANDS.c **** void nRF24_no_ack_payload_cmd(const uint8_t* data, const size_t data_size)
 177:Generated_Source\PSoC5/nRF24_COMMANDS.c **** {
 548              		.loc 1 177 0
 549              		.cfi_startproc
 550              		@ args = 0, pretend = 0, frame = 24
 551              		@ frame_needed = 1, uses_anonymous_args = 0
 552 0000 2DE9F04F 		push	{r4, r5, r6, r7, r8, r9, r10, fp, lr}
 553              		.cfi_def_cfa_offset 36
 554              		.cfi_offset 4, -36
 555              		.cfi_offset 5, -32
 556              		.cfi_offset 6, -28
 557              		.cfi_offset 7, -24
 558              		.cfi_offset 8, -20
 559              		.cfi_offset 9, -16
 560              		.cfi_offset 10, -12
 561              		.cfi_offset 11, -8
 562              		.cfi_offset 14, -4
 563 0004 87B0     		sub	sp, sp, #28
 564              		.cfi_def_cfa_offset 64
ARM GAS  C:\Users\Krist\AppData\Local\Temp\cc2s93Yg.s 			page 14


 565 0006 00AF     		add	r7, sp, #0
 566              		.cfi_def_cfa_register 7
 567 0008 F860     		str	r0, [r7, #12]
 568 000a B960     		str	r1, [r7, #8]
 569              		.loc 1 177 0
 570 000c 6A46     		mov	r2, sp
 571 000e 7A60     		str	r2, [r7, #4]
 178:Generated_Source\PSoC5/nRF24_COMMANDS.c ****     uint8_t nrf_data_in[data_size + 1];
 572              		.loc 1 178 0
 573 0010 BA68     		ldr	r2, [r7, #8]
 574 0012 0132     		adds	r2, r2, #1
 575 0014 1146     		mov	r1, r2
 576 0016 4FF00002 		mov	r2, #0
 577 001a 4FEAC20B 		lsl	fp, r2, #3
 578 001e 4BEA517B 		orr	fp, fp, r1, lsr #29
 579 0022 4FEAC10A 		lsl	r10, r1, #3
 580 0026 BA68     		ldr	r2, [r7, #8]
 581 0028 0132     		adds	r2, r2, #1
 582 002a 1146     		mov	r1, r2
 583 002c 4FF00002 		mov	r2, #0
 584 0030 4FEAC209 		lsl	r9, r2, #3
 585 0034 49EA5179 		orr	r9, r9, r1, lsr #29
 586 0038 4FEAC108 		lsl	r8, r1, #3
 587 003c BA68     		ldr	r2, [r7, #8]
 588 003e 0132     		adds	r2, r2, #1
 589 0040 0732     		adds	r2, r2, #7
 590 0042 D208     		lsrs	r2, r2, #3
 591 0044 D200     		lsls	r2, r2, #3
 592 0046 ADEB020D 		sub	sp, sp, r2
 593 004a 6A46     		mov	r2, sp
 594 004c 0032     		adds	r2, r2, #0
 595 004e 7A61     		str	r2, [r7, #20]
 179:Generated_Source\PSoC5/nRF24_COMMANDS.c ****     uint8_t nrf_data_out[data_size + 1];
 596              		.loc 1 179 0
 597 0050 BA68     		ldr	r2, [r7, #8]
 598 0052 0132     		adds	r2, r2, #1
 599 0054 1146     		mov	r1, r2
 600 0056 4FF00002 		mov	r2, #0
 601 005a D600     		lsls	r6, r2, #3
 602 005c 46EA5176 		orr	r6, r6, r1, lsr #29
 603 0060 CD00     		lsls	r5, r1, #3
 604 0062 BA68     		ldr	r2, [r7, #8]
 605 0064 0132     		adds	r2, r2, #1
 606 0066 1146     		mov	r1, r2
 607 0068 4FF00002 		mov	r2, #0
 608 006c D400     		lsls	r4, r2, #3
 609 006e 44EA5174 		orr	r4, r4, r1, lsr #29
 610 0072 CB00     		lsls	r3, r1, #3
 611 0074 BB68     		ldr	r3, [r7, #8]
 612 0076 0133     		adds	r3, r3, #1
 613 0078 0733     		adds	r3, r3, #7
 614 007a DB08     		lsrs	r3, r3, #3
 615 007c DB00     		lsls	r3, r3, #3
 616 007e ADEB030D 		sub	sp, sp, r3
 617 0082 6B46     		mov	r3, sp
 618 0084 0033     		adds	r3, r3, #0
 619 0086 3B61     		str	r3, [r7, #16]
ARM GAS  C:\Users\Krist\AppData\Local\Temp\cc2s93Yg.s 			page 15


 180:Generated_Source\PSoC5/nRF24_COMMANDS.c ****     
 181:Generated_Source\PSoC5/nRF24_COMMANDS.c ****     nrf_data_in[0] = NRF_CMD_W_TX_PAYLOAD_NOACK;
 620              		.loc 1 181 0
 621 0088 7B69     		ldr	r3, [r7, #20]
 622 008a B022     		movs	r2, #176
 623 008c 1A70     		strb	r2, [r3]
 182:Generated_Source\PSoC5/nRF24_COMMANDS.c ****     memcpy(&nrf_data_in[1], data, data_size);
 624              		.loc 1 182 0
 625 008e 7B69     		ldr	r3, [r7, #20]
 626 0090 0133     		adds	r3, r3, #1
 627 0092 BA68     		ldr	r2, [r7, #8]
 628 0094 F968     		ldr	r1, [r7, #12]
 629 0096 1846     		mov	r0, r3
 630 0098 FFF7FEFF 		bl	memcpy
 183:Generated_Source\PSoC5/nRF24_COMMANDS.c ****     
 184:Generated_Source\PSoC5/nRF24_COMMANDS.c ****     nRF24_spi_xfer(nrf_data_in, nrf_data_out, sizeof(nrf_data_in));
 631              		.loc 1 184 0
 632 009c 7869     		ldr	r0, [r7, #20]
 633 009e 3969     		ldr	r1, [r7, #16]
 634 00a0 BB68     		ldr	r3, [r7, #8]
 635 00a2 0133     		adds	r3, r3, #1
 636 00a4 1A46     		mov	r2, r3
 637 00a6 FFF7FEFF 		bl	nRF24_spi_xfer
 638 00aa D7F804D0 		ldr	sp, [r7, #4]
 185:Generated_Source\PSoC5/nRF24_COMMANDS.c **** }
 639              		.loc 1 185 0
 640 00ae 00BF     		nop
 641 00b0 1C37     		adds	r7, r7, #28
 642              		.cfi_def_cfa_offset 36
 643 00b2 BD46     		mov	sp, r7
 644              		.cfi_def_cfa_register 13
 645              		@ sp needed
 646 00b4 BDE8F08F 		pop	{r4, r5, r6, r7, r8, r9, r10, fp, pc}
 647              		.cfi_endproc
 648              	.LFE8:
 649              		.size	nRF24_no_ack_payload_cmd, .-nRF24_no_ack_payload_cmd
 650              		.section	.text.nRF24_nop_cmd,"ax",%progbits
 651              		.align	2
 652              		.global	nRF24_nop_cmd
 653              		.thumb
 654              		.thumb_func
 655              		.type	nRF24_nop_cmd, %function
 656              	nRF24_nop_cmd:
 657              	.LFB9:
 186:Generated_Source\PSoC5/nRF24_COMMANDS.c **** 
 187:Generated_Source\PSoC5/nRF24_COMMANDS.c **** /**
 188:Generated_Source\PSoC5/nRF24_COMMANDS.c ****  * NOP (No OPeration) Command. Useful to read the STATUS register.
 189:Generated_Source\PSoC5/nRF24_COMMANDS.c ****  *
 190:Generated_Source\PSoC5/nRF24_COMMANDS.c ****  * @return uint8_t: STATUS register.
 191:Generated_Source\PSoC5/nRF24_COMMANDS.c ****  */
 192:Generated_Source\PSoC5/nRF24_COMMANDS.c **** uint8_t nRF24_nop_cmd(void)
 193:Generated_Source\PSoC5/nRF24_COMMANDS.c **** {
 658              		.loc 1 193 0
 659              		.cfi_startproc
 660              		@ args = 0, pretend = 0, frame = 8
 661              		@ frame_needed = 1, uses_anonymous_args = 0
 662 0000 80B5     		push	{r7, lr}
ARM GAS  C:\Users\Krist\AppData\Local\Temp\cc2s93Yg.s 			page 16


 663              		.cfi_def_cfa_offset 8
 664              		.cfi_offset 7, -8
 665              		.cfi_offset 14, -4
 666 0002 82B0     		sub	sp, sp, #8
 667              		.cfi_def_cfa_offset 16
 668 0004 00AF     		add	r7, sp, #0
 669              		.cfi_def_cfa_register 7
 194:Generated_Source\PSoC5/nRF24_COMMANDS.c ****     uint8_t dummy = 0xFF;
 670              		.loc 1 194 0
 671 0006 FF23     		movs	r3, #255
 672 0008 FB71     		strb	r3, [r7, #7]
 195:Generated_Source\PSoC5/nRF24_COMMANDS.c ****     uint8_t status = 0;
 673              		.loc 1 195 0
 674 000a 0023     		movs	r3, #0
 675 000c BB71     		strb	r3, [r7, #6]
 196:Generated_Source\PSoC5/nRF24_COMMANDS.c ****     
 197:Generated_Source\PSoC5/nRF24_COMMANDS.c ****     nRF24_spi_xfer(&dummy, &status, 1);
 676              		.loc 1 197 0
 677 000e B91D     		adds	r1, r7, #6
 678 0010 FB1D     		adds	r3, r7, #7
 679 0012 0122     		movs	r2, #1
 680 0014 1846     		mov	r0, r3
 681 0016 FFF7FEFF 		bl	nRF24_spi_xfer
 198:Generated_Source\PSoC5/nRF24_COMMANDS.c ****     
 199:Generated_Source\PSoC5/nRF24_COMMANDS.c ****     return status;
 682              		.loc 1 199 0
 683 001a BB79     		ldrb	r3, [r7, #6]	@ zero_extendqisi2
 200:Generated_Source\PSoC5/nRF24_COMMANDS.c **** }
 684              		.loc 1 200 0
 685 001c 1846     		mov	r0, r3
 686 001e 0837     		adds	r7, r7, #8
 687              		.cfi_def_cfa_offset 8
 688 0020 BD46     		mov	sp, r7
 689              		.cfi_def_cfa_register 13
 690              		@ sp needed
 691 0022 80BD     		pop	{r7, pc}
 692              		.cfi_endproc
 693              	.LFE9:
 694              		.size	nRF24_nop_cmd, .-nRF24_nop_cmd
 695              		.text
 696              	.Letext0:
 697              		.file 2 "c:\\program files (x86)\\cypress\\psoc creator\\4.1\\psoc creator\\import\\gnu\\arm\\5.4.
 698              		.file 3 "c:\\program files (x86)\\cypress\\psoc creator\\4.1\\psoc creator\\import\\gnu\\arm\\5.4.
 699              		.file 4 "c:\\program files (x86)\\cypress\\psoc creator\\4.1\\psoc creator\\import\\gnu\\arm\\5.4.
 700              		.file 5 "Generated_Source\\PSoC5\\nRF24_DEFS.h"