ARM GAS  C:\Users\rens_\AppData\Local\Temp\ccW8xaXP.s 			page 1


   1              		.syntax unified
   2              		.cpu cortex-m3
   3              		.fpu softvfp
   4              		.eabi_attribute 20, 1
   5              		.eabi_attribute 21, 1
   6              		.eabi_attribute 23, 3
   7              		.eabi_attribute 24, 1
   8              		.eabi_attribute 25, 1
   9              		.eabi_attribute 26, 1
  10              		.eabi_attribute 30, 6
  11              		.eabi_attribute 34, 1
  12              		.eabi_attribute 18, 4
  13              		.thumb
  14              		.syntax unified
  15              		.file	"nRF24_FUNCS.c"
  16              		.text
  17              	.Ltext0:
  18              		.cfi_sections	.debug_frame
  19              		.data
  20              		.type	_nrf_addr_width, %object
  21              		.size	_nrf_addr_width, 1
  22              	_nrf_addr_width:
  23 0000 05       		.byte	5
  24              		.section	.text._addr_width_conf_to_bytes,"ax",%progbits
  25              		.align	2
  26              		.thumb
  27              		.thumb_func
  28              		.type	_addr_width_conf_to_bytes, %function
  29              	_addr_width_conf_to_bytes:
  30              	.LFB0:
  31              		.file 1 "Generated_Source\\PSoC5\\nRF24_FUNCS.c"
   1:Generated_Source\PSoC5/nRF24_FUNCS.c **** /****************************************************************************
   2:Generated_Source\PSoC5/nRF24_FUNCS.c **** * This file is part of the nRF24 Custom Component for PSoC Devices.
   3:Generated_Source\PSoC5/nRF24_FUNCS.c **** *
   4:Generated_Source\PSoC5/nRF24_FUNCS.c **** * Copyright (C) 2017 Carlos Diaz <carlos.santiago.diaz@gmail.com>
   5:Generated_Source\PSoC5/nRF24_FUNCS.c **** *
   6:Generated_Source\PSoC5/nRF24_FUNCS.c **** * Permission to use, copy, modify, and/or distribute this software for any
   7:Generated_Source\PSoC5/nRF24_FUNCS.c **** * purpose with or without fee is hereby granted, provided that the above
   8:Generated_Source\PSoC5/nRF24_FUNCS.c **** * copyright notice and this permission notice appear in all copies.
   9:Generated_Source\PSoC5/nRF24_FUNCS.c **** *
  10:Generated_Source\PSoC5/nRF24_FUNCS.c **** * THE SOFTWARE IS PROVIDED "AS IS" AND THE AUTHOR DISCLAIMS ALL WARRANTIES
  11:Generated_Source\PSoC5/nRF24_FUNCS.c **** * WITH REGARD TO THIS SOFTWARE INCLUDING ALL IMPLIED WARRANTIES OF
  12:Generated_Source\PSoC5/nRF24_FUNCS.c **** * MERCHANTABILITY AND FITNESS. IN NO EVENT SHALL THE AUTHOR BE LIABLE FOR
  13:Generated_Source\PSoC5/nRF24_FUNCS.c **** * ANY SPECIAL, DIRECT, INDIRECT, OR CONSEQUENTIAL DAMAGES OR ANY DAMAGES
  14:Generated_Source\PSoC5/nRF24_FUNCS.c **** * WHATSOEVER RESULTING FROM LOSS OF USE, DATA OR PROFITS, WHETHER IN AN
  15:Generated_Source\PSoC5/nRF24_FUNCS.c **** * ACTION OF CONTRACT, NEGLIGENCE OR OTHER TORTIOUS ACTION, ARISING OUT OF
  16:Generated_Source\PSoC5/nRF24_FUNCS.c **** * OR IN CONNECTION WITH THE USE OR PERFORMANCE OF THIS SOFTWARE.
  17:Generated_Source\PSoC5/nRF24_FUNCS.c **** ****************************************************************************/
  18:Generated_Source\PSoC5/nRF24_FUNCS.c **** 
  19:Generated_Source\PSoC5/nRF24_FUNCS.c **** /**
  20:Generated_Source\PSoC5/nRF24_FUNCS.c **** * @file nRF24_NRF_FUNCS.c
  21:Generated_Source\PSoC5/nRF24_FUNCS.c **** *
  22:Generated_Source\PSoC5/nRF24_FUNCS.c **** * @brief This file define all the functions available to the user.
  23:Generated_Source\PSoC5/nRF24_FUNCS.c **** */
  24:Generated_Source\PSoC5/nRF24_FUNCS.c **** 
  25:Generated_Source\PSoC5/nRF24_FUNCS.c **** #include "nRF24_CONFIG.h"
  26:Generated_Source\PSoC5/nRF24_FUNCS.c **** #include "nRF24_HAL.h"
ARM GAS  C:\Users\rens_\AppData\Local\Temp\ccW8xaXP.s 			page 2


  27:Generated_Source\PSoC5/nRF24_FUNCS.c **** #include "nRF24_COMMANDS.h"
  28:Generated_Source\PSoC5/nRF24_FUNCS.c **** #include "nRF24_FUNCS.h"
  29:Generated_Source\PSoC5/nRF24_FUNCS.c **** #include "nRF24_DEFS.h"
  30:Generated_Source\PSoC5/nRF24_FUNCS.c **** 
  31:Generated_Source\PSoC5/nRF24_FUNCS.c **** /* "Helper" global variables */
  32:Generated_Source\PSoC5/nRF24_FUNCS.c **** /* _nrf_addr_width expresed in bytes, declared with the default value */
  33:Generated_Source\PSoC5/nRF24_FUNCS.c **** static nrf_pipe_addr_width _nrf_addr_width = NRF_PIPE_ADDR_WIDTH_5BYTES;
  34:Generated_Source\PSoC5/nRF24_FUNCS.c **** 
  35:Generated_Source\PSoC5/nRF24_FUNCS.c **** static void
  36:Generated_Source\PSoC5/nRF24_FUNCS.c **** _addr_width_conf_to_bytes(nrf_addr_width addr_width)
  37:Generated_Source\PSoC5/nRF24_FUNCS.c **** {
  32              		.loc 1 37 0
  33              		.cfi_startproc
  34              		@ args = 0, pretend = 0, frame = 8
  35              		@ frame_needed = 1, uses_anonymous_args = 0
  36              		@ link register save eliminated.
  37 0000 80B4     		push	{r7}
  38              		.cfi_def_cfa_offset 4
  39              		.cfi_offset 7, -4
  40 0002 83B0     		sub	sp, sp, #12
  41              		.cfi_def_cfa_offset 16
  42 0004 00AF     		add	r7, sp, #0
  43              		.cfi_def_cfa_register 7
  44 0006 0346     		mov	r3, r0
  45 0008 FB71     		strb	r3, [r7, #7]
  38:Generated_Source\PSoC5/nRF24_FUNCS.c ****     switch(addr_width)
  46              		.loc 1 38 0
  47 000a FB79     		ldrb	r3, [r7, #7]	@ zero_extendqisi2
  48 000c 022B     		cmp	r3, #2
  49 000e 08D0     		beq	.L3
  50 0010 032B     		cmp	r3, #3
  51 0012 0AD0     		beq	.L4
  52 0014 012B     		cmp	r3, #1
  53 0016 00D0     		beq	.L5
  39:Generated_Source\PSoC5/nRF24_FUNCS.c ****     {
  40:Generated_Source\PSoC5/nRF24_FUNCS.c ****     case NRF_SETUP_AW_3BYTES:
  41:Generated_Source\PSoC5/nRF24_FUNCS.c ****         _nrf_addr_width = NRF_PIPE_ADDR_WIDTH_3BYTES;
  42:Generated_Source\PSoC5/nRF24_FUNCS.c ****         break;
  43:Generated_Source\PSoC5/nRF24_FUNCS.c ****     case NRF_SETUP_AW_4BYTES:
  44:Generated_Source\PSoC5/nRF24_FUNCS.c ****         _nrf_addr_width = NRF_PIPE_ADDR_WIDTH_4BYTES;
  45:Generated_Source\PSoC5/nRF24_FUNCS.c ****         break;
  46:Generated_Source\PSoC5/nRF24_FUNCS.c ****     case NRF_SETUP_AW_5BYTES:
  47:Generated_Source\PSoC5/nRF24_FUNCS.c ****         _nrf_addr_width = NRF_PIPE_ADDR_WIDTH_5BYTES;
  48:Generated_Source\PSoC5/nRF24_FUNCS.c ****         break;
  49:Generated_Source\PSoC5/nRF24_FUNCS.c ****     }
  50:Generated_Source\PSoC5/nRF24_FUNCS.c **** }
  54              		.loc 1 50 0
  55 0018 0BE0     		b	.L6
  56              	.L5:
  41:Generated_Source\PSoC5/nRF24_FUNCS.c ****         break;
  57              		.loc 1 41 0
  58 001a 084B     		ldr	r3, .L7
  59 001c 0322     		movs	r2, #3
  60 001e 1A70     		strb	r2, [r3]
  42:Generated_Source\PSoC5/nRF24_FUNCS.c ****     case NRF_SETUP_AW_4BYTES:
  61              		.loc 1 42 0
  62 0020 07E0     		b	.L2
ARM GAS  C:\Users\rens_\AppData\Local\Temp\ccW8xaXP.s 			page 3


  63              	.L3:
  44:Generated_Source\PSoC5/nRF24_FUNCS.c ****         break;
  64              		.loc 1 44 0
  65 0022 064B     		ldr	r3, .L7
  66 0024 0422     		movs	r2, #4
  67 0026 1A70     		strb	r2, [r3]
  45:Generated_Source\PSoC5/nRF24_FUNCS.c ****     case NRF_SETUP_AW_5BYTES:
  68              		.loc 1 45 0
  69 0028 03E0     		b	.L2
  70              	.L4:
  47:Generated_Source\PSoC5/nRF24_FUNCS.c ****         break;
  71              		.loc 1 47 0
  72 002a 044B     		ldr	r3, .L7
  73 002c 0522     		movs	r2, #5
  74 002e 1A70     		strb	r2, [r3]
  48:Generated_Source\PSoC5/nRF24_FUNCS.c ****     }
  75              		.loc 1 48 0
  76 0030 00BF     		nop
  77              	.L2:
  78              	.L6:
  79              		.loc 1 50 0
  80 0032 00BF     		nop
  81 0034 0C37     		adds	r7, r7, #12
  82              		.cfi_def_cfa_offset 4
  83 0036 BD46     		mov	sp, r7
  84              		.cfi_def_cfa_register 13
  85              		@ sp needed
  86 0038 80BC     		pop	{r7}
  87              		.cfi_restore 7
  88              		.cfi_def_cfa_offset 0
  89 003a 7047     		bx	lr
  90              	.L8:
  91              		.align	2
  92              	.L7:
  93 003c 00000000 		.word	_nrf_addr_width
  94              		.cfi_endproc
  95              	.LFE0:
  96              		.size	_addr_width_conf_to_bytes, .-_addr_width_conf_to_bytes
  97              		.section	.text.nRF24_start,"ax",%progbits
  98              		.align	2
  99              		.global	nRF24_start
 100              		.thumb
 101              		.thumb_func
 102              		.type	nRF24_start, %function
 103              	nRF24_start:
 104              	.LFB1:
  51:Generated_Source\PSoC5/nRF24_FUNCS.c **** 
  52:Generated_Source\PSoC5/nRF24_FUNCS.c **** /**
  53:Generated_Source\PSoC5/nRF24_FUNCS.c ****  * @brief Configure the radio and clear IRQs, TX and RX FIFOs.
  54:Generated_Source\PSoC5/nRF24_FUNCS.c ****  */
  55:Generated_Source\PSoC5/nRF24_FUNCS.c **** void nRF24_start(void)
  56:Generated_Source\PSoC5/nRF24_FUNCS.c **** {
 105              		.loc 1 56 0
 106              		.cfi_startproc
 107              		@ args = 0, pretend = 0, frame = 0
 108              		@ frame_needed = 1, uses_anonymous_args = 0
 109 0000 80B5     		push	{r7, lr}
ARM GAS  C:\Users\rens_\AppData\Local\Temp\ccW8xaXP.s 			page 4


 110              		.cfi_def_cfa_offset 8
 111              		.cfi_offset 7, -8
 112              		.cfi_offset 14, -4
 113 0002 00AF     		add	r7, sp, #0
 114              		.cfi_def_cfa_register 7
  57:Generated_Source\PSoC5/nRF24_FUNCS.c ****     // Recommended delay before start using the nRF24
  58:Generated_Source\PSoC5/nRF24_FUNCS.c ****     CyDelay(NRF_POWER_UP_DELAY_MS);
 115              		.loc 1 58 0
 116 0004 6420     		movs	r0, #100
 117 0006 FFF7FEFF 		bl	CyDelay
  59:Generated_Source\PSoC5/nRF24_FUNCS.c **** 
  60:Generated_Source\PSoC5/nRF24_FUNCS.c ****     // Now the radio is in Power Down mode
  61:Generated_Source\PSoC5/nRF24_FUNCS.c **** 
  62:Generated_Source\PSoC5/nRF24_FUNCS.c **** #if defined (_PSOC6)
  63:Generated_Source\PSoC5/nRF24_FUNCS.c ****     /* We are using the low level driver, so pass NULL to the context */
  64:Generated_Source\PSoC5/nRF24_FUNCS.c ****     (void) Cy_SCB_SPI_Init(SPI_HW, &SPI_config, NULL);
  65:Generated_Source\PSoC5/nRF24_FUNCS.c ****     Cy_SCB_SPI_Enable(SPI_HW);
  66:Generated_Source\PSoC5/nRF24_FUNCS.c **** #else // _PSoC4_SCB and _PSOC_UDB
  67:Generated_Source\PSoC5/nRF24_FUNCS.c ****     SPI_Start();
 118              		.loc 1 67 0
 119 000a FFF7FEFF 		bl	SPI_Start
  68:Generated_Source\PSoC5/nRF24_FUNCS.c **** #endif
  69:Generated_Source\PSoC5/nRF24_FUNCS.c ****     nRF24_ss_write(GPIO_SET);
 120              		.loc 1 69 0
 121 000e 0120     		movs	r0, #1
 122 0010 FFF7FEFF 		bl	nRF24_ss_write
  70:Generated_Source\PSoC5/nRF24_FUNCS.c ****     nRF24_ce_write(GPIO_CLEAR);
 123              		.loc 1 70 0
 124 0014 0020     		movs	r0, #0
 125 0016 FFF7FEFF 		bl	nRF24_ce_write
  71:Generated_Source\PSoC5/nRF24_FUNCS.c **** 
  72:Generated_Source\PSoC5/nRF24_FUNCS.c ****     // Flush both nRF24 FIFOs
  73:Generated_Source\PSoC5/nRF24_FUNCS.c ****     nRF24_flush_rx_cmd();
 126              		.loc 1 73 0
 127 001a FFF7FEFF 		bl	nRF24_flush_rx_cmd
  74:Generated_Source\PSoC5/nRF24_FUNCS.c ****     nRF24_flush_tx_cmd();
 128              		.loc 1 74 0
 129 001e FFF7FEFF 		bl	nRF24_flush_tx_cmd
  75:Generated_Source\PSoC5/nRF24_FUNCS.c ****     // Clear IRQ flags
  76:Generated_Source\PSoC5/nRF24_FUNCS.c ****     nRF24_clear_all_irqs();
 130              		.loc 1 76 0
 131 0022 FFF7FEFF 		bl	nRF24_clear_all_irqs
  77:Generated_Source\PSoC5/nRF24_FUNCS.c **** 
  78:Generated_Source\PSoC5/nRF24_FUNCS.c ****     // Configure the nRF24 with the data from the customizer
  79:Generated_Source\PSoC5/nRF24_FUNCS.c ****     nRF24_init();
 132              		.loc 1 79 0
 133 0026 FFF7FEFF 		bl	nRF24_init
  80:Generated_Source\PSoC5/nRF24_FUNCS.c **** 
  81:Generated_Source\PSoC5/nRF24_FUNCS.c ****     // After PWR_UP = 1 the radio is in Standby-I mode, 130us of delay for settling
  82:Generated_Source\PSoC5/nRF24_FUNCS.c ****     CyDelayUs(150);
 134              		.loc 1 82 0
 135 002a 9620     		movs	r0, #150
 136 002c FFF7FEFF 		bl	CyDelayUs
  83:Generated_Source\PSoC5/nRF24_FUNCS.c **** }
 137              		.loc 1 83 0
 138 0030 00BF     		nop
 139 0032 80BD     		pop	{r7, pc}
ARM GAS  C:\Users\rens_\AppData\Local\Temp\ccW8xaXP.s 			page 5


 140              		.cfi_endproc
 141              	.LFE1:
 142              		.size	nRF24_start, .-nRF24_start
 143              		.section	.text.nRF24_init,"ax",%progbits
 144              		.align	2
 145              		.global	nRF24_init
 146              		.thumb
 147              		.thumb_func
 148              		.type	nRF24_init, %function
 149              	nRF24_init:
 150              	.LFB2:
  84:Generated_Source\PSoC5/nRF24_FUNCS.c **** 
  85:Generated_Source\PSoC5/nRF24_FUNCS.c **** /**
  86:Generated_Source\PSoC5/nRF24_FUNCS.c ****  * Configure the nRF radio with the data from the customizer.
  87:Generated_Source\PSoC5/nRF24_FUNCS.c ****  */
  88:Generated_Source\PSoC5/nRF24_FUNCS.c **** void nRF24_init(void)
  89:Generated_Source\PSoC5/nRF24_FUNCS.c **** {
 151              		.loc 1 89 0
 152              		.cfi_startproc
 153              		@ args = 0, pretend = 0, frame = 0
 154              		@ frame_needed = 1, uses_anonymous_args = 0
 155 0000 80B5     		push	{r7, lr}
 156              		.cfi_def_cfa_offset 8
 157              		.cfi_offset 7, -8
 158              		.cfi_offset 14, -4
 159 0002 00AF     		add	r7, sp, #0
 160              		.cfi_def_cfa_register 7
  90:Generated_Source\PSoC5/nRF24_FUNCS.c ****     nRF24_write_register(NRF_REG_EN_AA, CUSTOMIZER_EN_AA);
 161              		.loc 1 90 0
 162 0004 0021     		movs	r1, #0
 163 0006 0120     		movs	r0, #1
 164 0008 FFF7FEFF 		bl	nRF24_write_register
  91:Generated_Source\PSoC5/nRF24_FUNCS.c ****     nRF24_write_register(NRF_REG_EN_RXADDR, CUSTOMIZER_EN_RXADDR);
 165              		.loc 1 91 0
 166 000c 0121     		movs	r1, #1
 167 000e 0220     		movs	r0, #2
 168 0010 FFF7FEFF 		bl	nRF24_write_register
  92:Generated_Source\PSoC5/nRF24_FUNCS.c ****     nRF24_write_register(NRF_REG_SETUP_AW, CUSTOMIZER_SETUP_AW);
 169              		.loc 1 92 0
 170 0014 0321     		movs	r1, #3
 171 0016 0320     		movs	r0, #3
 172 0018 FFF7FEFF 		bl	nRF24_write_register
  93:Generated_Source\PSoC5/nRF24_FUNCS.c ****     nRF24_write_register(NRF_REG_SETUP_RETR, CUSTOMIZER_SETUP_RETR);
 173              		.loc 1 93 0
 174 001c 0021     		movs	r1, #0
 175 001e 0420     		movs	r0, #4
 176 0020 FFF7FEFF 		bl	nRF24_write_register
  94:Generated_Source\PSoC5/nRF24_FUNCS.c ****     nRF24_write_register(NRF_REG_RF_CH, CUSTOMIZER_RF_CH);
 177              		.loc 1 94 0
 178 0024 4B21     		movs	r1, #75
 179 0026 0520     		movs	r0, #5
 180 0028 FFF7FEFF 		bl	nRF24_write_register
  95:Generated_Source\PSoC5/nRF24_FUNCS.c ****     nRF24_write_register(NRF_REG_RF_SETUP, CUSTOMIZER_RF_SETUP);
 181              		.loc 1 95 0
 182 002c 0E21     		movs	r1, #14
 183 002e 0620     		movs	r0, #6
 184 0030 FFF7FEFF 		bl	nRF24_write_register
ARM GAS  C:\Users\rens_\AppData\Local\Temp\ccW8xaXP.s 			page 6


  96:Generated_Source\PSoC5/nRF24_FUNCS.c ****     nRF24_write_register(NRF_REG_DYNPD, CUSTOMIZER_DYNPD);
 185              		.loc 1 96 0
 186 0034 0021     		movs	r1, #0
 187 0036 1C20     		movs	r0, #28
 188 0038 FFF7FEFF 		bl	nRF24_write_register
  97:Generated_Source\PSoC5/nRF24_FUNCS.c ****     nRF24_write_register(NRF_REG_FEATURE, CUSTOMIZER_FEATURE);
 189              		.loc 1 97 0
 190 003c 0021     		movs	r1, #0
 191 003e 1D20     		movs	r0, #29
 192 0040 FFF7FEFF 		bl	nRF24_write_register
  98:Generated_Source\PSoC5/nRF24_FUNCS.c **** 
  99:Generated_Source\PSoC5/nRF24_FUNCS.c **** // Configuring data pipes
 100:Generated_Source\PSoC5/nRF24_FUNCS.c **** #if (ENABLE_PIPE0 == 1)
 101:Generated_Source\PSoC5/nRF24_FUNCS.c ****     nRF24_write_register(NRF_REG_RX_PW_P0, CUSTOMIZER_RX_PW_P0);
 193              		.loc 1 101 0
 194 0044 0121     		movs	r1, #1
 195 0046 1120     		movs	r0, #17
 196 0048 FFF7FEFF 		bl	nRF24_write_register
 102:Generated_Source\PSoC5/nRF24_FUNCS.c **** #endif
 103:Generated_Source\PSoC5/nRF24_FUNCS.c **** #if (ENABLE_PIPE1 == 1)
 104:Generated_Source\PSoC5/nRF24_FUNCS.c ****     nRF24_write_register(NRF_REG_RX_PW_P1, CUSTOMIZER_RX_PW_P1);
 105:Generated_Source\PSoC5/nRF24_FUNCS.c **** #endif
 106:Generated_Source\PSoC5/nRF24_FUNCS.c **** #if (ENABLE_PIPE2 == 1)
 107:Generated_Source\PSoC5/nRF24_FUNCS.c ****     nRF24_write_register(NRF_REG_RX_ADDR_P2, CUSTOMIZER_RX_ADDR_P2);
 108:Generated_Source\PSoC5/nRF24_FUNCS.c ****     nRF24_write_register(NRF_REG_RX_PW_P2, CUSTOMIZER_RX_PW_P2);
 109:Generated_Source\PSoC5/nRF24_FUNCS.c **** #endif
 110:Generated_Source\PSoC5/nRF24_FUNCS.c **** #if (ENABLE_PIPE3 == 1)
 111:Generated_Source\PSoC5/nRF24_FUNCS.c ****     nRF24_write_register(NRF_REG_RX_ADDR_P3, CUSTOMIZER_RX_ADDR_P3);
 112:Generated_Source\PSoC5/nRF24_FUNCS.c ****     nRF24_write_register(NRF_REG_RX_PW_P3, CUSTOMIZER_RX_PW_P3);
 113:Generated_Source\PSoC5/nRF24_FUNCS.c **** #endif
 114:Generated_Source\PSoC5/nRF24_FUNCS.c **** #if (ENABLE_PIPE4 == 1)
 115:Generated_Source\PSoC5/nRF24_FUNCS.c ****     nRF24_write_register(NRF_REG_RX_ADDR_P4, CUSTOMIZER_RX_ADDR_P4);
 116:Generated_Source\PSoC5/nRF24_FUNCS.c ****     nRF24_write_register(NRF_REG_RX_PW_P4, CUSTOMIZER_RX_PW_P4);
 117:Generated_Source\PSoC5/nRF24_FUNCS.c **** #endif
 118:Generated_Source\PSoC5/nRF24_FUNCS.c **** #if (ENABLE_PIPE5 == 1)
 119:Generated_Source\PSoC5/nRF24_FUNCS.c ****     nRF24_write_register(NRF_REG_RX_ADDR_P5, CUSTOMIZER_RX_ADDR_P5);
 120:Generated_Source\PSoC5/nRF24_FUNCS.c ****     nRF24_write_register(NRF_REG_RX_PW_P5, CUSTOMIZER_RX_PW_P5);
 121:Generated_Source\PSoC5/nRF24_FUNCS.c **** #endif
 122:Generated_Source\PSoC5/nRF24_FUNCS.c **** 
 123:Generated_Source\PSoC5/nRF24_FUNCS.c ****     nRF24_write_register(NRF_REG_CONFIG, CUSTOMIZER_CONFIG);
 197              		.loc 1 123 0
 198 004c 3B21     		movs	r1, #59
 199 004e 0020     		movs	r0, #0
 200 0050 FFF7FEFF 		bl	nRF24_write_register
 124:Generated_Source\PSoC5/nRF24_FUNCS.c **** 
 125:Generated_Source\PSoC5/nRF24_FUNCS.c ****     // Set the _nrf_addr_width variable
 126:Generated_Source\PSoC5/nRF24_FUNCS.c ****     _addr_width_conf_to_bytes(CUSTOMIZER_SETUP_AW);
 201              		.loc 1 126 0
 202 0054 0320     		movs	r0, #3
 203 0056 FFF7FEFF 		bl	_addr_width_conf_to_bytes
 127:Generated_Source\PSoC5/nRF24_FUNCS.c **** }
 204              		.loc 1 127 0
 205 005a 00BF     		nop
 206 005c 80BD     		pop	{r7, pc}
 207              		.cfi_endproc
 208              	.LFE2:
 209              		.size	nRF24_init, .-nRF24_init
ARM GAS  C:\Users\rens_\AppData\Local\Temp\ccW8xaXP.s 			page 7


 210 005e 00BF     		.section	.text.nRF24_enable,"ax",%progbits
 211              		.align	2
 212              		.global	nRF24_enable
 213              		.thumb
 214              		.thumb_func
 215              		.type	nRF24_enable, %function
 216              	nRF24_enable:
 217              	.LFB3:
 128:Generated_Source\PSoC5/nRF24_FUNCS.c **** 
 129:Generated_Source\PSoC5/nRF24_FUNCS.c **** /**
 130:Generated_Source\PSoC5/nRF24_FUNCS.c ****  * Enable the nRF24 radio.
 131:Generated_Source\PSoC5/nRF24_FUNCS.c ****  *
 132:Generated_Source\PSoC5/nRF24_FUNCS.c ****  * @todo Implement this function
 133:Generated_Source\PSoC5/nRF24_FUNCS.c ****  */
 134:Generated_Source\PSoC5/nRF24_FUNCS.c **** void nRF24_enable(void)
 135:Generated_Source\PSoC5/nRF24_FUNCS.c **** {
 218              		.loc 1 135 0
 219              		.cfi_startproc
 220              		@ args = 0, pretend = 0, frame = 0
 221              		@ frame_needed = 1, uses_anonymous_args = 0
 222              		@ link register save eliminated.
 223 0000 80B4     		push	{r7}
 224              		.cfi_def_cfa_offset 4
 225              		.cfi_offset 7, -4
 226 0002 00AF     		add	r7, sp, #0
 227              		.cfi_def_cfa_register 7
 136:Generated_Source\PSoC5/nRF24_FUNCS.c **** }
 228              		.loc 1 136 0
 229 0004 00BF     		nop
 230 0006 BD46     		mov	sp, r7
 231              		.cfi_def_cfa_register 13
 232              		@ sp needed
 233 0008 80BC     		pop	{r7}
 234              		.cfi_restore 7
 235              		.cfi_def_cfa_offset 0
 236 000a 7047     		bx	lr
 237              		.cfi_endproc
 238              	.LFE3:
 239              		.size	nRF24_enable, .-nRF24_enable
 240              		.section	.text.nRF24_stop,"ax",%progbits
 241              		.align	2
 242              		.global	nRF24_stop
 243              		.thumb
 244              		.thumb_func
 245              		.type	nRF24_stop, %function
 246              	nRF24_stop:
 247              	.LFB4:
 137:Generated_Source\PSoC5/nRF24_FUNCS.c **** 
 138:Generated_Source\PSoC5/nRF24_FUNCS.c **** /**
 139:Generated_Source\PSoC5/nRF24_FUNCS.c ****  * Stop the nRF24 radio.
 140:Generated_Source\PSoC5/nRF24_FUNCS.c ****  *
 141:Generated_Source\PSoC5/nRF24_FUNCS.c ****  * @todo Implement this function
 142:Generated_Source\PSoC5/nRF24_FUNCS.c ****  */
 143:Generated_Source\PSoC5/nRF24_FUNCS.c **** void nRF24_stop(void)
 144:Generated_Source\PSoC5/nRF24_FUNCS.c **** {
 248              		.loc 1 144 0
 249              		.cfi_startproc
ARM GAS  C:\Users\rens_\AppData\Local\Temp\ccW8xaXP.s 			page 8


 250              		@ args = 0, pretend = 0, frame = 0
 251              		@ frame_needed = 1, uses_anonymous_args = 0
 252              		@ link register save eliminated.
 253 0000 80B4     		push	{r7}
 254              		.cfi_def_cfa_offset 4
 255              		.cfi_offset 7, -4
 256 0002 00AF     		add	r7, sp, #0
 257              		.cfi_def_cfa_register 7
 145:Generated_Source\PSoC5/nRF24_FUNCS.c **** }
 258              		.loc 1 145 0
 259 0004 00BF     		nop
 260 0006 BD46     		mov	sp, r7
 261              		.cfi_def_cfa_register 13
 262              		@ sp needed
 263 0008 80BC     		pop	{r7}
 264              		.cfi_restore 7
 265              		.cfi_def_cfa_offset 0
 266 000a 7047     		bx	lr
 267              		.cfi_endproc
 268              	.LFE4:
 269              		.size	nRF24_stop, .-nRF24_stop
 270              		.section	.text.nRF24_sleep,"ax",%progbits
 271              		.align	2
 272              		.global	nRF24_sleep
 273              		.thumb
 274              		.thumb_func
 275              		.type	nRF24_sleep, %function
 276              	nRF24_sleep:
 277              	.LFB5:
 146:Generated_Source\PSoC5/nRF24_FUNCS.c **** 
 147:Generated_Source\PSoC5/nRF24_FUNCS.c **** /**
 148:Generated_Source\PSoC5/nRF24_FUNCS.c ****  * Put the nRF24 radio on Standby-I mode.
 149:Generated_Source\PSoC5/nRF24_FUNCS.c ****  * This function doesn't put the SPI, MCU nor pins to sleep
 150:Generated_Source\PSoC5/nRF24_FUNCS.c ****  */
 151:Generated_Source\PSoC5/nRF24_FUNCS.c **** void nRF24_sleep(void)
 152:Generated_Source\PSoC5/nRF24_FUNCS.c **** {
 278              		.loc 1 152 0
 279              		.cfi_startproc
 280              		@ args = 0, pretend = 0, frame = 0
 281              		@ frame_needed = 1, uses_anonymous_args = 0
 282 0000 80B5     		push	{r7, lr}
 283              		.cfi_def_cfa_offset 8
 284              		.cfi_offset 7, -8
 285              		.cfi_offset 14, -4
 286 0002 00AF     		add	r7, sp, #0
 287              		.cfi_def_cfa_register 7
 153:Generated_Source\PSoC5/nRF24_FUNCS.c ****     // is standby.I the lowest power mode?
 154:Generated_Source\PSoC5/nRF24_FUNCS.c ****     nRF24_set_standby_i_mode();
 288              		.loc 1 154 0
 289 0004 FFF7FEFF 		bl	nRF24_set_standby_i_mode
 155:Generated_Source\PSoC5/nRF24_FUNCS.c **** }
 290              		.loc 1 155 0
 291 0008 00BF     		nop
 292 000a 80BD     		pop	{r7, pc}
 293              		.cfi_endproc
 294              	.LFE5:
 295              		.size	nRF24_sleep, .-nRF24_sleep
ARM GAS  C:\Users\rens_\AppData\Local\Temp\ccW8xaXP.s 			page 9


 296              		.section	.text.nRF24_wakeup,"ax",%progbits
 297              		.align	2
 298              		.global	nRF24_wakeup
 299              		.thumb
 300              		.thumb_func
 301              		.type	nRF24_wakeup, %function
 302              	nRF24_wakeup:
 303              	.LFB6:
 156:Generated_Source\PSoC5/nRF24_FUNCS.c **** 
 157:Generated_Source\PSoC5/nRF24_FUNCS.c **** /**
 158:Generated_Source\PSoC5/nRF24_FUNCS.c ****  * Wakeup the nRF24 radio, and restore the configuration.
 159:Generated_Source\PSoC5/nRF24_FUNCS.c ****  *
 160:Generated_Source\PSoC5/nRF24_FUNCS.c ****  * @todo Implement this function.
 161:Generated_Source\PSoC5/nRF24_FUNCS.c ****  */
 162:Generated_Source\PSoC5/nRF24_FUNCS.c **** void nRF24_wakeup(void)
 163:Generated_Source\PSoC5/nRF24_FUNCS.c **** {
 304              		.loc 1 163 0
 305              		.cfi_startproc
 306              		@ args = 0, pretend = 0, frame = 0
 307              		@ frame_needed = 1, uses_anonymous_args = 0
 308 0000 80B5     		push	{r7, lr}
 309              		.cfi_def_cfa_offset 8
 310              		.cfi_offset 7, -8
 311              		.cfi_offset 14, -4
 312 0002 00AF     		add	r7, sp, #0
 313              		.cfi_def_cfa_register 7
 164:Generated_Source\PSoC5/nRF24_FUNCS.c ****     // after leaving standby-I mode the radio need a time to
 165:Generated_Source\PSoC5/nRF24_FUNCS.c ****     // return to TX or RX Mode
 166:Generated_Source\PSoC5/nRF24_FUNCS.c ****     nRF24_set_bit(NRF_REG_CONFIG, NRF_CONFIG_PWR_UP);
 314              		.loc 1 166 0
 315 0004 0221     		movs	r1, #2
 316 0006 0020     		movs	r0, #0
 317 0008 FFF7FEFF 		bl	nRF24_set_bit
 167:Generated_Source\PSoC5/nRF24_FUNCS.c ****     CyDelay(5);
 318              		.loc 1 167 0
 319 000c 0520     		movs	r0, #5
 320 000e FFF7FEFF 		bl	CyDelay
 168:Generated_Source\PSoC5/nRF24_FUNCS.c **** }
 321              		.loc 1 168 0
 322 0012 00BF     		nop
 323 0014 80BD     		pop	{r7, pc}
 324              		.cfi_endproc
 325              	.LFE6:
 326              		.size	nRF24_wakeup, .-nRF24_wakeup
 327 0016 00BF     		.section	.text.nRF24_save_config,"ax",%progbits
 328              		.align	2
 329              		.global	nRF24_save_config
 330              		.thumb
 331              		.thumb_func
 332              		.type	nRF24_save_config, %function
 333              	nRF24_save_config:
 334              	.LFB7:
 169:Generated_Source\PSoC5/nRF24_FUNCS.c **** 
 170:Generated_Source\PSoC5/nRF24_FUNCS.c **** /**
 171:Generated_Source\PSoC5/nRF24_FUNCS.c ****  * Save the nRF24 radio configuration.
 172:Generated_Source\PSoC5/nRF24_FUNCS.c ****  *
 173:Generated_Source\PSoC5/nRF24_FUNCS.c ****  * @todo Implement this function.
ARM GAS  C:\Users\rens_\AppData\Local\Temp\ccW8xaXP.s 			page 10


 174:Generated_Source\PSoC5/nRF24_FUNCS.c ****  */
 175:Generated_Source\PSoC5/nRF24_FUNCS.c **** void nRF24_save_config(void)
 176:Generated_Source\PSoC5/nRF24_FUNCS.c **** {
 335              		.loc 1 176 0
 336              		.cfi_startproc
 337              		@ args = 0, pretend = 0, frame = 0
 338              		@ frame_needed = 1, uses_anonymous_args = 0
 339              		@ link register save eliminated.
 340 0000 80B4     		push	{r7}
 341              		.cfi_def_cfa_offset 4
 342              		.cfi_offset 7, -4
 343 0002 00AF     		add	r7, sp, #0
 344              		.cfi_def_cfa_register 7
 177:Generated_Source\PSoC5/nRF24_FUNCS.c **** }
 345              		.loc 1 177 0
 346 0004 00BF     		nop
 347 0006 BD46     		mov	sp, r7
 348              		.cfi_def_cfa_register 13
 349              		@ sp needed
 350 0008 80BC     		pop	{r7}
 351              		.cfi_restore 7
 352              		.cfi_def_cfa_offset 0
 353 000a 7047     		bx	lr
 354              		.cfi_endproc
 355              	.LFE7:
 356              		.size	nRF24_save_config, .-nRF24_save_config
 357              		.section	.text.nRF24_restore_config,"ax",%progbits
 358              		.align	2
 359              		.global	nRF24_restore_config
 360              		.thumb
 361              		.thumb_func
 362              		.type	nRF24_restore_config, %function
 363              	nRF24_restore_config:
 364              	.LFB8:
 178:Generated_Source\PSoC5/nRF24_FUNCS.c **** 
 179:Generated_Source\PSoC5/nRF24_FUNCS.c **** /**
 180:Generated_Source\PSoC5/nRF24_FUNCS.c ****  * Restore the nRF24 radio configuration.
 181:Generated_Source\PSoC5/nRF24_FUNCS.c ****  *
 182:Generated_Source\PSoC5/nRF24_FUNCS.c ****  * @todo Implement this function.
 183:Generated_Source\PSoC5/nRF24_FUNCS.c ****  */
 184:Generated_Source\PSoC5/nRF24_FUNCS.c **** void nRF24_restore_config(void)
 185:Generated_Source\PSoC5/nRF24_FUNCS.c **** {
 365              		.loc 1 185 0
 366              		.cfi_startproc
 367              		@ args = 0, pretend = 0, frame = 0
 368              		@ frame_needed = 1, uses_anonymous_args = 0
 369              		@ link register save eliminated.
 370 0000 80B4     		push	{r7}
 371              		.cfi_def_cfa_offset 4
 372              		.cfi_offset 7, -4
 373 0002 00AF     		add	r7, sp, #0
 374              		.cfi_def_cfa_register 7
 186:Generated_Source\PSoC5/nRF24_FUNCS.c **** }
 375              		.loc 1 186 0
 376 0004 00BF     		nop
 377 0006 BD46     		mov	sp, r7
 378              		.cfi_def_cfa_register 13
ARM GAS  C:\Users\rens_\AppData\Local\Temp\ccW8xaXP.s 			page 11


 379              		@ sp needed
 380 0008 80BC     		pop	{r7}
 381              		.cfi_restore 7
 382              		.cfi_def_cfa_offset 0
 383 000a 7047     		bx	lr
 384              		.cfi_endproc
 385              	.LFE8:
 386              		.size	nRF24_restore_config, .-nRF24_restore_config
 387              		.section	.text.nRF24_set_mode,"ax",%progbits
 388              		.align	2
 389              		.global	nRF24_set_mode
 390              		.thumb
 391              		.thumb_func
 392              		.type	nRF24_set_mode, %function
 393              	nRF24_set_mode:
 394              	.LFB9:
 187:Generated_Source\PSoC5/nRF24_FUNCS.c **** 
 188:Generated_Source\PSoC5/nRF24_FUNCS.c **** /**
 189:Generated_Source\PSoC5/nRF24_FUNCS.c ****  * Configure the radio as Receiver or Transmitter.
 190:Generated_Source\PSoC5/nRF24_FUNCS.c ****  *
 191:Generated_Source\PSoC5/nRF24_FUNCS.c ****  * @param const nrf_mode mode: The radio can be configured as Receiver (PRX)
 192:Generated_Source\PSoC5/nRF24_FUNCS.c ****  * or Transmitter (PTX).
 193:Generated_Source\PSoC5/nRF24_FUNCS.c ****  */
 194:Generated_Source\PSoC5/nRF24_FUNCS.c **** void nRF24_set_mode(const nrf_mode mode)
 195:Generated_Source\PSoC5/nRF24_FUNCS.c **** {
 395              		.loc 1 195 0
 396              		.cfi_startproc
 397              		@ args = 0, pretend = 0, frame = 8
 398              		@ frame_needed = 1, uses_anonymous_args = 0
 399 0000 80B5     		push	{r7, lr}
 400              		.cfi_def_cfa_offset 8
 401              		.cfi_offset 7, -8
 402              		.cfi_offset 14, -4
 403 0002 82B0     		sub	sp, sp, #8
 404              		.cfi_def_cfa_offset 16
 405 0004 00AF     		add	r7, sp, #0
 406              		.cfi_def_cfa_register 7
 407 0006 0346     		mov	r3, r0
 408 0008 FB71     		strb	r3, [r7, #7]
 196:Generated_Source\PSoC5/nRF24_FUNCS.c ****     mode ? nRF24_set_rx_mode() : nRF24_set_tx_mode();
 409              		.loc 1 196 0
 410 000a FB79     		ldrb	r3, [r7, #7]	@ zero_extendqisi2
 411 000c 002B     		cmp	r3, #0
 412 000e 02D0     		beq	.L18
 413              		.loc 1 196 0 is_stmt 0 discriminator 1
 414 0010 FFF7FEFF 		bl	nRF24_set_rx_mode
 197:Generated_Source\PSoC5/nRF24_FUNCS.c **** }
 415              		.loc 1 197 0 is_stmt 1 discriminator 1
 416 0014 01E0     		b	.L20
 417              	.L18:
 196:Generated_Source\PSoC5/nRF24_FUNCS.c ****     mode ? nRF24_set_rx_mode() : nRF24_set_tx_mode();
 418              		.loc 1 196 0 discriminator 2
 419 0016 FFF7FEFF 		bl	nRF24_set_tx_mode
 420              	.L20:
 421              		.loc 1 197 0
 422 001a 00BF     		nop
 423 001c 0837     		adds	r7, r7, #8
ARM GAS  C:\Users\rens_\AppData\Local\Temp\ccW8xaXP.s 			page 12


 424              		.cfi_def_cfa_offset 8
 425 001e BD46     		mov	sp, r7
 426              		.cfi_def_cfa_register 13
 427              		@ sp needed
 428 0020 80BD     		pop	{r7, pc}
 429              		.cfi_endproc
 430              	.LFE9:
 431              		.size	nRF24_set_mode, .-nRF24_set_mode
 432 0022 00BF     		.section	.text.nRF24_set_power_down_mode,"ax",%progbits
 433              		.align	2
 434              		.global	nRF24_set_power_down_mode
 435              		.thumb
 436              		.thumb_func
 437              		.type	nRF24_set_power_down_mode, %function
 438              	nRF24_set_power_down_mode:
 439              	.LFB10:
 198:Generated_Source\PSoC5/nRF24_FUNCS.c **** 
 199:Generated_Source\PSoC5/nRF24_FUNCS.c **** /**
 200:Generated_Source\PSoC5/nRF24_FUNCS.c ****  * @brief Set radio in Power Down Mode.
 201:Generated_Source\PSoC5/nRF24_FUNCS.c ****  *
 202:Generated_Source\PSoC5/nRF24_FUNCS.c ****  * In power down mode nRF24 is disabled using minimal current consumption.
 203:Generated_Source\PSoC5/nRF24_FUNCS.c ****  * All register values available are maintained and the SPI is kept active,
 204:Generated_Source\PSoC5/nRF24_FUNCS.c ****  * enabling change of configuration and the uploading/downloading of data
 205:Generated_Source\PSoC5/nRF24_FUNCS.c ****  * registers.
 206:Generated_Source\PSoC5/nRF24_FUNCS.c ****  * Power down mode is entered by setting the PWR_UP bit (CONFIG register) to 0.
 207:Generated_Source\PSoC5/nRF24_FUNCS.c ****  */
 208:Generated_Source\PSoC5/nRF24_FUNCS.c **** void nRF24_set_power_down_mode(void)
 209:Generated_Source\PSoC5/nRF24_FUNCS.c **** {
 440              		.loc 1 209 0
 441              		.cfi_startproc
 442              		@ args = 0, pretend = 0, frame = 0
 443              		@ frame_needed = 1, uses_anonymous_args = 0
 444 0000 80B5     		push	{r7, lr}
 445              		.cfi_def_cfa_offset 8
 446              		.cfi_offset 7, -8
 447              		.cfi_offset 14, -4
 448 0002 00AF     		add	r7, sp, #0
 449              		.cfi_def_cfa_register 7
 210:Generated_Source\PSoC5/nRF24_FUNCS.c ****     nRF24_clear_bit(NRF_REG_CONFIG, NRF_CONFIG_PWR_UP);
 450              		.loc 1 210 0
 451 0004 0221     		movs	r1, #2
 452 0006 0020     		movs	r0, #0
 453 0008 FFF7FEFF 		bl	nRF24_clear_bit
 211:Generated_Source\PSoC5/nRF24_FUNCS.c **** }
 454              		.loc 1 211 0
 455 000c 00BF     		nop
 456 000e 80BD     		pop	{r7, pc}
 457              		.cfi_endproc
 458              	.LFE10:
 459              		.size	nRF24_set_power_down_mode, .-nRF24_set_power_down_mode
 460              		.section	.text.nRF24_set_standby_i_mode,"ax",%progbits
 461              		.align	2
 462              		.global	nRF24_set_standby_i_mode
 463              		.thumb
 464              		.thumb_func
 465              		.type	nRF24_set_standby_i_mode, %function
 466              	nRF24_set_standby_i_mode:
ARM GAS  C:\Users\rens_\AppData\Local\Temp\ccW8xaXP.s 			page 13


 467              	.LFB11:
 212:Generated_Source\PSoC5/nRF24_FUNCS.c **** 
 213:Generated_Source\PSoC5/nRF24_FUNCS.c **** /**
 214:Generated_Source\PSoC5/nRF24_FUNCS.c ****  * @brief Set the radio in Standby I Mode.
 215:Generated_Source\PSoC5/nRF24_FUNCS.c ****  *
 216:Generated_Source\PSoC5/nRF24_FUNCS.c ****  * By setting the PWR_UP bit in the CONFIG register to 1, the device enters
 217:Generated_Source\PSoC5/nRF24_FUNCS.c ****  * standby-I mode. Standby-I mode is used to minimize average current
 218:Generated_Source\PSoC5/nRF24_FUNCS.c ****  * consumption while maintaining short start up times.
 219:Generated_Source\PSoC5/nRF24_FUNCS.c ****  * In this mode only part of the crystal oscillator is active. Change to
 220:Generated_Source\PSoC5/nRF24_FUNCS.c ****  * active modes only happens if CE is set high and when CE is set low,
 221:Generated_Source\PSoC5/nRF24_FUNCS.c ****  * the nRF24 returns to standby-I mode from both the TX and RX modes.
 222:Generated_Source\PSoC5/nRF24_FUNCS.c ****  */
 223:Generated_Source\PSoC5/nRF24_FUNCS.c **** void nRF24_set_standby_i_mode(void)
 224:Generated_Source\PSoC5/nRF24_FUNCS.c **** {
 468              		.loc 1 224 0
 469              		.cfi_startproc
 470              		@ args = 0, pretend = 0, frame = 0
 471              		@ frame_needed = 1, uses_anonymous_args = 0
 472 0000 80B5     		push	{r7, lr}
 473              		.cfi_def_cfa_offset 8
 474              		.cfi_offset 7, -8
 475              		.cfi_offset 14, -4
 476 0002 00AF     		add	r7, sp, #0
 477              		.cfi_def_cfa_register 7
 225:Generated_Source\PSoC5/nRF24_FUNCS.c ****     nRF24_stop_listening();
 478              		.loc 1 225 0
 479 0004 FFF7FEFF 		bl	nRF24_stop_listening
 226:Generated_Source\PSoC5/nRF24_FUNCS.c ****     nRF24_set_bit(NRF_REG_CONFIG, NRF_CONFIG_PWR_UP);
 480              		.loc 1 226 0
 481 0008 0221     		movs	r1, #2
 482 000a 0020     		movs	r0, #0
 483 000c FFF7FEFF 		bl	nRF24_set_bit
 227:Generated_Source\PSoC5/nRF24_FUNCS.c **** }
 484              		.loc 1 227 0
 485 0010 00BF     		nop
 486 0012 80BD     		pop	{r7, pc}
 487              		.cfi_endproc
 488              	.LFE11:
 489              		.size	nRF24_set_standby_i_mode, .-nRF24_set_standby_i_mode
 490              		.section	.text.nRF24_set_standby_ii_mode,"ax",%progbits
 491              		.align	2
 492              		.global	nRF24_set_standby_ii_mode
 493              		.thumb
 494              		.thumb_func
 495              		.type	nRF24_set_standby_ii_mode, %function
 496              	nRF24_set_standby_ii_mode:
 497              	.LFB12:
 228:Generated_Source\PSoC5/nRF24_FUNCS.c **** 
 229:Generated_Source\PSoC5/nRF24_FUNCS.c **** /**
 230:Generated_Source\PSoC5/nRF24_FUNCS.c ****  * @brief Set the radio in Standby II Mode.
 231:Generated_Source\PSoC5/nRF24_FUNCS.c ****  *
 232:Generated_Source\PSoC5/nRF24_FUNCS.c ****  * In standby-II mode extra clock buffers are active and more current is used
 233:Generated_Source\PSoC5/nRF24_FUNCS.c ****  * compared to standby-I mode. nRF24 enters standby-II mode if CE is held high
 234:Generated_Source\PSoC5/nRF24_FUNCS.c ****  * on a TX device with an empty TX FIFO.
 235:Generated_Source\PSoC5/nRF24_FUNCS.c ****  * If a new packet is uploaded to the TX FIFO, the PLL immediately starts and
 236:Generated_Source\PSoC5/nRF24_FUNCS.c ****  * the packet is transmitted after the normal PLL settling  delay (130us).
 237:Generated_Source\PSoC5/nRF24_FUNCS.c ****  */
ARM GAS  C:\Users\rens_\AppData\Local\Temp\ccW8xaXP.s 			page 14


 238:Generated_Source\PSoC5/nRF24_FUNCS.c **** void nRF24_set_standby_ii_mode(void)
 239:Generated_Source\PSoC5/nRF24_FUNCS.c **** {
 498              		.loc 1 239 0
 499              		.cfi_startproc
 500              		@ args = 0, pretend = 0, frame = 0
 501              		@ frame_needed = 1, uses_anonymous_args = 0
 502 0000 80B5     		push	{r7, lr}
 503              		.cfi_def_cfa_offset 8
 504              		.cfi_offset 7, -8
 505              		.cfi_offset 14, -4
 506 0002 00AF     		add	r7, sp, #0
 507              		.cfi_def_cfa_register 7
 240:Generated_Source\PSoC5/nRF24_FUNCS.c ****     nRF24_start_listening();
 508              		.loc 1 240 0
 509 0004 FFF7FEFF 		bl	nRF24_start_listening
 241:Generated_Source\PSoC5/nRF24_FUNCS.c ****     nRF24_set_bit(NRF_REG_CONFIG, NRF_CONFIG_PWR_UP);
 510              		.loc 1 241 0
 511 0008 0221     		movs	r1, #2
 512 000a 0020     		movs	r0, #0
 513 000c FFF7FEFF 		bl	nRF24_set_bit
 242:Generated_Source\PSoC5/nRF24_FUNCS.c **** }
 514              		.loc 1 242 0
 515 0010 00BF     		nop
 516 0012 80BD     		pop	{r7, pc}
 517              		.cfi_endproc
 518              	.LFE12:
 519              		.size	nRF24_set_standby_ii_mode, .-nRF24_set_standby_ii_mode
 520              		.section	.text.nRF24_set_rx_mode,"ax",%progbits
 521              		.align	2
 522              		.global	nRF24_set_rx_mode
 523              		.thumb
 524              		.thumb_func
 525              		.type	nRF24_set_rx_mode, %function
 526              	nRF24_set_rx_mode:
 527              	.LFB13:
 243:Generated_Source\PSoC5/nRF24_FUNCS.c **** 
 244:Generated_Source\PSoC5/nRF24_FUNCS.c **** /**
 245:Generated_Source\PSoC5/nRF24_FUNCS.c ****  * @brief Set the radio in Receiver (Rx) Mode.
 246:Generated_Source\PSoC5/nRF24_FUNCS.c ****  *
 247:Generated_Source\PSoC5/nRF24_FUNCS.c ****  * RX mode is an active mode where the nRF24 radio is used as receiver. To
 248:Generated_Source\PSoC5/nRF24_FUNCS.c ****  * enter this mode, the nRF24 must have the PWR_UP bit, PRIM_RX bit and the CE
 249:Generated_Source\PSoC5/nRF24_FUNCS.c ****  * pin set high.
 250:Generated_Source\PSoC5/nRF24_FUNCS.c ****  */
 251:Generated_Source\PSoC5/nRF24_FUNCS.c **** void nRF24_set_rx_mode(void)
 252:Generated_Source\PSoC5/nRF24_FUNCS.c **** {
 528              		.loc 1 252 0
 529              		.cfi_startproc
 530              		@ args = 0, pretend = 0, frame = 0
 531              		@ frame_needed = 1, uses_anonymous_args = 0
 532 0000 80B5     		push	{r7, lr}
 533              		.cfi_def_cfa_offset 8
 534              		.cfi_offset 7, -8
 535              		.cfi_offset 14, -4
 536 0002 00AF     		add	r7, sp, #0
 537              		.cfi_def_cfa_register 7
 253:Generated_Source\PSoC5/nRF24_FUNCS.c ****     nRF24_set_bit(NRF_REG_CONFIG, NRF_CONFIG_BIT_PRIM_RX);
 538              		.loc 1 253 0
ARM GAS  C:\Users\rens_\AppData\Local\Temp\ccW8xaXP.s 			page 15


 539 0004 0021     		movs	r1, #0
 540 0006 0020     		movs	r0, #0
 541 0008 FFF7FEFF 		bl	nRF24_set_bit
 254:Generated_Source\PSoC5/nRF24_FUNCS.c **** }
 542              		.loc 1 254 0
 543 000c 00BF     		nop
 544 000e 80BD     		pop	{r7, pc}
 545              		.cfi_endproc
 546              	.LFE13:
 547              		.size	nRF24_set_rx_mode, .-nRF24_set_rx_mode
 548              		.section	.text.nRF24_set_tx_mode,"ax",%progbits
 549              		.align	2
 550              		.global	nRF24_set_tx_mode
 551              		.thumb
 552              		.thumb_func
 553              		.type	nRF24_set_tx_mode, %function
 554              	nRF24_set_tx_mode:
 555              	.LFB14:
 255:Generated_Source\PSoC5/nRF24_FUNCS.c **** 
 256:Generated_Source\PSoC5/nRF24_FUNCS.c **** /**
 257:Generated_Source\PSoC5/nRF24_FUNCS.c ****  * @brief Set the radio in Transmitted (Tx) Mode.
 258:Generated_Source\PSoC5/nRF24_FUNCS.c ****  *
 259:Generated_Source\PSoC5/nRF24_FUNCS.c ****  * TX mode is an active mode for transmitting packets. To enter this mode,
 260:Generated_Source\PSoC5/nRF24_FUNCS.c ****  * the nRF24 must have the PWR_UP bit set high, PRIM_RX bit set low, a payload
 261:Generated_Source\PSoC5/nRF24_FUNCS.c ****  * in the TX FIFO and a high pulse on the CE for more than 10us.
 262:Generated_Source\PSoC5/nRF24_FUNCS.c ****  */
 263:Generated_Source\PSoC5/nRF24_FUNCS.c **** void nRF24_set_tx_mode(void)
 264:Generated_Source\PSoC5/nRF24_FUNCS.c **** {
 556              		.loc 1 264 0
 557              		.cfi_startproc
 558              		@ args = 0, pretend = 0, frame = 0
 559              		@ frame_needed = 1, uses_anonymous_args = 0
 560 0000 80B5     		push	{r7, lr}
 561              		.cfi_def_cfa_offset 8
 562              		.cfi_offset 7, -8
 563              		.cfi_offset 14, -4
 564 0002 00AF     		add	r7, sp, #0
 565              		.cfi_def_cfa_register 7
 265:Generated_Source\PSoC5/nRF24_FUNCS.c ****     nRF24_clear_bit(NRF_REG_CONFIG, NRF_CONFIG_BIT_PRIM_RX);
 566              		.loc 1 265 0
 567 0004 0021     		movs	r1, #0
 568 0006 0020     		movs	r0, #0
 569 0008 FFF7FEFF 		bl	nRF24_clear_bit
 266:Generated_Source\PSoC5/nRF24_FUNCS.c **** }
 570              		.loc 1 266 0
 571 000c 00BF     		nop
 572 000e 80BD     		pop	{r7, pc}
 573              		.cfi_endproc
 574              	.LFE14:
 575              		.size	nRF24_set_tx_mode, .-nRF24_set_tx_mode
 576              		.section	.text.nRF24_enable_auto_ack,"ax",%progbits
 577              		.align	2
 578              		.global	nRF24_enable_auto_ack
 579              		.thumb
 580              		.thumb_func
 581              		.type	nRF24_enable_auto_ack, %function
 582              	nRF24_enable_auto_ack:
ARM GAS  C:\Users\rens_\AppData\Local\Temp\ccW8xaXP.s 			page 16


 583              	.LFB15:
 267:Generated_Source\PSoC5/nRF24_FUNCS.c **** 
 268:Generated_Source\PSoC5/nRF24_FUNCS.c **** /**
 269:Generated_Source\PSoC5/nRF24_FUNCS.c ****  * @brief Enable AutoACK in the given pipe.
 270:Generated_Source\PSoC5/nRF24_FUNCS.c ****  *
 271:Generated_Source\PSoC5/nRF24_FUNCS.c ****  * @param pipe: Enable AutoACK in the given pipe.
 272:Generated_Source\PSoC5/nRF24_FUNCS.c ****  */
 273:Generated_Source\PSoC5/nRF24_FUNCS.c **** void nRF24_enable_auto_ack(const nrf_pipe pipe)
 274:Generated_Source\PSoC5/nRF24_FUNCS.c **** {
 584              		.loc 1 274 0
 585              		.cfi_startproc
 586              		@ args = 0, pretend = 0, frame = 8
 587              		@ frame_needed = 1, uses_anonymous_args = 0
 588 0000 80B5     		push	{r7, lr}
 589              		.cfi_def_cfa_offset 8
 590              		.cfi_offset 7, -8
 591              		.cfi_offset 14, -4
 592 0002 82B0     		sub	sp, sp, #8
 593              		.cfi_def_cfa_offset 16
 594 0004 00AF     		add	r7, sp, #0
 595              		.cfi_def_cfa_register 7
 596 0006 0346     		mov	r3, r0
 597 0008 FB71     		strb	r3, [r7, #7]
 275:Generated_Source\PSoC5/nRF24_FUNCS.c ****     nRF24_set_bit(NRF_REG_EN_AA, pipe);
 598              		.loc 1 275 0
 599 000a FB79     		ldrb	r3, [r7, #7]	@ zero_extendqisi2
 600 000c 1946     		mov	r1, r3
 601 000e 0120     		movs	r0, #1
 602 0010 FFF7FEFF 		bl	nRF24_set_bit
 276:Generated_Source\PSoC5/nRF24_FUNCS.c **** }
 603              		.loc 1 276 0
 604 0014 00BF     		nop
 605 0016 0837     		adds	r7, r7, #8
 606              		.cfi_def_cfa_offset 8
 607 0018 BD46     		mov	sp, r7
 608              		.cfi_def_cfa_register 13
 609              		@ sp needed
 610 001a 80BD     		pop	{r7, pc}
 611              		.cfi_endproc
 612              	.LFE15:
 613              		.size	nRF24_enable_auto_ack, .-nRF24_enable_auto_ack
 614              		.section	.text.nRF24_disable_auto_ack,"ax",%progbits
 615              		.align	2
 616              		.global	nRF24_disable_auto_ack
 617              		.thumb
 618              		.thumb_func
 619              		.type	nRF24_disable_auto_ack, %function
 620              	nRF24_disable_auto_ack:
 621              	.LFB16:
 277:Generated_Source\PSoC5/nRF24_FUNCS.c **** 
 278:Generated_Source\PSoC5/nRF24_FUNCS.c **** /**
 279:Generated_Source\PSoC5/nRF24_FUNCS.c ****  * @brief Disable AutoACK in the given pipe.
 280:Generated_Source\PSoC5/nRF24_FUNCS.c ****  *
 281:Generated_Source\PSoC5/nRF24_FUNCS.c ****  * @param pipe: Disable AutoACK in the given pipe.
 282:Generated_Source\PSoC5/nRF24_FUNCS.c ****  */
 283:Generated_Source\PSoC5/nRF24_FUNCS.c **** void nRF24_disable_auto_ack(const nrf_pipe pipe)
 284:Generated_Source\PSoC5/nRF24_FUNCS.c **** {
ARM GAS  C:\Users\rens_\AppData\Local\Temp\ccW8xaXP.s 			page 17


 622              		.loc 1 284 0
 623              		.cfi_startproc
 624              		@ args = 0, pretend = 0, frame = 8
 625              		@ frame_needed = 1, uses_anonymous_args = 0
 626 0000 80B5     		push	{r7, lr}
 627              		.cfi_def_cfa_offset 8
 628              		.cfi_offset 7, -8
 629              		.cfi_offset 14, -4
 630 0002 82B0     		sub	sp, sp, #8
 631              		.cfi_def_cfa_offset 16
 632 0004 00AF     		add	r7, sp, #0
 633              		.cfi_def_cfa_register 7
 634 0006 0346     		mov	r3, r0
 635 0008 FB71     		strb	r3, [r7, #7]
 285:Generated_Source\PSoC5/nRF24_FUNCS.c ****     nRF24_clear_bit(NRF_REG_EN_AA, pipe);
 636              		.loc 1 285 0
 637 000a FB79     		ldrb	r3, [r7, #7]	@ zero_extendqisi2
 638 000c 1946     		mov	r1, r3
 639 000e 0120     		movs	r0, #1
 640 0010 FFF7FEFF 		bl	nRF24_clear_bit
 286:Generated_Source\PSoC5/nRF24_FUNCS.c **** }
 641              		.loc 1 286 0
 642 0014 00BF     		nop
 643 0016 0837     		adds	r7, r7, #8
 644              		.cfi_def_cfa_offset 8
 645 0018 BD46     		mov	sp, r7
 646              		.cfi_def_cfa_register 13
 647              		@ sp needed
 648 001a 80BD     		pop	{r7, pc}
 649              		.cfi_endproc
 650              	.LFE16:
 651              		.size	nRF24_disable_auto_ack, .-nRF24_disable_auto_ack
 652              		.section	.text.nRF24_set_channel,"ax",%progbits
 653              		.align	2
 654              		.global	nRF24_set_channel
 655              		.thumb
 656              		.thumb_func
 657              		.type	nRF24_set_channel, %function
 658              	nRF24_set_channel:
 659              	.LFB17:
 287:Generated_Source\PSoC5/nRF24_FUNCS.c **** 
 288:Generated_Source\PSoC5/nRF24_FUNCS.c **** /**
 289:Generated_Source\PSoC5/nRF24_FUNCS.c ****  * @brief Set the channel where the radio will work.
 290:Generated_Source\PSoC5/nRF24_FUNCS.c ****  *
 291:Generated_Source\PSoC5/nRF24_FUNCS.c ****  * @param uint8_t channel: Channel where the radio will work.
 292:Generated_Source\PSoC5/nRF24_FUNCS.c ****  */
 293:Generated_Source\PSoC5/nRF24_FUNCS.c **** void nRF24_set_channel(uint8_t channel)
 294:Generated_Source\PSoC5/nRF24_FUNCS.c **** {
 660              		.loc 1 294 0
 661              		.cfi_startproc
 662              		@ args = 0, pretend = 0, frame = 8
 663              		@ frame_needed = 1, uses_anonymous_args = 0
 664 0000 80B5     		push	{r7, lr}
 665              		.cfi_def_cfa_offset 8
 666              		.cfi_offset 7, -8
 667              		.cfi_offset 14, -4
 668 0002 82B0     		sub	sp, sp, #8
ARM GAS  C:\Users\rens_\AppData\Local\Temp\ccW8xaXP.s 			page 18


 669              		.cfi_def_cfa_offset 16
 670 0004 00AF     		add	r7, sp, #0
 671              		.cfi_def_cfa_register 7
 672 0006 0346     		mov	r3, r0
 673 0008 FB71     		strb	r3, [r7, #7]
 295:Generated_Source\PSoC5/nRF24_FUNCS.c ****     if (NRF_MAX_RF_CHANNEL < channel) {
 674              		.loc 1 295 0
 675 000a FB79     		ldrb	r3, [r7, #7]	@ zero_extendqisi2
 676 000c 7D2B     		cmp	r3, #125
 677 000e 01D9     		bls	.L29
 296:Generated_Source\PSoC5/nRF24_FUNCS.c ****         channel = NRF_MAX_RF_CHANNEL;
 678              		.loc 1 296 0
 679 0010 7D23     		movs	r3, #125
 680 0012 FB71     		strb	r3, [r7, #7]
 681              	.L29:
 297:Generated_Source\PSoC5/nRF24_FUNCS.c ****     }
 298:Generated_Source\PSoC5/nRF24_FUNCS.c **** 
 299:Generated_Source\PSoC5/nRF24_FUNCS.c ****     nRF24_write_register(NRF_REG_RF_CH, channel);
 682              		.loc 1 299 0
 683 0014 FB79     		ldrb	r3, [r7, #7]	@ zero_extendqisi2
 684 0016 1946     		mov	r1, r3
 685 0018 0520     		movs	r0, #5
 686 001a FFF7FEFF 		bl	nRF24_write_register
 300:Generated_Source\PSoC5/nRF24_FUNCS.c **** 
 301:Generated_Source\PSoC5/nRF24_FUNCS.c ****     // Flush both nRF24 FIFOs, from mcuoneclipse nrf24 component
 302:Generated_Source\PSoC5/nRF24_FUNCS.c ****     nRF24_flush_rx_cmd();
 687              		.loc 1 302 0
 688 001e FFF7FEFF 		bl	nRF24_flush_rx_cmd
 303:Generated_Source\PSoC5/nRF24_FUNCS.c ****     nRF24_flush_tx_cmd();
 689              		.loc 1 303 0
 690 0022 FFF7FEFF 		bl	nRF24_flush_tx_cmd
 304:Generated_Source\PSoC5/nRF24_FUNCS.c **** }
 691              		.loc 1 304 0
 692 0026 00BF     		nop
 693 0028 0837     		adds	r7, r7, #8
 694              		.cfi_def_cfa_offset 8
 695 002a BD46     		mov	sp, r7
 696              		.cfi_def_cfa_register 13
 697              		@ sp needed
 698 002c 80BD     		pop	{r7, pc}
 699              		.cfi_endproc
 700              	.LFE17:
 701              		.size	nRF24_set_channel, .-nRF24_set_channel
 702 002e 00BF     		.section	.text.nRF24_get_channel,"ax",%progbits
 703              		.align	2
 704              		.global	nRF24_get_channel
 705              		.thumb
 706              		.thumb_func
 707              		.type	nRF24_get_channel, %function
 708              	nRF24_get_channel:
 709              	.LFB18:
 305:Generated_Source\PSoC5/nRF24_FUNCS.c **** 
 306:Generated_Source\PSoC5/nRF24_FUNCS.c **** /**
 307:Generated_Source\PSoC5/nRF24_FUNCS.c ****  * @brief Set the data pipes address width.
 308:Generated_Source\PSoC5/nRF24_FUNCS.c ****  *
 309:Generated_Source\PSoC5/nRF24_FUNCS.c ****  * @param const nrf_setup_address_width addr_width:
 310:Generated_Source\PSoC5/nRF24_FUNCS.c ****  */
ARM GAS  C:\Users\rens_\AppData\Local\Temp\ccW8xaXP.s 			page 19


 311:Generated_Source\PSoC5/nRF24_FUNCS.c **** uint8_t nRF24_get_channel(void)
 312:Generated_Source\PSoC5/nRF24_FUNCS.c **** {
 710              		.loc 1 312 0
 711              		.cfi_startproc
 712              		@ args = 0, pretend = 0, frame = 0
 713              		@ frame_needed = 1, uses_anonymous_args = 0
 714 0000 80B5     		push	{r7, lr}
 715              		.cfi_def_cfa_offset 8
 716              		.cfi_offset 7, -8
 717              		.cfi_offset 14, -4
 718 0002 00AF     		add	r7, sp, #0
 719              		.cfi_def_cfa_register 7
 313:Generated_Source\PSoC5/nRF24_FUNCS.c ****     return nRF24_read_register(NRF_REG_RF_CH);
 720              		.loc 1 313 0
 721 0004 0520     		movs	r0, #5
 722 0006 FFF7FEFF 		bl	nRF24_read_register
 723 000a 0346     		mov	r3, r0
 314:Generated_Source\PSoC5/nRF24_FUNCS.c **** }
 724              		.loc 1 314 0
 725 000c 1846     		mov	r0, r3
 726 000e 80BD     		pop	{r7, pc}
 727              		.cfi_endproc
 728              	.LFE18:
 729              		.size	nRF24_get_channel, .-nRF24_get_channel
 730              		.section	.text.nRF24_set_address_width,"ax",%progbits
 731              		.align	2
 732              		.global	nRF24_set_address_width
 733              		.thumb
 734              		.thumb_func
 735              		.type	nRF24_set_address_width, %function
 736              	nRF24_set_address_width:
 737              	.LFB19:
 315:Generated_Source\PSoC5/nRF24_FUNCS.c **** 
 316:Generated_Source\PSoC5/nRF24_FUNCS.c **** /**
 317:Generated_Source\PSoC5/nRF24_FUNCS.c ****  * @brief Set the data pipes address width.
 318:Generated_Source\PSoC5/nRF24_FUNCS.c ****  *
 319:Generated_Source\PSoC5/nRF24_FUNCS.c ****  * @param const nrf_addr_width addr_width:
 320:Generated_Source\PSoC5/nRF24_FUNCS.c ****  */
 321:Generated_Source\PSoC5/nRF24_FUNCS.c **** void nRF24_set_address_width(const nrf_addr_width addr_width)
 322:Generated_Source\PSoC5/nRF24_FUNCS.c **** {
 738              		.loc 1 322 0
 739              		.cfi_startproc
 740              		@ args = 0, pretend = 0, frame = 8
 741              		@ frame_needed = 1, uses_anonymous_args = 0
 742 0000 80B5     		push	{r7, lr}
 743              		.cfi_def_cfa_offset 8
 744              		.cfi_offset 7, -8
 745              		.cfi_offset 14, -4
 746 0002 82B0     		sub	sp, sp, #8
 747              		.cfi_def_cfa_offset 16
 748 0004 00AF     		add	r7, sp, #0
 749              		.cfi_def_cfa_register 7
 750 0006 0346     		mov	r3, r0
 751 0008 FB71     		strb	r3, [r7, #7]
 323:Generated_Source\PSoC5/nRF24_FUNCS.c ****     nRF24_write_register(NRF_REG_SETUP_AW, (uint8_t)addr_width);
 752              		.loc 1 323 0
 753 000a FB79     		ldrb	r3, [r7, #7]	@ zero_extendqisi2
ARM GAS  C:\Users\rens_\AppData\Local\Temp\ccW8xaXP.s 			page 20


 754 000c 1946     		mov	r1, r3
 755 000e 0320     		movs	r0, #3
 756 0010 FFF7FEFF 		bl	nRF24_write_register
 324:Generated_Source\PSoC5/nRF24_FUNCS.c ****     // update the _nrf_addr_width variable
 325:Generated_Source\PSoC5/nRF24_FUNCS.c ****     _addr_width_conf_to_bytes(addr_width);
 757              		.loc 1 325 0
 758 0014 FB79     		ldrb	r3, [r7, #7]	@ zero_extendqisi2
 759 0016 1846     		mov	r0, r3
 760 0018 FFF7FEFF 		bl	_addr_width_conf_to_bytes
 326:Generated_Source\PSoC5/nRF24_FUNCS.c **** }
 761              		.loc 1 326 0
 762 001c 00BF     		nop
 763 001e 0837     		adds	r7, r7, #8
 764              		.cfi_def_cfa_offset 8
 765 0020 BD46     		mov	sp, r7
 766              		.cfi_def_cfa_register 13
 767              		@ sp needed
 768 0022 80BD     		pop	{r7, pc}
 769              		.cfi_endproc
 770              	.LFE19:
 771              		.size	nRF24_set_address_width, .-nRF24_set_address_width
 772              		.section	.text.nRF24_get_address_width,"ax",%progbits
 773              		.align	2
 774              		.global	nRF24_get_address_width
 775              		.thumb
 776              		.thumb_func
 777              		.type	nRF24_get_address_width, %function
 778              	nRF24_get_address_width:
 779              	.LFB20:
 327:Generated_Source\PSoC5/nRF24_FUNCS.c **** 
 328:Generated_Source\PSoC5/nRF24_FUNCS.c **** /**
 329:Generated_Source\PSoC5/nRF24_FUNCS.c ****  * @brief Get the address width of the data pipes.
 330:Generated_Source\PSoC5/nRF24_FUNCS.c ****  *
 331:Generated_Source\PSoC5/nRF24_FUNCS.c ****  * @return uint8_t: Address width in bytes.
 332:Generated_Source\PSoC5/nRF24_FUNCS.c ****  */
 333:Generated_Source\PSoC5/nRF24_FUNCS.c **** uint8_t nRF24_get_address_width(void)
 334:Generated_Source\PSoC5/nRF24_FUNCS.c **** {
 780              		.loc 1 334 0
 781              		.cfi_startproc
 782              		@ args = 0, pretend = 0, frame = 0
 783              		@ frame_needed = 1, uses_anonymous_args = 0
 784              		@ link register save eliminated.
 785 0000 80B4     		push	{r7}
 786              		.cfi_def_cfa_offset 4
 787              		.cfi_offset 7, -4
 788 0002 00AF     		add	r7, sp, #0
 789              		.cfi_def_cfa_register 7
 335:Generated_Source\PSoC5/nRF24_FUNCS.c ****     return _nrf_addr_width;
 790              		.loc 1 335 0
 791 0004 024B     		ldr	r3, .L35
 792 0006 1B78     		ldrb	r3, [r3]	@ zero_extendqisi2
 336:Generated_Source\PSoC5/nRF24_FUNCS.c **** }
 793              		.loc 1 336 0
 794 0008 1846     		mov	r0, r3
 795 000a BD46     		mov	sp, r7
 796              		.cfi_def_cfa_register 13
 797              		@ sp needed
ARM GAS  C:\Users\rens_\AppData\Local\Temp\ccW8xaXP.s 			page 21


 798 000c 80BC     		pop	{r7}
 799              		.cfi_restore 7
 800              		.cfi_def_cfa_offset 0
 801 000e 7047     		bx	lr
 802              	.L36:
 803              		.align	2
 804              	.L35:
 805 0010 00000000 		.word	_nrf_addr_width
 806              		.cfi_endproc
 807              	.LFE20:
 808              		.size	nRF24_get_address_width, .-nRF24_get_address_width
 809              		.section	.text.nRF24_set_rx_pipe_address,"ax",%progbits
 810              		.align	2
 811              		.global	nRF24_set_rx_pipe_address
 812              		.thumb
 813              		.thumb_func
 814              		.type	nRF24_set_rx_pipe_address, %function
 815              	nRF24_set_rx_pipe_address:
 816              	.LFB21:
 337:Generated_Source\PSoC5/nRF24_FUNCS.c **** 
 338:Generated_Source\PSoC5/nRF24_FUNCS.c **** /**
 339:Generated_Source\PSoC5/nRF24_FUNCS.c ****  * @brief Set the address of the RX Pipe 0 in the radio.
 340:Generated_Source\PSoC5/nRF24_FUNCS.c ****  *
 341:Generated_Source\PSoC5/nRF24_FUNCS.c ****  * This function configure the address of the Rx Pipe 0 of the radio.
 342:Generated_Source\PSoC5/nRF24_FUNCS.c ****  *
 343:Generated_Source\PSoC5/nRF24_FUNCS.c ****  * @param const uint8_t* addr:
 344:Generated_Source\PSoC5/nRF24_FUNCS.c ****  * @param size_t size:
 345:Generated_Source\PSoC5/nRF24_FUNCS.c ****  */
 346:Generated_Source\PSoC5/nRF24_FUNCS.c **** void nRF24_set_rx_pipe_address(const nrf_addr_rx_pipe pipe,
 347:Generated_Source\PSoC5/nRF24_FUNCS.c ****                                             const uint8_t *addr, size_t size)
 348:Generated_Source\PSoC5/nRF24_FUNCS.c **** {
 817              		.loc 1 348 0
 818              		.cfi_startproc
 819              		@ args = 0, pretend = 0, frame = 16
 820              		@ frame_needed = 1, uses_anonymous_args = 0
 821 0000 80B5     		push	{r7, lr}
 822              		.cfi_def_cfa_offset 8
 823              		.cfi_offset 7, -8
 824              		.cfi_offset 14, -4
 825 0002 84B0     		sub	sp, sp, #16
 826              		.cfi_def_cfa_offset 24
 827 0004 00AF     		add	r7, sp, #0
 828              		.cfi_def_cfa_register 7
 829 0006 0346     		mov	r3, r0
 830 0008 B960     		str	r1, [r7, #8]
 831 000a 7A60     		str	r2, [r7, #4]
 832 000c FB73     		strb	r3, [r7, #15]
 349:Generated_Source\PSoC5/nRF24_FUNCS.c ****     if (NULL == addr) {
 833              		.loc 1 349 0
 834 000e BB68     		ldr	r3, [r7, #8]
 835 0010 002B     		cmp	r3, #0
 836 0012 2BD0     		beq	.L44
 350:Generated_Source\PSoC5/nRF24_FUNCS.c ****         return;
 351:Generated_Source\PSoC5/nRF24_FUNCS.c ****     }
 352:Generated_Source\PSoC5/nRF24_FUNCS.c ****     
 353:Generated_Source\PSoC5/nRF24_FUNCS.c ****     switch(pipe) {
 837              		.loc 1 353 0
ARM GAS  C:\Users\rens_\AppData\Local\Temp\ccW8xaXP.s 			page 22


 838 0014 FB7B     		ldrb	r3, [r7, #15]	@ zero_extendqisi2
 839 0016 0A3B     		subs	r3, r3, #10
 840 0018 052B     		cmp	r3, #5
 841 001a 28D8     		bhi	.L37
 842 001c 01A2     		adr	r2, .L41
 843 001e 52F823F0 		ldr	pc, [r2, r3, lsl #2]
 844 0022 00BF     		.p2align 2
 845              	.L41:
 846 0024 3D000000 		.word	.L40+1
 847 0028 3D000000 		.word	.L40+1
 848 002c 5D000000 		.word	.L42+1
 849 0030 5D000000 		.word	.L42+1
 850 0034 5D000000 		.word	.L42+1
 851 0038 5D000000 		.word	.L42+1
 852              		.p2align 1
 853              	.L40:
 354:Generated_Source\PSoC5/nRF24_FUNCS.c ****     // For pipes 0 and 1 we can change up to 5 bytes of it's addresses
 355:Generated_Source\PSoC5/nRF24_FUNCS.c ****     case NRF_ADDR_PIPE0:
 356:Generated_Source\PSoC5/nRF24_FUNCS.c ****     case NRF_ADDR_PIPE1:
 357:Generated_Source\PSoC5/nRF24_FUNCS.c ****         // The smaller address is 3 bytes
 358:Generated_Source\PSoC5/nRF24_FUNCS.c ****         if (NRF_PIPE_ADDR_WIDTH_3BYTES > size) {
 359:Generated_Source\PSoC5/nRF24_FUNCS.c ****             // TODO
 360:Generated_Source\PSoC5/nRF24_FUNCS.c ****         }
 361:Generated_Source\PSoC5/nRF24_FUNCS.c ****         
 362:Generated_Source\PSoC5/nRF24_FUNCS.c ****         if (_nrf_addr_width < size) {
 854              		.loc 1 362 0
 855 003c 0D4B     		ldr	r3, .L45
 856 003e 1B78     		ldrb	r3, [r3]	@ zero_extendqisi2
 857 0040 1A46     		mov	r2, r3
 858 0042 7B68     		ldr	r3, [r7, #4]
 859 0044 9A42     		cmp	r2, r3
 860 0046 02D2     		bcs	.L43
 363:Generated_Source\PSoC5/nRF24_FUNCS.c ****             size = _nrf_addr_width;
 861              		.loc 1 363 0
 862 0048 0A4B     		ldr	r3, .L45
 863 004a 1B78     		ldrb	r3, [r3]	@ zero_extendqisi2
 864 004c 7B60     		str	r3, [r7, #4]
 865              	.L43:
 364:Generated_Source\PSoC5/nRF24_FUNCS.c ****         }
 365:Generated_Source\PSoC5/nRF24_FUNCS.c ****             
 366:Generated_Source\PSoC5/nRF24_FUNCS.c ****         nRF24_write_long_register(pipe, addr, size);
 866              		.loc 1 366 0
 867 004e FB7B     		ldrb	r3, [r7, #15]	@ zero_extendqisi2
 868 0050 7A68     		ldr	r2, [r7, #4]
 869 0052 B968     		ldr	r1, [r7, #8]
 870 0054 1846     		mov	r0, r3
 871 0056 FFF7FEFF 		bl	nRF24_write_long_register
 367:Generated_Source\PSoC5/nRF24_FUNCS.c ****         break;
 872              		.loc 1 367 0
 873 005a 08E0     		b	.L37
 874              	.L42:
 368:Generated_Source\PSoC5/nRF24_FUNCS.c ****     // For pipes 2, 3, 4 and 5 we can change only the LSB of it's address
 369:Generated_Source\PSoC5/nRF24_FUNCS.c ****     case NRF_ADDR_PIPE2:
 370:Generated_Source\PSoC5/nRF24_FUNCS.c ****     case NRF_ADDR_PIPE3:
 371:Generated_Source\PSoC5/nRF24_FUNCS.c ****     case NRF_ADDR_PIPE4:
 372:Generated_Source\PSoC5/nRF24_FUNCS.c ****     case NRF_ADDR_PIPE5:
 373:Generated_Source\PSoC5/nRF24_FUNCS.c ****         (void)size; // so we don't get a warning on unused variable
ARM GAS  C:\Users\rens_\AppData\Local\Temp\ccW8xaXP.s 			page 23


 374:Generated_Source\PSoC5/nRF24_FUNCS.c ****         
 375:Generated_Source\PSoC5/nRF24_FUNCS.c ****         nRF24_write_long_register(pipe, addr, 1);
 875              		.loc 1 375 0
 876 005c FB7B     		ldrb	r3, [r7, #15]	@ zero_extendqisi2
 877 005e 0122     		movs	r2, #1
 878 0060 B968     		ldr	r1, [r7, #8]
 879 0062 1846     		mov	r0, r3
 880 0064 FFF7FEFF 		bl	nRF24_write_long_register
 376:Generated_Source\PSoC5/nRF24_FUNCS.c ****         break;
 881              		.loc 1 376 0
 882 0068 00BF     		nop
 883 006a 00E0     		b	.L37
 884              	.L44:
 350:Generated_Source\PSoC5/nRF24_FUNCS.c ****     }
 885              		.loc 1 350 0
 886 006c 00BF     		nop
 887              	.L37:
 377:Generated_Source\PSoC5/nRF24_FUNCS.c ****     }
 378:Generated_Source\PSoC5/nRF24_FUNCS.c **** }
 888              		.loc 1 378 0
 889 006e 1037     		adds	r7, r7, #16
 890              		.cfi_def_cfa_offset 8
 891 0070 BD46     		mov	sp, r7
 892              		.cfi_def_cfa_register 13
 893              		@ sp needed
 894 0072 80BD     		pop	{r7, pc}
 895              	.L46:
 896              		.align	2
 897              	.L45:
 898 0074 00000000 		.word	_nrf_addr_width
 899              		.cfi_endproc
 900              	.LFE21:
 901              		.size	nRF24_set_rx_pipe_address, .-nRF24_set_rx_pipe_address
 902              		.section	.text.nRF24_get_rx_pipe_address,"ax",%progbits
 903              		.align	2
 904              		.global	nRF24_get_rx_pipe_address
 905              		.thumb
 906              		.thumb_func
 907              		.type	nRF24_get_rx_pipe_address, %function
 908              	nRF24_get_rx_pipe_address:
 909              	.LFB22:
 379:Generated_Source\PSoC5/nRF24_FUNCS.c **** 
 380:Generated_Source\PSoC5/nRF24_FUNCS.c **** /**
 381:Generated_Source\PSoC5/nRF24_FUNCS.c ****  * @brief Get the address of the RX Pipe 0 in the radio.
 382:Generated_Source\PSoC5/nRF24_FUNCS.c ****  *
 383:Generated_Source\PSoC5/nRF24_FUNCS.c ****  * @param uint8_t* addr:
 384:Generated_Source\PSoC5/nRF24_FUNCS.c ****  * @param size_t size:
 385:Generated_Source\PSoC5/nRF24_FUNCS.c ****  */
 386:Generated_Source\PSoC5/nRF24_FUNCS.c **** void nRF24_get_rx_pipe_address(const nrf_addr_rx_pipe pipe,
 387:Generated_Source\PSoC5/nRF24_FUNCS.c ****                                             uint8_t *addr, size_t size)
 388:Generated_Source\PSoC5/nRF24_FUNCS.c **** {
 910              		.loc 1 388 0
 911              		.cfi_startproc
 912              		@ args = 0, pretend = 0, frame = 16
 913              		@ frame_needed = 1, uses_anonymous_args = 0
 914 0000 90B5     		push	{r4, r7, lr}
 915              		.cfi_def_cfa_offset 12
ARM GAS  C:\Users\rens_\AppData\Local\Temp\ccW8xaXP.s 			page 24


 916              		.cfi_offset 4, -12
 917              		.cfi_offset 7, -8
 918              		.cfi_offset 14, -4
 919 0002 85B0     		sub	sp, sp, #20
 920              		.cfi_def_cfa_offset 32
 921 0004 00AF     		add	r7, sp, #0
 922              		.cfi_def_cfa_register 7
 923 0006 0346     		mov	r3, r0
 924 0008 B960     		str	r1, [r7, #8]
 925 000a 7A60     		str	r2, [r7, #4]
 926 000c FB73     		strb	r3, [r7, #15]
 389:Generated_Source\PSoC5/nRF24_FUNCS.c ****     if (NULL == addr) {
 927              		.loc 1 389 0
 928 000e BB68     		ldr	r3, [r7, #8]
 929 0010 002B     		cmp	r3, #0
 930 0012 35D0     		beq	.L54
 390:Generated_Source\PSoC5/nRF24_FUNCS.c ****         return;
 391:Generated_Source\PSoC5/nRF24_FUNCS.c ****     }
 392:Generated_Source\PSoC5/nRF24_FUNCS.c ****     
 393:Generated_Source\PSoC5/nRF24_FUNCS.c ****     // The smaller address is 3 bytes
 394:Generated_Source\PSoC5/nRF24_FUNCS.c ****     if (NRF_PIPE_ADDR_WIDTH_3BYTES > size) {
 395:Generated_Source\PSoC5/nRF24_FUNCS.c ****         // TODO
 396:Generated_Source\PSoC5/nRF24_FUNCS.c ****     }
 397:Generated_Source\PSoC5/nRF24_FUNCS.c ****     
 398:Generated_Source\PSoC5/nRF24_FUNCS.c ****     if (_nrf_addr_width < size) {
 931              		.loc 1 398 0
 932 0014 1C4B     		ldr	r3, .L55
 933 0016 1B78     		ldrb	r3, [r3]	@ zero_extendqisi2
 934 0018 1A46     		mov	r2, r3
 935 001a 7B68     		ldr	r3, [r7, #4]
 936 001c 9A42     		cmp	r2, r3
 937 001e 02D2     		bcs	.L50
 399:Generated_Source\PSoC5/nRF24_FUNCS.c ****         size = _nrf_addr_width;
 938              		.loc 1 399 0
 939 0020 194B     		ldr	r3, .L55
 940 0022 1B78     		ldrb	r3, [r3]	@ zero_extendqisi2
 941 0024 7B60     		str	r3, [r7, #4]
 942              	.L50:
 400:Generated_Source\PSoC5/nRF24_FUNCS.c ****     }
 401:Generated_Source\PSoC5/nRF24_FUNCS.c ****     
 402:Generated_Source\PSoC5/nRF24_FUNCS.c ****     switch(pipe) {
 943              		.loc 1 402 0
 944 0026 FB7B     		ldrb	r3, [r7, #15]	@ zero_extendqisi2
 945 0028 0A3B     		subs	r3, r3, #10
 946 002a 052B     		cmp	r3, #5
 947 002c 29D8     		bhi	.L47
 948 002e 01A2     		adr	r2, .L52
 949 0030 52F823F0 		ldr	pc, [r2, r3, lsl #2]
 950              		.p2align 2
 951              	.L52:
 952 0034 4D000000 		.word	.L51+1
 953 0038 4D000000 		.word	.L51+1
 954 003c 5B000000 		.word	.L53+1
 955 0040 5B000000 		.word	.L53+1
 956 0044 5B000000 		.word	.L53+1
 957 0048 5B000000 		.word	.L53+1
 958              		.p2align 1
ARM GAS  C:\Users\rens_\AppData\Local\Temp\ccW8xaXP.s 			page 25


 959              	.L51:
 403:Generated_Source\PSoC5/nRF24_FUNCS.c ****     // For pipes 0 and 1 we can read up to 5 bytes of it's addresses
 404:Generated_Source\PSoC5/nRF24_FUNCS.c ****     case NRF_ADDR_PIPE0:
 405:Generated_Source\PSoC5/nRF24_FUNCS.c ****     case NRF_ADDR_PIPE1:
 406:Generated_Source\PSoC5/nRF24_FUNCS.c ****         nRF24_read_long_register(pipe, addr, size);
 960              		.loc 1 406 0
 961 004c FB7B     		ldrb	r3, [r7, #15]	@ zero_extendqisi2
 962 004e 7A68     		ldr	r2, [r7, #4]
 963 0050 B968     		ldr	r1, [r7, #8]
 964 0052 1846     		mov	r0, r3
 965 0054 FFF7FEFF 		bl	nRF24_read_long_register
 407:Generated_Source\PSoC5/nRF24_FUNCS.c ****         break;
 966              		.loc 1 407 0
 967 0058 13E0     		b	.L47
 968              	.L53:
 408:Generated_Source\PSoC5/nRF24_FUNCS.c ****     // For pipes 2, 3, 4 and 5 the address is the same to pipe1 except the LSB
 409:Generated_Source\PSoC5/nRF24_FUNCS.c ****     case NRF_ADDR_PIPE2:
 410:Generated_Source\PSoC5/nRF24_FUNCS.c ****     case NRF_ADDR_PIPE3:
 411:Generated_Source\PSoC5/nRF24_FUNCS.c ****     case NRF_ADDR_PIPE4:
 412:Generated_Source\PSoC5/nRF24_FUNCS.c ****     case NRF_ADDR_PIPE5:
 413:Generated_Source\PSoC5/nRF24_FUNCS.c ****         nRF24_read_long_register(NRF_REG_RX_ADDR_P1, addr, size - 1);
 969              		.loc 1 413 0
 970 005a 7B68     		ldr	r3, [r7, #4]
 971 005c 013B     		subs	r3, r3, #1
 972 005e 1A46     		mov	r2, r3
 973 0060 B968     		ldr	r1, [r7, #8]
 974 0062 0B20     		movs	r0, #11
 975 0064 FFF7FEFF 		bl	nRF24_read_long_register
 414:Generated_Source\PSoC5/nRF24_FUNCS.c ****         addr[size - 1] = nRF24_read_register(pipe);
 976              		.loc 1 414 0
 977 0068 7B68     		ldr	r3, [r7, #4]
 978 006a 013B     		subs	r3, r3, #1
 979 006c BA68     		ldr	r2, [r7, #8]
 980 006e D418     		adds	r4, r2, r3
 981 0070 FB7B     		ldrb	r3, [r7, #15]	@ zero_extendqisi2
 982 0072 1846     		mov	r0, r3
 983 0074 FFF7FEFF 		bl	nRF24_read_register
 984 0078 0346     		mov	r3, r0
 985 007a 2370     		strb	r3, [r4]
 415:Generated_Source\PSoC5/nRF24_FUNCS.c ****         break;
 986              		.loc 1 415 0
 987 007c 00BF     		nop
 988 007e 00E0     		b	.L47
 989              	.L54:
 390:Generated_Source\PSoC5/nRF24_FUNCS.c ****     }
 990              		.loc 1 390 0
 991 0080 00BF     		nop
 992              	.L47:
 416:Generated_Source\PSoC5/nRF24_FUNCS.c ****     }
 417:Generated_Source\PSoC5/nRF24_FUNCS.c **** }
 993              		.loc 1 417 0
 994 0082 1437     		adds	r7, r7, #20
 995              		.cfi_def_cfa_offset 12
 996 0084 BD46     		mov	sp, r7
 997              		.cfi_def_cfa_register 13
 998              		@ sp needed
 999 0086 90BD     		pop	{r4, r7, pc}
ARM GAS  C:\Users\rens_\AppData\Local\Temp\ccW8xaXP.s 			page 26


 1000              	.L56:
 1001              		.align	2
 1002              	.L55:
 1003 0088 00000000 		.word	_nrf_addr_width
 1004              		.cfi_endproc
 1005              	.LFE22:
 1006              		.size	nRF24_get_rx_pipe_address, .-nRF24_get_rx_pipe_address
 1007              		.section	.text.nRF24_set_tx_address,"ax",%progbits
 1008              		.align	2
 1009              		.global	nRF24_set_tx_address
 1010              		.thumb
 1011              		.thumb_func
 1012              		.type	nRF24_set_tx_address, %function
 1013              	nRF24_set_tx_address:
 1014              	.LFB23:
 418:Generated_Source\PSoC5/nRF24_FUNCS.c **** 
 419:Generated_Source\PSoC5/nRF24_FUNCS.c **** /**
 420:Generated_Source\PSoC5/nRF24_FUNCS.c ****  * @brief Set the TX Address of the radio.
 421:Generated_Source\PSoC5/nRF24_FUNCS.c ****  *
 422:Generated_Source\PSoC5/nRF24_FUNCS.c ****  * @param const uint8_t* addr:
 423:Generated_Source\PSoC5/nRF24_FUNCS.c ****  * @param size_t size:
 424:Generated_Source\PSoC5/nRF24_FUNCS.c ****  */
 425:Generated_Source\PSoC5/nRF24_FUNCS.c **** void nRF24_set_tx_address(const uint8_t *const addr, size_t size)
 426:Generated_Source\PSoC5/nRF24_FUNCS.c **** {
 1015              		.loc 1 426 0
 1016              		.cfi_startproc
 1017              		@ args = 0, pretend = 0, frame = 8
 1018              		@ frame_needed = 1, uses_anonymous_args = 0
 1019 0000 80B5     		push	{r7, lr}
 1020              		.cfi_def_cfa_offset 8
 1021              		.cfi_offset 7, -8
 1022              		.cfi_offset 14, -4
 1023 0002 82B0     		sub	sp, sp, #8
 1024              		.cfi_def_cfa_offset 16
 1025 0004 00AF     		add	r7, sp, #0
 1026              		.cfi_def_cfa_register 7
 1027 0006 7860     		str	r0, [r7, #4]
 1028 0008 3960     		str	r1, [r7]
 427:Generated_Source\PSoC5/nRF24_FUNCS.c ****     if (NULL == addr) {
 1029              		.loc 1 427 0
 1030 000a 7B68     		ldr	r3, [r7, #4]
 1031 000c 002B     		cmp	r3, #0
 1032 000e 0ED0     		beq	.L61
 428:Generated_Source\PSoC5/nRF24_FUNCS.c ****         return;
 429:Generated_Source\PSoC5/nRF24_FUNCS.c ****     }
 430:Generated_Source\PSoC5/nRF24_FUNCS.c **** 
 431:Generated_Source\PSoC5/nRF24_FUNCS.c ****     if (_nrf_addr_width < size) {
 1033              		.loc 1 431 0
 1034 0010 094B     		ldr	r3, .L62
 1035 0012 1B78     		ldrb	r3, [r3]	@ zero_extendqisi2
 1036 0014 1A46     		mov	r2, r3
 1037 0016 3B68     		ldr	r3, [r7]
 1038 0018 9A42     		cmp	r2, r3
 1039 001a 02D2     		bcs	.L60
 432:Generated_Source\PSoC5/nRF24_FUNCS.c ****         size = _nrf_addr_width;
 1040              		.loc 1 432 0
 1041 001c 064B     		ldr	r3, .L62
ARM GAS  C:\Users\rens_\AppData\Local\Temp\ccW8xaXP.s 			page 27


 1042 001e 1B78     		ldrb	r3, [r3]	@ zero_extendqisi2
 1043 0020 3B60     		str	r3, [r7]
 1044              	.L60:
 433:Generated_Source\PSoC5/nRF24_FUNCS.c ****     }
 434:Generated_Source\PSoC5/nRF24_FUNCS.c **** 
 435:Generated_Source\PSoC5/nRF24_FUNCS.c ****     nRF24_write_long_register(NRF_REG_TX_ADDR, addr, size);
 1045              		.loc 1 435 0
 1046 0022 3A68     		ldr	r2, [r7]
 1047 0024 7968     		ldr	r1, [r7, #4]
 1048 0026 1020     		movs	r0, #16
 1049 0028 FFF7FEFF 		bl	nRF24_write_long_register
 1050 002c 00E0     		b	.L57
 1051              	.L61:
 428:Generated_Source\PSoC5/nRF24_FUNCS.c ****     }
 1052              		.loc 1 428 0
 1053 002e 00BF     		nop
 1054              	.L57:
 436:Generated_Source\PSoC5/nRF24_FUNCS.c **** }
 1055              		.loc 1 436 0
 1056 0030 0837     		adds	r7, r7, #8
 1057              		.cfi_def_cfa_offset 8
 1058 0032 BD46     		mov	sp, r7
 1059              		.cfi_def_cfa_register 13
 1060              		@ sp needed
 1061 0034 80BD     		pop	{r7, pc}
 1062              	.L63:
 1063 0036 00BF     		.align	2
 1064              	.L62:
 1065 0038 00000000 		.word	_nrf_addr_width
 1066              		.cfi_endproc
 1067              	.LFE23:
 1068              		.size	nRF24_set_tx_address, .-nRF24_set_tx_address
 1069              		.section	.text.nRF24_get_tx_address,"ax",%progbits
 1070              		.align	2
 1071              		.global	nRF24_get_tx_address
 1072              		.thumb
 1073              		.thumb_func
 1074              		.type	nRF24_get_tx_address, %function
 1075              	nRF24_get_tx_address:
 1076              	.LFB24:
 437:Generated_Source\PSoC5/nRF24_FUNCS.c **** 
 438:Generated_Source\PSoC5/nRF24_FUNCS.c **** /**
 439:Generated_Source\PSoC5/nRF24_FUNCS.c ****  * @brief Get the TX Address of the radio.
 440:Generated_Source\PSoC5/nRF24_FUNCS.c ****  *
 441:Generated_Source\PSoC5/nRF24_FUNCS.c ****  * @param const uint8_t* addr:
 442:Generated_Source\PSoC5/nRF24_FUNCS.c ****  * @param const size_t size:
 443:Generated_Source\PSoC5/nRF24_FUNCS.c ****  */
 444:Generated_Source\PSoC5/nRF24_FUNCS.c **** void nRF24_get_tx_address(uint8_t* addr, size_t size)
 445:Generated_Source\PSoC5/nRF24_FUNCS.c **** {
 1077              		.loc 1 445 0
 1078              		.cfi_startproc
 1079              		@ args = 0, pretend = 0, frame = 8
 1080              		@ frame_needed = 1, uses_anonymous_args = 0
 1081 0000 80B5     		push	{r7, lr}
 1082              		.cfi_def_cfa_offset 8
 1083              		.cfi_offset 7, -8
 1084              		.cfi_offset 14, -4
ARM GAS  C:\Users\rens_\AppData\Local\Temp\ccW8xaXP.s 			page 28


 1085 0002 82B0     		sub	sp, sp, #8
 1086              		.cfi_def_cfa_offset 16
 1087 0004 00AF     		add	r7, sp, #0
 1088              		.cfi_def_cfa_register 7
 1089 0006 7860     		str	r0, [r7, #4]
 1090 0008 3960     		str	r1, [r7]
 446:Generated_Source\PSoC5/nRF24_FUNCS.c ****     if (NULL == addr) {
 1091              		.loc 1 446 0
 1092 000a 7B68     		ldr	r3, [r7, #4]
 1093 000c 002B     		cmp	r3, #0
 1094 000e 0ED0     		beq	.L68
 447:Generated_Source\PSoC5/nRF24_FUNCS.c ****         return;
 448:Generated_Source\PSoC5/nRF24_FUNCS.c ****     }
 449:Generated_Source\PSoC5/nRF24_FUNCS.c **** 
 450:Generated_Source\PSoC5/nRF24_FUNCS.c ****     if (_nrf_addr_width < size) {
 1095              		.loc 1 450 0
 1096 0010 094B     		ldr	r3, .L69
 1097 0012 1B78     		ldrb	r3, [r3]	@ zero_extendqisi2
 1098 0014 1A46     		mov	r2, r3
 1099 0016 3B68     		ldr	r3, [r7]
 1100 0018 9A42     		cmp	r2, r3
 1101 001a 02D2     		bcs	.L67
 451:Generated_Source\PSoC5/nRF24_FUNCS.c ****         size = _nrf_addr_width;
 1102              		.loc 1 451 0
 1103 001c 064B     		ldr	r3, .L69
 1104 001e 1B78     		ldrb	r3, [r3]	@ zero_extendqisi2
 1105 0020 3B60     		str	r3, [r7]
 1106              	.L67:
 452:Generated_Source\PSoC5/nRF24_FUNCS.c ****     }
 453:Generated_Source\PSoC5/nRF24_FUNCS.c **** 
 454:Generated_Source\PSoC5/nRF24_FUNCS.c ****     nRF24_read_long_register(NRF_REG_TX_ADDR, addr, size);
 1107              		.loc 1 454 0
 1108 0022 3A68     		ldr	r2, [r7]
 1109 0024 7968     		ldr	r1, [r7, #4]
 1110 0026 1020     		movs	r0, #16
 1111 0028 FFF7FEFF 		bl	nRF24_read_long_register
 1112 002c 00E0     		b	.L64
 1113              	.L68:
 447:Generated_Source\PSoC5/nRF24_FUNCS.c ****     }
 1114              		.loc 1 447 0
 1115 002e 00BF     		nop
 1116              	.L64:
 455:Generated_Source\PSoC5/nRF24_FUNCS.c **** }
 1117              		.loc 1 455 0
 1118 0030 0837     		adds	r7, r7, #8
 1119              		.cfi_def_cfa_offset 8
 1120 0032 BD46     		mov	sp, r7
 1121              		.cfi_def_cfa_register 13
 1122              		@ sp needed
 1123 0034 80BD     		pop	{r7, pc}
 1124              	.L70:
 1125 0036 00BF     		.align	2
 1126              	.L69:
 1127 0038 00000000 		.word	_nrf_addr_width
 1128              		.cfi_endproc
 1129              	.LFE24:
 1130              		.size	nRF24_get_tx_address, .-nRF24_get_tx_address
ARM GAS  C:\Users\rens_\AppData\Local\Temp\ccW8xaXP.s 			page 29


 1131              		.section	.text.nRF24_set_payload_size,"ax",%progbits
 1132              		.align	2
 1133              		.global	nRF24_set_payload_size
 1134              		.thumb
 1135              		.thumb_func
 1136              		.type	nRF24_set_payload_size, %function
 1137              	nRF24_set_payload_size:
 1138              	.LFB25:
 456:Generated_Source\PSoC5/nRF24_FUNCS.c **** 
 457:Generated_Source\PSoC5/nRF24_FUNCS.c **** /**
 458:Generated_Source\PSoC5/nRF24_FUNCS.c ****  * @brief Set the payload size of the given pipe.
 459:Generated_Source\PSoC5/nRF24_FUNCS.c ****  *
 460:Generated_Source\PSoC5/nRF24_FUNCS.c ****  * Configure the payload size of the given pipe.
 461:Generated_Source\PSoC5/nRF24_FUNCS.c ****  *
 462:Generated_Source\PSoC5/nRF24_FUNCS.c ****  * @param const nrf_pipe pipe:
 463:Generated_Source\PSoC5/nRF24_FUNCS.c ****  * @param uint8_t size:
 464:Generated_Source\PSoC5/nRF24_FUNCS.c ****  */
 465:Generated_Source\PSoC5/nRF24_FUNCS.c **** void nRF24_set_payload_size(const nrf_pld_size pipe, uint8_t size)
 466:Generated_Source\PSoC5/nRF24_FUNCS.c **** {
 1139              		.loc 1 466 0
 1140              		.cfi_startproc
 1141              		@ args = 0, pretend = 0, frame = 8
 1142              		@ frame_needed = 1, uses_anonymous_args = 0
 1143 0000 80B5     		push	{r7, lr}
 1144              		.cfi_def_cfa_offset 8
 1145              		.cfi_offset 7, -8
 1146              		.cfi_offset 14, -4
 1147 0002 82B0     		sub	sp, sp, #8
 1148              		.cfi_def_cfa_offset 16
 1149 0004 00AF     		add	r7, sp, #0
 1150              		.cfi_def_cfa_register 7
 1151 0006 0346     		mov	r3, r0
 1152 0008 0A46     		mov	r2, r1
 1153 000a FB71     		strb	r3, [r7, #7]
 1154 000c 1346     		mov	r3, r2
 1155 000e BB71     		strb	r3, [r7, #6]
 467:Generated_Source\PSoC5/nRF24_FUNCS.c ****     if (NRF_PAYLOAD_SIZE_MAX < size) {
 1156              		.loc 1 467 0
 1157 0010 BB79     		ldrb	r3, [r7, #6]	@ zero_extendqisi2
 1158 0012 202B     		cmp	r3, #32
 1159 0014 01D9     		bls	.L72
 468:Generated_Source\PSoC5/nRF24_FUNCS.c ****         size = NRF_PAYLOAD_SIZE_MAX;
 1160              		.loc 1 468 0
 1161 0016 2023     		movs	r3, #32
 1162 0018 BB71     		strb	r3, [r7, #6]
 1163              	.L72:
 469:Generated_Source\PSoC5/nRF24_FUNCS.c ****     }
 470:Generated_Source\PSoC5/nRF24_FUNCS.c **** 
 471:Generated_Source\PSoC5/nRF24_FUNCS.c ****     nRF24_write_register(pipe, size);
 1164              		.loc 1 471 0
 1165 001a BA79     		ldrb	r2, [r7, #6]	@ zero_extendqisi2
 1166 001c FB79     		ldrb	r3, [r7, #7]	@ zero_extendqisi2
 1167 001e 1146     		mov	r1, r2
 1168 0020 1846     		mov	r0, r3
 1169 0022 FFF7FEFF 		bl	nRF24_write_register
 472:Generated_Source\PSoC5/nRF24_FUNCS.c **** }
 1170              		.loc 1 472 0
ARM GAS  C:\Users\rens_\AppData\Local\Temp\ccW8xaXP.s 			page 30


 1171 0026 00BF     		nop
 1172 0028 0837     		adds	r7, r7, #8
 1173              		.cfi_def_cfa_offset 8
 1174 002a BD46     		mov	sp, r7
 1175              		.cfi_def_cfa_register 13
 1176              		@ sp needed
 1177 002c 80BD     		pop	{r7, pc}
 1178              		.cfi_endproc
 1179              	.LFE25:
 1180              		.size	nRF24_set_payload_size, .-nRF24_set_payload_size
 1181 002e 00BF     		.section	.text.nRF24_get_payload_size,"ax",%progbits
 1182              		.align	2
 1183              		.global	nRF24_get_payload_size
 1184              		.thumb
 1185              		.thumb_func
 1186              		.type	nRF24_get_payload_size, %function
 1187              	nRF24_get_payload_size:
 1188              	.LFB26:
 473:Generated_Source\PSoC5/nRF24_FUNCS.c **** 
 474:Generated_Source\PSoC5/nRF24_FUNCS.c **** /**
 475:Generated_Source\PSoC5/nRF24_FUNCS.c ****  * Get the payload size of the given pipe.
 476:Generated_Source\PSoC5/nRF24_FUNCS.c ****  *
 477:Generated_Source\PSoC5/nRF24_FUNCS.c ****  * @param const nrf_pipe pipe: Pipe to be read.
 478:Generated_Source\PSoC5/nRF24_FUNCS.c ****  *
 479:Generated_Source\PSoC5/nRF24_FUNCS.c ****  * @return uint8_t: Configured payload size of the given pipe.
 480:Generated_Source\PSoC5/nRF24_FUNCS.c ****  */
 481:Generated_Source\PSoC5/nRF24_FUNCS.c **** uint8_t nRF24_get_payload_size(const nrf_pld_size pipe)
 482:Generated_Source\PSoC5/nRF24_FUNCS.c **** {
 1189              		.loc 1 482 0
 1190              		.cfi_startproc
 1191              		@ args = 0, pretend = 0, frame = 8
 1192              		@ frame_needed = 1, uses_anonymous_args = 0
 1193 0000 80B5     		push	{r7, lr}
 1194              		.cfi_def_cfa_offset 8
 1195              		.cfi_offset 7, -8
 1196              		.cfi_offset 14, -4
 1197 0002 82B0     		sub	sp, sp, #8
 1198              		.cfi_def_cfa_offset 16
 1199 0004 00AF     		add	r7, sp, #0
 1200              		.cfi_def_cfa_register 7
 1201 0006 0346     		mov	r3, r0
 1202 0008 FB71     		strb	r3, [r7, #7]
 483:Generated_Source\PSoC5/nRF24_FUNCS.c ****     return nRF24_read_register(pipe);
 1203              		.loc 1 483 0
 1204 000a FB79     		ldrb	r3, [r7, #7]	@ zero_extendqisi2
 1205 000c 1846     		mov	r0, r3
 1206 000e FFF7FEFF 		bl	nRF24_read_register
 1207 0012 0346     		mov	r3, r0
 484:Generated_Source\PSoC5/nRF24_FUNCS.c **** }
 1208              		.loc 1 484 0
 1209 0014 1846     		mov	r0, r3
 1210 0016 0837     		adds	r7, r7, #8
 1211              		.cfi_def_cfa_offset 8
 1212 0018 BD46     		mov	sp, r7
 1213              		.cfi_def_cfa_register 13
 1214              		@ sp needed
 1215 001a 80BD     		pop	{r7, pc}
ARM GAS  C:\Users\rens_\AppData\Local\Temp\ccW8xaXP.s 			page 31


 1216              		.cfi_endproc
 1217              	.LFE26:
 1218              		.size	nRF24_get_payload_size, .-nRF24_get_payload_size
 1219              		.section	.text.nRF24_reuse_last_transmitted_payload,"ax",%progbits
 1220              		.align	2
 1221              		.global	nRF24_reuse_last_transmitted_payload
 1222              		.thumb
 1223              		.thumb_func
 1224              		.type	nRF24_reuse_last_transmitted_payload, %function
 1225              	nRF24_reuse_last_transmitted_payload:
 1226              	.LFB27:
 485:Generated_Source\PSoC5/nRF24_FUNCS.c **** 
 486:Generated_Source\PSoC5/nRF24_FUNCS.c **** /**
 487:Generated_Source\PSoC5/nRF24_FUNCS.c ****  * @brief Reuse last transmitted payload.
 488:Generated_Source\PSoC5/nRF24_FUNCS.c ****  *
 489:Generated_Source\PSoC5/nRF24_FUNCS.c ****  * This function issue the command ReuseTxPayload and then toggle the CE pin
 490:Generated_Source\PSoC5/nRF24_FUNCS.c ****  * to transmit the last transmitted payload.
 491:Generated_Source\PSoC5/nRF24_FUNCS.c ****  */
 492:Generated_Source\PSoC5/nRF24_FUNCS.c **** void nRF24_reuse_last_transmitted_payload(void)
 493:Generated_Source\PSoC5/nRF24_FUNCS.c **** {
 1227              		.loc 1 493 0
 1228              		.cfi_startproc
 1229              		@ args = 0, pretend = 0, frame = 0
 1230              		@ frame_needed = 1, uses_anonymous_args = 0
 1231 0000 80B5     		push	{r7, lr}
 1232              		.cfi_def_cfa_offset 8
 1233              		.cfi_offset 7, -8
 1234              		.cfi_offset 14, -4
 1235 0002 00AF     		add	r7, sp, #0
 1236              		.cfi_def_cfa_register 7
 494:Generated_Source\PSoC5/nRF24_FUNCS.c ****     nRF24_reuse_tx_payload_cmd();
 1237              		.loc 1 494 0
 1238 0004 FFF7FEFF 		bl	nRF24_reuse_tx_payload_cmd
 495:Generated_Source\PSoC5/nRF24_FUNCS.c ****     nRF24_transmit_pulse();
 1239              		.loc 1 495 0
 1240 0008 FFF7FEFF 		bl	nRF24_transmit_pulse
 496:Generated_Source\PSoC5/nRF24_FUNCS.c **** }
 1241              		.loc 1 496 0
 1242 000c 00BF     		nop
 1243 000e 80BD     		pop	{r7, pc}
 1244              		.cfi_endproc
 1245              	.LFE27:
 1246              		.size	nRF24_reuse_last_transmitted_payload, .-nRF24_reuse_last_transmitted_payload
 1247              		.section	.text.nRF24_enable_dynamic_payload,"ax",%progbits
 1248              		.align	2
 1249              		.global	nRF24_enable_dynamic_payload
 1250              		.thumb
 1251              		.thumb_func
 1252              		.type	nRF24_enable_dynamic_payload, %function
 1253              	nRF24_enable_dynamic_payload:
 1254              	.LFB28:
 497:Generated_Source\PSoC5/nRF24_FUNCS.c **** 
 498:Generated_Source\PSoC5/nRF24_FUNCS.c **** /**
 499:Generated_Source\PSoC5/nRF24_FUNCS.c ****  * @brief Enable dynamic payload on the given pipe.
 500:Generated_Source\PSoC5/nRF24_FUNCS.c ****  *
 501:Generated_Source\PSoC5/nRF24_FUNCS.c ****  * @param const nrf_pipe pipe:
 502:Generated_Source\PSoC5/nRF24_FUNCS.c ****  */
ARM GAS  C:\Users\rens_\AppData\Local\Temp\ccW8xaXP.s 			page 32


 503:Generated_Source\PSoC5/nRF24_FUNCS.c **** void nRF24_enable_dynamic_payload(void)
 504:Generated_Source\PSoC5/nRF24_FUNCS.c **** {
 1255              		.loc 1 504 0
 1256              		.cfi_startproc
 1257              		@ args = 0, pretend = 0, frame = 0
 1258              		@ frame_needed = 1, uses_anonymous_args = 0
 1259 0000 80B5     		push	{r7, lr}
 1260              		.cfi_def_cfa_offset 8
 1261              		.cfi_offset 7, -8
 1262              		.cfi_offset 14, -4
 1263 0002 00AF     		add	r7, sp, #0
 1264              		.cfi_def_cfa_register 7
 505:Generated_Source\PSoC5/nRF24_FUNCS.c ****     // TODO: Read the FEATURE register, check the needed values and set
 506:Generated_Source\PSoC5/nRF24_FUNCS.c ****     // the bits if not set already
 507:Generated_Source\PSoC5/nRF24_FUNCS.c ****     nRF24_set_bit(NRF_REG_FEATURE, NRF_FEATURE_BIT_EN_ACK_PAY);
 1265              		.loc 1 507 0
 1266 0004 0121     		movs	r1, #1
 1267 0006 1D20     		movs	r0, #29
 1268 0008 FFF7FEFF 		bl	nRF24_set_bit
 508:Generated_Source\PSoC5/nRF24_FUNCS.c ****     nRF24_set_bit(NRF_REG_FEATURE, NRF_FEATURE_BIT_EN_DPL);
 1269              		.loc 1 508 0
 1270 000c 0221     		movs	r1, #2
 1271 000e 1D20     		movs	r0, #29
 1272 0010 FFF7FEFF 		bl	nRF24_set_bit
 509:Generated_Source\PSoC5/nRF24_FUNCS.c **** }
 1273              		.loc 1 509 0
 1274 0014 00BF     		nop
 1275 0016 80BD     		pop	{r7, pc}
 1276              		.cfi_endproc
 1277              	.LFE28:
 1278              		.size	nRF24_enable_dynamic_payload, .-nRF24_enable_dynamic_payload
 1279              		.section	.text.nRF24_enable_dynamic_payload_on_pipe,"ax",%progbits
 1280              		.align	2
 1281              		.global	nRF24_enable_dynamic_payload_on_pipe
 1282              		.thumb
 1283              		.thumb_func
 1284              		.type	nRF24_enable_dynamic_payload_on_pipe, %function
 1285              	nRF24_enable_dynamic_payload_on_pipe:
 1286              	.LFB29:
 510:Generated_Source\PSoC5/nRF24_FUNCS.c **** 
 511:Generated_Source\PSoC5/nRF24_FUNCS.c **** /**
 512:Generated_Source\PSoC5/nRF24_FUNCS.c ****  * @brief Enable dynamic payload on the given pipe.
 513:Generated_Source\PSoC5/nRF24_FUNCS.c ****  *
 514:Generated_Source\PSoC5/nRF24_FUNCS.c ****  * @param const nrf_pipe pipe:
 515:Generated_Source\PSoC5/nRF24_FUNCS.c ****  */
 516:Generated_Source\PSoC5/nRF24_FUNCS.c **** void nRF24_enable_dynamic_payload_on_pipe(const nrf_pipe pipe)
 517:Generated_Source\PSoC5/nRF24_FUNCS.c **** {
 1287              		.loc 1 517 0
 1288              		.cfi_startproc
 1289              		@ args = 0, pretend = 0, frame = 8
 1290              		@ frame_needed = 1, uses_anonymous_args = 0
 1291 0000 80B5     		push	{r7, lr}
 1292              		.cfi_def_cfa_offset 8
 1293              		.cfi_offset 7, -8
 1294              		.cfi_offset 14, -4
 1295 0002 82B0     		sub	sp, sp, #8
 1296              		.cfi_def_cfa_offset 16
ARM GAS  C:\Users\rens_\AppData\Local\Temp\ccW8xaXP.s 			page 33


 1297 0004 00AF     		add	r7, sp, #0
 1298              		.cfi_def_cfa_register 7
 1299 0006 0346     		mov	r3, r0
 1300 0008 FB71     		strb	r3, [r7, #7]
 518:Generated_Source\PSoC5/nRF24_FUNCS.c ****     nRF24_set_bit(NRF_REG_EN_AA, pipe);
 1301              		.loc 1 518 0
 1302 000a FB79     		ldrb	r3, [r7, #7]	@ zero_extendqisi2
 1303 000c 1946     		mov	r1, r3
 1304 000e 0120     		movs	r0, #1
 1305 0010 FFF7FEFF 		bl	nRF24_set_bit
 519:Generated_Source\PSoC5/nRF24_FUNCS.c ****     nRF24_set_bit(NRF_REG_DYNPD, pipe);
 1306              		.loc 1 519 0
 1307 0014 FB79     		ldrb	r3, [r7, #7]	@ zero_extendqisi2
 1308 0016 1946     		mov	r1, r3
 1309 0018 1C20     		movs	r0, #28
 1310 001a FFF7FEFF 		bl	nRF24_set_bit
 520:Generated_Source\PSoC5/nRF24_FUNCS.c **** }
 1311              		.loc 1 520 0
 1312 001e 00BF     		nop
 1313 0020 0837     		adds	r7, r7, #8
 1314              		.cfi_def_cfa_offset 8
 1315 0022 BD46     		mov	sp, r7
 1316              		.cfi_def_cfa_register 13
 1317              		@ sp needed
 1318 0024 80BD     		pop	{r7, pc}
 1319              		.cfi_endproc
 1320              	.LFE29:
 1321              		.size	nRF24_enable_dynamic_payload_on_pipe, .-nRF24_enable_dynamic_payload_on_pipe
 1322 0026 00BF     		.section	.text.nRF24_disable_dynamic_payload,"ax",%progbits
 1323              		.align	2
 1324              		.global	nRF24_disable_dynamic_payload
 1325              		.thumb
 1326              		.thumb_func
 1327              		.type	nRF24_disable_dynamic_payload, %function
 1328              	nRF24_disable_dynamic_payload:
 1329              	.LFB30:
 521:Generated_Source\PSoC5/nRF24_FUNCS.c **** 
 522:Generated_Source\PSoC5/nRF24_FUNCS.c **** /**
 523:Generated_Source\PSoC5/nRF24_FUNCS.c ****  * @brief Disable dynamic payload on the given pipe.
 524:Generated_Source\PSoC5/nRF24_FUNCS.c ****  *
 525:Generated_Source\PSoC5/nRF24_FUNCS.c ****  * @param const nrf_pipe pipe:
 526:Generated_Source\PSoC5/nRF24_FUNCS.c ****  */
 527:Generated_Source\PSoC5/nRF24_FUNCS.c **** void nRF24_disable_dynamic_payload()
 528:Generated_Source\PSoC5/nRF24_FUNCS.c **** {
 1330              		.loc 1 528 0
 1331              		.cfi_startproc
 1332              		@ args = 0, pretend = 0, frame = 0
 1333              		@ frame_needed = 1, uses_anonymous_args = 0
 1334 0000 80B5     		push	{r7, lr}
 1335              		.cfi_def_cfa_offset 8
 1336              		.cfi_offset 7, -8
 1337              		.cfi_offset 14, -4
 1338 0002 00AF     		add	r7, sp, #0
 1339              		.cfi_def_cfa_register 7
 529:Generated_Source\PSoC5/nRF24_FUNCS.c ****     // TODO: Read the FEATURE register, check the needed values and clear
 530:Generated_Source\PSoC5/nRF24_FUNCS.c ****     // the bits if not clear already
 531:Generated_Source\PSoC5/nRF24_FUNCS.c ****     nRF24_clear_bit(NRF_REG_FEATURE, NRF_FEATURE_BIT_EN_ACK_PAY);
ARM GAS  C:\Users\rens_\AppData\Local\Temp\ccW8xaXP.s 			page 34


 1340              		.loc 1 531 0
 1341 0004 0121     		movs	r1, #1
 1342 0006 1D20     		movs	r0, #29
 1343 0008 FFF7FEFF 		bl	nRF24_clear_bit
 532:Generated_Source\PSoC5/nRF24_FUNCS.c ****     nRF24_clear_bit(NRF_REG_FEATURE, NRF_FEATURE_BIT_EN_DPL);
 1344              		.loc 1 532 0
 1345 000c 0221     		movs	r1, #2
 1346 000e 1D20     		movs	r0, #29
 1347 0010 FFF7FEFF 		bl	nRF24_clear_bit
 533:Generated_Source\PSoC5/nRF24_FUNCS.c **** }
 1348              		.loc 1 533 0
 1349 0014 00BF     		nop
 1350 0016 80BD     		pop	{r7, pc}
 1351              		.cfi_endproc
 1352              	.LFE30:
 1353              		.size	nRF24_disable_dynamic_payload, .-nRF24_disable_dynamic_payload
 1354              		.section	.text.nRF24_disable_dynamic_payload_on_pipe,"ax",%progbits
 1355              		.align	2
 1356              		.global	nRF24_disable_dynamic_payload_on_pipe
 1357              		.thumb
 1358              		.thumb_func
 1359              		.type	nRF24_disable_dynamic_payload_on_pipe, %function
 1360              	nRF24_disable_dynamic_payload_on_pipe:
 1361              	.LFB31:
 534:Generated_Source\PSoC5/nRF24_FUNCS.c **** 
 535:Generated_Source\PSoC5/nRF24_FUNCS.c **** /**
 536:Generated_Source\PSoC5/nRF24_FUNCS.c ****  * @brief Disable dynamic payload on the given pipe.
 537:Generated_Source\PSoC5/nRF24_FUNCS.c ****  *
 538:Generated_Source\PSoC5/nRF24_FUNCS.c ****  * @param const nrf_pipe pipe:
 539:Generated_Source\PSoC5/nRF24_FUNCS.c ****  */
 540:Generated_Source\PSoC5/nRF24_FUNCS.c **** void nRF24_disable_dynamic_payload_on_pipe(const nrf_pipe pipe)
 541:Generated_Source\PSoC5/nRF24_FUNCS.c **** {
 1362              		.loc 1 541 0
 1363              		.cfi_startproc
 1364              		@ args = 0, pretend = 0, frame = 8
 1365              		@ frame_needed = 1, uses_anonymous_args = 0
 1366 0000 80B5     		push	{r7, lr}
 1367              		.cfi_def_cfa_offset 8
 1368              		.cfi_offset 7, -8
 1369              		.cfi_offset 14, -4
 1370 0002 82B0     		sub	sp, sp, #8
 1371              		.cfi_def_cfa_offset 16
 1372 0004 00AF     		add	r7, sp, #0
 1373              		.cfi_def_cfa_register 7
 1374 0006 0346     		mov	r3, r0
 1375 0008 FB71     		strb	r3, [r7, #7]
 542:Generated_Source\PSoC5/nRF24_FUNCS.c ****     nRF24_clear_bit(NRF_REG_EN_AA, pipe);
 1376              		.loc 1 542 0
 1377 000a FB79     		ldrb	r3, [r7, #7]	@ zero_extendqisi2
 1378 000c 1946     		mov	r1, r3
 1379 000e 0120     		movs	r0, #1
 1380 0010 FFF7FEFF 		bl	nRF24_clear_bit
 543:Generated_Source\PSoC5/nRF24_FUNCS.c ****     nRF24_clear_bit(NRF_REG_DYNPD, pipe);
 1381              		.loc 1 543 0
 1382 0014 FB79     		ldrb	r3, [r7, #7]	@ zero_extendqisi2
 1383 0016 1946     		mov	r1, r3
 1384 0018 1C20     		movs	r0, #28
ARM GAS  C:\Users\rens_\AppData\Local\Temp\ccW8xaXP.s 			page 35


 1385 001a FFF7FEFF 		bl	nRF24_clear_bit
 544:Generated_Source\PSoC5/nRF24_FUNCS.c **** }
 1386              		.loc 1 544 0
 1387 001e 00BF     		nop
 1388 0020 0837     		adds	r7, r7, #8
 1389              		.cfi_def_cfa_offset 8
 1390 0022 BD46     		mov	sp, r7
 1391              		.cfi_def_cfa_register 13
 1392              		@ sp needed
 1393 0024 80BD     		pop	{r7, pc}
 1394              		.cfi_endproc
 1395              	.LFE31:
 1396              		.size	nRF24_disable_dynamic_payload_on_pipe, .-nRF24_disable_dynamic_payload_on_pipe
 1397 0026 00BF     		.section	.text.nRF24_enable_dynamic_payload_length,"ax",%progbits
 1398              		.align	2
 1399              		.global	nRF24_enable_dynamic_payload_length
 1400              		.thumb
 1401              		.thumb_func
 1402              		.type	nRF24_enable_dynamic_payload_length, %function
 1403              	nRF24_enable_dynamic_payload_length:
 1404              	.LFB32:
 545:Generated_Source\PSoC5/nRF24_FUNCS.c **** 
 546:Generated_Source\PSoC5/nRF24_FUNCS.c **** /**
 547:Generated_Source\PSoC5/nRF24_FUNCS.c ****  * @brief Enable dinamic payload length.
 548:Generated_Source\PSoC5/nRF24_FUNCS.c ****  */
 549:Generated_Source\PSoC5/nRF24_FUNCS.c **** void nRF24_enable_dynamic_payload_length(void)
 550:Generated_Source\PSoC5/nRF24_FUNCS.c **** {
 1405              		.loc 1 550 0
 1406              		.cfi_startproc
 1407              		@ args = 0, pretend = 0, frame = 0
 1408              		@ frame_needed = 1, uses_anonymous_args = 0
 1409 0000 80B5     		push	{r7, lr}
 1410              		.cfi_def_cfa_offset 8
 1411              		.cfi_offset 7, -8
 1412              		.cfi_offset 14, -4
 1413 0002 00AF     		add	r7, sp, #0
 1414              		.cfi_def_cfa_register 7
 551:Generated_Source\PSoC5/nRF24_FUNCS.c ****     nRF24_set_bit(NRF_REG_FEATURE, NRF_FEATURE_BIT_EN_DPL);
 1415              		.loc 1 551 0
 1416 0004 0221     		movs	r1, #2
 1417 0006 1D20     		movs	r0, #29
 1418 0008 FFF7FEFF 		bl	nRF24_set_bit
 552:Generated_Source\PSoC5/nRF24_FUNCS.c **** }
 1419              		.loc 1 552 0
 1420 000c 00BF     		nop
 1421 000e 80BD     		pop	{r7, pc}
 1422              		.cfi_endproc
 1423              	.LFE32:
 1424              		.size	nRF24_enable_dynamic_payload_length, .-nRF24_enable_dynamic_payload_length
 1425              		.section	.text.nRF24_disable_dynamic_payload_length,"ax",%progbits
 1426              		.align	2
 1427              		.global	nRF24_disable_dynamic_payload_length
 1428              		.thumb
 1429              		.thumb_func
 1430              		.type	nRF24_disable_dynamic_payload_length, %function
 1431              	nRF24_disable_dynamic_payload_length:
 1432              	.LFB33:
ARM GAS  C:\Users\rens_\AppData\Local\Temp\ccW8xaXP.s 			page 36


 553:Generated_Source\PSoC5/nRF24_FUNCS.c **** 
 554:Generated_Source\PSoC5/nRF24_FUNCS.c **** /**
 555:Generated_Source\PSoC5/nRF24_FUNCS.c ****  * @brief Disable dynamic payload length.
 556:Generated_Source\PSoC5/nRF24_FUNCS.c ****  */
 557:Generated_Source\PSoC5/nRF24_FUNCS.c **** void nRF24_disable_dynamic_payload_length(void)
 558:Generated_Source\PSoC5/nRF24_FUNCS.c **** {
 1433              		.loc 1 558 0
 1434              		.cfi_startproc
 1435              		@ args = 0, pretend = 0, frame = 0
 1436              		@ frame_needed = 1, uses_anonymous_args = 0
 1437 0000 80B5     		push	{r7, lr}
 1438              		.cfi_def_cfa_offset 8
 1439              		.cfi_offset 7, -8
 1440              		.cfi_offset 14, -4
 1441 0002 00AF     		add	r7, sp, #0
 1442              		.cfi_def_cfa_register 7
 559:Generated_Source\PSoC5/nRF24_FUNCS.c ****     nRF24_clear_bit(NRF_REG_FEATURE, NRF_FEATURE_BIT_EN_DPL);
 1443              		.loc 1 559 0
 1444 0004 0221     		movs	r1, #2
 1445 0006 1D20     		movs	r0, #29
 1446 0008 FFF7FEFF 		bl	nRF24_clear_bit
 560:Generated_Source\PSoC5/nRF24_FUNCS.c **** }
 1447              		.loc 1 560 0
 1448 000c 00BF     		nop
 1449 000e 80BD     		pop	{r7, pc}
 1450              		.cfi_endproc
 1451              	.LFE33:
 1452              		.size	nRF24_disable_dynamic_payload_length, .-nRF24_disable_dynamic_payload_length
 1453              		.section	.text.nRF24_enable_payload_with_ack,"ax",%progbits
 1454              		.align	2
 1455              		.global	nRF24_enable_payload_with_ack
 1456              		.thumb
 1457              		.thumb_func
 1458              		.type	nRF24_enable_payload_with_ack, %function
 1459              	nRF24_enable_payload_with_ack:
 1460              	.LFB34:
 561:Generated_Source\PSoC5/nRF24_FUNCS.c **** 
 562:Generated_Source\PSoC5/nRF24_FUNCS.c **** /**
 563:Generated_Source\PSoC5/nRF24_FUNCS.c ****  * @brief Enable payload with ACK.
 564:Generated_Source\PSoC5/nRF24_FUNCS.c ****  */
 565:Generated_Source\PSoC5/nRF24_FUNCS.c **** void nRF24_enable_payload_with_ack(void)
 566:Generated_Source\PSoC5/nRF24_FUNCS.c **** {
 1461              		.loc 1 566 0
 1462              		.cfi_startproc
 1463              		@ args = 0, pretend = 0, frame = 0
 1464              		@ frame_needed = 1, uses_anonymous_args = 0
 1465 0000 80B5     		push	{r7, lr}
 1466              		.cfi_def_cfa_offset 8
 1467              		.cfi_offset 7, -8
 1468              		.cfi_offset 14, -4
 1469 0002 00AF     		add	r7, sp, #0
 1470              		.cfi_def_cfa_register 7
 567:Generated_Source\PSoC5/nRF24_FUNCS.c ****     nRF24_set_bit(NRF_REG_FEATURE, NRF_FEATURE_BIT_EN_ACK_PAY);
 1471              		.loc 1 567 0
 1472 0004 0121     		movs	r1, #1
 1473 0006 1D20     		movs	r0, #29
 1474 0008 FFF7FEFF 		bl	nRF24_set_bit
ARM GAS  C:\Users\rens_\AppData\Local\Temp\ccW8xaXP.s 			page 37


 568:Generated_Source\PSoC5/nRF24_FUNCS.c **** }
 1475              		.loc 1 568 0
 1476 000c 00BF     		nop
 1477 000e 80BD     		pop	{r7, pc}
 1478              		.cfi_endproc
 1479              	.LFE34:
 1480              		.size	nRF24_enable_payload_with_ack, .-nRF24_enable_payload_with_ack
 1481              		.section	.text.nRF24_disable_payload_with_ack,"ax",%progbits
 1482              		.align	2
 1483              		.global	nRF24_disable_payload_with_ack
 1484              		.thumb
 1485              		.thumb_func
 1486              		.type	nRF24_disable_payload_with_ack, %function
 1487              	nRF24_disable_payload_with_ack:
 1488              	.LFB35:
 569:Generated_Source\PSoC5/nRF24_FUNCS.c **** 
 570:Generated_Source\PSoC5/nRF24_FUNCS.c **** /**
 571:Generated_Source\PSoC5/nRF24_FUNCS.c ****  * @brief Disable Payload with ACK.
 572:Generated_Source\PSoC5/nRF24_FUNCS.c ****  */
 573:Generated_Source\PSoC5/nRF24_FUNCS.c **** void nRF24_disable_payload_with_ack(void)
 574:Generated_Source\PSoC5/nRF24_FUNCS.c **** {
 1489              		.loc 1 574 0
 1490              		.cfi_startproc
 1491              		@ args = 0, pretend = 0, frame = 0
 1492              		@ frame_needed = 1, uses_anonymous_args = 0
 1493 0000 80B5     		push	{r7, lr}
 1494              		.cfi_def_cfa_offset 8
 1495              		.cfi_offset 7, -8
 1496              		.cfi_offset 14, -4
 1497 0002 00AF     		add	r7, sp, #0
 1498              		.cfi_def_cfa_register 7
 575:Generated_Source\PSoC5/nRF24_FUNCS.c ****     nRF24_clear_bit(NRF_REG_FEATURE, NRF_FEATURE_BIT_EN_ACK_PAY);
 1499              		.loc 1 575 0
 1500 0004 0121     		movs	r1, #1
 1501 0006 1D20     		movs	r0, #29
 1502 0008 FFF7FEFF 		bl	nRF24_clear_bit
 576:Generated_Source\PSoC5/nRF24_FUNCS.c **** }
 1503              		.loc 1 576 0
 1504 000c 00BF     		nop
 1505 000e 80BD     		pop	{r7, pc}
 1506              		.cfi_endproc
 1507              	.LFE35:
 1508              		.size	nRF24_disable_payload_with_ack, .-nRF24_disable_payload_with_ack
 1509              		.section	.text.nRF24_enable_payload_with_no_ack,"ax",%progbits
 1510              		.align	2
 1511              		.global	nRF24_enable_payload_with_no_ack
 1512              		.thumb
 1513              		.thumb_func
 1514              		.type	nRF24_enable_payload_with_no_ack, %function
 1515              	nRF24_enable_payload_with_no_ack:
 1516              	.LFB36:
 577:Generated_Source\PSoC5/nRF24_FUNCS.c **** 
 578:Generated_Source\PSoC5/nRF24_FUNCS.c **** /**
 579:Generated_Source\PSoC5/nRF24_FUNCS.c ****  * @brief Enable dynamic payload length.
 580:Generated_Source\PSoC5/nRF24_FUNCS.c ****  */
 581:Generated_Source\PSoC5/nRF24_FUNCS.c **** void nRF24_enable_payload_with_no_ack(void)
 582:Generated_Source\PSoC5/nRF24_FUNCS.c **** {
ARM GAS  C:\Users\rens_\AppData\Local\Temp\ccW8xaXP.s 			page 38


 1517              		.loc 1 582 0
 1518              		.cfi_startproc
 1519              		@ args = 0, pretend = 0, frame = 0
 1520              		@ frame_needed = 1, uses_anonymous_args = 0
 1521 0000 80B5     		push	{r7, lr}
 1522              		.cfi_def_cfa_offset 8
 1523              		.cfi_offset 7, -8
 1524              		.cfi_offset 14, -4
 1525 0002 00AF     		add	r7, sp, #0
 1526              		.cfi_def_cfa_register 7
 583:Generated_Source\PSoC5/nRF24_FUNCS.c ****     nRF24_set_bit(NRF_REG_FEATURE, NRF_FEATURE_BIT_EN_DYN_ACK);
 1527              		.loc 1 583 0
 1528 0004 0021     		movs	r1, #0
 1529 0006 1D20     		movs	r0, #29
 1530 0008 FFF7FEFF 		bl	nRF24_set_bit
 584:Generated_Source\PSoC5/nRF24_FUNCS.c **** }
 1531              		.loc 1 584 0
 1532 000c 00BF     		nop
 1533 000e 80BD     		pop	{r7, pc}
 1534              		.cfi_endproc
 1535              	.LFE36:
 1536              		.size	nRF24_enable_payload_with_no_ack, .-nRF24_enable_payload_with_no_ack
 1537              		.section	.text.nRF24_disable_payload_with_no_ack,"ax",%progbits
 1538              		.align	2
 1539              		.global	nRF24_disable_payload_with_no_ack
 1540              		.thumb
 1541              		.thumb_func
 1542              		.type	nRF24_disable_payload_with_no_ack, %function
 1543              	nRF24_disable_payload_with_no_ack:
 1544              	.LFB37:
 585:Generated_Source\PSoC5/nRF24_FUNCS.c **** 
 586:Generated_Source\PSoC5/nRF24_FUNCS.c **** /**
 587:Generated_Source\PSoC5/nRF24_FUNCS.c ****  * @brief Disable Payload with no ACK.
 588:Generated_Source\PSoC5/nRF24_FUNCS.c ****  */
 589:Generated_Source\PSoC5/nRF24_FUNCS.c **** void nRF24_disable_payload_with_no_ack(void)
 590:Generated_Source\PSoC5/nRF24_FUNCS.c **** {
 1545              		.loc 1 590 0
 1546              		.cfi_startproc
 1547              		@ args = 0, pretend = 0, frame = 0
 1548              		@ frame_needed = 1, uses_anonymous_args = 0
 1549 0000 80B5     		push	{r7, lr}
 1550              		.cfi_def_cfa_offset 8
 1551              		.cfi_offset 7, -8
 1552              		.cfi_offset 14, -4
 1553 0002 00AF     		add	r7, sp, #0
 1554              		.cfi_def_cfa_register 7
 591:Generated_Source\PSoC5/nRF24_FUNCS.c ****     nRF24_clear_bit(NRF_REG_FEATURE, NRF_FEATURE_BIT_EN_DYN_ACK);
 1555              		.loc 1 591 0
 1556 0004 0021     		movs	r1, #0
 1557 0006 1D20     		movs	r0, #29
 1558 0008 FFF7FEFF 		bl	nRF24_clear_bit
 592:Generated_Source\PSoC5/nRF24_FUNCS.c **** }
 1559              		.loc 1 592 0
 1560 000c 00BF     		nop
 1561 000e 80BD     		pop	{r7, pc}
 1562              		.cfi_endproc
 1563              	.LFE37:
ARM GAS  C:\Users\rens_\AppData\Local\Temp\ccW8xaXP.s 			page 39


 1564              		.size	nRF24_disable_payload_with_no_ack, .-nRF24_disable_payload_with_no_ack
 1565              		.section	.text.nRF24_start_listening,"ax",%progbits
 1566              		.align	2
 1567              		.global	nRF24_start_listening
 1568              		.thumb
 1569              		.thumb_func
 1570              		.type	nRF24_start_listening, %function
 1571              	nRF24_start_listening:
 1572              	.LFB38:
 593:Generated_Source\PSoC5/nRF24_FUNCS.c **** 
 594:Generated_Source\PSoC5/nRF24_FUNCS.c **** /**
 595:Generated_Source\PSoC5/nRF24_FUNCS.c ****  * @brief The nRF24 radio will start listening.
 596:Generated_Source\PSoC5/nRF24_FUNCS.c ****  *
 597:Generated_Source\PSoC5/nRF24_FUNCS.c ****  * This function set the pin CE to logic high, this enable the radio for
 598:Generated_Source\PSoC5/nRF24_FUNCS.c ****  * listening.
 599:Generated_Source\PSoC5/nRF24_FUNCS.c ****  */
 600:Generated_Source\PSoC5/nRF24_FUNCS.c **** void nRF24_start_listening(void)
 601:Generated_Source\PSoC5/nRF24_FUNCS.c **** {
 1573              		.loc 1 601 0
 1574              		.cfi_startproc
 1575              		@ args = 0, pretend = 0, frame = 0
 1576              		@ frame_needed = 1, uses_anonymous_args = 0
 1577 0000 80B5     		push	{r7, lr}
 1578              		.cfi_def_cfa_offset 8
 1579              		.cfi_offset 7, -8
 1580              		.cfi_offset 14, -4
 1581 0002 00AF     		add	r7, sp, #0
 1582              		.cfi_def_cfa_register 7
 602:Generated_Source\PSoC5/nRF24_FUNCS.c ****     nRF24_ce_write(GPIO_SET);
 1583              		.loc 1 602 0
 1584 0004 0120     		movs	r0, #1
 1585 0006 FFF7FEFF 		bl	nRF24_ce_write
 603:Generated_Source\PSoC5/nRF24_FUNCS.c **** }
 1586              		.loc 1 603 0
 1587 000a 00BF     		nop
 1588 000c 80BD     		pop	{r7, pc}
 1589              		.cfi_endproc
 1590              	.LFE38:
 1591              		.size	nRF24_start_listening, .-nRF24_start_listening
 1592 000e 00BF     		.section	.text.nRF24_stop_listening,"ax",%progbits
 1593              		.align	2
 1594              		.global	nRF24_stop_listening
 1595              		.thumb
 1596              		.thumb_func
 1597              		.type	nRF24_stop_listening, %function
 1598              	nRF24_stop_listening:
 1599              	.LFB39:
 604:Generated_Source\PSoC5/nRF24_FUNCS.c **** 
 605:Generated_Source\PSoC5/nRF24_FUNCS.c **** /**
 606:Generated_Source\PSoC5/nRF24_FUNCS.c ****  * @brief The nRF24 radio will stop listening.
 607:Generated_Source\PSoC5/nRF24_FUNCS.c ****  *
 608:Generated_Source\PSoC5/nRF24_FUNCS.c ****  * This function the pin CE of the nRF24 radio will be set to logic low,
 609:Generated_Source\PSoC5/nRF24_FUNCS.c ****  * this disable the radio for listening.
 610:Generated_Source\PSoC5/nRF24_FUNCS.c ****  */
 611:Generated_Source\PSoC5/nRF24_FUNCS.c **** void nRF24_stop_listening(void)
 612:Generated_Source\PSoC5/nRF24_FUNCS.c **** {
 1600              		.loc 1 612 0
ARM GAS  C:\Users\rens_\AppData\Local\Temp\ccW8xaXP.s 			page 40


 1601              		.cfi_startproc
 1602              		@ args = 0, pretend = 0, frame = 0
 1603              		@ frame_needed = 1, uses_anonymous_args = 0
 1604 0000 80B5     		push	{r7, lr}
 1605              		.cfi_def_cfa_offset 8
 1606              		.cfi_offset 7, -8
 1607              		.cfi_offset 14, -4
 1608 0002 00AF     		add	r7, sp, #0
 1609              		.cfi_def_cfa_register 7
 613:Generated_Source\PSoC5/nRF24_FUNCS.c ****     nRF24_ce_write(GPIO_CLEAR);
 1610              		.loc 1 613 0
 1611 0004 0020     		movs	r0, #0
 1612 0006 FFF7FEFF 		bl	nRF24_ce_write
 614:Generated_Source\PSoC5/nRF24_FUNCS.c **** }
 1613              		.loc 1 614 0
 1614 000a 00BF     		nop
 1615 000c 80BD     		pop	{r7, pc}
 1616              		.cfi_endproc
 1617              	.LFE39:
 1618              		.size	nRF24_stop_listening, .-nRF24_stop_listening
 1619 000e 00BF     		.section	.text.nRF24_transmit_pulse,"ax",%progbits
 1620              		.align	2
 1621              		.global	nRF24_transmit_pulse
 1622              		.thumb
 1623              		.thumb_func
 1624              		.type	nRF24_transmit_pulse, %function
 1625              	nRF24_transmit_pulse:
 1626              	.LFB40:
 615:Generated_Source\PSoC5/nRF24_FUNCS.c **** 
 616:Generated_Source\PSoC5/nRF24_FUNCS.c **** /**
 617:Generated_Source\PSoC5/nRF24_FUNCS.c ****  * @brief Transmit pulse on the CE pin.
 618:Generated_Source\PSoC5/nRF24_FUNCS.c ****  *
 619:Generated_Source\PSoC5/nRF24_FUNCS.c ****  * With this function the CE pin of the nRF24 radio will have a pulse of 15us,
 620:Generated_Source\PSoC5/nRF24_FUNCS.c ****  * this pulse trigger a transmission of the content of the TX FIFO.
 621:Generated_Source\PSoC5/nRF24_FUNCS.c ****  */
 622:Generated_Source\PSoC5/nRF24_FUNCS.c **** void nRF24_transmit_pulse(void)
 623:Generated_Source\PSoC5/nRF24_FUNCS.c **** {
 1627              		.loc 1 623 0
 1628              		.cfi_startproc
 1629              		@ args = 0, pretend = 0, frame = 0
 1630              		@ frame_needed = 1, uses_anonymous_args = 0
 1631 0000 80B5     		push	{r7, lr}
 1632              		.cfi_def_cfa_offset 8
 1633              		.cfi_offset 7, -8
 1634              		.cfi_offset 14, -4
 1635 0002 00AF     		add	r7, sp, #0
 1636              		.cfi_def_cfa_register 7
 624:Generated_Source\PSoC5/nRF24_FUNCS.c ****     nRF24_ce_write(GPIO_SET);
 1637              		.loc 1 624 0
 1638 0004 0120     		movs	r0, #1
 1639 0006 FFF7FEFF 		bl	nRF24_ce_write
 625:Generated_Source\PSoC5/nRF24_FUNCS.c ****     CyDelayUs(NRF_CE_PULSE_WIDTH_US);
 1640              		.loc 1 625 0
 1641 000a 0F20     		movs	r0, #15
 1642 000c FFF7FEFF 		bl	CyDelayUs
 626:Generated_Source\PSoC5/nRF24_FUNCS.c ****     nRF24_ce_write(GPIO_CLEAR);
 1643              		.loc 1 626 0
ARM GAS  C:\Users\rens_\AppData\Local\Temp\ccW8xaXP.s 			page 41


 1644 0010 0020     		movs	r0, #0
 1645 0012 FFF7FEFF 		bl	nRF24_ce_write
 627:Generated_Source\PSoC5/nRF24_FUNCS.c **** }
 1646              		.loc 1 627 0
 1647 0016 00BF     		nop
 1648 0018 80BD     		pop	{r7, pc}
 1649              		.cfi_endproc
 1650              	.LFE40:
 1651              		.size	nRF24_transmit_pulse, .-nRF24_transmit_pulse
 1652 001a 00BF     		.section	.text.nRF24_get_status,"ax",%progbits
 1653              		.align	2
 1654              		.global	nRF24_get_status
 1655              		.thumb
 1656              		.thumb_func
 1657              		.type	nRF24_get_status, %function
 1658              	nRF24_get_status:
 1659              	.LFB41:
 628:Generated_Source\PSoC5/nRF24_FUNCS.c **** 
 629:Generated_Source\PSoC5/nRF24_FUNCS.c **** /**
 630:Generated_Source\PSoC5/nRF24_FUNCS.c ****  * @brief Get the STATUS register of the nRF24.
 631:Generated_Source\PSoC5/nRF24_FUNCS.c ****  *
 632:Generated_Source\PSoC5/nRF24_FUNCS.c ****  * @return uint8_t: STATUS register of the nRF24.
 633:Generated_Source\PSoC5/nRF24_FUNCS.c ****  */
 634:Generated_Source\PSoC5/nRF24_FUNCS.c **** uint8_t nRF24_get_status(void)
 635:Generated_Source\PSoC5/nRF24_FUNCS.c **** {
 1660              		.loc 1 635 0
 1661              		.cfi_startproc
 1662              		@ args = 0, pretend = 0, frame = 0
 1663              		@ frame_needed = 1, uses_anonymous_args = 0
 1664 0000 80B5     		push	{r7, lr}
 1665              		.cfi_def_cfa_offset 8
 1666              		.cfi_offset 7, -8
 1667              		.cfi_offset 14, -4
 1668 0002 00AF     		add	r7, sp, #0
 1669              		.cfi_def_cfa_register 7
 636:Generated_Source\PSoC5/nRF24_FUNCS.c ****     return nRF24_nop_cmd();
 1670              		.loc 1 636 0
 1671 0004 FFF7FEFF 		bl	nRF24_nop_cmd
 1672 0008 0346     		mov	r3, r0
 637:Generated_Source\PSoC5/nRF24_FUNCS.c **** }
 1673              		.loc 1 637 0
 1674 000a 1846     		mov	r0, r3
 1675 000c 80BD     		pop	{r7, pc}
 1676              		.cfi_endproc
 1677              	.LFE41:
 1678              		.size	nRF24_get_status, .-nRF24_get_status
 1679 000e 00BF     		.section	.text.nRF24_get_fifo_status,"ax",%progbits
 1680              		.align	2
 1681              		.global	nRF24_get_fifo_status
 1682              		.thumb
 1683              		.thumb_func
 1684              		.type	nRF24_get_fifo_status, %function
 1685              	nRF24_get_fifo_status:
 1686              	.LFB42:
 638:Generated_Source\PSoC5/nRF24_FUNCS.c **** 
 639:Generated_Source\PSoC5/nRF24_FUNCS.c **** /**
 640:Generated_Source\PSoC5/nRF24_FUNCS.c ****  * @brief Get the STATUS register of the nRF24.
ARM GAS  C:\Users\rens_\AppData\Local\Temp\ccW8xaXP.s 			page 42


 641:Generated_Source\PSoC5/nRF24_FUNCS.c ****  *
 642:Generated_Source\PSoC5/nRF24_FUNCS.c ****  * @return uint8_t: STATUS register of the nRF24.
 643:Generated_Source\PSoC5/nRF24_FUNCS.c ****  */
 644:Generated_Source\PSoC5/nRF24_FUNCS.c **** uint8_t nRF24_get_fifo_status(void)
 645:Generated_Source\PSoC5/nRF24_FUNCS.c **** {
 1687              		.loc 1 645 0
 1688              		.cfi_startproc
 1689              		@ args = 0, pretend = 0, frame = 0
 1690              		@ frame_needed = 1, uses_anonymous_args = 0
 1691 0000 80B5     		push	{r7, lr}
 1692              		.cfi_def_cfa_offset 8
 1693              		.cfi_offset 7, -8
 1694              		.cfi_offset 14, -4
 1695 0002 00AF     		add	r7, sp, #0
 1696              		.cfi_def_cfa_register 7
 646:Generated_Source\PSoC5/nRF24_FUNCS.c ****     return nRF24_read_register(NRF_REG_FIFO_STATUS);
 1697              		.loc 1 646 0
 1698 0004 1720     		movs	r0, #23
 1699 0006 FFF7FEFF 		bl	nRF24_read_register
 1700 000a 0346     		mov	r3, r0
 647:Generated_Source\PSoC5/nRF24_FUNCS.c **** }
 1701              		.loc 1 647 0
 1702 000c 1846     		mov	r0, r3
 1703 000e 80BD     		pop	{r7, pc}
 1704              		.cfi_endproc
 1705              	.LFE42:
 1706              		.size	nRF24_get_fifo_status, .-nRF24_get_fifo_status
 1707              		.section	.text.nRF24_get_retransmissions_count,"ax",%progbits
 1708              		.align	2
 1709              		.global	nRF24_get_retransmissions_count
 1710              		.thumb
 1711              		.thumb_func
 1712              		.type	nRF24_get_retransmissions_count, %function
 1713              	nRF24_get_retransmissions_count:
 1714              	.LFB43:
 648:Generated_Source\PSoC5/nRF24_FUNCS.c **** 
 649:Generated_Source\PSoC5/nRF24_FUNCS.c **** /**
 650:Generated_Source\PSoC5/nRF24_FUNCS.c ****  * @brief Get the number of retransmissions.
 651:Generated_Source\PSoC5/nRF24_FUNCS.c ****  *
 652:Generated_Source\PSoC5/nRF24_FUNCS.c ****  * @return uint8_t: Retransmissions count.
 653:Generated_Source\PSoC5/nRF24_FUNCS.c ****  */
 654:Generated_Source\PSoC5/nRF24_FUNCS.c **** uint8_t nRF24_get_retransmissions_count(void)
 655:Generated_Source\PSoC5/nRF24_FUNCS.c **** {
 1715              		.loc 1 655 0
 1716              		.cfi_startproc
 1717              		@ args = 0, pretend = 0, frame = 8
 1718              		@ frame_needed = 1, uses_anonymous_args = 0
 1719 0000 80B5     		push	{r7, lr}
 1720              		.cfi_def_cfa_offset 8
 1721              		.cfi_offset 7, -8
 1722              		.cfi_offset 14, -4
 1723 0002 82B0     		sub	sp, sp, #8
 1724              		.cfi_def_cfa_offset 16
 1725 0004 00AF     		add	r7, sp, #0
 1726              		.cfi_def_cfa_register 7
 656:Generated_Source\PSoC5/nRF24_FUNCS.c ****     uint8_t count = nRF24_read_register(NRF_REG_OBSERVE_TX);
 1727              		.loc 1 656 0
ARM GAS  C:\Users\rens_\AppData\Local\Temp\ccW8xaXP.s 			page 43


 1728 0006 0820     		movs	r0, #8
 1729 0008 FFF7FEFF 		bl	nRF24_read_register
 1730 000c 0346     		mov	r3, r0
 1731 000e FB71     		strb	r3, [r7, #7]
 657:Generated_Source\PSoC5/nRF24_FUNCS.c ****     return count & NRF_OBSERVE_TX_ARC_CNT_MASK;
 1732              		.loc 1 657 0
 1733 0010 FB79     		ldrb	r3, [r7, #7]
 1734 0012 03F00F03 		and	r3, r3, #15
 1735 0016 DBB2     		uxtb	r3, r3
 658:Generated_Source\PSoC5/nRF24_FUNCS.c **** }
 1736              		.loc 1 658 0
 1737 0018 1846     		mov	r0, r3
 1738 001a 0837     		adds	r7, r7, #8
 1739              		.cfi_def_cfa_offset 8
 1740 001c BD46     		mov	sp, r7
 1741              		.cfi_def_cfa_register 13
 1742              		@ sp needed
 1743 001e 80BD     		pop	{r7, pc}
 1744              		.cfi_endproc
 1745              	.LFE43:
 1746              		.size	nRF24_get_retransmissions_count, .-nRF24_get_retransmissions_count
 1747              		.section	.text.nRF24_get_lost_packets_count,"ax",%progbits
 1748              		.align	2
 1749              		.global	nRF24_get_lost_packets_count
 1750              		.thumb
 1751              		.thumb_func
 1752              		.type	nRF24_get_lost_packets_count, %function
 1753              	nRF24_get_lost_packets_count:
 1754              	.LFB44:
 659:Generated_Source\PSoC5/nRF24_FUNCS.c **** 
 660:Generated_Source\PSoC5/nRF24_FUNCS.c **** /**
 661:Generated_Source\PSoC5/nRF24_FUNCS.c ****  * @brief Get the number of lost packets.
 662:Generated_Source\PSoC5/nRF24_FUNCS.c ****  *
 663:Generated_Source\PSoC5/nRF24_FUNCS.c ****  * @return uint8_t: Lost packets.
 664:Generated_Source\PSoC5/nRF24_FUNCS.c ****  */
 665:Generated_Source\PSoC5/nRF24_FUNCS.c **** uint8_t nRF24_get_lost_packets_count(void)
 666:Generated_Source\PSoC5/nRF24_FUNCS.c **** {
 1755              		.loc 1 666 0
 1756              		.cfi_startproc
 1757              		@ args = 0, pretend = 0, frame = 8
 1758              		@ frame_needed = 1, uses_anonymous_args = 0
 1759 0000 80B5     		push	{r7, lr}
 1760              		.cfi_def_cfa_offset 8
 1761              		.cfi_offset 7, -8
 1762              		.cfi_offset 14, -4
 1763 0002 82B0     		sub	sp, sp, #8
 1764              		.cfi_def_cfa_offset 16
 1765 0004 00AF     		add	r7, sp, #0
 1766              		.cfi_def_cfa_register 7
 667:Generated_Source\PSoC5/nRF24_FUNCS.c ****     uint8_t lostPackets = nRF24_read_register(NRF_REG_OBSERVE_TX);
 1767              		.loc 1 667 0
 1768 0006 0820     		movs	r0, #8
 1769 0008 FFF7FEFF 		bl	nRF24_read_register
 1770 000c 0346     		mov	r3, r0
 1771 000e FB71     		strb	r3, [r7, #7]
 668:Generated_Source\PSoC5/nRF24_FUNCS.c ****     lostPackets = lostPackets & NRF_OBSERVE_TX_PLOS_CNT_MASK;
 1772              		.loc 1 668 0
ARM GAS  C:\Users\rens_\AppData\Local\Temp\ccW8xaXP.s 			page 44


 1773 0010 FB79     		ldrb	r3, [r7, #7]
 1774 0012 23F00F03 		bic	r3, r3, #15
 1775 0016 FB71     		strb	r3, [r7, #7]
 669:Generated_Source\PSoC5/nRF24_FUNCS.c ****     return lostPackets >> NRF_OBSERVE_TX_BIT_PLOS_CNT;
 1776              		.loc 1 669 0
 1777 0018 FB79     		ldrb	r3, [r7, #7]	@ zero_extendqisi2
 1778 001a 1B09     		lsrs	r3, r3, #4
 1779 001c DBB2     		uxtb	r3, r3
 670:Generated_Source\PSoC5/nRF24_FUNCS.c **** }
 1780              		.loc 1 670 0
 1781 001e 1846     		mov	r0, r3
 1782 0020 0837     		adds	r7, r7, #8
 1783              		.cfi_def_cfa_offset 8
 1784 0022 BD46     		mov	sp, r7
 1785              		.cfi_def_cfa_register 13
 1786              		@ sp needed
 1787 0024 80BD     		pop	{r7, pc}
 1788              		.cfi_endproc
 1789              	.LFE44:
 1790              		.size	nRF24_get_lost_packets_count, .-nRF24_get_lost_packets_count
 1791 0026 00BF     		.section	.text.nRF24_put_in_tx_fifo,"ax",%progbits
 1792              		.align	2
 1793              		.global	nRF24_put_in_tx_fifo
 1794              		.thumb
 1795              		.thumb_func
 1796              		.type	nRF24_put_in_tx_fifo, %function
 1797              	nRF24_put_in_tx_fifo:
 1798              	.LFB45:
 671:Generated_Source\PSoC5/nRF24_FUNCS.c **** 
 672:Generated_Source\PSoC5/nRF24_FUNCS.c **** /**
 673:Generated_Source\PSoC5/nRF24_FUNCS.c ****  * Put data into the TX FIFO wihout sending it.
 674:Generated_Source\PSoC5/nRF24_FUNCS.c ****  *
 675:Generated_Source\PSoC5/nRF24_FUNCS.c ****  * @param const uint8_t* data:
 676:Generated_Source\PSoC5/nRF24_FUNCS.c ****  * @param const size_t size:
 677:Generated_Source\PSoC5/nRF24_FUNCS.c ****  */
 678:Generated_Source\PSoC5/nRF24_FUNCS.c **** void nRF24_put_in_tx_fifo(const uint8_t* data, size_t size)
 679:Generated_Source\PSoC5/nRF24_FUNCS.c **** {
 1799              		.loc 1 679 0
 1800              		.cfi_startproc
 1801              		@ args = 0, pretend = 0, frame = 8
 1802              		@ frame_needed = 1, uses_anonymous_args = 0
 1803 0000 80B5     		push	{r7, lr}
 1804              		.cfi_def_cfa_offset 8
 1805              		.cfi_offset 7, -8
 1806              		.cfi_offset 14, -4
 1807 0002 82B0     		sub	sp, sp, #8
 1808              		.cfi_def_cfa_offset 16
 1809 0004 00AF     		add	r7, sp, #0
 1810              		.cfi_def_cfa_register 7
 1811 0006 7860     		str	r0, [r7, #4]
 1812 0008 3960     		str	r1, [r7]
 680:Generated_Source\PSoC5/nRF24_FUNCS.c ****     if (NULL == data) {
 1813              		.loc 1 680 0
 1814 000a 7B68     		ldr	r3, [r7, #4]
 1815 000c 002B     		cmp	r3, #0
 1816 000e 09D0     		beq	.L101
 681:Generated_Source\PSoC5/nRF24_FUNCS.c ****         return;
ARM GAS  C:\Users\rens_\AppData\Local\Temp\ccW8xaXP.s 			page 45


 682:Generated_Source\PSoC5/nRF24_FUNCS.c ****     }
 683:Generated_Source\PSoC5/nRF24_FUNCS.c **** 
 684:Generated_Source\PSoC5/nRF24_FUNCS.c ****     if (NRF_PAYLOAD_SIZE_MAX < size) {
 1817              		.loc 1 684 0
 1818 0010 3B68     		ldr	r3, [r7]
 1819 0012 202B     		cmp	r3, #32
 1820 0014 01D9     		bls	.L100
 685:Generated_Source\PSoC5/nRF24_FUNCS.c ****         size = NRF_PAYLOAD_SIZE_MAX;
 1821              		.loc 1 685 0
 1822 0016 2023     		movs	r3, #32
 1823 0018 3B60     		str	r3, [r7]
 1824              	.L100:
 686:Generated_Source\PSoC5/nRF24_FUNCS.c ****     }
 687:Generated_Source\PSoC5/nRF24_FUNCS.c **** 
 688:Generated_Source\PSoC5/nRF24_FUNCS.c ****     nRF24_write_tx_payload_cmd(data, size);
 1825              		.loc 1 688 0
 1826 001a 3968     		ldr	r1, [r7]
 1827 001c 7868     		ldr	r0, [r7, #4]
 1828 001e FFF7FEFF 		bl	nRF24_write_tx_payload_cmd
 1829 0022 00E0     		b	.L97
 1830              	.L101:
 681:Generated_Source\PSoC5/nRF24_FUNCS.c ****     }
 1831              		.loc 1 681 0
 1832 0024 00BF     		nop
 1833              	.L97:
 689:Generated_Source\PSoC5/nRF24_FUNCS.c **** }
 1834              		.loc 1 689 0
 1835 0026 0837     		adds	r7, r7, #8
 1836              		.cfi_def_cfa_offset 8
 1837 0028 BD46     		mov	sp, r7
 1838              		.cfi_def_cfa_register 13
 1839              		@ sp needed
 1840 002a 80BD     		pop	{r7, pc}
 1841              		.cfi_endproc
 1842              	.LFE45:
 1843              		.size	nRF24_put_in_tx_fifo, .-nRF24_put_in_tx_fifo
 1844              		.section	.text.nRF24_transmit,"ax",%progbits
 1845              		.align	2
 1846              		.global	nRF24_transmit
 1847              		.thumb
 1848              		.thumb_func
 1849              		.type	nRF24_transmit, %function
 1850              	nRF24_transmit:
 1851              	.LFB46:
 690:Generated_Source\PSoC5/nRF24_FUNCS.c **** 
 691:Generated_Source\PSoC5/nRF24_FUNCS.c **** /**
 692:Generated_Source\PSoC5/nRF24_FUNCS.c ****  * Put data in TX FIFO and transmit it.
 693:Generated_Source\PSoC5/nRF24_FUNCS.c ****  *
 694:Generated_Source\PSoC5/nRF24_FUNCS.c ****  * @param const uint8_t* data:
 695:Generated_Source\PSoC5/nRF24_FUNCS.c ****  * @param const size_t size:
 696:Generated_Source\PSoC5/nRF24_FUNCS.c ****  */
 697:Generated_Source\PSoC5/nRF24_FUNCS.c **** void nRF24_transmit(const uint8_t* data, size_t size)
 698:Generated_Source\PSoC5/nRF24_FUNCS.c **** {
 1852              		.loc 1 698 0
 1853              		.cfi_startproc
 1854              		@ args = 0, pretend = 0, frame = 8
 1855              		@ frame_needed = 1, uses_anonymous_args = 0
ARM GAS  C:\Users\rens_\AppData\Local\Temp\ccW8xaXP.s 			page 46


 1856 0000 80B5     		push	{r7, lr}
 1857              		.cfi_def_cfa_offset 8
 1858              		.cfi_offset 7, -8
 1859              		.cfi_offset 14, -4
 1860 0002 82B0     		sub	sp, sp, #8
 1861              		.cfi_def_cfa_offset 16
 1862 0004 00AF     		add	r7, sp, #0
 1863              		.cfi_def_cfa_register 7
 1864 0006 7860     		str	r0, [r7, #4]
 1865 0008 3960     		str	r1, [r7]
 699:Generated_Source\PSoC5/nRF24_FUNCS.c ****     if (NULL == data) {
 1866              		.loc 1 699 0
 1867 000a 7B68     		ldr	r3, [r7, #4]
 1868 000c 002B     		cmp	r3, #0
 1869 000e 0BD0     		beq	.L106
 700:Generated_Source\PSoC5/nRF24_FUNCS.c ****         return;
 701:Generated_Source\PSoC5/nRF24_FUNCS.c ****     }
 702:Generated_Source\PSoC5/nRF24_FUNCS.c **** 
 703:Generated_Source\PSoC5/nRF24_FUNCS.c ****     if (NRF_PAYLOAD_SIZE_MAX < size) {
 1870              		.loc 1 703 0
 1871 0010 3B68     		ldr	r3, [r7]
 1872 0012 202B     		cmp	r3, #32
 1873 0014 01D9     		bls	.L105
 704:Generated_Source\PSoC5/nRF24_FUNCS.c ****         size = NRF_PAYLOAD_SIZE_MAX;
 1874              		.loc 1 704 0
 1875 0016 2023     		movs	r3, #32
 1876 0018 3B60     		str	r3, [r7]
 1877              	.L105:
 705:Generated_Source\PSoC5/nRF24_FUNCS.c ****     }
 706:Generated_Source\PSoC5/nRF24_FUNCS.c **** 
 707:Generated_Source\PSoC5/nRF24_FUNCS.c ****     nRF24_put_in_tx_fifo(data, size);
 1878              		.loc 1 707 0
 1879 001a 3968     		ldr	r1, [r7]
 1880 001c 7868     		ldr	r0, [r7, #4]
 1881 001e FFF7FEFF 		bl	nRF24_put_in_tx_fifo
 708:Generated_Source\PSoC5/nRF24_FUNCS.c ****     nRF24_transmit_pulse();
 1882              		.loc 1 708 0
 1883 0022 FFF7FEFF 		bl	nRF24_transmit_pulse
 1884 0026 00E0     		b	.L102
 1885              	.L106:
 700:Generated_Source\PSoC5/nRF24_FUNCS.c ****     }
 1886              		.loc 1 700 0
 1887 0028 00BF     		nop
 1888              	.L102:
 709:Generated_Source\PSoC5/nRF24_FUNCS.c **** }
 1889              		.loc 1 709 0
 1890 002a 0837     		adds	r7, r7, #8
 1891              		.cfi_def_cfa_offset 8
 1892 002c BD46     		mov	sp, r7
 1893              		.cfi_def_cfa_register 13
 1894              		@ sp needed
 1895 002e 80BD     		pop	{r7, pc}
 1896              		.cfi_endproc
 1897              	.LFE46:
 1898              		.size	nRF24_transmit, .-nRF24_transmit
 1899              		.section	.text.nRF24_is_data_ready,"ax",%progbits
 1900              		.align	2
ARM GAS  C:\Users\rens_\AppData\Local\Temp\ccW8xaXP.s 			page 47


 1901              		.global	nRF24_is_data_ready
 1902              		.thumb
 1903              		.thumb_func
 1904              		.type	nRF24_is_data_ready, %function
 1905              	nRF24_is_data_ready:
 1906              	.LFB47:
 710:Generated_Source\PSoC5/nRF24_FUNCS.c **** 
 711:Generated_Source\PSoC5/nRF24_FUNCS.c **** /**
 712:Generated_Source\PSoC5/nRF24_FUNCS.c ****  * @brief
 713:Generated_Source\PSoC5/nRF24_FUNCS.c ****  *
 714:Generated_Source\PSoC5/nRF24_FUNCS.c ****  * @return bool: True if there's data ready.
 715:Generated_Source\PSoC5/nRF24_FUNCS.c ****  */
 716:Generated_Source\PSoC5/nRF24_FUNCS.c **** bool nRF24_is_data_ready(void)
 717:Generated_Source\PSoC5/nRF24_FUNCS.c **** {
 1907              		.loc 1 717 0
 1908              		.cfi_startproc
 1909              		@ args = 0, pretend = 0, frame = 0
 1910              		@ frame_needed = 1, uses_anonymous_args = 0
 1911 0000 80B5     		push	{r7, lr}
 1912              		.cfi_def_cfa_offset 8
 1913              		.cfi_offset 7, -8
 1914              		.cfi_offset 14, -4
 1915 0002 00AF     		add	r7, sp, #0
 1916              		.cfi_def_cfa_register 7
 718:Generated_Source\PSoC5/nRF24_FUNCS.c ****     return NRF_STATUS_RX_DR_MASK & nRF24_get_status();
 1917              		.loc 1 718 0
 1918 0004 FFF7FEFF 		bl	nRF24_get_status
 1919 0008 0346     		mov	r3, r0
 1920 000a 03F04003 		and	r3, r3, #64
 1921 000e 002B     		cmp	r3, #0
 1922 0010 14BF     		ite	ne
 1923 0012 0123     		movne	r3, #1
 1924 0014 0023     		moveq	r3, #0
 1925 0016 DBB2     		uxtb	r3, r3
 719:Generated_Source\PSoC5/nRF24_FUNCS.c **** }
 1926              		.loc 1 719 0
 1927 0018 1846     		mov	r0, r3
 1928 001a 80BD     		pop	{r7, pc}
 1929              		.cfi_endproc
 1930              	.LFE47:
 1931              		.size	nRF24_is_data_ready, .-nRF24_is_data_ready
 1932              		.section	.text.nRF24_get_rx_payload,"ax",%progbits
 1933              		.align	2
 1934              		.global	nRF24_get_rx_payload
 1935              		.thumb
 1936              		.thumb_func
 1937              		.type	nRF24_get_rx_payload, %function
 1938              	nRF24_get_rx_payload:
 1939              	.LFB48:
 720:Generated_Source\PSoC5/nRF24_FUNCS.c **** 
 721:Generated_Source\PSoC5/nRF24_FUNCS.c **** /**
 722:Generated_Source\PSoC5/nRF24_FUNCS.c ****  * @brief
 723:Generated_Source\PSoC5/nRF24_FUNCS.c ****  *
 724:Generated_Source\PSoC5/nRF24_FUNCS.c ****  * @param uint8_t* data:
 725:Generated_Source\PSoC5/nRF24_FUNCS.c ****  * @param const size_t size:
 726:Generated_Source\PSoC5/nRF24_FUNCS.c ****  */
 727:Generated_Source\PSoC5/nRF24_FUNCS.c **** void nRF24_get_rx_payload(uint8_t *data, const size_t size)
ARM GAS  C:\Users\rens_\AppData\Local\Temp\ccW8xaXP.s 			page 48


 728:Generated_Source\PSoC5/nRF24_FUNCS.c **** {
 1940              		.loc 1 728 0
 1941              		.cfi_startproc
 1942              		@ args = 0, pretend = 0, frame = 8
 1943              		@ frame_needed = 1, uses_anonymous_args = 0
 1944 0000 80B5     		push	{r7, lr}
 1945              		.cfi_def_cfa_offset 8
 1946              		.cfi_offset 7, -8
 1947              		.cfi_offset 14, -4
 1948 0002 82B0     		sub	sp, sp, #8
 1949              		.cfi_def_cfa_offset 16
 1950 0004 00AF     		add	r7, sp, #0
 1951              		.cfi_def_cfa_register 7
 1952 0006 7860     		str	r0, [r7, #4]
 1953 0008 3960     		str	r1, [r7]
 729:Generated_Source\PSoC5/nRF24_FUNCS.c ****     if (NULL == data) {
 1954              		.loc 1 729 0
 1955 000a 7B68     		ldr	r3, [r7, #4]
 1956 000c 002B     		cmp	r3, #0
 1957 000e 0AD0     		beq	.L112
 730:Generated_Source\PSoC5/nRF24_FUNCS.c ****         return;
 731:Generated_Source\PSoC5/nRF24_FUNCS.c ****     }
 732:Generated_Source\PSoC5/nRF24_FUNCS.c **** 
 733:Generated_Source\PSoC5/nRF24_FUNCS.c ****     nRF24_ce_write(GPIO_CLEAR);
 1958              		.loc 1 733 0
 1959 0010 0020     		movs	r0, #0
 1960 0012 FFF7FEFF 		bl	nRF24_ce_write
 734:Generated_Source\PSoC5/nRF24_FUNCS.c ****     nRF24_read_rx_payload_cmd(data, size);
 1961              		.loc 1 734 0
 1962 0016 3968     		ldr	r1, [r7]
 1963 0018 7868     		ldr	r0, [r7, #4]
 1964 001a FFF7FEFF 		bl	nRF24_read_rx_payload_cmd
 735:Generated_Source\PSoC5/nRF24_FUNCS.c ****     nRF24_ce_write(GPIO_SET);
 1965              		.loc 1 735 0
 1966 001e 0120     		movs	r0, #1
 1967 0020 FFF7FEFF 		bl	nRF24_ce_write
 1968 0024 00E0     		b	.L109
 1969              	.L112:
 730:Generated_Source\PSoC5/nRF24_FUNCS.c ****         return;
 1970              		.loc 1 730 0
 1971 0026 00BF     		nop
 1972              	.L109:
 736:Generated_Source\PSoC5/nRF24_FUNCS.c **** }
 1973              		.loc 1 736 0
 1974 0028 0837     		adds	r7, r7, #8
 1975              		.cfi_def_cfa_offset 8
 1976 002a BD46     		mov	sp, r7
 1977              		.cfi_def_cfa_register 13
 1978              		@ sp needed
 1979 002c 80BD     		pop	{r7, pc}
 1980              		.cfi_endproc
 1981              	.LFE48:
 1982              		.size	nRF24_get_rx_payload, .-nRF24_get_rx_payload
 1983 002e 00BF     		.section	.text.nRF24_tx_transmit_no_ack,"ax",%progbits
 1984              		.align	2
 1985              		.global	nRF24_tx_transmit_no_ack
 1986              		.thumb
ARM GAS  C:\Users\rens_\AppData\Local\Temp\ccW8xaXP.s 			page 49


 1987              		.thumb_func
 1988              		.type	nRF24_tx_transmit_no_ack, %function
 1989              	nRF24_tx_transmit_no_ack:
 1990              	.LFB49:
 737:Generated_Source\PSoC5/nRF24_FUNCS.c **** 
 738:Generated_Source\PSoC5/nRF24_FUNCS.c **** /**
 739:Generated_Source\PSoC5/nRF24_FUNCS.c ****  * @brief
 740:Generated_Source\PSoC5/nRF24_FUNCS.c ****  *
 741:Generated_Source\PSoC5/nRF24_FUNCS.c ****  * @param const uint8_t* data:
 742:Generated_Source\PSoC5/nRF24_FUNCS.c ****  * @param size_t size:
 743:Generated_Source\PSoC5/nRF24_FUNCS.c ****  */
 744:Generated_Source\PSoC5/nRF24_FUNCS.c **** void nRF24_tx_transmit_no_ack(const uint8_t *data, size_t size)
 745:Generated_Source\PSoC5/nRF24_FUNCS.c **** {
 1991              		.loc 1 745 0
 1992              		.cfi_startproc
 1993              		@ args = 0, pretend = 0, frame = 8
 1994              		@ frame_needed = 1, uses_anonymous_args = 0
 1995 0000 80B5     		push	{r7, lr}
 1996              		.cfi_def_cfa_offset 8
 1997              		.cfi_offset 7, -8
 1998              		.cfi_offset 14, -4
 1999 0002 82B0     		sub	sp, sp, #8
 2000              		.cfi_def_cfa_offset 16
 2001 0004 00AF     		add	r7, sp, #0
 2002              		.cfi_def_cfa_register 7
 2003 0006 7860     		str	r0, [r7, #4]
 2004 0008 3960     		str	r1, [r7]
 746:Generated_Source\PSoC5/nRF24_FUNCS.c ****     if (NULL == data) {
 2005              		.loc 1 746 0
 2006 000a 7B68     		ldr	r3, [r7, #4]
 2007 000c 002B     		cmp	r3, #0
 2008 000e 09D0     		beq	.L117
 747:Generated_Source\PSoC5/nRF24_FUNCS.c ****         return;
 748:Generated_Source\PSoC5/nRF24_FUNCS.c ****     }
 749:Generated_Source\PSoC5/nRF24_FUNCS.c **** 
 750:Generated_Source\PSoC5/nRF24_FUNCS.c ****     if (NRF_PAYLOAD_SIZE_MAX < size) {
 2009              		.loc 1 750 0
 2010 0010 3B68     		ldr	r3, [r7]
 2011 0012 202B     		cmp	r3, #32
 2012 0014 08D8     		bhi	.L118
 751:Generated_Source\PSoC5/nRF24_FUNCS.c ****         return;
 752:Generated_Source\PSoC5/nRF24_FUNCS.c ****     }
 753:Generated_Source\PSoC5/nRF24_FUNCS.c **** 
 754:Generated_Source\PSoC5/nRF24_FUNCS.c ****     nRF24_no_ack_payload_cmd(data, size);
 2013              		.loc 1 754 0
 2014 0016 3968     		ldr	r1, [r7]
 2015 0018 7868     		ldr	r0, [r7, #4]
 2016 001a FFF7FEFF 		bl	nRF24_no_ack_payload_cmd
 755:Generated_Source\PSoC5/nRF24_FUNCS.c ****     nRF24_transmit_pulse();
 2017              		.loc 1 755 0
 2018 001e FFF7FEFF 		bl	nRF24_transmit_pulse
 2019 0022 02E0     		b	.L113
 2020              	.L117:
 747:Generated_Source\PSoC5/nRF24_FUNCS.c ****         return;
 2021              		.loc 1 747 0
 2022 0024 00BF     		nop
 2023 0026 00E0     		b	.L113
ARM GAS  C:\Users\rens_\AppData\Local\Temp\ccW8xaXP.s 			page 50


 2024              	.L118:
 751:Generated_Source\PSoC5/nRF24_FUNCS.c ****         return;
 2025              		.loc 1 751 0
 2026 0028 00BF     		nop
 2027              	.L113:
 756:Generated_Source\PSoC5/nRF24_FUNCS.c **** }
 2028              		.loc 1 756 0
 2029 002a 0837     		adds	r7, r7, #8
 2030              		.cfi_def_cfa_offset 8
 2031 002c BD46     		mov	sp, r7
 2032              		.cfi_def_cfa_register 13
 2033              		@ sp needed
 2034 002e 80BD     		pop	{r7, pc}
 2035              		.cfi_endproc
 2036              	.LFE49:
 2037              		.size	nRF24_tx_transmit_no_ack, .-nRF24_tx_transmit_no_ack
 2038              		.section	.text.nRF24_rx_write_payload,"ax",%progbits
 2039              		.align	2
 2040              		.global	nRF24_rx_write_payload
 2041              		.thumb
 2042              		.thumb_func
 2043              		.type	nRF24_rx_write_payload, %function
 2044              	nRF24_rx_write_payload:
 2045              	.LFB50:
 757:Generated_Source\PSoC5/nRF24_FUNCS.c **** 
 758:Generated_Source\PSoC5/nRF24_FUNCS.c **** /**
 759:Generated_Source\PSoC5/nRF24_FUNCS.c ****  * @brief
 760:Generated_Source\PSoC5/nRF24_FUNCS.c ****  *
 761:Generated_Source\PSoC5/nRF24_FUNCS.c ****  * @param const nrf_pipe pipe:
 762:Generated_Source\PSoC5/nRF24_FUNCS.c ****  * @param const uint8_t* data:
 763:Generated_Source\PSoC5/nRF24_FUNCS.c ****  * @param size_t size:
 764:Generated_Source\PSoC5/nRF24_FUNCS.c ****  */
 765:Generated_Source\PSoC5/nRF24_FUNCS.c **** void nRF24_rx_write_payload(const nrf_pipe pipe,
 766:Generated_Source\PSoC5/nRF24_FUNCS.c ****                                         const uint8_t *data, size_t size)
 767:Generated_Source\PSoC5/nRF24_FUNCS.c **** {
 2046              		.loc 1 767 0
 2047              		.cfi_startproc
 2048              		@ args = 0, pretend = 0, frame = 16
 2049              		@ frame_needed = 1, uses_anonymous_args = 0
 2050 0000 80B5     		push	{r7, lr}
 2051              		.cfi_def_cfa_offset 8
 2052              		.cfi_offset 7, -8
 2053              		.cfi_offset 14, -4
 2054 0002 84B0     		sub	sp, sp, #16
 2055              		.cfi_def_cfa_offset 24
 2056 0004 00AF     		add	r7, sp, #0
 2057              		.cfi_def_cfa_register 7
 2058 0006 0346     		mov	r3, r0
 2059 0008 B960     		str	r1, [r7, #8]
 2060 000a 7A60     		str	r2, [r7, #4]
 2061 000c FB73     		strb	r3, [r7, #15]
 768:Generated_Source\PSoC5/nRF24_FUNCS.c ****     if (NULL == data) {
 2062              		.loc 1 768 0
 2063 000e BB68     		ldr	r3, [r7, #8]
 2064 0010 002B     		cmp	r3, #0
 2065 0012 0BD0     		beq	.L123
 769:Generated_Source\PSoC5/nRF24_FUNCS.c ****         return;
ARM GAS  C:\Users\rens_\AppData\Local\Temp\ccW8xaXP.s 			page 51


 770:Generated_Source\PSoC5/nRF24_FUNCS.c ****     }
 771:Generated_Source\PSoC5/nRF24_FUNCS.c **** 
 772:Generated_Source\PSoC5/nRF24_FUNCS.c ****     if (NRF_PAYLOAD_SIZE_MAX < size) {
 2066              		.loc 1 772 0
 2067 0014 7B68     		ldr	r3, [r7, #4]
 2068 0016 202B     		cmp	r3, #32
 2069 0018 01D9     		bls	.L122
 773:Generated_Source\PSoC5/nRF24_FUNCS.c ****         size = NRF_PAYLOAD_SIZE_MAX;
 2070              		.loc 1 773 0
 2071 001a 2023     		movs	r3, #32
 2072 001c 7B60     		str	r3, [r7, #4]
 2073              	.L122:
 774:Generated_Source\PSoC5/nRF24_FUNCS.c ****     }
 775:Generated_Source\PSoC5/nRF24_FUNCS.c **** 
 776:Generated_Source\PSoC5/nRF24_FUNCS.c ****     nRF24_write_ack_payload_cmd(pipe, data, size);
 2074              		.loc 1 776 0
 2075 001e FB7B     		ldrb	r3, [r7, #15]	@ zero_extendqisi2
 2076 0020 7A68     		ldr	r2, [r7, #4]
 2077 0022 B968     		ldr	r1, [r7, #8]
 2078 0024 1846     		mov	r0, r3
 2079 0026 FFF7FEFF 		bl	nRF24_write_ack_payload_cmd
 2080 002a 00E0     		b	.L119
 2081              	.L123:
 769:Generated_Source\PSoC5/nRF24_FUNCS.c ****     }
 2082              		.loc 1 769 0
 2083 002c 00BF     		nop
 2084              	.L119:
 777:Generated_Source\PSoC5/nRF24_FUNCS.c **** }
 2085              		.loc 1 777 0
 2086 002e 1037     		adds	r7, r7, #16
 2087              		.cfi_def_cfa_offset 8
 2088 0030 BD46     		mov	sp, r7
 2089              		.cfi_def_cfa_register 13
 2090              		@ sp needed
 2091 0032 80BD     		pop	{r7, pc}
 2092              		.cfi_endproc
 2093              	.LFE50:
 2094              		.size	nRF24_rx_write_payload, .-nRF24_rx_write_payload
 2095              		.section	.text.nRF24_get_data_pipe_with_payload,"ax",%progbits
 2096              		.align	2
 2097              		.global	nRF24_get_data_pipe_with_payload
 2098              		.thumb
 2099              		.thumb_func
 2100              		.type	nRF24_get_data_pipe_with_payload, %function
 2101              	nRF24_get_data_pipe_with_payload:
 2102              	.LFB51:
 778:Generated_Source\PSoC5/nRF24_FUNCS.c **** 
 779:Generated_Source\PSoC5/nRF24_FUNCS.c **** /**
 780:Generated_Source\PSoC5/nRF24_FUNCS.c ****  * Return the pipe number with data.
 781:Generated_Source\PSoC5/nRF24_FUNCS.c ****  *
 782:Generated_Source\PSoC5/nRF24_FUNCS.c ****  * @return uint8_t:
 783:Generated_Source\PSoC5/nRF24_FUNCS.c ****  */
 784:Generated_Source\PSoC5/nRF24_FUNCS.c **** uint8_t nRF24_get_data_pipe_with_payload(void)
 785:Generated_Source\PSoC5/nRF24_FUNCS.c **** {
 2103              		.loc 1 785 0
 2104              		.cfi_startproc
 2105              		@ args = 0, pretend = 0, frame = 8
ARM GAS  C:\Users\rens_\AppData\Local\Temp\ccW8xaXP.s 			page 52


 2106              		@ frame_needed = 1, uses_anonymous_args = 0
 2107 0000 80B5     		push	{r7, lr}
 2108              		.cfi_def_cfa_offset 8
 2109              		.cfi_offset 7, -8
 2110              		.cfi_offset 14, -4
 2111 0002 82B0     		sub	sp, sp, #8
 2112              		.cfi_def_cfa_offset 16
 2113 0004 00AF     		add	r7, sp, #0
 2114              		.cfi_def_cfa_register 7
 786:Generated_Source\PSoC5/nRF24_FUNCS.c ****     uint8_t pipe = nRF24_read_register(NRF_REG_STATUS);
 2115              		.loc 1 786 0
 2116 0006 0720     		movs	r0, #7
 2117 0008 FFF7FEFF 		bl	nRF24_read_register
 2118 000c 0346     		mov	r3, r0
 2119 000e FB71     		strb	r3, [r7, #7]
 787:Generated_Source\PSoC5/nRF24_FUNCS.c ****     return (pipe & NRF_STATUS_PIPES_MASK) >> NRF_STATUS_PIPES_SHIFT;
 2120              		.loc 1 787 0
 2121 0010 FB79     		ldrb	r3, [r7, #7]	@ zero_extendqisi2
 2122 0012 5B10     		asrs	r3, r3, #1
 2123 0014 DBB2     		uxtb	r3, r3
 2124 0016 03F00703 		and	r3, r3, #7
 2125 001a DBB2     		uxtb	r3, r3
 788:Generated_Source\PSoC5/nRF24_FUNCS.c **** }
 2126              		.loc 1 788 0
 2127 001c 1846     		mov	r0, r3
 2128 001e 0837     		adds	r7, r7, #8
 2129              		.cfi_def_cfa_offset 8
 2130 0020 BD46     		mov	sp, r7
 2131              		.cfi_def_cfa_register 13
 2132              		@ sp needed
 2133 0022 80BD     		pop	{r7, pc}
 2134              		.cfi_endproc
 2135              	.LFE51:
 2136              		.size	nRF24_get_data_pipe_with_payload, .-nRF24_get_data_pipe_with_payload
 2137              		.section	.text.nRF24_received_power_detector,"ax",%progbits
 2138              		.align	2
 2139              		.global	nRF24_received_power_detector
 2140              		.thumb
 2141              		.thumb_func
 2142              		.type	nRF24_received_power_detector, %function
 2143              	nRF24_received_power_detector:
 2144              	.LFB52:
 789:Generated_Source\PSoC5/nRF24_FUNCS.c **** 
 790:Generated_Source\PSoC5/nRF24_FUNCS.c **** /**
 791:Generated_Source\PSoC5/nRF24_FUNCS.c ****  * @brief
 792:Generated_Source\PSoC5/nRF24_FUNCS.c ****  *
 793:Generated_Source\PSoC5/nRF24_FUNCS.c ****  * @return uint8_t:
 794:Generated_Source\PSoC5/nRF24_FUNCS.c ****  */
 795:Generated_Source\PSoC5/nRF24_FUNCS.c **** uint8_t nRF24_received_power_detector(void)
 796:Generated_Source\PSoC5/nRF24_FUNCS.c **** {
 2145              		.loc 1 796 0
 2146              		.cfi_startproc
 2147              		@ args = 0, pretend = 0, frame = 0
 2148              		@ frame_needed = 1, uses_anonymous_args = 0
 2149 0000 80B5     		push	{r7, lr}
 2150              		.cfi_def_cfa_offset 8
 2151              		.cfi_offset 7, -8
ARM GAS  C:\Users\rens_\AppData\Local\Temp\ccW8xaXP.s 			page 53


 2152              		.cfi_offset 14, -4
 2153 0002 00AF     		add	r7, sp, #0
 2154              		.cfi_def_cfa_register 7
 797:Generated_Source\PSoC5/nRF24_FUNCS.c ****     return nRF24_read_bit(NRF_REG_RPD, NRF_RPD_BIT_RPD);
 2155              		.loc 1 797 0
 2156 0004 0021     		movs	r1, #0
 2157 0006 0920     		movs	r0, #9
 2158 0008 FFF7FEFF 		bl	nRF24_read_bit
 2159 000c 0346     		mov	r3, r0
 798:Generated_Source\PSoC5/nRF24_FUNCS.c **** }
 2160              		.loc 1 798 0
 2161 000e 1846     		mov	r0, r3
 2162 0010 80BD     		pop	{r7, pc}
 2163              		.cfi_endproc
 2164              	.LFE52:
 2165              		.size	nRF24_received_power_detector, .-nRF24_received_power_detector
 2166 0012 00BF     		.section	.text.nRF24_is_tx_fifo_full,"ax",%progbits
 2167              		.align	2
 2168              		.global	nRF24_is_tx_fifo_full
 2169              		.thumb
 2170              		.thumb_func
 2171              		.type	nRF24_is_tx_fifo_full, %function
 2172              	nRF24_is_tx_fifo_full:
 2173              	.LFB53:
 799:Generated_Source\PSoC5/nRF24_FUNCS.c **** 
 800:Generated_Source\PSoC5/nRF24_FUNCS.c **** /**
 801:Generated_Source\PSoC5/nRF24_FUNCS.c ****  * @return bool: true if the TX FIFO is full, false if it have available
 802:Generated_Source\PSoC5/nRF24_FUNCS.c ****  * locations.
 803:Generated_Source\PSoC5/nRF24_FUNCS.c ****  */
 804:Generated_Source\PSoC5/nRF24_FUNCS.c **** bool nRF24_is_tx_fifo_full(void)
 805:Generated_Source\PSoC5/nRF24_FUNCS.c **** {
 2174              		.loc 1 805 0
 2175              		.cfi_startproc
 2176              		@ args = 0, pretend = 0, frame = 0
 2177              		@ frame_needed = 1, uses_anonymous_args = 0
 2178 0000 80B5     		push	{r7, lr}
 2179              		.cfi_def_cfa_offset 8
 2180              		.cfi_offset 7, -8
 2181              		.cfi_offset 14, -4
 2182 0002 00AF     		add	r7, sp, #0
 2183              		.cfi_def_cfa_register 7
 806:Generated_Source\PSoC5/nRF24_FUNCS.c ****     return nRF24_read_bit(NRF_REG_FIFO_STATUS, NRF_FIFO_STATUS_BIT_TX_FULL);
 2184              		.loc 1 806 0
 2185 0004 0521     		movs	r1, #5
 2186 0006 1720     		movs	r0, #23
 2187 0008 FFF7FEFF 		bl	nRF24_read_bit
 2188 000c 0346     		mov	r3, r0
 807:Generated_Source\PSoC5/nRF24_FUNCS.c **** }
 2189              		.loc 1 807 0
 2190 000e 1846     		mov	r0, r3
 2191 0010 80BD     		pop	{r7, pc}
 2192              		.cfi_endproc
 2193              	.LFE53:
 2194              		.size	nRF24_is_tx_fifo_full, .-nRF24_is_tx_fifo_full
 2195 0012 00BF     		.section	.text.nRF24_is_rx_fifo_empty,"ax",%progbits
 2196              		.align	2
 2197              		.global	nRF24_is_rx_fifo_empty
ARM GAS  C:\Users\rens_\AppData\Local\Temp\ccW8xaXP.s 			page 54


 2198              		.thumb
 2199              		.thumb_func
 2200              		.type	nRF24_is_rx_fifo_empty, %function
 2201              	nRF24_is_rx_fifo_empty:
 2202              	.LFB54:
 808:Generated_Source\PSoC5/nRF24_FUNCS.c **** 
 809:Generated_Source\PSoC5/nRF24_FUNCS.c **** /**
 810:Generated_Source\PSoC5/nRF24_FUNCS.c ****  * @return bool: true if the RX FIFO es empty, false if any pipe have data.
 811:Generated_Source\PSoC5/nRF24_FUNCS.c ****  */
 812:Generated_Source\PSoC5/nRF24_FUNCS.c **** bool nRF24_is_rx_fifo_empty(void)
 813:Generated_Source\PSoC5/nRF24_FUNCS.c **** {
 2203              		.loc 1 813 0
 2204              		.cfi_startproc
 2205              		@ args = 0, pretend = 0, frame = 0
 2206              		@ frame_needed = 1, uses_anonymous_args = 0
 2207 0000 80B5     		push	{r7, lr}
 2208              		.cfi_def_cfa_offset 8
 2209              		.cfi_offset 7, -8
 2210              		.cfi_offset 14, -4
 2211 0002 00AF     		add	r7, sp, #0
 2212              		.cfi_def_cfa_register 7
 814:Generated_Source\PSoC5/nRF24_FUNCS.c ****     return nRF24_read_bit(NRF_REG_FIFO_STATUS, NRF_FIFO_STATUS_BIT_RX_EMPTY);
 2213              		.loc 1 814 0
 2214 0004 0021     		movs	r1, #0
 2215 0006 1720     		movs	r0, #23
 2216 0008 FFF7FEFF 		bl	nRF24_read_bit
 2217 000c 0346     		mov	r3, r0
 815:Generated_Source\PSoC5/nRF24_FUNCS.c **** }
 2218              		.loc 1 815 0
 2219 000e 1846     		mov	r0, r3
 2220 0010 80BD     		pop	{r7, pc}
 2221              		.cfi_endproc
 2222              	.LFE54:
 2223              		.size	nRF24_is_rx_fifo_empty, .-nRF24_is_rx_fifo_empty
 2224 0012 00BF     		.section	.text.nRF24_test_carrier,"ax",%progbits
 2225              		.align	2
 2226              		.global	nRF24_test_carrier
 2227              		.thumb
 2228              		.thumb_func
 2229              		.type	nRF24_test_carrier, %function
 2230              	nRF24_test_carrier:
 2231              	.LFB55:
 816:Generated_Source\PSoC5/nRF24_FUNCS.c **** 
 817:Generated_Source\PSoC5/nRF24_FUNCS.c **** /**
 818:Generated_Source\PSoC5/nRF24_FUNCS.c ****  * Received Power Detector triggers at received power levels above -64dBm that
 819:Generated_Source\PSoC5/nRF24_FUNCS.c ****  * are present in the RF channel you receive on. If the received power is less
 820:Generated_Source\PSoC5/nRF24_FUNCS.c ****  * than -64dBm, RDP = 0.
 821:Generated_Source\PSoC5/nRF24_FUNCS.c ****  * The RPD can be read out at any time while nRF24L01+ is in receive mode.
 822:Generated_Source\PSoC5/nRF24_FUNCS.c ****  */
 823:Generated_Source\PSoC5/nRF24_FUNCS.c **** bool nRF24_test_carrier(void)
 824:Generated_Source\PSoC5/nRF24_FUNCS.c **** {
 2232              		.loc 1 824 0
 2233              		.cfi_startproc
 2234              		@ args = 0, pretend = 0, frame = 0
 2235              		@ frame_needed = 1, uses_anonymous_args = 0
 2236 0000 80B5     		push	{r7, lr}
 2237              		.cfi_def_cfa_offset 8
ARM GAS  C:\Users\rens_\AppData\Local\Temp\ccW8xaXP.s 			page 55


 2238              		.cfi_offset 7, -8
 2239              		.cfi_offset 14, -4
 2240 0002 00AF     		add	r7, sp, #0
 2241              		.cfi_def_cfa_register 7
 825:Generated_Source\PSoC5/nRF24_FUNCS.c ****     return nRF24_read_bit(NRF_REG_RPD, NRF_RPD_BIT_RPD);
 2242              		.loc 1 825 0
 2243 0004 0021     		movs	r1, #0
 2244 0006 0920     		movs	r0, #9
 2245 0008 FFF7FEFF 		bl	nRF24_read_bit
 2246 000c 0346     		mov	r3, r0
 826:Generated_Source\PSoC5/nRF24_FUNCS.c **** }
 2247              		.loc 1 826 0
 2248 000e 1846     		mov	r0, r3
 2249 0010 80BD     		pop	{r7, pc}
 2250              		.cfi_endproc
 2251              	.LFE55:
 2252              		.size	nRF24_test_carrier, .-nRF24_test_carrier
 2253 0012 00BF     		.section	.text.nRF24_clear_all_irqs,"ax",%progbits
 2254              		.align	2
 2255              		.global	nRF24_clear_all_irqs
 2256              		.thumb
 2257              		.thumb_func
 2258              		.type	nRF24_clear_all_irqs, %function
 2259              	nRF24_clear_all_irqs:
 2260              	.LFB56:
 827:Generated_Source\PSoC5/nRF24_FUNCS.c **** 
 828:Generated_Source\PSoC5/nRF24_FUNCS.c **** /**
 829:Generated_Source\PSoC5/nRF24_FUNCS.c ****  * This function will write 1 to all the three IRQ "flag" bits on the
 830:Generated_Source\PSoC5/nRF24_FUNCS.c ****  * STATUS register.
 831:Generated_Source\PSoC5/nRF24_FUNCS.c ****  */
 832:Generated_Source\PSoC5/nRF24_FUNCS.c **** void nRF24_clear_all_irqs(void)
 833:Generated_Source\PSoC5/nRF24_FUNCS.c **** {
 2261              		.loc 1 833 0
 2262              		.cfi_startproc
 2263              		@ args = 0, pretend = 0, frame = 0
 2264              		@ frame_needed = 1, uses_anonymous_args = 0
 2265 0000 80B5     		push	{r7, lr}
 2266              		.cfi_def_cfa_offset 8
 2267              		.cfi_offset 7, -8
 2268              		.cfi_offset 14, -4
 2269 0002 00AF     		add	r7, sp, #0
 2270              		.cfi_def_cfa_register 7
 834:Generated_Source\PSoC5/nRF24_FUNCS.c ****     nRF24_write_register(NRF_REG_STATUS, NRF_ALL_IRQ_MASK);
 2271              		.loc 1 834 0
 2272 0004 7021     		movs	r1, #112
 2273 0006 0720     		movs	r0, #7
 2274 0008 FFF7FEFF 		bl	nRF24_write_register
 835:Generated_Source\PSoC5/nRF24_FUNCS.c **** }
 2275              		.loc 1 835 0
 2276 000c 00BF     		nop
 2277 000e 80BD     		pop	{r7, pc}
 2278              		.cfi_endproc
 2279              	.LFE56:
 2280              		.size	nRF24_clear_all_irqs, .-nRF24_clear_all_irqs
 2281              		.section	.text.nRF24_clear_irq_flag,"ax",%progbits
 2282              		.align	2
 2283              		.global	nRF24_clear_irq_flag
ARM GAS  C:\Users\rens_\AppData\Local\Temp\ccW8xaXP.s 			page 56


 2284              		.thumb
 2285              		.thumb_func
 2286              		.type	nRF24_clear_irq_flag, %function
 2287              	nRF24_clear_irq_flag:
 2288              	.LFB57:
 836:Generated_Source\PSoC5/nRF24_FUNCS.c **** 
 837:Generated_Source\PSoC5/nRF24_FUNCS.c **** /**
 838:Generated_Source\PSoC5/nRF24_FUNCS.c ****  * @brief Clears the specific IRQ flag.
 839:Generated_Source\PSoC5/nRF24_FUNCS.c ****  *
 840:Generated_Source\PSoC5/nRF24_FUNCS.c ****  * Clear the flag by writing 1 to the interrupt flag bit.
 841:Generated_Source\PSoC5/nRF24_FUNCS.c ****  *
 842:Generated_Source\PSoC5/nRF24_FUNCS.c ****  * @param nrf_irq irq_flag: Interrupt flag to clear.
 843:Generated_Source\PSoC5/nRF24_FUNCS.c ****  */
 844:Generated_Source\PSoC5/nRF24_FUNCS.c **** void nRF24_clear_irq_flag(const nrf_irq irq_flag)
 845:Generated_Source\PSoC5/nRF24_FUNCS.c **** {
 2289              		.loc 1 845 0
 2290              		.cfi_startproc
 2291              		@ args = 0, pretend = 0, frame = 8
 2292              		@ frame_needed = 1, uses_anonymous_args = 0
 2293 0000 80B5     		push	{r7, lr}
 2294              		.cfi_def_cfa_offset 8
 2295              		.cfi_offset 7, -8
 2296              		.cfi_offset 14, -4
 2297 0002 82B0     		sub	sp, sp, #8
 2298              		.cfi_def_cfa_offset 16
 2299 0004 00AF     		add	r7, sp, #0
 2300              		.cfi_def_cfa_register 7
 2301 0006 0346     		mov	r3, r0
 2302 0008 FB71     		strb	r3, [r7, #7]
 846:Generated_Source\PSoC5/nRF24_FUNCS.c ****     nRF24_write_register(NRF_REG_STATUS, (1 << irq_flag));
 2303              		.loc 1 846 0
 2304 000a FB79     		ldrb	r3, [r7, #7]	@ zero_extendqisi2
 2305 000c 0122     		movs	r2, #1
 2306 000e 02FA03F3 		lsl	r3, r2, r3
 2307 0012 DBB2     		uxtb	r3, r3
 2308 0014 1946     		mov	r1, r3
 2309 0016 0720     		movs	r0, #7
 2310 0018 FFF7FEFF 		bl	nRF24_write_register
 847:Generated_Source\PSoC5/nRF24_FUNCS.c **** }
 2311              		.loc 1 847 0
 2312 001c 00BF     		nop
 2313 001e 0837     		adds	r7, r7, #8
 2314              		.cfi_def_cfa_offset 8
 2315 0020 BD46     		mov	sp, r7
 2316              		.cfi_def_cfa_register 13
 2317              		@ sp needed
 2318 0022 80BD     		pop	{r7, pc}
 2319              		.cfi_endproc
 2320              	.LFE57:
 2321              		.size	nRF24_clear_irq_flag, .-nRF24_clear_irq_flag
 2322              		.section	.text.nRF24_get_irq_flag,"ax",%progbits
 2323              		.align	2
 2324              		.global	nRF24_get_irq_flag
 2325              		.thumb
 2326              		.thumb_func
 2327              		.type	nRF24_get_irq_flag, %function
 2328              	nRF24_get_irq_flag:
ARM GAS  C:\Users\rens_\AppData\Local\Temp\ccW8xaXP.s 			page 57


 2329              	.LFB58:
 848:Generated_Source\PSoC5/nRF24_FUNCS.c **** 
 849:Generated_Source\PSoC5/nRF24_FUNCS.c **** /**
 850:Generated_Source\PSoC5/nRF24_FUNCS.c ****  * This method is used to get if any of the IRQ "flag" bits on the STATUS
 851:Generated_Source\PSoC5/nRF24_FUNCS.c ****  * register is set to 1. This function returns 0 is none of the flag bits
 852:Generated_Source\PSoC5/nRF24_FUNCS.c ****  * is not set to 1.
 853:Generated_Source\PSoC5/nRF24_FUNCS.c ****  *
 854:Generated_Source\PSoC5/nRF24_FUNCS.c ****  * @return nrf_irq: Asserted bit of the interrupt flags.
 855:Generated_Source\PSoC5/nRF24_FUNCS.c ****  */
 856:Generated_Source\PSoC5/nRF24_FUNCS.c **** nrf_irq nRF24_get_irq_flag(void)
 857:Generated_Source\PSoC5/nRF24_FUNCS.c **** {
 2330              		.loc 1 857 0
 2331              		.cfi_startproc
 2332              		@ args = 0, pretend = 0, frame = 8
 2333              		@ frame_needed = 1, uses_anonymous_args = 0
 2334 0000 80B5     		push	{r7, lr}
 2335              		.cfi_def_cfa_offset 8
 2336              		.cfi_offset 7, -8
 2337              		.cfi_offset 14, -4
 2338 0002 82B0     		sub	sp, sp, #8
 2339              		.cfi_def_cfa_offset 16
 2340 0004 00AF     		add	r7, sp, #0
 2341              		.cfi_def_cfa_register 7
 858:Generated_Source\PSoC5/nRF24_FUNCS.c ****     nrf_irq irq = NRF_NONE_IRQ;
 2342              		.loc 1 858 0
 2343 0006 0023     		movs	r3, #0
 2344 0008 FB71     		strb	r3, [r7, #7]
 859:Generated_Source\PSoC5/nRF24_FUNCS.c **** 
 860:Generated_Source\PSoC5/nRF24_FUNCS.c ****     // Get the STATUS register
 861:Generated_Source\PSoC5/nRF24_FUNCS.c ****     uint8_t sts = nRF24_nop_cmd();
 2345              		.loc 1 861 0
 2346 000a FFF7FEFF 		bl	nRF24_nop_cmd
 2347 000e 0346     		mov	r3, r0
 2348 0010 BB71     		strb	r3, [r7, #6]
 862:Generated_Source\PSoC5/nRF24_FUNCS.c **** 
 863:Generated_Source\PSoC5/nRF24_FUNCS.c ****     // We only care if bits 4, 5 or 6 are set, so we mask the STATUS with 0x0111_0000
 864:Generated_Source\PSoC5/nRF24_FUNCS.c ****     switch (sts & NRF_ALL_IRQ_MASK) {
 2349              		.loc 1 864 0
 2350 0012 BB79     		ldrb	r3, [r7, #6]	@ zero_extendqisi2
 2351 0014 03F07003 		and	r3, r3, #112
 2352 0018 202B     		cmp	r3, #32
 2353 001a 07D0     		beq	.L138
 2354 001c 402B     		cmp	r3, #64
 2355 001e 02D0     		beq	.L139
 2356 0020 102B     		cmp	r3, #16
 2357 0022 06D0     		beq	.L140
 2358 0024 08E0     		b	.L143
 2359              	.L139:
 865:Generated_Source\PSoC5/nRF24_FUNCS.c ****     case NRF_STATUS_RX_DR_MASK:
 866:Generated_Source\PSoC5/nRF24_FUNCS.c ****         irq = NRF_RX_DR_IRQ;
 2360              		.loc 1 866 0
 2361 0026 0623     		movs	r3, #6
 2362 0028 FB71     		strb	r3, [r7, #7]
 867:Generated_Source\PSoC5/nRF24_FUNCS.c ****         break;
 2363              		.loc 1 867 0
 2364 002a 08E0     		b	.L141
 2365              	.L138:
ARM GAS  C:\Users\rens_\AppData\Local\Temp\ccW8xaXP.s 			page 58


 868:Generated_Source\PSoC5/nRF24_FUNCS.c ****     case NRF_STATUS_TX_DS_MASK:
 869:Generated_Source\PSoC5/nRF24_FUNCS.c ****         irq = NRF_TX_DS_IRQ;
 2366              		.loc 1 869 0
 2367 002c 0523     		movs	r3, #5
 2368 002e FB71     		strb	r3, [r7, #7]
 870:Generated_Source\PSoC5/nRF24_FUNCS.c ****         break;
 2369              		.loc 1 870 0
 2370 0030 05E0     		b	.L141
 2371              	.L140:
 871:Generated_Source\PSoC5/nRF24_FUNCS.c ****     case NRF_STATUS_MAX_RT_MASK:
 872:Generated_Source\PSoC5/nRF24_FUNCS.c ****         irq = NRF_MAX_RT_IRQ;
 2372              		.loc 1 872 0
 2373 0032 0423     		movs	r3, #4
 2374 0034 FB71     		strb	r3, [r7, #7]
 873:Generated_Source\PSoC5/nRF24_FUNCS.c ****         break;
 2375              		.loc 1 873 0
 2376 0036 02E0     		b	.L141
 2377              	.L143:
 874:Generated_Source\PSoC5/nRF24_FUNCS.c ****     default:
 875:Generated_Source\PSoC5/nRF24_FUNCS.c ****         irq = NRF_ALL_IRQ_MASK;
 2378              		.loc 1 875 0
 2379 0038 7023     		movs	r3, #112
 2380 003a FB71     		strb	r3, [r7, #7]
 876:Generated_Source\PSoC5/nRF24_FUNCS.c ****         break;
 2381              		.loc 1 876 0
 2382 003c 00BF     		nop
 2383              	.L141:
 877:Generated_Source\PSoC5/nRF24_FUNCS.c ****     }
 878:Generated_Source\PSoC5/nRF24_FUNCS.c **** 
 879:Generated_Source\PSoC5/nRF24_FUNCS.c ****     return irq;
 2384              		.loc 1 879 0
 2385 003e FB79     		ldrb	r3, [r7, #7]	@ zero_extendqisi2
 880:Generated_Source\PSoC5/nRF24_FUNCS.c **** }
 2386              		.loc 1 880 0
 2387 0040 1846     		mov	r0, r3
 2388 0042 0837     		adds	r7, r7, #8
 2389              		.cfi_def_cfa_offset 8
 2390 0044 BD46     		mov	sp, r7
 2391              		.cfi_def_cfa_register 13
 2392              		@ sp needed
 2393 0046 80BD     		pop	{r7, pc}
 2394              		.cfi_endproc
 2395              	.LFE58:
 2396              		.size	nRF24_get_irq_flag, .-nRF24_get_irq_flag
 2397              		.section	.text.nRF24_poll_interrupt,"ax",%progbits
 2398              		.align	2
 2399              		.global	nRF24_poll_interrupt
 2400              		.thumb
 2401              		.thumb_func
 2402              		.type	nRF24_poll_interrupt, %function
 2403              	nRF24_poll_interrupt:
 2404              	.LFB59:
 881:Generated_Source\PSoC5/nRF24_FUNCS.c **** 
 882:Generated_Source\PSoC5/nRF24_FUNCS.c **** void nRF24_poll_interrupt(void)
 883:Generated_Source\PSoC5/nRF24_FUNCS.c **** {
 2405              		.loc 1 883 0
 2406              		.cfi_startproc
ARM GAS  C:\Users\rens_\AppData\Local\Temp\ccW8xaXP.s 			page 59


 2407              		@ args = 0, pretend = 0, frame = 0
 2408              		@ frame_needed = 1, uses_anonymous_args = 0
 2409              		@ link register save eliminated.
 2410 0000 80B4     		push	{r7}
 2411              		.cfi_def_cfa_offset 4
 2412              		.cfi_offset 7, -4
 2413 0002 00AF     		add	r7, sp, #0
 2414              		.cfi_def_cfa_register 7
 884:Generated_Source\PSoC5/nRF24_FUNCS.c **** 
 885:Generated_Source\PSoC5/nRF24_FUNCS.c **** }
 2415              		.loc 1 885 0
 2416 0004 00BF     		nop
 2417 0006 BD46     		mov	sp, r7
 2418              		.cfi_def_cfa_register 13
 2419              		@ sp needed
 2420 0008 80BC     		pop	{r7}
 2421              		.cfi_restore 7
 2422              		.cfi_def_cfa_offset 0
 2423 000a 7047     		bx	lr
 2424              		.cfi_endproc
 2425              	.LFE59:
 2426              		.size	nRF24_poll_interrupt, .-nRF24_poll_interrupt
 2427              		.section	.text.nRF24_get_status_clear_irq,"ax",%progbits
 2428              		.align	2
 2429              		.global	nRF24_get_status_clear_irq
 2430              		.thumb
 2431              		.thumb_func
 2432              		.type	nRF24_get_status_clear_irq, %function
 2433              	nRF24_get_status_clear_irq:
 2434              	.LFB60:
 886:Generated_Source\PSoC5/nRF24_FUNCS.c **** 
 887:Generated_Source\PSoC5/nRF24_FUNCS.c **** uint8_t nRF24_get_status_clear_irq(void)
 888:Generated_Source\PSoC5/nRF24_FUNCS.c **** {
 2435              		.loc 1 888 0
 2436              		.cfi_startproc
 2437              		@ args = 0, pretend = 0, frame = 8
 2438              		@ frame_needed = 1, uses_anonymous_args = 0
 2439 0000 80B5     		push	{r7, lr}
 2440              		.cfi_def_cfa_offset 8
 2441              		.cfi_offset 7, -8
 2442              		.cfi_offset 14, -4
 2443 0002 82B0     		sub	sp, sp, #8
 2444              		.cfi_def_cfa_offset 16
 2445 0004 00AF     		add	r7, sp, #0
 2446              		.cfi_def_cfa_register 7
 889:Generated_Source\PSoC5/nRF24_FUNCS.c ****     uint8_t sts = nRF24_nop_cmd();
 2447              		.loc 1 889 0
 2448 0006 FFF7FEFF 		bl	nRF24_nop_cmd
 2449 000a 0346     		mov	r3, r0
 2450 000c FB71     		strb	r3, [r7, #7]
 890:Generated_Source\PSoC5/nRF24_FUNCS.c ****     nRF24_write_register(NRF_REG_STATUS, NRF_ALL_IRQ_MASK);
 2451              		.loc 1 890 0
 2452 000e 7021     		movs	r1, #112
 2453 0010 0720     		movs	r0, #7
 2454 0012 FFF7FEFF 		bl	nRF24_write_register
 891:Generated_Source\PSoC5/nRF24_FUNCS.c **** 
 892:Generated_Source\PSoC5/nRF24_FUNCS.c ****     return sts;
ARM GAS  C:\Users\rens_\AppData\Local\Temp\ccW8xaXP.s 			page 60


 2455              		.loc 1 892 0
 2456 0016 FB79     		ldrb	r3, [r7, #7]	@ zero_extendqisi2
 893:Generated_Source\PSoC5/nRF24_FUNCS.c **** }
 2457              		.loc 1 893 0
 2458 0018 1846     		mov	r0, r3
 2459 001a 0837     		adds	r7, r7, #8
 2460              		.cfi_def_cfa_offset 8
 2461 001c BD46     		mov	sp, r7
 2462              		.cfi_def_cfa_register 13
 2463              		@ sp needed
 2464 001e 80BD     		pop	{r7, pc}
 2465              		.cfi_endproc
 2466              	.LFE60:
 2467              		.size	nRF24_get_status_clear_irq, .-nRF24_get_status_clear_irq
 2468              		.section	.text.nRF24_flush_rx,"ax",%progbits
 2469              		.align	2
 2470              		.global	nRF24_flush_rx
 2471              		.thumb
 2472              		.thumb_func
 2473              		.type	nRF24_flush_rx, %function
 2474              	nRF24_flush_rx:
 2475              	.LFB61:
 894:Generated_Source\PSoC5/nRF24_FUNCS.c **** 
 895:Generated_Source\PSoC5/nRF24_FUNCS.c **** // command wrappers
 896:Generated_Source\PSoC5/nRF24_FUNCS.c **** void nRF24_flush_rx(void)
 897:Generated_Source\PSoC5/nRF24_FUNCS.c **** {
 2476              		.loc 1 897 0
 2477              		.cfi_startproc
 2478              		@ args = 0, pretend = 0, frame = 0
 2479              		@ frame_needed = 1, uses_anonymous_args = 0
 2480 0000 80B5     		push	{r7, lr}
 2481              		.cfi_def_cfa_offset 8
 2482              		.cfi_offset 7, -8
 2483              		.cfi_offset 14, -4
 2484 0002 00AF     		add	r7, sp, #0
 2485              		.cfi_def_cfa_register 7
 898:Generated_Source\PSoC5/nRF24_FUNCS.c ****     nRF24_flush_rx_cmd();
 2486              		.loc 1 898 0
 2487 0004 FFF7FEFF 		bl	nRF24_flush_rx_cmd
 899:Generated_Source\PSoC5/nRF24_FUNCS.c **** }
 2488              		.loc 1 899 0
 2489 0008 00BF     		nop
 2490 000a 80BD     		pop	{r7, pc}
 2491              		.cfi_endproc
 2492              	.LFE61:
 2493              		.size	nRF24_flush_rx, .-nRF24_flush_rx
 2494              		.section	.text.nRF24_flush_tx,"ax",%progbits
 2495              		.align	2
 2496              		.global	nRF24_flush_tx
 2497              		.thumb
 2498              		.thumb_func
 2499              		.type	nRF24_flush_tx, %function
 2500              	nRF24_flush_tx:
 2501              	.LFB62:
 900:Generated_Source\PSoC5/nRF24_FUNCS.c **** 
 901:Generated_Source\PSoC5/nRF24_FUNCS.c **** void nRF24_flush_tx(void)
 902:Generated_Source\PSoC5/nRF24_FUNCS.c **** {
ARM GAS  C:\Users\rens_\AppData\Local\Temp\ccW8xaXP.s 			page 61


 2502              		.loc 1 902 0
 2503              		.cfi_startproc
 2504              		@ args = 0, pretend = 0, frame = 0
 2505              		@ frame_needed = 1, uses_anonymous_args = 0
 2506 0000 80B5     		push	{r7, lr}
 2507              		.cfi_def_cfa_offset 8
 2508              		.cfi_offset 7, -8
 2509              		.cfi_offset 14, -4
 2510 0002 00AF     		add	r7, sp, #0
 2511              		.cfi_def_cfa_register 7
 903:Generated_Source\PSoC5/nRF24_FUNCS.c ****     nRF24_flush_tx_cmd();
 2512              		.loc 1 903 0
 2513 0004 FFF7FEFF 		bl	nRF24_flush_tx_cmd
 904:Generated_Source\PSoC5/nRF24_FUNCS.c **** }
 2514              		.loc 1 904 0
 2515 0008 00BF     		nop
 2516 000a 80BD     		pop	{r7, pc}
 2517              		.cfi_endproc
 2518              	.LFE62:
 2519              		.size	nRF24_flush_tx, .-nRF24_flush_tx
 2520              		.text
 2521              	.Letext0:
 2522              		.file 2 "c:\\program files (x86)\\cypress\\psoc creator\\4.2\\psoc creator\\import\\gnu\\arm\\5.4.
 2523              		.file 3 "c:\\program files (x86)\\cypress\\psoc creator\\4.2\\psoc creator\\import\\gnu\\arm\\5.4.
 2524              		.file 4 "c:\\program files (x86)\\cypress\\psoc creator\\4.2\\psoc creator\\import\\gnu\\arm\\5.4.
 2525              		.file 5 "Generated_Source\\PSoC5\\nRF24_DEFS.h"
 2526              		.file 6 "Generated_Source\\PSoC5\\nRF24_HAL.h"