ARM GAS  C:\Users\Krist\AppData\Local\Temp\ccnov2rZ.s 			page 1


   1              		.syntax unified
   2              		.cpu cortex-m3
   3              		.fpu softvfp
   4              		.eabi_attribute 20, 1
   5              		.eabi_attribute 21, 1
   6              		.eabi_attribute 23, 3
   7              		.eabi_attribute 24, 1
   8              		.eabi_attribute 25, 1
   9              		.eabi_attribute 26, 1
  10              		.eabi_attribute 30, 6
  11              		.eabi_attribute 34, 1
  12              		.eabi_attribute 18, 4
  13              		.thumb
  14              		.syntax unified
  15              		.file	"nRF24_HAL.c"
  16              		.text
  17              	.Ltext0:
  18              		.cfi_sections	.debug_frame
  19              		.section	.text.nRF24_ss_write,"ax",%progbits
  20              		.align	2
  21              		.global	nRF24_ss_write
  22              		.thumb
  23              		.thumb_func
  24              		.type	nRF24_ss_write, %function
  25              	nRF24_ss_write:
  26              	.LFB0:
  27              		.file 1 "Generated_Source\\PSoC5\\nRF24_HAL.c"
   1:Generated_Source\PSoC5/nRF24_HAL.c **** /****************************************************************************
   2:Generated_Source\PSoC5/nRF24_HAL.c **** * This file is part of the nRF24 Custom Component for PSoC Devices.
   3:Generated_Source\PSoC5/nRF24_HAL.c **** *
   4:Generated_Source\PSoC5/nRF24_HAL.c **** * Copyright (C) 2017 Carlos Diaz <carlos.santiago.diaz@gmail.com>
   5:Generated_Source\PSoC5/nRF24_HAL.c **** *
   6:Generated_Source\PSoC5/nRF24_HAL.c **** * Permission to use, copy, modify, and/or distribute this software for any
   7:Generated_Source\PSoC5/nRF24_HAL.c **** * purpose with or without fee is hereby granted, provided that the above
   8:Generated_Source\PSoC5/nRF24_HAL.c **** * copyright notice and this permission notice appear in all copies.
   9:Generated_Source\PSoC5/nRF24_HAL.c **** *
  10:Generated_Source\PSoC5/nRF24_HAL.c **** * THE SOFTWARE IS PROVIDED "AS IS" AND THE AUTHOR DISCLAIMS ALL WARRANTIES
  11:Generated_Source\PSoC5/nRF24_HAL.c **** * WITH REGARD TO THIS SOFTWARE INCLUDING ALL IMPLIED WARRANTIES OF
  12:Generated_Source\PSoC5/nRF24_HAL.c **** * MERCHANTABILITY AND FITNESS. IN NO EVENT SHALL THE AUTHOR BE LIABLE FOR
  13:Generated_Source\PSoC5/nRF24_HAL.c **** * ANY SPECIAL, DIRECT, INDIRECT, OR CONSEQUENTIAL DAMAGES OR ANY DAMAGES
  14:Generated_Source\PSoC5/nRF24_HAL.c **** * WHATSOEVER RESULTING FROM LOSS OF USE, DATA OR PROFITS, WHETHER IN AN
  15:Generated_Source\PSoC5/nRF24_HAL.c **** * ACTION OF CONTRACT, NEGLIGENCE OR OTHER TORTIOUS ACTION, ARISING OUT OF
  16:Generated_Source\PSoC5/nRF24_HAL.c **** * OR IN CONNECTION WITH THE USE OR PERFORMANCE OF THIS SOFTWARE.
  17:Generated_Source\PSoC5/nRF24_HAL.c **** ****************************************************************************/
  18:Generated_Source\PSoC5/nRF24_HAL.c **** 
  19:Generated_Source\PSoC5/nRF24_HAL.c **** /**
  20:Generated_Source\PSoC5/nRF24_HAL.c **** * @file nRF24_HAL.c
  21:Generated_Source\PSoC5/nRF24_HAL.c **** *
  22:Generated_Source\PSoC5/nRF24_HAL.c **** * @brief The nRF24 radio is controlled via SPI, this file have all the SPI
  23:Generated_Source\PSoC5/nRF24_HAL.c **** * communication between the PSoC and the nRF24 radio.
  24:Generated_Source\PSoC5/nRF24_HAL.c **** */
  25:Generated_Source\PSoC5/nRF24_HAL.c **** 
  26:Generated_Source\PSoC5/nRF24_HAL.c **** #include <stdint.h>
  27:Generated_Source\PSoC5/nRF24_HAL.c **** #include <string.h>
  28:Generated_Source\PSoC5/nRF24_HAL.c **** 
  29:Generated_Source\PSoC5/nRF24_HAL.c **** #include "nRF24_CONFIG.h"
  30:Generated_Source\PSoC5/nRF24_HAL.c **** #include "nRF24_HAL.h"
ARM GAS  C:\Users\Krist\AppData\Local\Temp\ccnov2rZ.s 			page 2


  31:Generated_Source\PSoC5/nRF24_HAL.c **** 
  32:Generated_Source\PSoC5/nRF24_HAL.c **** #if defined (_PSOC6)
  33:Generated_Source\PSoC5/nRF24_HAL.c **** # include "gpio/cy_gpio.h"
  34:Generated_Source\PSoC5/nRF24_HAL.c **** #else // (_PSOC_UDB) || (_PSOC4)
  35:Generated_Source\PSoC5/nRF24_HAL.c **** # if defined (_PSOC4_SCB)
  36:Generated_Source\PSoC5/nRF24_HAL.c **** #  include "SPI_SPI_UART.h" // may be no longer necessary
  37:Generated_Source\PSoC5/nRF24_HAL.c **** # endif
  38:Generated_Source\PSoC5/nRF24_HAL.c **** # include "CE.h"
  39:Generated_Source\PSoC5/nRF24_HAL.c **** # include "SS.h"
  40:Generated_Source\PSoC5/nRF24_HAL.c **** #endif
  41:Generated_Source\PSoC5/nRF24_HAL.c **** 
  42:Generated_Source\PSoC5/nRF24_HAL.c **** /* GPIO Control */
  43:Generated_Source\PSoC5/nRF24_HAL.c **** 
  44:Generated_Source\PSoC5/nRF24_HAL.c **** /**
  45:Generated_Source\PSoC5/nRF24_HAL.c ****  * GPIO control in PSoC6 and PSoC4/PSoC5LP is a little bit different,
  46:Generated_Source\PSoC5/nRF24_HAL.c ****  * so here we try to unify them.
  47:Generated_Source\PSoC5/nRF24_HAL.c ****  *
  48:Generated_Source\PSoC5/nRF24_HAL.c ****  * @param[in] nrf_gpio state 
  49:Generated_Source\PSoC5/nRF24_HAL.c ****  */
  50:Generated_Source\PSoC5/nRF24_HAL.c **** void nRF24_ss_write(nrf_gpio state)
  51:Generated_Source\PSoC5/nRF24_HAL.c **** {
  28              		.loc 1 51 0
  29              		.cfi_startproc
  30              		@ args = 0, pretend = 0, frame = 8
  31              		@ frame_needed = 1, uses_anonymous_args = 0
  32 0000 80B5     		push	{r7, lr}
  33              		.cfi_def_cfa_offset 8
  34              		.cfi_offset 7, -8
  35              		.cfi_offset 14, -4
  36 0002 82B0     		sub	sp, sp, #8
  37              		.cfi_def_cfa_offset 16
  38 0004 00AF     		add	r7, sp, #0
  39              		.cfi_def_cfa_register 7
  40 0006 0346     		mov	r3, r0
  41 0008 FB71     		strb	r3, [r7, #7]
  52:Generated_Source\PSoC5/nRF24_HAL.c ****     if (GPIO_CLEAR == state) {
  42              		.loc 1 52 0
  43 000a FB79     		ldrb	r3, [r7, #7]	@ zero_extendqisi2
  44 000c 002B     		cmp	r3, #0
  45 000e 03D1     		bne	.L2
  53:Generated_Source\PSoC5/nRF24_HAL.c **** #if defined (_PSOC6)
  54:Generated_Source\PSoC5/nRF24_HAL.c ****     Cy_GPIO_Clr(SS_PORT, SS_NUM);
  55:Generated_Source\PSoC5/nRF24_HAL.c **** #else // _PSoC4_SCB | _PSOC_UDB
  56:Generated_Source\PSoC5/nRF24_HAL.c ****     SS_Write(0);
  46              		.loc 1 56 0
  47 0010 0020     		movs	r0, #0
  48 0012 FFF7FEFF 		bl	SS_Write
  57:Generated_Source\PSoC5/nRF24_HAL.c **** #endif
  58:Generated_Source\PSoC5/nRF24_HAL.c ****     } else { // GPIO_SET
  59:Generated_Source\PSoC5/nRF24_HAL.c **** #if defined (_PSOC6)
  60:Generated_Source\PSoC5/nRF24_HAL.c ****     Cy_GPIO_Set(SS_PORT, SS_NUM);
  61:Generated_Source\PSoC5/nRF24_HAL.c **** #else // _PSoC4_SCB | _PSOC_UDB
  62:Generated_Source\PSoC5/nRF24_HAL.c ****     SS_Write(1);
  63:Generated_Source\PSoC5/nRF24_HAL.c **** #endif
  64:Generated_Source\PSoC5/nRF24_HAL.c ****     }
  65:Generated_Source\PSoC5/nRF24_HAL.c **** }
  49              		.loc 1 65 0
ARM GAS  C:\Users\Krist\AppData\Local\Temp\ccnov2rZ.s 			page 3


  50 0016 02E0     		b	.L4
  51              	.L2:
  62:Generated_Source\PSoC5/nRF24_HAL.c **** #endif
  52              		.loc 1 62 0
  53 0018 0120     		movs	r0, #1
  54 001a FFF7FEFF 		bl	SS_Write
  55              	.L4:
  56              		.loc 1 65 0
  57 001e 00BF     		nop
  58 0020 0837     		adds	r7, r7, #8
  59              		.cfi_def_cfa_offset 8
  60 0022 BD46     		mov	sp, r7
  61              		.cfi_def_cfa_register 13
  62              		@ sp needed
  63 0024 80BD     		pop	{r7, pc}
  64              		.cfi_endproc
  65              	.LFE0:
  66              		.size	nRF24_ss_write, .-nRF24_ss_write
  67 0026 00BF     		.section	.text.nRF24_ce_write,"ax",%progbits
  68              		.align	2
  69              		.global	nRF24_ce_write
  70              		.thumb
  71              		.thumb_func
  72              		.type	nRF24_ce_write, %function
  73              	nRF24_ce_write:
  74              	.LFB1:
  66:Generated_Source\PSoC5/nRF24_HAL.c **** 
  67:Generated_Source\PSoC5/nRF24_HAL.c **** void nRF24_ce_write(nrf_gpio state)
  68:Generated_Source\PSoC5/nRF24_HAL.c **** {
  75              		.loc 1 68 0
  76              		.cfi_startproc
  77              		@ args = 0, pretend = 0, frame = 8
  78              		@ frame_needed = 1, uses_anonymous_args = 0
  79 0000 80B5     		push	{r7, lr}
  80              		.cfi_def_cfa_offset 8
  81              		.cfi_offset 7, -8
  82              		.cfi_offset 14, -4
  83 0002 82B0     		sub	sp, sp, #8
  84              		.cfi_def_cfa_offset 16
  85 0004 00AF     		add	r7, sp, #0
  86              		.cfi_def_cfa_register 7
  87 0006 0346     		mov	r3, r0
  88 0008 FB71     		strb	r3, [r7, #7]
  69:Generated_Source\PSoC5/nRF24_HAL.c ****     if (GPIO_CLEAR == state) {
  89              		.loc 1 69 0
  90 000a FB79     		ldrb	r3, [r7, #7]	@ zero_extendqisi2
  91 000c 002B     		cmp	r3, #0
  92 000e 03D1     		bne	.L6
  70:Generated_Source\PSoC5/nRF24_HAL.c **** #if defined (_PSOC6)
  71:Generated_Source\PSoC5/nRF24_HAL.c ****     Cy_GPIO_Clr(CE_PORT, CE_NUM);
  72:Generated_Source\PSoC5/nRF24_HAL.c **** #else // _PSoC4_SCB | _PSOC_UDB
  73:Generated_Source\PSoC5/nRF24_HAL.c ****     CE_Write(0);
  93              		.loc 1 73 0
  94 0010 0020     		movs	r0, #0
  95 0012 FFF7FEFF 		bl	CE_Write
  74:Generated_Source\PSoC5/nRF24_HAL.c **** #endif
  75:Generated_Source\PSoC5/nRF24_HAL.c ****     } else { // GPIO_SET
ARM GAS  C:\Users\Krist\AppData\Local\Temp\ccnov2rZ.s 			page 4


  76:Generated_Source\PSoC5/nRF24_HAL.c **** #if defined (_PSOC6)
  77:Generated_Source\PSoC5/nRF24_HAL.c ****     Cy_GPIO_Set(CE_PORT, CE_NUM);
  78:Generated_Source\PSoC5/nRF24_HAL.c **** #else // _PSoC4_SCB | _PSOC_UDB
  79:Generated_Source\PSoC5/nRF24_HAL.c ****     CE_Write(1);
  80:Generated_Source\PSoC5/nRF24_HAL.c **** #endif
  81:Generated_Source\PSoC5/nRF24_HAL.c ****     }
  82:Generated_Source\PSoC5/nRF24_HAL.c **** }
  96              		.loc 1 82 0
  97 0016 02E0     		b	.L8
  98              	.L6:
  79:Generated_Source\PSoC5/nRF24_HAL.c **** #endif
  99              		.loc 1 79 0
 100 0018 0120     		movs	r0, #1
 101 001a FFF7FEFF 		bl	CE_Write
 102              	.L8:
 103              		.loc 1 82 0
 104 001e 00BF     		nop
 105 0020 0837     		adds	r7, r7, #8
 106              		.cfi_def_cfa_offset 8
 107 0022 BD46     		mov	sp, r7
 108              		.cfi_def_cfa_register 13
 109              		@ sp needed
 110 0024 80BD     		pop	{r7, pc}
 111              		.cfi_endproc
 112              	.LFE1:
 113              		.size	nRF24_ce_write, .-nRF24_ce_write
 114 0026 00BF     		.section	.text.nRF24_spi_xfer,"ax",%progbits
 115              		.align	2
 116              		.global	nRF24_spi_xfer
 117              		.thumb
 118              		.thumb_func
 119              		.type	nRF24_spi_xfer, %function
 120              	nRF24_spi_xfer:
 121              	.LFB2:
  83:Generated_Source\PSoC5/nRF24_HAL.c **** 
  84:Generated_Source\PSoC5/nRF24_HAL.c **** // xfer xfer_size bytes to the nrf24 radio and get back xfer_size bytes back
  85:Generated_Source\PSoC5/nRF24_HAL.c **** // from it.
  86:Generated_Source\PSoC5/nRF24_HAL.c **** // in[0] is always the NRF_COMMAND
  87:Generated_Source\PSoC5/nRF24_HAL.c **** // out[0] is always the STATUS_REGISTER
  88:Generated_Source\PSoC5/nRF24_HAL.c **** //
  89:Generated_Source\PSoC5/nRF24_HAL.c **** // Example of use:
  90:Generated_Source\PSoC5/nRF24_HAL.c **** // - To read the radio status register and save it in status_reg variable:
  91:Generated_Source\PSoC5/nRF24_HAL.c **** //
  92:Generated_Source\PSoC5/nRF24_HAL.c **** // uint8_t NRF_DUMMY = 0xFF;
  93:Generated_Source\PSoC5/nRF24_HAL.c **** // uint8_t status_reg = 0;
  94:Generated_Source\PSoC5/nRF24_HAL.c **** // nrf24_spi_xfer(&NRF_DUMMY, &status_reg, 1);
  95:Generated_Source\PSoC5/nRF24_HAL.c **** //
  96:Generated_Source\PSoC5/nRF24_HAL.c **** // TODO:
  97:Generated_Source\PSoC5/nRF24_HAL.c **** // This function will be the only way to transfer/get data from the radio,
  98:Generated_Source\PSoC5/nRF24_HAL.c **** // that way we can eliminate duplicated code on the NRF_HAL and NRF_COMMANDS
  99:Generated_Source\PSoC5/nRF24_HAL.c **** // files. Also that way we can ease the implementation of the custom spi_xfer
 100:Generated_Source\PSoC5/nRF24_HAL.c **** // function.
 101:Generated_Source\PSoC5/nRF24_HAL.c **** void nRF24_spi_xfer(const uint8_t *in, uint8_t *out, const size_t xfer_size)
 102:Generated_Source\PSoC5/nRF24_HAL.c **** {
 122              		.loc 1 102 0
 123              		.cfi_startproc
 124              		@ args = 0, pretend = 0, frame = 24
ARM GAS  C:\Users\Krist\AppData\Local\Temp\ccnov2rZ.s 			page 5


 125              		@ frame_needed = 1, uses_anonymous_args = 0
 126 0000 90B5     		push	{r4, r7, lr}
 127              		.cfi_def_cfa_offset 12
 128              		.cfi_offset 4, -12
 129              		.cfi_offset 7, -8
 130              		.cfi_offset 14, -4
 131 0002 87B0     		sub	sp, sp, #28
 132              		.cfi_def_cfa_offset 40
 133 0004 00AF     		add	r7, sp, #0
 134              		.cfi_def_cfa_register 7
 135 0006 F860     		str	r0, [r7, #12]
 136 0008 B960     		str	r1, [r7, #8]
 137 000a 7A60     		str	r2, [r7, #4]
 103:Generated_Source\PSoC5/nRF24_HAL.c ****     nRF24_spi_clear_fifo();
 138              		.loc 1 103 0
 139 000c FFF7FEFF 		bl	nRF24_spi_clear_fifo
 104:Generated_Source\PSoC5/nRF24_HAL.c **** 
 105:Generated_Source\PSoC5/nRF24_HAL.c ****     nRF24_ss_write(GPIO_CLEAR);
 140              		.loc 1 105 0
 141 0010 0020     		movs	r0, #0
 142 0012 FFF7FEFF 		bl	nRF24_ss_write
 143              	.LBB2:
 106:Generated_Source\PSoC5/nRF24_HAL.c **** 
 107:Generated_Source\PSoC5/nRF24_HAL.c **** #if defined (_PSOC6)
 108:Generated_Source\PSoC5/nRF24_HAL.c ****     for(size_t i = 0; i < xfer_size; i++){
 109:Generated_Source\PSoC5/nRF24_HAL.c ****         while(Cy_SCB_Write(SPI_HW, in[i]) == 0);
 110:Generated_Source\PSoC5/nRF24_HAL.c ****         while (Cy_SCB_GetNumInRxFifo(SPI_HW) == 0) {}
 111:Generated_Source\PSoC5/nRF24_HAL.c ****         out[i] = Cy_SCB_ReadRxFifo(SPI_HW);
 112:Generated_Source\PSoC5/nRF24_HAL.c ****     }
 113:Generated_Source\PSoC5/nRF24_HAL.c **** #elif defined (_PSOC4_SCB)
 114:Generated_Source\PSoC5/nRF24_HAL.c ****     for (size_t i = 0; i < xfer_size; i++) {
 115:Generated_Source\PSoC5/nRF24_HAL.c ****         SPI_SpiUartWriteTxData(in[i]);
 116:Generated_Source\PSoC5/nRF24_HAL.c ****         while (SPI_SpiUartGetRxBufferSize() == 0){}
 117:Generated_Source\PSoC5/nRF24_HAL.c ****         out[i] = SPI_SpiUartReadRxData();
 118:Generated_Source\PSoC5/nRF24_HAL.c ****     }
 119:Generated_Source\PSoC5/nRF24_HAL.c **** #elif defined (_PSOC_UDB)
 120:Generated_Source\PSoC5/nRF24_HAL.c ****     for (size_t i = 0; i < xfer_size; i++) {
 144              		.loc 1 120 0
 145 0016 0023     		movs	r3, #0
 146 0018 7B61     		str	r3, [r7, #20]
 147 001a 18E0     		b	.L10
 148              	.L12:
 121:Generated_Source\PSoC5/nRF24_HAL.c ****         SPI_WriteTxData(in[i]);
 149              		.loc 1 121 0
 150 001c FA68     		ldr	r2, [r7, #12]
 151 001e 7B69     		ldr	r3, [r7, #20]
 152 0020 1344     		add	r3, r3, r2
 153 0022 1B78     		ldrb	r3, [r3]	@ zero_extendqisi2
 154 0024 1846     		mov	r0, r3
 155 0026 FFF7FEFF 		bl	SPI_WriteTxData
 122:Generated_Source\PSoC5/nRF24_HAL.c ****         while (!(SPI_ReadTxStatus() & SPI_STS_BYTE_COMPLETE)) {
 156              		.loc 1 122 0
 157 002a 00BF     		nop
 158              	.L11:
 159              		.loc 1 122 0 is_stmt 0 discriminator 1
 160 002c FFF7FEFF 		bl	SPI_ReadTxStatus
 161 0030 0346     		mov	r3, r0
ARM GAS  C:\Users\Krist\AppData\Local\Temp\ccnov2rZ.s 			page 6


 162 0032 03F00803 		and	r3, r3, #8
 163 0036 002B     		cmp	r3, #0
 164 0038 F8D0     		beq	.L11
 123:Generated_Source\PSoC5/nRF24_HAL.c ****         }
 124:Generated_Source\PSoC5/nRF24_HAL.c ****         out[i] = SPI_ReadRxData();
 165              		.loc 1 124 0 is_stmt 1 discriminator 2
 166 003a BA68     		ldr	r2, [r7, #8]
 167 003c 7B69     		ldr	r3, [r7, #20]
 168 003e D418     		adds	r4, r2, r3
 169 0040 FFF7FEFF 		bl	SPI_ReadRxData
 170 0044 0346     		mov	r3, r0
 171 0046 2370     		strb	r3, [r4]
 120:Generated_Source\PSoC5/nRF24_HAL.c ****         SPI_WriteTxData(in[i]);
 172              		.loc 1 120 0 discriminator 2
 173 0048 7B69     		ldr	r3, [r7, #20]
 174 004a 0133     		adds	r3, r3, #1
 175 004c 7B61     		str	r3, [r7, #20]
 176              	.L10:
 120:Generated_Source\PSoC5/nRF24_HAL.c ****         SPI_WriteTxData(in[i]);
 177              		.loc 1 120 0 is_stmt 0 discriminator 1
 178 004e 7A69     		ldr	r2, [r7, #20]
 179 0050 7B68     		ldr	r3, [r7, #4]
 180 0052 9A42     		cmp	r2, r3
 181 0054 E2D3     		bcc	.L12
 182              	.LBE2:
 125:Generated_Source\PSoC5/nRF24_HAL.c ****     }
 126:Generated_Source\PSoC5/nRF24_HAL.c **** #else
 127:Generated_Source\PSoC5/nRF24_HAL.c ****     #error "Non valid PSoC device identified."
 128:Generated_Source\PSoC5/nRF24_HAL.c **** #endif
 129:Generated_Source\PSoC5/nRF24_HAL.c **** 
 130:Generated_Source\PSoC5/nRF24_HAL.c ****     nRF24_ss_write(GPIO_SET);
 183              		.loc 1 130 0 is_stmt 1
 184 0056 0120     		movs	r0, #1
 185 0058 FFF7FEFF 		bl	nRF24_ss_write
 131:Generated_Source\PSoC5/nRF24_HAL.c **** }
 186              		.loc 1 131 0
 187 005c 00BF     		nop
 188 005e 1C37     		adds	r7, r7, #28
 189              		.cfi_def_cfa_offset 12
 190 0060 BD46     		mov	sp, r7
 191              		.cfi_def_cfa_register 13
 192              		@ sp needed
 193 0062 90BD     		pop	{r4, r7, pc}
 194              		.cfi_endproc
 195              	.LFE2:
 196              		.size	nRF24_spi_xfer, .-nRF24_spi_xfer
 197              		.section	.text.nRF24_spi_clear_fifo,"ax",%progbits
 198              		.align	2
 199              		.global	nRF24_spi_clear_fifo
 200              		.thumb
 201              		.thumb_func
 202              		.type	nRF24_spi_clear_fifo, %function
 203              	nRF24_spi_clear_fifo:
 204              	.LFB3:
 132:Generated_Source\PSoC5/nRF24_HAL.c **** 
 133:Generated_Source\PSoC5/nRF24_HAL.c **** void nRF24_spi_clear_fifo(void)
 134:Generated_Source\PSoC5/nRF24_HAL.c **** {
ARM GAS  C:\Users\Krist\AppData\Local\Temp\ccnov2rZ.s 			page 7


 205              		.loc 1 134 0
 206              		.cfi_startproc
 207              		@ args = 0, pretend = 0, frame = 0
 208              		@ frame_needed = 1, uses_anonymous_args = 0
 209 0000 80B5     		push	{r7, lr}
 210              		.cfi_def_cfa_offset 8
 211              		.cfi_offset 7, -8
 212              		.cfi_offset 14, -4
 213 0002 00AF     		add	r7, sp, #0
 214              		.cfi_def_cfa_register 7
 135:Generated_Source\PSoC5/nRF24_HAL.c **** #if defined (_PSOC6)
 136:Generated_Source\PSoC5/nRF24_HAL.c ****     Cy_SCB_ClearRxFifo(SPI_HW);
 137:Generated_Source\PSoC5/nRF24_HAL.c ****     Cy_SCB_ClearTxFifo(SPI_HW);
 138:Generated_Source\PSoC5/nRF24_HAL.c **** #elif defined (_PSOC4_SCB)
 139:Generated_Source\PSoC5/nRF24_HAL.c ****     SPI_SpiUartClearRxBuffer();
 140:Generated_Source\PSoC5/nRF24_HAL.c ****     SPI_SpiUartClearTxBuffer();
 141:Generated_Source\PSoC5/nRF24_HAL.c **** #elif defined (_PSOC_UDB)
 142:Generated_Source\PSoC5/nRF24_HAL.c ****     SPI_ClearFIFO();
 215              		.loc 1 142 0
 216 0004 FFF7FEFF 		bl	SPI_ClearFIFO
 143:Generated_Source\PSoC5/nRF24_HAL.c **** #else
 144:Generated_Source\PSoC5/nRF24_HAL.c ****     #error "Non valid PSoC device identified."
 145:Generated_Source\PSoC5/nRF24_HAL.c **** #endif
 146:Generated_Source\PSoC5/nRF24_HAL.c **** }
 217              		.loc 1 146 0
 218 0008 00BF     		nop
 219 000a 80BD     		pop	{r7, pc}
 220              		.cfi_endproc
 221              	.LFE3:
 222              		.size	nRF24_spi_clear_fifo, .-nRF24_spi_clear_fifo
 223              		.section	.text.nRF24_read_register,"ax",%progbits
 224              		.align	2
 225              		.global	nRF24_read_register
 226              		.thumb
 227              		.thumb_func
 228              		.type	nRF24_read_register, %function
 229              	nRF24_read_register:
 230              	.LFB4:
 147:Generated_Source\PSoC5/nRF24_HAL.c **** 
 148:Generated_Source\PSoC5/nRF24_HAL.c **** /**
 149:Generated_Source\PSoC5/nRF24_HAL.c ****  * Read the specified nRF24 register (1byte).
 150:Generated_Source\PSoC5/nRF24_HAL.c ****  * 
 151:Generated_Source\PSoC5/nRF24_HAL.c ****  * TODO: So here the microcontroller just need to write 2 uint8_t's
 152:Generated_Source\PSoC5/nRF24_HAL.c ****  * to the nrf24 radio and read the last stored uint8_t.
 153:Generated_Source\PSoC5/nRF24_HAL.c ****  *
 154:Generated_Source\PSoC5/nRF24_HAL.c ****  * @param const nrf_register reg: Register to be read.
 155:Generated_Source\PSoC5/nRF24_HAL.c ****  *
 156:Generated_Source\PSoC5/nRF24_HAL.c ****  * @return uint8_t: Content of the specified register.
 157:Generated_Source\PSoC5/nRF24_HAL.c ****  */
 158:Generated_Source\PSoC5/nRF24_HAL.c **** uint8_t nRF24_read_register(const nrf_register reg)
 159:Generated_Source\PSoC5/nRF24_HAL.c **** {
 231              		.loc 1 159 0
 232              		.cfi_startproc
 233              		@ args = 0, pretend = 0, frame = 16
 234              		@ frame_needed = 1, uses_anonymous_args = 0
 235 0000 80B5     		push	{r7, lr}
 236              		.cfi_def_cfa_offset 8
ARM GAS  C:\Users\Krist\AppData\Local\Temp\ccnov2rZ.s 			page 8


 237              		.cfi_offset 7, -8
 238              		.cfi_offset 14, -4
 239 0002 84B0     		sub	sp, sp, #16
 240              		.cfi_def_cfa_offset 24
 241 0004 00AF     		add	r7, sp, #0
 242              		.cfi_def_cfa_register 7
 243 0006 0346     		mov	r3, r0
 244 0008 FB71     		strb	r3, [r7, #7]
 160:Generated_Source\PSoC5/nRF24_HAL.c ****     const uint8_t _nrf_cmd[] = {
 245              		.loc 1 160 0
 246 000a FB79     		ldrb	r3, [r7, #7]
 247 000c 3B73     		strb	r3, [r7, #12]
 248 000e FF23     		movs	r3, #255
 249 0010 7B73     		strb	r3, [r7, #13]
 161:Generated_Source\PSoC5/nRF24_HAL.c ****         NRF_CMD_R_REGISTER | reg, NRF_CMD_NOP
 162:Generated_Source\PSoC5/nRF24_HAL.c ****     };
 163:Generated_Source\PSoC5/nRF24_HAL.c ****     uint8_t _nrf_data[2] = {0};
 250              		.loc 1 163 0
 251 0012 0023     		movs	r3, #0
 252 0014 3B81     		strh	r3, [r7, #8]	@ movhi
 164:Generated_Source\PSoC5/nRF24_HAL.c ****     
 165:Generated_Source\PSoC5/nRF24_HAL.c ****     nRF24_spi_xfer(_nrf_cmd, _nrf_data, sizeof(_nrf_cmd) / sizeof(_nrf_cmd[0]));
 253              		.loc 1 165 0
 254 0016 07F10801 		add	r1, r7, #8
 255 001a 07F10C03 		add	r3, r7, #12
 256 001e 0222     		movs	r2, #2
 257 0020 1846     		mov	r0, r3
 258 0022 FFF7FEFF 		bl	nRF24_spi_xfer
 166:Generated_Source\PSoC5/nRF24_HAL.c **** 
 167:Generated_Source\PSoC5/nRF24_HAL.c ****     return _nrf_data[1];
 259              		.loc 1 167 0
 260 0026 7B7A     		ldrb	r3, [r7, #9]	@ zero_extendqisi2
 168:Generated_Source\PSoC5/nRF24_HAL.c **** }
 261              		.loc 1 168 0
 262 0028 1846     		mov	r0, r3
 263 002a 1037     		adds	r7, r7, #16
 264              		.cfi_def_cfa_offset 8
 265 002c BD46     		mov	sp, r7
 266              		.cfi_def_cfa_register 13
 267              		@ sp needed
 268 002e 80BD     		pop	{r7, pc}
 269              		.cfi_endproc
 270              	.LFE4:
 271              		.size	nRF24_read_register, .-nRF24_read_register
 272              		.section	.text.nRF24_read_long_register,"ax",%progbits
 273              		.align	2
 274              		.global	nRF24_read_long_register
 275              		.thumb
 276              		.thumb_func
 277              		.type	nRF24_read_long_register, %function
 278              	nRF24_read_long_register:
 279              	.LFB5:
 169:Generated_Source\PSoC5/nRF24_HAL.c **** 
 170:Generated_Source\PSoC5/nRF24_HAL.c **** /**
 171:Generated_Source\PSoC5/nRF24_HAL.c ****  * Read the specified nRF24 register (bigger than 1 byte).
 172:Generated_Source\PSoC5/nRF24_HAL.c ****  *
 173:Generated_Source\PSoC5/nRF24_HAL.c ****  * @param const nrf_register reg: Register to be read.
ARM GAS  C:\Users\Krist\AppData\Local\Temp\ccnov2rZ.s 			page 9


 174:Generated_Source\PSoC5/nRF24_HAL.c ****  * @param uint8_t* data: Pointer to where the content of the register
 175:Generated_Source\PSoC5/nRF24_HAL.c ****  * will be stored.
 176:Generated_Source\PSoC5/nRF24_HAL.c ****  * @param size_t size: Size of the register and data.
 177:Generated_Source\PSoC5/nRF24_HAL.c ****  */
 178:Generated_Source\PSoC5/nRF24_HAL.c **** void nRF24_read_long_register(const nrf_register reg,
 179:Generated_Source\PSoC5/nRF24_HAL.c ****                                            uint8_t* data, const size_t size)
 180:Generated_Source\PSoC5/nRF24_HAL.c **** {
 280              		.loc 1 180 0
 281              		.cfi_startproc
 282              		@ args = 0, pretend = 0, frame = 24
 283              		@ frame_needed = 1, uses_anonymous_args = 0
 284 0000 2DE9F04F 		push	{r4, r5, r6, r7, r8, r9, r10, fp, lr}
 285              		.cfi_def_cfa_offset 36
 286              		.cfi_offset 4, -36
 287              		.cfi_offset 5, -32
 288              		.cfi_offset 6, -28
 289              		.cfi_offset 7, -24
 290              		.cfi_offset 8, -20
 291              		.cfi_offset 9, -16
 292              		.cfi_offset 10, -12
 293              		.cfi_offset 11, -8
 294              		.cfi_offset 14, -4
 295 0004 87B0     		sub	sp, sp, #28
 296              		.cfi_def_cfa_offset 64
 297 0006 00AF     		add	r7, sp, #0
 298              		.cfi_def_cfa_register 7
 299 0008 B960     		str	r1, [r7, #8]
 300 000a 7A60     		str	r2, [r7, #4]
 301 000c 0246     		mov	r2, r0
 302 000e FA73     		strb	r2, [r7, #15]
 303              		.loc 1 180 0
 304 0010 6A46     		mov	r2, sp
 305 0012 3A60     		str	r2, [r7]
 181:Generated_Source\PSoC5/nRF24_HAL.c ****     uint8_t nrf_data[size + 1];
 306              		.loc 1 181 0
 307 0014 7A68     		ldr	r2, [r7, #4]
 308 0016 0132     		adds	r2, r2, #1
 309 0018 1146     		mov	r1, r2
 310 001a 4FF00002 		mov	r2, #0
 311 001e 4FEAC20B 		lsl	fp, r2, #3
 312 0022 4BEA517B 		orr	fp, fp, r1, lsr #29
 313 0026 4FEAC10A 		lsl	r10, r1, #3
 314 002a 7A68     		ldr	r2, [r7, #4]
 315 002c 0132     		adds	r2, r2, #1
 316 002e 1146     		mov	r1, r2
 317 0030 4FF00002 		mov	r2, #0
 318 0034 4FEAC209 		lsl	r9, r2, #3
 319 0038 49EA5179 		orr	r9, r9, r1, lsr #29
 320 003c 4FEAC108 		lsl	r8, r1, #3
 321 0040 7A68     		ldr	r2, [r7, #4]
 322 0042 0132     		adds	r2, r2, #1
 323 0044 0732     		adds	r2, r2, #7
 324 0046 D208     		lsrs	r2, r2, #3
 325 0048 D200     		lsls	r2, r2, #3
 326 004a ADEB020D 		sub	sp, sp, r2
 327 004e 6A46     		mov	r2, sp
 328 0050 0032     		adds	r2, r2, #0
ARM GAS  C:\Users\Krist\AppData\Local\Temp\ccnov2rZ.s 			page 10


 329 0052 7A61     		str	r2, [r7, #20]
 182:Generated_Source\PSoC5/nRF24_HAL.c ****     uint8_t dummy[size + 1];
 330              		.loc 1 182 0
 331 0054 7A68     		ldr	r2, [r7, #4]
 332 0056 0132     		adds	r2, r2, #1
 333 0058 1146     		mov	r1, r2
 334 005a 4FF00002 		mov	r2, #0
 335 005e D600     		lsls	r6, r2, #3
 336 0060 46EA5176 		orr	r6, r6, r1, lsr #29
 337 0064 CD00     		lsls	r5, r1, #3
 338 0066 7A68     		ldr	r2, [r7, #4]
 339 0068 0132     		adds	r2, r2, #1
 340 006a 1146     		mov	r1, r2
 341 006c 4FF00002 		mov	r2, #0
 342 0070 D400     		lsls	r4, r2, #3
 343 0072 44EA5174 		orr	r4, r4, r1, lsr #29
 344 0076 CB00     		lsls	r3, r1, #3
 345 0078 7B68     		ldr	r3, [r7, #4]
 346 007a 0133     		adds	r3, r3, #1
 347 007c 0733     		adds	r3, r3, #7
 348 007e DB08     		lsrs	r3, r3, #3
 349 0080 DB00     		lsls	r3, r3, #3
 350 0082 ADEB030D 		sub	sp, sp, r3
 351 0086 6B46     		mov	r3, sp
 352 0088 0033     		adds	r3, r3, #0
 353 008a 3B61     		str	r3, [r7, #16]
 183:Generated_Source\PSoC5/nRF24_HAL.c ****     
 184:Generated_Source\PSoC5/nRF24_HAL.c ****     dummy[0] = NRF_CMD_R_REGISTER | reg;
 354              		.loc 1 184 0
 355 008c 3B69     		ldr	r3, [r7, #16]
 356 008e FA7B     		ldrb	r2, [r7, #15]
 357 0090 1A70     		strb	r2, [r3]
 185:Generated_Source\PSoC5/nRF24_HAL.c **** 
 186:Generated_Source\PSoC5/nRF24_HAL.c ****     // Send the command and get the status
 187:Generated_Source\PSoC5/nRF24_HAL.c ****     nRF24_spi_xfer(dummy, nrf_data, sizeof(dummy));
 358              		.loc 1 187 0
 359 0092 3869     		ldr	r0, [r7, #16]
 360 0094 7969     		ldr	r1, [r7, #20]
 361 0096 7B68     		ldr	r3, [r7, #4]
 362 0098 0133     		adds	r3, r3, #1
 363 009a 1A46     		mov	r2, r3
 364 009c FFF7FEFF 		bl	nRF24_spi_xfer
 188:Generated_Source\PSoC5/nRF24_HAL.c **** 
 189:Generated_Source\PSoC5/nRF24_HAL.c ****     // Copy data without the status register to the user pointer
 190:Generated_Source\PSoC5/nRF24_HAL.c ****     memcpy(data, &nrf_data[1], size);
 365              		.loc 1 190 0
 366 00a0 7B69     		ldr	r3, [r7, #20]
 367 00a2 0133     		adds	r3, r3, #1
 368 00a4 7A68     		ldr	r2, [r7, #4]
 369 00a6 1946     		mov	r1, r3
 370 00a8 B868     		ldr	r0, [r7, #8]
 371 00aa FFF7FEFF 		bl	memcpy
 372 00ae D7F800D0 		ldr	sp, [r7]
 191:Generated_Source\PSoC5/nRF24_HAL.c **** }
 373              		.loc 1 191 0
 374 00b2 00BF     		nop
 375 00b4 1C37     		adds	r7, r7, #28
ARM GAS  C:\Users\Krist\AppData\Local\Temp\ccnov2rZ.s 			page 11


 376              		.cfi_def_cfa_offset 36
 377 00b6 BD46     		mov	sp, r7
 378              		.cfi_def_cfa_register 13
 379              		@ sp needed
 380 00b8 BDE8F08F 		pop	{r4, r5, r6, r7, r8, r9, r10, fp, pc}
 381              		.cfi_endproc
 382              	.LFE5:
 383              		.size	nRF24_read_long_register, .-nRF24_read_long_register
 384              		.section	.text.nRF24_write_register,"ax",%progbits
 385              		.align	2
 386              		.global	nRF24_write_register
 387              		.thumb
 388              		.thumb_func
 389              		.type	nRF24_write_register, %function
 390              	nRF24_write_register:
 391              	.LFB6:
 192:Generated_Source\PSoC5/nRF24_HAL.c **** 
 193:Generated_Source\PSoC5/nRF24_HAL.c **** /**
 194:Generated_Source\PSoC5/nRF24_HAL.c ****  * Write to the specified nRF24 Register (1byte).
 195:Generated_Source\PSoC5/nRF24_HAL.c ****  *
 196:Generated_Source\PSoC5/nRF24_HAL.c ****  * @param const nrf_register reg: Register to be written.
 197:Generated_Source\PSoC5/nRF24_HAL.c ****  * @param const uint8_t data: Data to be written into the specified register.
 198:Generated_Source\PSoC5/nRF24_HAL.c ****  */
 199:Generated_Source\PSoC5/nRF24_HAL.c **** void nRF24_write_register(const nrf_register reg, const uint8_t data)
 200:Generated_Source\PSoC5/nRF24_HAL.c **** {
 392              		.loc 1 200 0
 393              		.cfi_startproc
 394              		@ args = 0, pretend = 0, frame = 16
 395              		@ frame_needed = 1, uses_anonymous_args = 0
 396 0000 80B5     		push	{r7, lr}
 397              		.cfi_def_cfa_offset 8
 398              		.cfi_offset 7, -8
 399              		.cfi_offset 14, -4
 400 0002 84B0     		sub	sp, sp, #16
 401              		.cfi_def_cfa_offset 24
 402 0004 00AF     		add	r7, sp, #0
 403              		.cfi_def_cfa_register 7
 404 0006 0346     		mov	r3, r0
 405 0008 0A46     		mov	r2, r1
 406 000a FB71     		strb	r3, [r7, #7]
 407 000c 1346     		mov	r3, r2
 408 000e BB71     		strb	r3, [r7, #6]
 201:Generated_Source\PSoC5/nRF24_HAL.c ****     const uint8_t data_to_write[] = {NRF_CMD_W_REGISTER | reg, data};
 409              		.loc 1 201 0
 410 0010 FB79     		ldrb	r3, [r7, #7]
 411 0012 43F02003 		orr	r3, r3, #32
 412 0016 DBB2     		uxtb	r3, r3
 413 0018 3B73     		strb	r3, [r7, #12]
 414 001a BB79     		ldrb	r3, [r7, #6]
 415 001c 7B73     		strb	r3, [r7, #13]
 202:Generated_Source\PSoC5/nRF24_HAL.c ****     uint8_t nrf_data[2] = {0};
 416              		.loc 1 202 0
 417 001e 0023     		movs	r3, #0
 418 0020 3B81     		strh	r3, [r7, #8]	@ movhi
 203:Generated_Source\PSoC5/nRF24_HAL.c ****     
 204:Generated_Source\PSoC5/nRF24_HAL.c ****     nRF24_spi_xfer(data_to_write, nrf_data, sizeof(data_to_write));
 419              		.loc 1 204 0
ARM GAS  C:\Users\Krist\AppData\Local\Temp\ccnov2rZ.s 			page 12


 420 0022 07F10801 		add	r1, r7, #8
 421 0026 07F10C03 		add	r3, r7, #12
 422 002a 0222     		movs	r2, #2
 423 002c 1846     		mov	r0, r3
 424 002e FFF7FEFF 		bl	nRF24_spi_xfer
 205:Generated_Source\PSoC5/nRF24_HAL.c **** }
 425              		.loc 1 205 0
 426 0032 00BF     		nop
 427 0034 1037     		adds	r7, r7, #16
 428              		.cfi_def_cfa_offset 8
 429 0036 BD46     		mov	sp, r7
 430              		.cfi_def_cfa_register 13
 431              		@ sp needed
 432 0038 80BD     		pop	{r7, pc}
 433              		.cfi_endproc
 434              	.LFE6:
 435              		.size	nRF24_write_register, .-nRF24_write_register
 436 003a 00BF     		.section	.text.nRF24_write_long_register,"ax",%progbits
 437              		.align	2
 438              		.global	nRF24_write_long_register
 439              		.thumb
 440              		.thumb_func
 441              		.type	nRF24_write_long_register, %function
 442              	nRF24_write_long_register:
 443              	.LFB7:
 206:Generated_Source\PSoC5/nRF24_HAL.c **** 
 207:Generated_Source\PSoC5/nRF24_HAL.c **** /**
 208:Generated_Source\PSoC5/nRF24_HAL.c ****  * Write one or more bytes to the specified nRF24 Register.
 209:Generated_Source\PSoC5/nRF24_HAL.c ****  *
 210:Generated_Source\PSoC5/nRF24_HAL.c ****  * @param const nrf_register reg: Register to be written.
 211:Generated_Source\PSoC5/nRF24_HAL.c ****  * @param const uint8_t* data: Data to writen into the register.
 212:Generated_Source\PSoC5/nRF24_HAL.c ****  * @param size_t size: Bytes of the data to be written in the specified register.
 213:Generated_Source\PSoC5/nRF24_HAL.c ****  */
 214:Generated_Source\PSoC5/nRF24_HAL.c **** void nRF24_write_long_register(const nrf_register reg,
 215:Generated_Source\PSoC5/nRF24_HAL.c ****                                             const uint8_t* data, const size_t size)
 216:Generated_Source\PSoC5/nRF24_HAL.c **** {
 444              		.loc 1 216 0
 445              		.cfi_startproc
 446              		@ args = 0, pretend = 0, frame = 24
 447              		@ frame_needed = 1, uses_anonymous_args = 0
 448 0000 2DE9F04F 		push	{r4, r5, r6, r7, r8, r9, r10, fp, lr}
 449              		.cfi_def_cfa_offset 36
 450              		.cfi_offset 4, -36
 451              		.cfi_offset 5, -32
 452              		.cfi_offset 6, -28
 453              		.cfi_offset 7, -24
 454              		.cfi_offset 8, -20
 455              		.cfi_offset 9, -16
 456              		.cfi_offset 10, -12
 457              		.cfi_offset 11, -8
 458              		.cfi_offset 14, -4
 459 0004 87B0     		sub	sp, sp, #28
 460              		.cfi_def_cfa_offset 64
 461 0006 00AF     		add	r7, sp, #0
 462              		.cfi_def_cfa_register 7
 463 0008 B960     		str	r1, [r7, #8]
 464 000a 7A60     		str	r2, [r7, #4]
ARM GAS  C:\Users\Krist\AppData\Local\Temp\ccnov2rZ.s 			page 13


 465 000c 0246     		mov	r2, r0
 466 000e FA73     		strb	r2, [r7, #15]
 467              		.loc 1 216 0
 468 0010 6A46     		mov	r2, sp
 469 0012 3A60     		str	r2, [r7]
 217:Generated_Source\PSoC5/nRF24_HAL.c ****     uint8_t data_to_nrf[size + 1];
 470              		.loc 1 217 0
 471 0014 7A68     		ldr	r2, [r7, #4]
 472 0016 0132     		adds	r2, r2, #1
 473 0018 1146     		mov	r1, r2
 474 001a 4FF00002 		mov	r2, #0
 475 001e 4FEAC20B 		lsl	fp, r2, #3
 476 0022 4BEA517B 		orr	fp, fp, r1, lsr #29
 477 0026 4FEAC10A 		lsl	r10, r1, #3
 478 002a 7A68     		ldr	r2, [r7, #4]
 479 002c 0132     		adds	r2, r2, #1
 480 002e 1146     		mov	r1, r2
 481 0030 4FF00002 		mov	r2, #0
 482 0034 4FEAC209 		lsl	r9, r2, #3
 483 0038 49EA5179 		orr	r9, r9, r1, lsr #29
 484 003c 4FEAC108 		lsl	r8, r1, #3
 485 0040 7A68     		ldr	r2, [r7, #4]
 486 0042 0132     		adds	r2, r2, #1
 487 0044 0732     		adds	r2, r2, #7
 488 0046 D208     		lsrs	r2, r2, #3
 489 0048 D200     		lsls	r2, r2, #3
 490 004a ADEB020D 		sub	sp, sp, r2
 491 004e 6A46     		mov	r2, sp
 492 0050 0032     		adds	r2, r2, #0
 493 0052 7A61     		str	r2, [r7, #20]
 218:Generated_Source\PSoC5/nRF24_HAL.c ****     uint8_t data_from_nrf[size + 1];
 494              		.loc 1 218 0
 495 0054 7A68     		ldr	r2, [r7, #4]
 496 0056 0132     		adds	r2, r2, #1
 497 0058 1146     		mov	r1, r2
 498 005a 4FF00002 		mov	r2, #0
 499 005e D600     		lsls	r6, r2, #3
 500 0060 46EA5176 		orr	r6, r6, r1, lsr #29
 501 0064 CD00     		lsls	r5, r1, #3
 502 0066 7A68     		ldr	r2, [r7, #4]
 503 0068 0132     		adds	r2, r2, #1
 504 006a 1146     		mov	r1, r2
 505 006c 4FF00002 		mov	r2, #0
 506 0070 D400     		lsls	r4, r2, #3
 507 0072 44EA5174 		orr	r4, r4, r1, lsr #29
 508 0076 CB00     		lsls	r3, r1, #3
 509 0078 7B68     		ldr	r3, [r7, #4]
 510 007a 0133     		adds	r3, r3, #1
 511 007c 0733     		adds	r3, r3, #7
 512 007e DB08     		lsrs	r3, r3, #3
 513 0080 DB00     		lsls	r3, r3, #3
 514 0082 ADEB030D 		sub	sp, sp, r3
 515 0086 6B46     		mov	r3, sp
 516 0088 0033     		adds	r3, r3, #0
 517 008a 3B61     		str	r3, [r7, #16]
 219:Generated_Source\PSoC5/nRF24_HAL.c ****     
 220:Generated_Source\PSoC5/nRF24_HAL.c ****     // Set the write command and the register to write to
ARM GAS  C:\Users\Krist\AppData\Local\Temp\ccnov2rZ.s 			page 14


 221:Generated_Source\PSoC5/nRF24_HAL.c ****     data_to_nrf[0] = NRF_CMD_W_REGISTER | reg;
 518              		.loc 1 221 0
 519 008c FB7B     		ldrb	r3, [r7, #15]
 520 008e 43F02003 		orr	r3, r3, #32
 521 0092 DAB2     		uxtb	r2, r3
 522 0094 7B69     		ldr	r3, [r7, #20]
 523 0096 1A70     		strb	r2, [r3]
 222:Generated_Source\PSoC5/nRF24_HAL.c ****     // add the data given by the user
 223:Generated_Source\PSoC5/nRF24_HAL.c ****     memcpy(&data_to_nrf[1], data, size);
 524              		.loc 1 223 0
 525 0098 7B69     		ldr	r3, [r7, #20]
 526 009a 0133     		adds	r3, r3, #1
 527 009c 7A68     		ldr	r2, [r7, #4]
 528 009e B968     		ldr	r1, [r7, #8]
 529 00a0 1846     		mov	r0, r3
 530 00a2 FFF7FEFF 		bl	memcpy
 224:Generated_Source\PSoC5/nRF24_HAL.c **** 
 225:Generated_Source\PSoC5/nRF24_HAL.c ****     nRF24_spi_xfer(data_to_nrf, data_from_nrf, sizeof(data_to_nrf));
 531              		.loc 1 225 0
 532 00a6 7869     		ldr	r0, [r7, #20]
 533 00a8 3969     		ldr	r1, [r7, #16]
 534 00aa 7B68     		ldr	r3, [r7, #4]
 535 00ac 0133     		adds	r3, r3, #1
 536 00ae 1A46     		mov	r2, r3
 537 00b0 FFF7FEFF 		bl	nRF24_spi_xfer
 538 00b4 D7F800D0 		ldr	sp, [r7]
 226:Generated_Source\PSoC5/nRF24_HAL.c **** }
 539              		.loc 1 226 0
 540 00b8 00BF     		nop
 541 00ba 1C37     		adds	r7, r7, #28
 542              		.cfi_def_cfa_offset 36
 543 00bc BD46     		mov	sp, r7
 544              		.cfi_def_cfa_register 13
 545              		@ sp needed
 546 00be BDE8F08F 		pop	{r4, r5, r6, r7, r8, r9, r10, fp, pc}
 547              		.cfi_endproc
 548              	.LFE7:
 549              		.size	nRF24_write_long_register, .-nRF24_write_long_register
 550 00c2 00BF     		.section	.text.nRF24_read_bit,"ax",%progbits
 551              		.align	2
 552              		.global	nRF24_read_bit
 553              		.thumb
 554              		.thumb_func
 555              		.type	nRF24_read_bit, %function
 556              	nRF24_read_bit:
 557              	.LFB8:
 227:Generated_Source\PSoC5/nRF24_HAL.c **** 
 228:Generated_Source\PSoC5/nRF24_HAL.c **** /**
 229:Generated_Source\PSoC5/nRF24_HAL.c ****  * Read the content of the specified bit of the specified nrf_register.
 230:Generated_Source\PSoC5/nRF24_HAL.c ****  *
 231:Generated_Source\PSoC5/nRF24_HAL.c ****  * @param const nrf_register reg: Register to be read.
 232:Generated_Source\PSoC5/nRF24_HAL.c ****  * @param uint8_t bit: Bit to be read.
 233:Generated_Source\PSoC5/nRF24_HAL.c ****  *
 234:Generated_Source\PSoC5/nRF24_HAL.c ****  * @return bool: Return the content of the bit.
 235:Generated_Source\PSoC5/nRF24_HAL.c ****  */
 236:Generated_Source\PSoC5/nRF24_HAL.c **** bool nRF24_read_bit(const nrf_register reg, const uint8_t bit)
 237:Generated_Source\PSoC5/nRF24_HAL.c **** {
ARM GAS  C:\Users\Krist\AppData\Local\Temp\ccnov2rZ.s 			page 15


 558              		.loc 1 237 0
 559              		.cfi_startproc
 560              		@ args = 0, pretend = 0, frame = 8
 561              		@ frame_needed = 1, uses_anonymous_args = 0
 562 0000 80B5     		push	{r7, lr}
 563              		.cfi_def_cfa_offset 8
 564              		.cfi_offset 7, -8
 565              		.cfi_offset 14, -4
 566 0002 82B0     		sub	sp, sp, #8
 567              		.cfi_def_cfa_offset 16
 568 0004 00AF     		add	r7, sp, #0
 569              		.cfi_def_cfa_register 7
 570 0006 0346     		mov	r3, r0
 571 0008 0A46     		mov	r2, r1
 572 000a FB71     		strb	r3, [r7, #7]
 573 000c 1346     		mov	r3, r2
 574 000e BB71     		strb	r3, [r7, #6]
 238:Generated_Source\PSoC5/nRF24_HAL.c ****     return (nRF24_read_register(reg) & (1 << bit)) != 0;
 575              		.loc 1 238 0
 576 0010 FB79     		ldrb	r3, [r7, #7]	@ zero_extendqisi2
 577 0012 1846     		mov	r0, r3
 578 0014 FFF7FEFF 		bl	nRF24_read_register
 579 0018 0346     		mov	r3, r0
 580 001a 1A46     		mov	r2, r3
 581 001c BB79     		ldrb	r3, [r7, #6]	@ zero_extendqisi2
 582 001e 42FA03F3 		asr	r3, r2, r3
 583 0022 03F00103 		and	r3, r3, #1
 584 0026 002B     		cmp	r3, #0
 585 0028 14BF     		ite	ne
 586 002a 0123     		movne	r3, #1
 587 002c 0023     		moveq	r3, #0
 588 002e DBB2     		uxtb	r3, r3
 239:Generated_Source\PSoC5/nRF24_HAL.c **** }
 589              		.loc 1 239 0
 590 0030 1846     		mov	r0, r3
 591 0032 0837     		adds	r7, r7, #8
 592              		.cfi_def_cfa_offset 8
 593 0034 BD46     		mov	sp, r7
 594              		.cfi_def_cfa_register 13
 595              		@ sp needed
 596 0036 80BD     		pop	{r7, pc}
 597              		.cfi_endproc
 598              	.LFE8:
 599              		.size	nRF24_read_bit, .-nRF24_read_bit
 600              		.section	.text.nRF24_write_bit,"ax",%progbits
 601              		.align	2
 602              		.thumb
 603              		.thumb_func
 604              		.type	nRF24_write_bit, %function
 605              	nRF24_write_bit:
 606              	.LFB9:
 240:Generated_Source\PSoC5/nRF24_HAL.c **** 
 241:Generated_Source\PSoC5/nRF24_HAL.c **** /**
 242:Generated_Source\PSoC5/nRF24_HAL.c ****  * Set (1) or clear (0) the specified bit of the specified nRF24 register.
 243:Generated_Source\PSoC5/nRF24_HAL.c ****  *
 244:Generated_Source\PSoC5/nRF24_HAL.c ****  * First we read the specified register and check the content of the specified
 245:Generated_Source\PSoC5/nRF24_HAL.c ****  * bit, exit early if the bit already is the value we wanted, otherwise we set
ARM GAS  C:\Users\Krist\AppData\Local\Temp\ccnov2rZ.s 			page 16


 246:Generated_Source\PSoC5/nRF24_HAL.c ****  * the bit to the specified value.
 247:Generated_Source\PSoC5/nRF24_HAL.c ****  *
 248:Generated_Source\PSoC5/nRF24_HAL.c ****  * @param const nrf_register reg: Register to be written.
 249:Generated_Source\PSoC5/nRF24_HAL.c ****  * @param const uint8_t bit: Position of the bit to be written.
 250:Generated_Source\PSoC5/nRF24_HAL.c ****  * @param const bool value: Value (1 or 0) to write into the bit.
 251:Generated_Source\PSoC5/nRF24_HAL.c ****  */
 252:Generated_Source\PSoC5/nRF24_HAL.c **** static void nRF24_write_bit(const nrf_register reg,
 253:Generated_Source\PSoC5/nRF24_HAL.c ****                                   const uint8_t bit, const bool value)
 254:Generated_Source\PSoC5/nRF24_HAL.c **** {
 607              		.loc 1 254 0
 608              		.cfi_startproc
 609              		@ args = 0, pretend = 0, frame = 16
 610              		@ frame_needed = 1, uses_anonymous_args = 0
 611 0000 80B5     		push	{r7, lr}
 612              		.cfi_def_cfa_offset 8
 613              		.cfi_offset 7, -8
 614              		.cfi_offset 14, -4
 615 0002 84B0     		sub	sp, sp, #16
 616              		.cfi_def_cfa_offset 24
 617 0004 00AF     		add	r7, sp, #0
 618              		.cfi_def_cfa_register 7
 619 0006 0346     		mov	r3, r0
 620 0008 FB71     		strb	r3, [r7, #7]
 621 000a 0B46     		mov	r3, r1
 622 000c BB71     		strb	r3, [r7, #6]
 623 000e 1346     		mov	r3, r2
 624 0010 7B71     		strb	r3, [r7, #5]
 255:Generated_Source\PSoC5/nRF24_HAL.c ****     uint8_t temp = nRF24_read_register(reg);
 625              		.loc 1 255 0
 626 0012 FB79     		ldrb	r3, [r7, #7]	@ zero_extendqisi2
 627 0014 1846     		mov	r0, r3
 628 0016 FFF7FEFF 		bl	nRF24_read_register
 629 001a 0346     		mov	r3, r0
 630 001c FB73     		strb	r3, [r7, #15]
 256:Generated_Source\PSoC5/nRF24_HAL.c **** 
 257:Generated_Source\PSoC5/nRF24_HAL.c ****     // Read the bit value before writing to it.
 258:Generated_Source\PSoC5/nRF24_HAL.c ****     // Check if the bit is 1
 259:Generated_Source\PSoC5/nRF24_HAL.c ****     if ((temp & (1 << bit)) != 0) {
 631              		.loc 1 259 0
 632 001e FA7B     		ldrb	r2, [r7, #15]	@ zero_extendqisi2
 633 0020 BB79     		ldrb	r3, [r7, #6]	@ zero_extendqisi2
 634 0022 42FA03F3 		asr	r3, r2, r3
 635 0026 03F00103 		and	r3, r3, #1
 636 002a 002B     		cmp	r3, #0
 637 002c 03D0     		beq	.L22
 260:Generated_Source\PSoC5/nRF24_HAL.c ****         // it is 1, return if we wanted to set it to 1
 261:Generated_Source\PSoC5/nRF24_HAL.c ****         if (value) {
 638              		.loc 1 261 0
 639 002e 7B79     		ldrb	r3, [r7, #5]	@ zero_extendqisi2
 640 0030 002B     		cmp	r3, #0
 641 0032 06D0     		beq	.L23
 262:Generated_Source\PSoC5/nRF24_HAL.c ****             return;
 642              		.loc 1 262 0
 643 0034 28E0     		b	.L21
 644              	.L22:
 263:Generated_Source\PSoC5/nRF24_HAL.c ****         }
 264:Generated_Source\PSoC5/nRF24_HAL.c ****     } else { // the bit is 0
ARM GAS  C:\Users\Krist\AppData\Local\Temp\ccnov2rZ.s 			page 17


 265:Generated_Source\PSoC5/nRF24_HAL.c ****         // it is 0, return if we wanted to set it to 0
 266:Generated_Source\PSoC5/nRF24_HAL.c ****         if (!value) {
 645              		.loc 1 266 0
 646 0036 7B79     		ldrb	r3, [r7, #5]
 647 0038 83F00103 		eor	r3, r3, #1
 648 003c DBB2     		uxtb	r3, r3
 649 003e 002B     		cmp	r3, #0
 650 0040 21D1     		bne	.L27
 651              	.L23:
 267:Generated_Source\PSoC5/nRF24_HAL.c ****             return;
 268:Generated_Source\PSoC5/nRF24_HAL.c ****         }
 269:Generated_Source\PSoC5/nRF24_HAL.c ****     }
 270:Generated_Source\PSoC5/nRF24_HAL.c **** 
 271:Generated_Source\PSoC5/nRF24_HAL.c ****     // Calculate the new value to be written into the register
 272:Generated_Source\PSoC5/nRF24_HAL.c ****     temp = value ? temp | (1 << bit) : temp & ~(1 << bit);
 652              		.loc 1 272 0
 653 0042 7B79     		ldrb	r3, [r7, #5]	@ zero_extendqisi2
 654 0044 002B     		cmp	r3, #0
 655 0046 0AD0     		beq	.L25
 656              		.loc 1 272 0 is_stmt 0 discriminator 1
 657 0048 BB79     		ldrb	r3, [r7, #6]	@ zero_extendqisi2
 658 004a 0122     		movs	r2, #1
 659 004c 02FA03F3 		lsl	r3, r2, r3
 660 0050 5AB2     		sxtb	r2, r3
 661 0052 97F90F30 		ldrsb	r3, [r7, #15]
 662 0056 1343     		orrs	r3, r3, r2
 663 0058 5BB2     		sxtb	r3, r3
 664 005a DBB2     		uxtb	r3, r3
 665 005c 0BE0     		b	.L26
 666              	.L25:
 667              		.loc 1 272 0 discriminator 2
 668 005e BB79     		ldrb	r3, [r7, #6]	@ zero_extendqisi2
 669 0060 0122     		movs	r2, #1
 670 0062 02FA03F3 		lsl	r3, r2, r3
 671 0066 5BB2     		sxtb	r3, r3
 672 0068 DB43     		mvns	r3, r3
 673 006a 5AB2     		sxtb	r2, r3
 674 006c 97F90F30 		ldrsb	r3, [r7, #15]
 675 0070 1340     		ands	r3, r3, r2
 676 0072 5BB2     		sxtb	r3, r3
 677 0074 DBB2     		uxtb	r3, r3
 678              	.L26:
 679              		.loc 1 272 0 discriminator 4
 680 0076 FB73     		strb	r3, [r7, #15]
 273:Generated_Source\PSoC5/nRF24_HAL.c **** 
 274:Generated_Source\PSoC5/nRF24_HAL.c ****     nRF24_write_register(reg, temp);
 681              		.loc 1 274 0 is_stmt 1 discriminator 4
 682 0078 FA7B     		ldrb	r2, [r7, #15]	@ zero_extendqisi2
 683 007a FB79     		ldrb	r3, [r7, #7]	@ zero_extendqisi2
 684 007c 1146     		mov	r1, r2
 685 007e 1846     		mov	r0, r3
 686 0080 FFF7FEFF 		bl	nRF24_write_register
 687 0084 00E0     		b	.L21
 688              	.L27:
 267:Generated_Source\PSoC5/nRF24_HAL.c ****             return;
 689              		.loc 1 267 0
 690 0086 00BF     		nop
ARM GAS  C:\Users\Krist\AppData\Local\Temp\ccnov2rZ.s 			page 18


 691              	.L21:
 275:Generated_Source\PSoC5/nRF24_HAL.c **** }
 692              		.loc 1 275 0
 693 0088 1037     		adds	r7, r7, #16
 694              		.cfi_def_cfa_offset 8
 695 008a BD46     		mov	sp, r7
 696              		.cfi_def_cfa_register 13
 697              		@ sp needed
 698 008c 80BD     		pop	{r7, pc}
 699              		.cfi_endproc
 700              	.LFE9:
 701              		.size	nRF24_write_bit, .-nRF24_write_bit
 702 008e 00BF     		.section	.text.nRF24_clear_bit,"ax",%progbits
 703              		.align	2
 704              		.global	nRF24_clear_bit
 705              		.thumb
 706              		.thumb_func
 707              		.type	nRF24_clear_bit, %function
 708              	nRF24_clear_bit:
 709              	.LFB10:
 276:Generated_Source\PSoC5/nRF24_HAL.c **** 
 277:Generated_Source\PSoC5/nRF24_HAL.c **** /**
 278:Generated_Source\PSoC5/nRF24_HAL.c ****  * Set to 0 the specified bit of the specified nRF24 register.
 279:Generated_Source\PSoC5/nRF24_HAL.c ****  *
 280:Generated_Source\PSoC5/nRF24_HAL.c ****  * @param const nrf_register reg: Register to be written.
 281:Generated_Source\PSoC5/nRF24_HAL.c ****  * @param const uint8_t bit: Bit to be written.
 282:Generated_Source\PSoC5/nRF24_HAL.c ****  */
 283:Generated_Source\PSoC5/nRF24_HAL.c **** void nRF24_clear_bit(const nrf_register reg, const uint8_t bit)
 284:Generated_Source\PSoC5/nRF24_HAL.c **** {
 710              		.loc 1 284 0
 711              		.cfi_startproc
 712              		@ args = 0, pretend = 0, frame = 8
 713              		@ frame_needed = 1, uses_anonymous_args = 0
 714 0000 80B5     		push	{r7, lr}
 715              		.cfi_def_cfa_offset 8
 716              		.cfi_offset 7, -8
 717              		.cfi_offset 14, -4
 718 0002 82B0     		sub	sp, sp, #8
 719              		.cfi_def_cfa_offset 16
 720 0004 00AF     		add	r7, sp, #0
 721              		.cfi_def_cfa_register 7
 722 0006 0346     		mov	r3, r0
 723 0008 0A46     		mov	r2, r1
 724 000a FB71     		strb	r3, [r7, #7]
 725 000c 1346     		mov	r3, r2
 726 000e BB71     		strb	r3, [r7, #6]
 285:Generated_Source\PSoC5/nRF24_HAL.c ****     if (8 < bit) {
 727              		.loc 1 285 0
 728 0010 BB79     		ldrb	r3, [r7, #6]	@ zero_extendqisi2
 729 0012 082B     		cmp	r3, #8
 730 0014 06D8     		bhi	.L31
 286:Generated_Source\PSoC5/nRF24_HAL.c ****         return;
 287:Generated_Source\PSoC5/nRF24_HAL.c ****     }
 288:Generated_Source\PSoC5/nRF24_HAL.c **** 
 289:Generated_Source\PSoC5/nRF24_HAL.c ****     nRF24_write_bit(reg, bit, 0);
 731              		.loc 1 289 0
 732 0016 B979     		ldrb	r1, [r7, #6]	@ zero_extendqisi2
ARM GAS  C:\Users\Krist\AppData\Local\Temp\ccnov2rZ.s 			page 19


 733 0018 FB79     		ldrb	r3, [r7, #7]	@ zero_extendqisi2
 734 001a 0022     		movs	r2, #0
 735 001c 1846     		mov	r0, r3
 736 001e FFF7FEFF 		bl	nRF24_write_bit
 737 0022 00E0     		b	.L28
 738              	.L31:
 286:Generated_Source\PSoC5/nRF24_HAL.c ****         return;
 739              		.loc 1 286 0
 740 0024 00BF     		nop
 741              	.L28:
 290:Generated_Source\PSoC5/nRF24_HAL.c **** }
 742              		.loc 1 290 0
 743 0026 0837     		adds	r7, r7, #8
 744              		.cfi_def_cfa_offset 8
 745 0028 BD46     		mov	sp, r7
 746              		.cfi_def_cfa_register 13
 747              		@ sp needed
 748 002a 80BD     		pop	{r7, pc}
 749              		.cfi_endproc
 750              	.LFE10:
 751              		.size	nRF24_clear_bit, .-nRF24_clear_bit
 752              		.section	.text.nRF24_set_bit,"ax",%progbits
 753              		.align	2
 754              		.global	nRF24_set_bit
 755              		.thumb
 756              		.thumb_func
 757              		.type	nRF24_set_bit, %function
 758              	nRF24_set_bit:
 759              	.LFB11:
 291:Generated_Source\PSoC5/nRF24_HAL.c **** 
 292:Generated_Source\PSoC5/nRF24_HAL.c **** /**
 293:Generated_Source\PSoC5/nRF24_HAL.c ****  * Set to 1 the specified bit of the specified nRF24 register.
 294:Generated_Source\PSoC5/nRF24_HAL.c ****  *
 295:Generated_Source\PSoC5/nRF24_HAL.c ****  * @param const nrf_register reg: Register to be written.
 296:Generated_Source\PSoC5/nRF24_HAL.c ****  * @param const uint8_t bit: Bit to be written.
 297:Generated_Source\PSoC5/nRF24_HAL.c ****  */
 298:Generated_Source\PSoC5/nRF24_HAL.c **** void nRF24_set_bit(const nrf_register reg, const uint8_t bit)
 299:Generated_Source\PSoC5/nRF24_HAL.c **** {
 760              		.loc 1 299 0
 761              		.cfi_startproc
 762              		@ args = 0, pretend = 0, frame = 8
 763              		@ frame_needed = 1, uses_anonymous_args = 0
 764 0000 80B5     		push	{r7, lr}
 765              		.cfi_def_cfa_offset 8
 766              		.cfi_offset 7, -8
 767              		.cfi_offset 14, -4
 768 0002 82B0     		sub	sp, sp, #8
 769              		.cfi_def_cfa_offset 16
 770 0004 00AF     		add	r7, sp, #0
 771              		.cfi_def_cfa_register 7
 772 0006 0346     		mov	r3, r0
 773 0008 0A46     		mov	r2, r1
 774 000a FB71     		strb	r3, [r7, #7]
 775 000c 1346     		mov	r3, r2
 776 000e BB71     		strb	r3, [r7, #6]
 300:Generated_Source\PSoC5/nRF24_HAL.c ****     if (8 < bit) {
 777              		.loc 1 300 0
ARM GAS  C:\Users\Krist\AppData\Local\Temp\ccnov2rZ.s 			page 20


 778 0010 BB79     		ldrb	r3, [r7, #6]	@ zero_extendqisi2
 779 0012 082B     		cmp	r3, #8
 780 0014 06D8     		bhi	.L35
 301:Generated_Source\PSoC5/nRF24_HAL.c ****         return;
 302:Generated_Source\PSoC5/nRF24_HAL.c ****     }
 303:Generated_Source\PSoC5/nRF24_HAL.c **** 
 304:Generated_Source\PSoC5/nRF24_HAL.c ****     nRF24_write_bit(reg, bit, 1);
 781              		.loc 1 304 0
 782 0016 B979     		ldrb	r1, [r7, #6]	@ zero_extendqisi2
 783 0018 FB79     		ldrb	r3, [r7, #7]	@ zero_extendqisi2
 784 001a 0122     		movs	r2, #1
 785 001c 1846     		mov	r0, r3
 786 001e FFF7FEFF 		bl	nRF24_write_bit
 787 0022 00E0     		b	.L32
 788              	.L35:
 301:Generated_Source\PSoC5/nRF24_HAL.c ****         return;
 789              		.loc 1 301 0
 790 0024 00BF     		nop
 791              	.L32:
 305:Generated_Source\PSoC5/nRF24_HAL.c **** }
 792              		.loc 1 305 0
 793 0026 0837     		adds	r7, r7, #8
 794              		.cfi_def_cfa_offset 8
 795 0028 BD46     		mov	sp, r7
 796              		.cfi_def_cfa_register 13
 797              		@ sp needed
 798 002a 80BD     		pop	{r7, pc}
 799              		.cfi_endproc
 800              	.LFE11:
 801              		.size	nRF24_set_bit, .-nRF24_set_bit
 802              		.text
 803              	.Letext0:
 804              		.file 2 "c:\\program files (x86)\\cypress\\psoc creator\\4.1\\psoc creator\\import\\gnu\\arm\\5.4.
 805              		.file 3 "c:\\program files (x86)\\cypress\\psoc creator\\4.1\\psoc creator\\import\\gnu\\arm\\5.4.
 806              		.file 4 "c:\\program files (x86)\\cypress\\psoc creator\\4.1\\psoc creator\\import\\gnu\\arm\\5.4.
 807              		.file 5 "Generated_Source\\PSoC5\\cytypes.h"
 808              		.file 6 "Generated_Source\\PSoC5\\nRF24_DEFS.h"
 809              		.file 7 "Generated_Source\\PSoC5\\nRF24_HAL.h"