ARM GAS  C:\Users\rens_\AppData\Local\Temp\cc59ibsE.s 			page 1


   1              		.syntax unified
   2              		.cpu cortex-m3
   3              		.fpu softvfp
   4              		.eabi_attribute 20, 1
   5              		.eabi_attribute 21, 1
   6              		.eabi_attribute 23, 3
   7              		.eabi_attribute 24, 1
   8              		.eabi_attribute 25, 1
   9              		.eabi_attribute 26, 1
  10              		.eabi_attribute 30, 6
  11              		.eabi_attribute 34, 1
  12              		.eabi_attribute 18, 4
  13              		.thumb
  14              		.syntax unified
  15              		.file	"PWM_SERVO.c"
  16              		.text
  17              	.Ltext0:
  18              		.cfi_sections	.debug_frame
  19              		.global	PWM_SERVO_initVar
  20              		.bss
  21              		.type	PWM_SERVO_initVar, %object
  22              		.size	PWM_SERVO_initVar, 1
  23              	PWM_SERVO_initVar:
  24 0000 00       		.space	1
  25              		.section	.text.PWM_SERVO_Start,"ax",%progbits
  26              		.align	2
  27              		.global	PWM_SERVO_Start
  28              		.thumb
  29              		.thumb_func
  30              		.type	PWM_SERVO_Start, %function
  31              	PWM_SERVO_Start:
  32              	.LFB0:
  33              		.file 1 "Generated_Source\\PSoC5\\PWM_SERVO.c"
   1:Generated_Source\PSoC5/PWM_SERVO.c **** /*******************************************************************************
   2:Generated_Source\PSoC5/PWM_SERVO.c **** * File Name: PWM_SERVO.c
   3:Generated_Source\PSoC5/PWM_SERVO.c **** * Version 3.30
   4:Generated_Source\PSoC5/PWM_SERVO.c **** *
   5:Generated_Source\PSoC5/PWM_SERVO.c **** * Description:
   6:Generated_Source\PSoC5/PWM_SERVO.c **** *  The PWM User Module consist of an 8 or 16-bit counter with two 8 or 16-bit
   7:Generated_Source\PSoC5/PWM_SERVO.c **** *  comparitors. Each instance of this user module is capable of generating
   8:Generated_Source\PSoC5/PWM_SERVO.c **** *  two PWM outputs with the same period. The pulse width is selectable between
   9:Generated_Source\PSoC5/PWM_SERVO.c **** *  1 and 255/65535. The period is selectable between 2 and 255/65536 clocks.
  10:Generated_Source\PSoC5/PWM_SERVO.c **** *  The compare value output may be configured to be active when the present
  11:Generated_Source\PSoC5/PWM_SERVO.c **** *  counter is less than or less than/equal to the compare value.
  12:Generated_Source\PSoC5/PWM_SERVO.c **** *  A terminal count output is also provided. It generates a pulse one clock
  13:Generated_Source\PSoC5/PWM_SERVO.c **** *  width wide when the counter is equal to zero.
  14:Generated_Source\PSoC5/PWM_SERVO.c **** *
  15:Generated_Source\PSoC5/PWM_SERVO.c **** * Note:
  16:Generated_Source\PSoC5/PWM_SERVO.c **** *
  17:Generated_Source\PSoC5/PWM_SERVO.c **** *******************************************************************************
  18:Generated_Source\PSoC5/PWM_SERVO.c **** * Copyright 2008-2014, Cypress Semiconductor Corporation.  All rights reserved.
  19:Generated_Source\PSoC5/PWM_SERVO.c **** * You may use this file only in accordance with the license, terms, conditions,
  20:Generated_Source\PSoC5/PWM_SERVO.c **** * disclaimers, and limitations in the end user license agreement accompanying
  21:Generated_Source\PSoC5/PWM_SERVO.c **** * the software package with which this file was provided.
  22:Generated_Source\PSoC5/PWM_SERVO.c **** ********************************************************************************/
  23:Generated_Source\PSoC5/PWM_SERVO.c **** 
  24:Generated_Source\PSoC5/PWM_SERVO.c **** #include "PWM_SERVO.h"
ARM GAS  C:\Users\rens_\AppData\Local\Temp\cc59ibsE.s 			page 2


  25:Generated_Source\PSoC5/PWM_SERVO.c **** 
  26:Generated_Source\PSoC5/PWM_SERVO.c **** /* Error message for removed <resource> through optimization */
  27:Generated_Source\PSoC5/PWM_SERVO.c **** #ifdef PWM_SERVO_PWMUDB_genblk1_ctrlreg__REMOVED
  28:Generated_Source\PSoC5/PWM_SERVO.c ****     #error PWM_v3_30 detected with a constant 0 for the enable or \
  29:Generated_Source\PSoC5/PWM_SERVO.c ****          constant 1 for reset. This will prevent the component from operating.
  30:Generated_Source\PSoC5/PWM_SERVO.c **** #endif /* PWM_SERVO_PWMUDB_genblk1_ctrlreg__REMOVED */
  31:Generated_Source\PSoC5/PWM_SERVO.c **** 
  32:Generated_Source\PSoC5/PWM_SERVO.c **** uint8 PWM_SERVO_initVar = 0u;
  33:Generated_Source\PSoC5/PWM_SERVO.c **** 
  34:Generated_Source\PSoC5/PWM_SERVO.c **** 
  35:Generated_Source\PSoC5/PWM_SERVO.c **** /*******************************************************************************
  36:Generated_Source\PSoC5/PWM_SERVO.c **** * Function Name: PWM_SERVO_Start
  37:Generated_Source\PSoC5/PWM_SERVO.c **** ********************************************************************************
  38:Generated_Source\PSoC5/PWM_SERVO.c **** *
  39:Generated_Source\PSoC5/PWM_SERVO.c **** * Summary:
  40:Generated_Source\PSoC5/PWM_SERVO.c **** *  The start function initializes the pwm with the default values, the
  41:Generated_Source\PSoC5/PWM_SERVO.c **** *  enables the counter to begin counting.  It does not enable interrupts,
  42:Generated_Source\PSoC5/PWM_SERVO.c **** *  the EnableInt command should be called if interrupt generation is required.
  43:Generated_Source\PSoC5/PWM_SERVO.c **** *
  44:Generated_Source\PSoC5/PWM_SERVO.c **** * Parameters:
  45:Generated_Source\PSoC5/PWM_SERVO.c **** *  None
  46:Generated_Source\PSoC5/PWM_SERVO.c **** *
  47:Generated_Source\PSoC5/PWM_SERVO.c **** * Return:
  48:Generated_Source\PSoC5/PWM_SERVO.c **** *  None
  49:Generated_Source\PSoC5/PWM_SERVO.c **** *
  50:Generated_Source\PSoC5/PWM_SERVO.c **** * Global variables:
  51:Generated_Source\PSoC5/PWM_SERVO.c **** *  PWM_SERVO_initVar: Is modified when this function is called for the
  52:Generated_Source\PSoC5/PWM_SERVO.c **** *   first time. Is used to ensure that initialization happens only once.
  53:Generated_Source\PSoC5/PWM_SERVO.c **** *
  54:Generated_Source\PSoC5/PWM_SERVO.c **** *******************************************************************************/
  55:Generated_Source\PSoC5/PWM_SERVO.c **** void PWM_SERVO_Start(void) 
  56:Generated_Source\PSoC5/PWM_SERVO.c **** {
  34              		.loc 1 56 0
  35              		.cfi_startproc
  36              		@ args = 0, pretend = 0, frame = 0
  37              		@ frame_needed = 1, uses_anonymous_args = 0
  38 0000 80B5     		push	{r7, lr}
  39              		.cfi_def_cfa_offset 8
  40              		.cfi_offset 7, -8
  41              		.cfi_offset 14, -4
  42 0002 00AF     		add	r7, sp, #0
  43              		.cfi_def_cfa_register 7
  57:Generated_Source\PSoC5/PWM_SERVO.c ****     /* If not Initialized then initialize all required hardware and software */
  58:Generated_Source\PSoC5/PWM_SERVO.c ****     if(PWM_SERVO_initVar == 0u)
  44              		.loc 1 58 0
  45 0004 064B     		ldr	r3, .L3
  46 0006 1B78     		ldrb	r3, [r3]	@ zero_extendqisi2
  47 0008 002B     		cmp	r3, #0
  48 000a 04D1     		bne	.L2
  59:Generated_Source\PSoC5/PWM_SERVO.c ****     {
  60:Generated_Source\PSoC5/PWM_SERVO.c ****         PWM_SERVO_Init();
  49              		.loc 1 60 0
  50 000c FFF7FEFF 		bl	PWM_SERVO_Init
  61:Generated_Source\PSoC5/PWM_SERVO.c ****         PWM_SERVO_initVar = 1u;
  51              		.loc 1 61 0
  52 0010 034B     		ldr	r3, .L3
  53 0012 0122     		movs	r2, #1
ARM GAS  C:\Users\rens_\AppData\Local\Temp\cc59ibsE.s 			page 3


  54 0014 1A70     		strb	r2, [r3]
  55              	.L2:
  62:Generated_Source\PSoC5/PWM_SERVO.c ****     }
  63:Generated_Source\PSoC5/PWM_SERVO.c ****     PWM_SERVO_Enable();
  56              		.loc 1 63 0
  57 0016 FFF7FEFF 		bl	PWM_SERVO_Enable
  64:Generated_Source\PSoC5/PWM_SERVO.c **** 
  65:Generated_Source\PSoC5/PWM_SERVO.c **** }
  58              		.loc 1 65 0
  59 001a 00BF     		nop
  60 001c 80BD     		pop	{r7, pc}
  61              	.L4:
  62 001e 00BF     		.align	2
  63              	.L3:
  64 0020 00000000 		.word	PWM_SERVO_initVar
  65              		.cfi_endproc
  66              	.LFE0:
  67              		.size	PWM_SERVO_Start, .-PWM_SERVO_Start
  68              		.section	.text.PWM_SERVO_Init,"ax",%progbits
  69              		.align	2
  70              		.global	PWM_SERVO_Init
  71              		.thumb
  72              		.thumb_func
  73              		.type	PWM_SERVO_Init, %function
  74              	PWM_SERVO_Init:
  75              	.LFB1:
  66:Generated_Source\PSoC5/PWM_SERVO.c **** 
  67:Generated_Source\PSoC5/PWM_SERVO.c **** 
  68:Generated_Source\PSoC5/PWM_SERVO.c **** /*******************************************************************************
  69:Generated_Source\PSoC5/PWM_SERVO.c **** * Function Name: PWM_SERVO_Init
  70:Generated_Source\PSoC5/PWM_SERVO.c **** ********************************************************************************
  71:Generated_Source\PSoC5/PWM_SERVO.c **** *
  72:Generated_Source\PSoC5/PWM_SERVO.c **** * Summary:
  73:Generated_Source\PSoC5/PWM_SERVO.c **** *  Initialize component's parameters to the parameters set by user in the
  74:Generated_Source\PSoC5/PWM_SERVO.c **** *  customizer of the component placed onto schematic. Usually called in
  75:Generated_Source\PSoC5/PWM_SERVO.c **** *  PWM_SERVO_Start().
  76:Generated_Source\PSoC5/PWM_SERVO.c **** *
  77:Generated_Source\PSoC5/PWM_SERVO.c **** * Parameters:
  78:Generated_Source\PSoC5/PWM_SERVO.c **** *  None
  79:Generated_Source\PSoC5/PWM_SERVO.c **** *
  80:Generated_Source\PSoC5/PWM_SERVO.c **** * Return:
  81:Generated_Source\PSoC5/PWM_SERVO.c **** *  None
  82:Generated_Source\PSoC5/PWM_SERVO.c **** *
  83:Generated_Source\PSoC5/PWM_SERVO.c **** *******************************************************************************/
  84:Generated_Source\PSoC5/PWM_SERVO.c **** void PWM_SERVO_Init(void) 
  85:Generated_Source\PSoC5/PWM_SERVO.c **** {
  76              		.loc 1 85 0
  77              		.cfi_startproc
  78              		@ args = 0, pretend = 0, frame = 8
  79              		@ frame_needed = 1, uses_anonymous_args = 0
  80 0000 80B5     		push	{r7, lr}
  81              		.cfi_def_cfa_offset 8
  82              		.cfi_offset 7, -8
  83              		.cfi_offset 14, -4
  84 0002 82B0     		sub	sp, sp, #8
  85              		.cfi_def_cfa_offset 16
  86 0004 00AF     		add	r7, sp, #0
ARM GAS  C:\Users\rens_\AppData\Local\Temp\cc59ibsE.s 			page 4


  87              		.cfi_def_cfa_register 7
  86:Generated_Source\PSoC5/PWM_SERVO.c ****     #if (PWM_SERVO_UsingFixedFunction || PWM_SERVO_UseControl)
  87:Generated_Source\PSoC5/PWM_SERVO.c ****         uint8 ctrl;
  88:Generated_Source\PSoC5/PWM_SERVO.c ****     #endif /* (PWM_SERVO_UsingFixedFunction || PWM_SERVO_UseControl) */
  89:Generated_Source\PSoC5/PWM_SERVO.c **** 
  90:Generated_Source\PSoC5/PWM_SERVO.c ****     #if(!PWM_SERVO_UsingFixedFunction)
  91:Generated_Source\PSoC5/PWM_SERVO.c ****         #if(PWM_SERVO_UseStatus)
  92:Generated_Source\PSoC5/PWM_SERVO.c ****             /* Interrupt State Backup for Critical Region*/
  93:Generated_Source\PSoC5/PWM_SERVO.c ****             uint8 PWM_SERVO_interruptState;
  94:Generated_Source\PSoC5/PWM_SERVO.c ****         #endif /* (PWM_SERVO_UseStatus) */
  95:Generated_Source\PSoC5/PWM_SERVO.c ****     #endif /* (!PWM_SERVO_UsingFixedFunction) */
  96:Generated_Source\PSoC5/PWM_SERVO.c **** 
  97:Generated_Source\PSoC5/PWM_SERVO.c ****     #if (PWM_SERVO_UsingFixedFunction)
  98:Generated_Source\PSoC5/PWM_SERVO.c ****         /* You are allowed to write the compare value (FF only) */
  99:Generated_Source\PSoC5/PWM_SERVO.c ****         PWM_SERVO_CONTROL |= PWM_SERVO_CFG0_MODE;
  88              		.loc 1 99 0
  89 0006 294A     		ldr	r2, .L6
  90 0008 284B     		ldr	r3, .L6
  91 000a 1B78     		ldrb	r3, [r3]
  92 000c DBB2     		uxtb	r3, r3
  93 000e 43F00203 		orr	r3, r3, #2
  94 0012 DBB2     		uxtb	r3, r3
  95 0014 1370     		strb	r3, [r2]
 100:Generated_Source\PSoC5/PWM_SERVO.c ****         #if (PWM_SERVO_DeadBand2_4)
 101:Generated_Source\PSoC5/PWM_SERVO.c ****             PWM_SERVO_CONTROL |= PWM_SERVO_CFG0_DB;
 102:Generated_Source\PSoC5/PWM_SERVO.c ****         #endif /* (PWM_SERVO_DeadBand2_4) */
 103:Generated_Source\PSoC5/PWM_SERVO.c **** 
 104:Generated_Source\PSoC5/PWM_SERVO.c ****         ctrl = PWM_SERVO_CONTROL3 & ((uint8 )(~PWM_SERVO_CTRL_CMPMODE1_MASK));
  96              		.loc 1 104 0
  97 0016 264B     		ldr	r3, .L6+4
  98 0018 1B78     		ldrb	r3, [r3]
  99 001a DBB2     		uxtb	r3, r3
 100 001c 23F07003 		bic	r3, r3, #112
 101 0020 FB71     		strb	r3, [r7, #7]
 105:Generated_Source\PSoC5/PWM_SERVO.c ****         PWM_SERVO_CONTROL3 = ctrl | PWM_SERVO_DEFAULT_COMPARE1_MODE;
 102              		.loc 1 105 0
 103 0022 234A     		ldr	r2, .L6+4
 104 0024 FB79     		ldrb	r3, [r7, #7]
 105 0026 43F01003 		orr	r3, r3, #16
 106 002a DBB2     		uxtb	r3, r3
 107 002c 1370     		strb	r3, [r2]
 106:Generated_Source\PSoC5/PWM_SERVO.c **** 
 107:Generated_Source\PSoC5/PWM_SERVO.c ****          /* Clear and Set SYNCTC and SYNCCMP bits of RT1 register */
 108:Generated_Source\PSoC5/PWM_SERVO.c ****         PWM_SERVO_RT1 &= ((uint8)(~PWM_SERVO_RT1_MASK));
 108              		.loc 1 108 0
 109 002e 214A     		ldr	r2, .L6+8
 110 0030 204B     		ldr	r3, .L6+8
 111 0032 1B78     		ldrb	r3, [r3]
 112 0034 DBB2     		uxtb	r3, r3
 113 0036 23F03003 		bic	r3, r3, #48
 114 003a DBB2     		uxtb	r3, r3
 115 003c 1370     		strb	r3, [r2]
 109:Generated_Source\PSoC5/PWM_SERVO.c ****         PWM_SERVO_RT1 |= PWM_SERVO_SYNC;
 116              		.loc 1 109 0
 117 003e 1D4A     		ldr	r2, .L6+8
 118 0040 1C4B     		ldr	r3, .L6+8
 119 0042 1B78     		ldrb	r3, [r3]
ARM GAS  C:\Users\rens_\AppData\Local\Temp\cc59ibsE.s 			page 5


 120 0044 DBB2     		uxtb	r3, r3
 121 0046 43F03003 		orr	r3, r3, #48
 122 004a DBB2     		uxtb	r3, r3
 123 004c 1370     		strb	r3, [r2]
 110:Generated_Source\PSoC5/PWM_SERVO.c **** 
 111:Generated_Source\PSoC5/PWM_SERVO.c ****         /*Enable DSI Sync all all inputs of the PWM*/
 112:Generated_Source\PSoC5/PWM_SERVO.c ****         PWM_SERVO_RT1 &= ((uint8)(~PWM_SERVO_SYNCDSI_MASK));
 124              		.loc 1 112 0
 125 004e 194A     		ldr	r2, .L6+8
 126 0050 184B     		ldr	r3, .L6+8
 127 0052 1B78     		ldrb	r3, [r3]
 128 0054 DBB2     		uxtb	r3, r3
 129 0056 23F00F03 		bic	r3, r3, #15
 130 005a DBB2     		uxtb	r3, r3
 131 005c 1370     		strb	r3, [r2]
 113:Generated_Source\PSoC5/PWM_SERVO.c ****         PWM_SERVO_RT1 |= PWM_SERVO_SYNCDSI_EN;
 132              		.loc 1 113 0
 133 005e 154A     		ldr	r2, .L6+8
 134 0060 144B     		ldr	r3, .L6+8
 135 0062 1B78     		ldrb	r3, [r3]
 136 0064 DBB2     		uxtb	r3, r3
 137 0066 43F00F03 		orr	r3, r3, #15
 138 006a DBB2     		uxtb	r3, r3
 139 006c 1370     		strb	r3, [r2]
 114:Generated_Source\PSoC5/PWM_SERVO.c **** 
 115:Generated_Source\PSoC5/PWM_SERVO.c ****     #elif (PWM_SERVO_UseControl)
 116:Generated_Source\PSoC5/PWM_SERVO.c ****         /* Set the default compare mode defined in the parameter */
 117:Generated_Source\PSoC5/PWM_SERVO.c ****         ctrl = PWM_SERVO_CONTROL & ((uint8)(~PWM_SERVO_CTRL_CMPMODE2_MASK)) &
 118:Generated_Source\PSoC5/PWM_SERVO.c ****                 ((uint8)(~PWM_SERVO_CTRL_CMPMODE1_MASK));
 119:Generated_Source\PSoC5/PWM_SERVO.c ****         PWM_SERVO_CONTROL = ctrl | PWM_SERVO_DEFAULT_COMPARE2_MODE |
 120:Generated_Source\PSoC5/PWM_SERVO.c ****                                    PWM_SERVO_DEFAULT_COMPARE1_MODE;
 121:Generated_Source\PSoC5/PWM_SERVO.c ****     #endif /* (PWM_SERVO_UsingFixedFunction) */
 122:Generated_Source\PSoC5/PWM_SERVO.c **** 
 123:Generated_Source\PSoC5/PWM_SERVO.c ****     #if (!PWM_SERVO_UsingFixedFunction)
 124:Generated_Source\PSoC5/PWM_SERVO.c ****         #if (PWM_SERVO_Resolution == 8)
 125:Generated_Source\PSoC5/PWM_SERVO.c ****             /* Set FIFO 0 to 1 byte register for period*/
 126:Generated_Source\PSoC5/PWM_SERVO.c ****             PWM_SERVO_AUX_CONTROLDP0 |= (PWM_SERVO_AUX_CTRL_FIFO0_CLR);
 127:Generated_Source\PSoC5/PWM_SERVO.c ****         #else /* (PWM_SERVO_Resolution == 16)*/
 128:Generated_Source\PSoC5/PWM_SERVO.c ****             /* Set FIFO 0 to 1 byte register for period */
 129:Generated_Source\PSoC5/PWM_SERVO.c ****             PWM_SERVO_AUX_CONTROLDP0 |= (PWM_SERVO_AUX_CTRL_FIFO0_CLR);
 130:Generated_Source\PSoC5/PWM_SERVO.c ****             PWM_SERVO_AUX_CONTROLDP1 |= (PWM_SERVO_AUX_CTRL_FIFO0_CLR);
 131:Generated_Source\PSoC5/PWM_SERVO.c ****         #endif /* (PWM_SERVO_Resolution == 8) */
 132:Generated_Source\PSoC5/PWM_SERVO.c **** 
 133:Generated_Source\PSoC5/PWM_SERVO.c ****         PWM_SERVO_WriteCounter(PWM_SERVO_INIT_PERIOD_VALUE);
 134:Generated_Source\PSoC5/PWM_SERVO.c ****     #endif /* (!PWM_SERVO_UsingFixedFunction) */
 135:Generated_Source\PSoC5/PWM_SERVO.c **** 
 136:Generated_Source\PSoC5/PWM_SERVO.c ****     PWM_SERVO_WritePeriod(PWM_SERVO_INIT_PERIOD_VALUE);
 140              		.loc 1 136 0
 141 006e 44F62060 		movw	r0, #20000
 142 0072 FFF7FEFF 		bl	PWM_SERVO_WritePeriod
 137:Generated_Source\PSoC5/PWM_SERVO.c **** 
 138:Generated_Source\PSoC5/PWM_SERVO.c ****         #if (PWM_SERVO_UseOneCompareMode)
 139:Generated_Source\PSoC5/PWM_SERVO.c ****             PWM_SERVO_WriteCompare(PWM_SERVO_INIT_COMPARE_VALUE1);
 143              		.loc 1 139 0
 144 0076 40F2DC50 		movw	r0, #1500
 145 007a FFF7FEFF 		bl	PWM_SERVO_WriteCompare
 140:Generated_Source\PSoC5/PWM_SERVO.c ****         #else
ARM GAS  C:\Users\rens_\AppData\Local\Temp\cc59ibsE.s 			page 6


 141:Generated_Source\PSoC5/PWM_SERVO.c ****             PWM_SERVO_WriteCompare1(PWM_SERVO_INIT_COMPARE_VALUE1);
 142:Generated_Source\PSoC5/PWM_SERVO.c ****             PWM_SERVO_WriteCompare2(PWM_SERVO_INIT_COMPARE_VALUE2);
 143:Generated_Source\PSoC5/PWM_SERVO.c ****         #endif /* (PWM_SERVO_UseOneCompareMode) */
 144:Generated_Source\PSoC5/PWM_SERVO.c **** 
 145:Generated_Source\PSoC5/PWM_SERVO.c ****         #if (PWM_SERVO_KillModeMinTime)
 146:Generated_Source\PSoC5/PWM_SERVO.c ****             PWM_SERVO_WriteKillTime(PWM_SERVO_MinimumKillTime);
 147:Generated_Source\PSoC5/PWM_SERVO.c ****         #endif /* (PWM_SERVO_KillModeMinTime) */
 148:Generated_Source\PSoC5/PWM_SERVO.c **** 
 149:Generated_Source\PSoC5/PWM_SERVO.c ****         #if (PWM_SERVO_DeadBandUsed)
 150:Generated_Source\PSoC5/PWM_SERVO.c ****             PWM_SERVO_WriteDeadTime(PWM_SERVO_INIT_DEAD_TIME);
 151:Generated_Source\PSoC5/PWM_SERVO.c ****         #endif /* (PWM_SERVO_DeadBandUsed) */
 152:Generated_Source\PSoC5/PWM_SERVO.c **** 
 153:Generated_Source\PSoC5/PWM_SERVO.c ****     #if (PWM_SERVO_UseStatus || PWM_SERVO_UsingFixedFunction)
 154:Generated_Source\PSoC5/PWM_SERVO.c ****         PWM_SERVO_SetInterruptMode(PWM_SERVO_INIT_INTERRUPTS_MODE);
 146              		.loc 1 154 0
 147 007e 0020     		movs	r0, #0
 148 0080 FFF7FEFF 		bl	PWM_SERVO_SetInterruptMode
 155:Generated_Source\PSoC5/PWM_SERVO.c ****     #endif /* (PWM_SERVO_UseStatus || PWM_SERVO_UsingFixedFunction) */
 156:Generated_Source\PSoC5/PWM_SERVO.c **** 
 157:Generated_Source\PSoC5/PWM_SERVO.c ****     #if (PWM_SERVO_UsingFixedFunction)
 158:Generated_Source\PSoC5/PWM_SERVO.c ****         /* Globally Enable the Fixed Function Block chosen */
 159:Generated_Source\PSoC5/PWM_SERVO.c ****         PWM_SERVO_GLOBAL_ENABLE |= PWM_SERVO_BLOCK_EN_MASK;
 149              		.loc 1 159 0
 150 0084 0C4A     		ldr	r2, .L6+12
 151 0086 0C4B     		ldr	r3, .L6+12
 152 0088 1B78     		ldrb	r3, [r3]
 153 008a DBB2     		uxtb	r3, r3
 154 008c 43F00103 		orr	r3, r3, #1
 155 0090 DBB2     		uxtb	r3, r3
 156 0092 1370     		strb	r3, [r2]
 160:Generated_Source\PSoC5/PWM_SERVO.c ****         /* Set the Interrupt source to come from the status register */
 161:Generated_Source\PSoC5/PWM_SERVO.c ****         PWM_SERVO_CONTROL2 |= PWM_SERVO_CTRL2_IRQ_SEL;
 157              		.loc 1 161 0
 158 0094 094A     		ldr	r2, .L6+16
 159 0096 094B     		ldr	r3, .L6+16
 160 0098 1B78     		ldrb	r3, [r3]
 161 009a DBB2     		uxtb	r3, r3
 162 009c 43F00103 		orr	r3, r3, #1
 163 00a0 DBB2     		uxtb	r3, r3
 164 00a2 1370     		strb	r3, [r2]
 162:Generated_Source\PSoC5/PWM_SERVO.c ****     #else
 163:Generated_Source\PSoC5/PWM_SERVO.c ****         #if(PWM_SERVO_UseStatus)
 164:Generated_Source\PSoC5/PWM_SERVO.c **** 
 165:Generated_Source\PSoC5/PWM_SERVO.c ****             /* CyEnterCriticalRegion and CyExitCriticalRegion are used to mark following region cri
 166:Generated_Source\PSoC5/PWM_SERVO.c ****             /* Enter Critical Region*/
 167:Generated_Source\PSoC5/PWM_SERVO.c ****             PWM_SERVO_interruptState = CyEnterCriticalSection();
 168:Generated_Source\PSoC5/PWM_SERVO.c ****             /* Use the interrupt output of the status register for IRQ output */
 169:Generated_Source\PSoC5/PWM_SERVO.c ****             PWM_SERVO_STATUS_AUX_CTRL |= PWM_SERVO_STATUS_ACTL_INT_EN_MASK;
 170:Generated_Source\PSoC5/PWM_SERVO.c **** 
 171:Generated_Source\PSoC5/PWM_SERVO.c ****              /* Exit Critical Region*/
 172:Generated_Source\PSoC5/PWM_SERVO.c ****             CyExitCriticalSection(PWM_SERVO_interruptState);
 173:Generated_Source\PSoC5/PWM_SERVO.c **** 
 174:Generated_Source\PSoC5/PWM_SERVO.c ****             /* Clear the FIFO to enable the PWM_SERVO_STATUS_FIFOFULL
 175:Generated_Source\PSoC5/PWM_SERVO.c ****                    bit to be set on FIFO full. */
 176:Generated_Source\PSoC5/PWM_SERVO.c ****             PWM_SERVO_ClearFIFO();
 177:Generated_Source\PSoC5/PWM_SERVO.c ****         #endif /* (PWM_SERVO_UseStatus) */
 178:Generated_Source\PSoC5/PWM_SERVO.c ****     #endif /* (PWM_SERVO_UsingFixedFunction) */
ARM GAS  C:\Users\rens_\AppData\Local\Temp\cc59ibsE.s 			page 7


 179:Generated_Source\PSoC5/PWM_SERVO.c **** }
 165              		.loc 1 179 0
 166 00a4 00BF     		nop
 167 00a6 0837     		adds	r7, r7, #8
 168              		.cfi_def_cfa_offset 8
 169 00a8 BD46     		mov	sp, r7
 170              		.cfi_def_cfa_register 13
 171              		@ sp needed
 172 00aa 80BD     		pop	{r7, pc}
 173              	.L7:
 174              		.align	2
 175              	.L6:
 176 00ac 004F0040 		.word	1073762048
 177 00b0 024F0040 		.word	1073762050
 178 00b4 0B4F0040 		.word	1073762059
 179 00b8 A3430040 		.word	1073759139
 180 00bc 014F0040 		.word	1073762049
 181              		.cfi_endproc
 182              	.LFE1:
 183              		.size	PWM_SERVO_Init, .-PWM_SERVO_Init
 184              		.section	.text.PWM_SERVO_Enable,"ax",%progbits
 185              		.align	2
 186              		.global	PWM_SERVO_Enable
 187              		.thumb
 188              		.thumb_func
 189              		.type	PWM_SERVO_Enable, %function
 190              	PWM_SERVO_Enable:
 191              	.LFB2:
 180:Generated_Source\PSoC5/PWM_SERVO.c **** 
 181:Generated_Source\PSoC5/PWM_SERVO.c **** 
 182:Generated_Source\PSoC5/PWM_SERVO.c **** /*******************************************************************************
 183:Generated_Source\PSoC5/PWM_SERVO.c **** * Function Name: PWM_SERVO_Enable
 184:Generated_Source\PSoC5/PWM_SERVO.c **** ********************************************************************************
 185:Generated_Source\PSoC5/PWM_SERVO.c **** *
 186:Generated_Source\PSoC5/PWM_SERVO.c **** * Summary:
 187:Generated_Source\PSoC5/PWM_SERVO.c **** *  Enables the PWM block operation
 188:Generated_Source\PSoC5/PWM_SERVO.c **** *
 189:Generated_Source\PSoC5/PWM_SERVO.c **** * Parameters:
 190:Generated_Source\PSoC5/PWM_SERVO.c **** *  None
 191:Generated_Source\PSoC5/PWM_SERVO.c **** *
 192:Generated_Source\PSoC5/PWM_SERVO.c **** * Return:
 193:Generated_Source\PSoC5/PWM_SERVO.c **** *  None
 194:Generated_Source\PSoC5/PWM_SERVO.c **** *
 195:Generated_Source\PSoC5/PWM_SERVO.c **** * Side Effects:
 196:Generated_Source\PSoC5/PWM_SERVO.c **** *  This works only if software enable mode is chosen
 197:Generated_Source\PSoC5/PWM_SERVO.c **** *
 198:Generated_Source\PSoC5/PWM_SERVO.c **** *******************************************************************************/
 199:Generated_Source\PSoC5/PWM_SERVO.c **** void PWM_SERVO_Enable(void) 
 200:Generated_Source\PSoC5/PWM_SERVO.c **** {
 192              		.loc 1 200 0
 193              		.cfi_startproc
 194              		@ args = 0, pretend = 0, frame = 0
 195              		@ frame_needed = 1, uses_anonymous_args = 0
 196              		@ link register save eliminated.
 197 0000 80B4     		push	{r7}
 198              		.cfi_def_cfa_offset 4
 199              		.cfi_offset 7, -4
ARM GAS  C:\Users\rens_\AppData\Local\Temp\cc59ibsE.s 			page 8


 200 0002 00AF     		add	r7, sp, #0
 201              		.cfi_def_cfa_register 7
 201:Generated_Source\PSoC5/PWM_SERVO.c ****     /* Globally Enable the Fixed Function Block chosen */
 202:Generated_Source\PSoC5/PWM_SERVO.c ****     #if (PWM_SERVO_UsingFixedFunction)
 203:Generated_Source\PSoC5/PWM_SERVO.c ****         PWM_SERVO_GLOBAL_ENABLE |= PWM_SERVO_BLOCK_EN_MASK;
 202              		.loc 1 203 0
 203 0004 0D4A     		ldr	r2, .L9
 204 0006 0D4B     		ldr	r3, .L9
 205 0008 1B78     		ldrb	r3, [r3]
 206 000a DBB2     		uxtb	r3, r3
 207 000c 43F00103 		orr	r3, r3, #1
 208 0010 DBB2     		uxtb	r3, r3
 209 0012 1370     		strb	r3, [r2]
 204:Generated_Source\PSoC5/PWM_SERVO.c ****         PWM_SERVO_GLOBAL_STBY_ENABLE |= PWM_SERVO_BLOCK_STBY_EN_MASK;
 210              		.loc 1 204 0
 211 0014 0A4A     		ldr	r2, .L9+4
 212 0016 0A4B     		ldr	r3, .L9+4
 213 0018 1B78     		ldrb	r3, [r3]
 214 001a DBB2     		uxtb	r3, r3
 215 001c 43F00103 		orr	r3, r3, #1
 216 0020 DBB2     		uxtb	r3, r3
 217 0022 1370     		strb	r3, [r2]
 205:Generated_Source\PSoC5/PWM_SERVO.c ****     #endif /* (PWM_SERVO_UsingFixedFunction) */
 206:Generated_Source\PSoC5/PWM_SERVO.c **** 
 207:Generated_Source\PSoC5/PWM_SERVO.c ****     /* Enable the PWM from the control register  */
 208:Generated_Source\PSoC5/PWM_SERVO.c ****     #if (PWM_SERVO_UseControl || PWM_SERVO_UsingFixedFunction)
 209:Generated_Source\PSoC5/PWM_SERVO.c ****         PWM_SERVO_CONTROL |= PWM_SERVO_CTRL_ENABLE;
 218              		.loc 1 209 0
 219 0024 074A     		ldr	r2, .L9+8
 220 0026 074B     		ldr	r3, .L9+8
 221 0028 1B78     		ldrb	r3, [r3]
 222 002a DBB2     		uxtb	r3, r3
 223 002c 43F00103 		orr	r3, r3, #1
 224 0030 DBB2     		uxtb	r3, r3
 225 0032 1370     		strb	r3, [r2]
 210:Generated_Source\PSoC5/PWM_SERVO.c ****     #endif /* (PWM_SERVO_UseControl || PWM_SERVO_UsingFixedFunction) */
 211:Generated_Source\PSoC5/PWM_SERVO.c **** }
 226              		.loc 1 211 0
 227 0034 00BF     		nop
 228 0036 BD46     		mov	sp, r7
 229              		.cfi_def_cfa_register 13
 230              		@ sp needed
 231 0038 80BC     		pop	{r7}
 232              		.cfi_restore 7
 233              		.cfi_def_cfa_offset 0
 234 003a 7047     		bx	lr
 235              	.L10:
 236              		.align	2
 237              	.L9:
 238 003c A3430040 		.word	1073759139
 239 0040 B3430040 		.word	1073759155
 240 0044 004F0040 		.word	1073762048
 241              		.cfi_endproc
 242              	.LFE2:
 243              		.size	PWM_SERVO_Enable, .-PWM_SERVO_Enable
 244              		.section	.text.PWM_SERVO_Stop,"ax",%progbits
 245              		.align	2
ARM GAS  C:\Users\rens_\AppData\Local\Temp\cc59ibsE.s 			page 9


 246              		.global	PWM_SERVO_Stop
 247              		.thumb
 248              		.thumb_func
 249              		.type	PWM_SERVO_Stop, %function
 250              	PWM_SERVO_Stop:
 251              	.LFB3:
 212:Generated_Source\PSoC5/PWM_SERVO.c **** 
 213:Generated_Source\PSoC5/PWM_SERVO.c **** 
 214:Generated_Source\PSoC5/PWM_SERVO.c **** /*******************************************************************************
 215:Generated_Source\PSoC5/PWM_SERVO.c **** * Function Name: PWM_SERVO_Stop
 216:Generated_Source\PSoC5/PWM_SERVO.c **** ********************************************************************************
 217:Generated_Source\PSoC5/PWM_SERVO.c **** *
 218:Generated_Source\PSoC5/PWM_SERVO.c **** * Summary:
 219:Generated_Source\PSoC5/PWM_SERVO.c **** *  The stop function halts the PWM, but does not change any modes or disable
 220:Generated_Source\PSoC5/PWM_SERVO.c **** *  interrupts.
 221:Generated_Source\PSoC5/PWM_SERVO.c **** *
 222:Generated_Source\PSoC5/PWM_SERVO.c **** * Parameters:
 223:Generated_Source\PSoC5/PWM_SERVO.c **** *  None
 224:Generated_Source\PSoC5/PWM_SERVO.c **** *
 225:Generated_Source\PSoC5/PWM_SERVO.c **** * Return:
 226:Generated_Source\PSoC5/PWM_SERVO.c **** *  None
 227:Generated_Source\PSoC5/PWM_SERVO.c **** *
 228:Generated_Source\PSoC5/PWM_SERVO.c **** * Side Effects:
 229:Generated_Source\PSoC5/PWM_SERVO.c **** *  If the Enable mode is set to Hardware only then this function
 230:Generated_Source\PSoC5/PWM_SERVO.c **** *  has no effect on the operation of the PWM
 231:Generated_Source\PSoC5/PWM_SERVO.c **** *
 232:Generated_Source\PSoC5/PWM_SERVO.c **** *******************************************************************************/
 233:Generated_Source\PSoC5/PWM_SERVO.c **** void PWM_SERVO_Stop(void) 
 234:Generated_Source\PSoC5/PWM_SERVO.c **** {
 252              		.loc 1 234 0
 253              		.cfi_startproc
 254              		@ args = 0, pretend = 0, frame = 0
 255              		@ frame_needed = 1, uses_anonymous_args = 0
 256              		@ link register save eliminated.
 257 0000 80B4     		push	{r7}
 258              		.cfi_def_cfa_offset 4
 259              		.cfi_offset 7, -4
 260 0002 00AF     		add	r7, sp, #0
 261              		.cfi_def_cfa_register 7
 235:Generated_Source\PSoC5/PWM_SERVO.c ****     #if (PWM_SERVO_UseControl || PWM_SERVO_UsingFixedFunction)
 236:Generated_Source\PSoC5/PWM_SERVO.c ****         PWM_SERVO_CONTROL &= ((uint8)(~PWM_SERVO_CTRL_ENABLE));
 262              		.loc 1 236 0
 263 0004 0D4A     		ldr	r2, .L12
 264 0006 0D4B     		ldr	r3, .L12
 265 0008 1B78     		ldrb	r3, [r3]
 266 000a DBB2     		uxtb	r3, r3
 267 000c 23F00103 		bic	r3, r3, #1
 268 0010 DBB2     		uxtb	r3, r3
 269 0012 1370     		strb	r3, [r2]
 237:Generated_Source\PSoC5/PWM_SERVO.c ****     #endif /* (PWM_SERVO_UseControl || PWM_SERVO_UsingFixedFunction) */
 238:Generated_Source\PSoC5/PWM_SERVO.c **** 
 239:Generated_Source\PSoC5/PWM_SERVO.c ****     /* Globally disable the Fixed Function Block chosen */
 240:Generated_Source\PSoC5/PWM_SERVO.c ****     #if (PWM_SERVO_UsingFixedFunction)
 241:Generated_Source\PSoC5/PWM_SERVO.c ****         PWM_SERVO_GLOBAL_ENABLE &= ((uint8)(~PWM_SERVO_BLOCK_EN_MASK));
 270              		.loc 1 241 0
 271 0014 0A4A     		ldr	r2, .L12+4
 272 0016 0A4B     		ldr	r3, .L12+4
ARM GAS  C:\Users\rens_\AppData\Local\Temp\cc59ibsE.s 			page 10


 273 0018 1B78     		ldrb	r3, [r3]
 274 001a DBB2     		uxtb	r3, r3
 275 001c 23F00103 		bic	r3, r3, #1
 276 0020 DBB2     		uxtb	r3, r3
 277 0022 1370     		strb	r3, [r2]
 242:Generated_Source\PSoC5/PWM_SERVO.c ****         PWM_SERVO_GLOBAL_STBY_ENABLE &= ((uint8)(~PWM_SERVO_BLOCK_STBY_EN_MASK));
 278              		.loc 1 242 0
 279 0024 074A     		ldr	r2, .L12+8
 280 0026 074B     		ldr	r3, .L12+8
 281 0028 1B78     		ldrb	r3, [r3]
 282 002a DBB2     		uxtb	r3, r3
 283 002c 23F00103 		bic	r3, r3, #1
 284 0030 DBB2     		uxtb	r3, r3
 285 0032 1370     		strb	r3, [r2]
 243:Generated_Source\PSoC5/PWM_SERVO.c ****     #endif /* (PWM_SERVO_UsingFixedFunction) */
 244:Generated_Source\PSoC5/PWM_SERVO.c **** }
 286              		.loc 1 244 0
 287 0034 00BF     		nop
 288 0036 BD46     		mov	sp, r7
 289              		.cfi_def_cfa_register 13
 290              		@ sp needed
 291 0038 80BC     		pop	{r7}
 292              		.cfi_restore 7
 293              		.cfi_def_cfa_offset 0
 294 003a 7047     		bx	lr
 295              	.L13:
 296              		.align	2
 297              	.L12:
 298 003c 004F0040 		.word	1073762048
 299 0040 A3430040 		.word	1073759139
 300 0044 B3430040 		.word	1073759155
 301              		.cfi_endproc
 302              	.LFE3:
 303              		.size	PWM_SERVO_Stop, .-PWM_SERVO_Stop
 304              		.section	.text.PWM_SERVO_WritePeriod,"ax",%progbits
 305              		.align	2
 306              		.global	PWM_SERVO_WritePeriod
 307              		.thumb
 308              		.thumb_func
 309              		.type	PWM_SERVO_WritePeriod, %function
 310              	PWM_SERVO_WritePeriod:
 311              	.LFB4:
 245:Generated_Source\PSoC5/PWM_SERVO.c **** 
 246:Generated_Source\PSoC5/PWM_SERVO.c **** #if (PWM_SERVO_UseOneCompareMode)
 247:Generated_Source\PSoC5/PWM_SERVO.c ****     #if (PWM_SERVO_CompareMode1SW)
 248:Generated_Source\PSoC5/PWM_SERVO.c **** 
 249:Generated_Source\PSoC5/PWM_SERVO.c **** 
 250:Generated_Source\PSoC5/PWM_SERVO.c ****         /*******************************************************************************
 251:Generated_Source\PSoC5/PWM_SERVO.c ****         * Function Name: PWM_SERVO_SetCompareMode
 252:Generated_Source\PSoC5/PWM_SERVO.c ****         ********************************************************************************
 253:Generated_Source\PSoC5/PWM_SERVO.c ****         *
 254:Generated_Source\PSoC5/PWM_SERVO.c ****         * Summary:
 255:Generated_Source\PSoC5/PWM_SERVO.c ****         *  This function writes the Compare Mode for the pwm output when in Dither mode,
 256:Generated_Source\PSoC5/PWM_SERVO.c ****         *  Center Align Mode or One Output Mode.
 257:Generated_Source\PSoC5/PWM_SERVO.c ****         *
 258:Generated_Source\PSoC5/PWM_SERVO.c ****         * Parameters:
 259:Generated_Source\PSoC5/PWM_SERVO.c ****         *  comparemode:  The new compare mode for the PWM output. Use the compare types
ARM GAS  C:\Users\rens_\AppData\Local\Temp\cc59ibsE.s 			page 11


 260:Generated_Source\PSoC5/PWM_SERVO.c ****         *                defined in the H file as input arguments.
 261:Generated_Source\PSoC5/PWM_SERVO.c ****         *
 262:Generated_Source\PSoC5/PWM_SERVO.c ****         * Return:
 263:Generated_Source\PSoC5/PWM_SERVO.c ****         *  None
 264:Generated_Source\PSoC5/PWM_SERVO.c ****         *
 265:Generated_Source\PSoC5/PWM_SERVO.c ****         *******************************************************************************/
 266:Generated_Source\PSoC5/PWM_SERVO.c ****         void PWM_SERVO_SetCompareMode(uint8 comparemode) 
 267:Generated_Source\PSoC5/PWM_SERVO.c ****         {
 268:Generated_Source\PSoC5/PWM_SERVO.c ****             #if(PWM_SERVO_UsingFixedFunction)
 269:Generated_Source\PSoC5/PWM_SERVO.c **** 
 270:Generated_Source\PSoC5/PWM_SERVO.c ****                 #if(0 != PWM_SERVO_CTRL_CMPMODE1_SHIFT)
 271:Generated_Source\PSoC5/PWM_SERVO.c ****                     uint8 comparemodemasked = ((uint8)((uint8)comparemode << PWM_SERVO_CTRL_CMPMODE
 272:Generated_Source\PSoC5/PWM_SERVO.c ****                 #else
 273:Generated_Source\PSoC5/PWM_SERVO.c ****                     uint8 comparemodemasked = comparemode;
 274:Generated_Source\PSoC5/PWM_SERVO.c ****                 #endif /* (0 != PWM_SERVO_CTRL_CMPMODE1_SHIFT) */
 275:Generated_Source\PSoC5/PWM_SERVO.c **** 
 276:Generated_Source\PSoC5/PWM_SERVO.c ****                 PWM_SERVO_CONTROL3 &= ((uint8)(~PWM_SERVO_CTRL_CMPMODE1_MASK)); /*Clear Existing Da
 277:Generated_Source\PSoC5/PWM_SERVO.c ****                 PWM_SERVO_CONTROL3 |= comparemodemasked;
 278:Generated_Source\PSoC5/PWM_SERVO.c **** 
 279:Generated_Source\PSoC5/PWM_SERVO.c ****             #elif (PWM_SERVO_UseControl)
 280:Generated_Source\PSoC5/PWM_SERVO.c **** 
 281:Generated_Source\PSoC5/PWM_SERVO.c ****                 #if(0 != PWM_SERVO_CTRL_CMPMODE1_SHIFT)
 282:Generated_Source\PSoC5/PWM_SERVO.c ****                     uint8 comparemode1masked = ((uint8)((uint8)comparemode << PWM_SERVO_CTRL_CMPMOD
 283:Generated_Source\PSoC5/PWM_SERVO.c ****                                                 PWM_SERVO_CTRL_CMPMODE1_MASK;
 284:Generated_Source\PSoC5/PWM_SERVO.c ****                 #else
 285:Generated_Source\PSoC5/PWM_SERVO.c ****                     uint8 comparemode1masked = comparemode & PWM_SERVO_CTRL_CMPMODE1_MASK;
 286:Generated_Source\PSoC5/PWM_SERVO.c ****                 #endif /* (0 != PWM_SERVO_CTRL_CMPMODE1_SHIFT) */
 287:Generated_Source\PSoC5/PWM_SERVO.c **** 
 288:Generated_Source\PSoC5/PWM_SERVO.c ****                 #if(0 != PWM_SERVO_CTRL_CMPMODE2_SHIFT)
 289:Generated_Source\PSoC5/PWM_SERVO.c ****                     uint8 comparemode2masked = ((uint8)((uint8)comparemode << PWM_SERVO_CTRL_CMPMOD
 290:Generated_Source\PSoC5/PWM_SERVO.c ****                                                PWM_SERVO_CTRL_CMPMODE2_MASK;
 291:Generated_Source\PSoC5/PWM_SERVO.c ****                 #else
 292:Generated_Source\PSoC5/PWM_SERVO.c ****                     uint8 comparemode2masked = comparemode & PWM_SERVO_CTRL_CMPMODE2_MASK;
 293:Generated_Source\PSoC5/PWM_SERVO.c ****                 #endif /* (0 != PWM_SERVO_CTRL_CMPMODE2_SHIFT) */
 294:Generated_Source\PSoC5/PWM_SERVO.c **** 
 295:Generated_Source\PSoC5/PWM_SERVO.c ****                 /*Clear existing mode */
 296:Generated_Source\PSoC5/PWM_SERVO.c ****                 PWM_SERVO_CONTROL &= ((uint8)(~(PWM_SERVO_CTRL_CMPMODE1_MASK |
 297:Generated_Source\PSoC5/PWM_SERVO.c ****                                             PWM_SERVO_CTRL_CMPMODE2_MASK)));
 298:Generated_Source\PSoC5/PWM_SERVO.c ****                 PWM_SERVO_CONTROL |= (comparemode1masked | comparemode2masked);
 299:Generated_Source\PSoC5/PWM_SERVO.c **** 
 300:Generated_Source\PSoC5/PWM_SERVO.c ****             #else
 301:Generated_Source\PSoC5/PWM_SERVO.c ****                 uint8 temp = comparemode;
 302:Generated_Source\PSoC5/PWM_SERVO.c ****             #endif /* (PWM_SERVO_UsingFixedFunction) */
 303:Generated_Source\PSoC5/PWM_SERVO.c ****         }
 304:Generated_Source\PSoC5/PWM_SERVO.c ****     #endif /* PWM_SERVO_CompareMode1SW */
 305:Generated_Source\PSoC5/PWM_SERVO.c **** 
 306:Generated_Source\PSoC5/PWM_SERVO.c **** #else /* UseOneCompareMode */
 307:Generated_Source\PSoC5/PWM_SERVO.c **** 
 308:Generated_Source\PSoC5/PWM_SERVO.c ****     #if (PWM_SERVO_CompareMode1SW)
 309:Generated_Source\PSoC5/PWM_SERVO.c **** 
 310:Generated_Source\PSoC5/PWM_SERVO.c **** 
 311:Generated_Source\PSoC5/PWM_SERVO.c ****         /*******************************************************************************
 312:Generated_Source\PSoC5/PWM_SERVO.c ****         * Function Name: PWM_SERVO_SetCompareMode1
 313:Generated_Source\PSoC5/PWM_SERVO.c ****         ********************************************************************************
 314:Generated_Source\PSoC5/PWM_SERVO.c ****         *
 315:Generated_Source\PSoC5/PWM_SERVO.c ****         * Summary:
 316:Generated_Source\PSoC5/PWM_SERVO.c ****         *  This function writes the Compare Mode for the pwm or pwm1 output
ARM GAS  C:\Users\rens_\AppData\Local\Temp\cc59ibsE.s 			page 12


 317:Generated_Source\PSoC5/PWM_SERVO.c ****         *
 318:Generated_Source\PSoC5/PWM_SERVO.c ****         * Parameters:
 319:Generated_Source\PSoC5/PWM_SERVO.c ****         *  comparemode:  The new compare mode for the PWM output. Use the compare types
 320:Generated_Source\PSoC5/PWM_SERVO.c ****         *                defined in the H file as input arguments.
 321:Generated_Source\PSoC5/PWM_SERVO.c ****         *
 322:Generated_Source\PSoC5/PWM_SERVO.c ****         * Return:
 323:Generated_Source\PSoC5/PWM_SERVO.c ****         *  None
 324:Generated_Source\PSoC5/PWM_SERVO.c ****         *
 325:Generated_Source\PSoC5/PWM_SERVO.c ****         *******************************************************************************/
 326:Generated_Source\PSoC5/PWM_SERVO.c ****         void PWM_SERVO_SetCompareMode1(uint8 comparemode) 
 327:Generated_Source\PSoC5/PWM_SERVO.c ****         {
 328:Generated_Source\PSoC5/PWM_SERVO.c ****             #if(0 != PWM_SERVO_CTRL_CMPMODE1_SHIFT)
 329:Generated_Source\PSoC5/PWM_SERVO.c ****                 uint8 comparemodemasked = ((uint8)((uint8)comparemode << PWM_SERVO_CTRL_CMPMODE1_SH
 330:Generated_Source\PSoC5/PWM_SERVO.c ****                                            PWM_SERVO_CTRL_CMPMODE1_MASK;
 331:Generated_Source\PSoC5/PWM_SERVO.c ****             #else
 332:Generated_Source\PSoC5/PWM_SERVO.c ****                 uint8 comparemodemasked = comparemode & PWM_SERVO_CTRL_CMPMODE1_MASK;
 333:Generated_Source\PSoC5/PWM_SERVO.c ****             #endif /* (0 != PWM_SERVO_CTRL_CMPMODE1_SHIFT) */
 334:Generated_Source\PSoC5/PWM_SERVO.c **** 
 335:Generated_Source\PSoC5/PWM_SERVO.c ****             #if (PWM_SERVO_UseControl)
 336:Generated_Source\PSoC5/PWM_SERVO.c ****                 PWM_SERVO_CONTROL &= ((uint8)(~PWM_SERVO_CTRL_CMPMODE1_MASK)); /*Clear existing mod
 337:Generated_Source\PSoC5/PWM_SERVO.c ****                 PWM_SERVO_CONTROL |= comparemodemasked;
 338:Generated_Source\PSoC5/PWM_SERVO.c ****             #endif /* (PWM_SERVO_UseControl) */
 339:Generated_Source\PSoC5/PWM_SERVO.c ****         }
 340:Generated_Source\PSoC5/PWM_SERVO.c ****     #endif /* PWM_SERVO_CompareMode1SW */
 341:Generated_Source\PSoC5/PWM_SERVO.c **** 
 342:Generated_Source\PSoC5/PWM_SERVO.c **** #if (PWM_SERVO_CompareMode2SW)
 343:Generated_Source\PSoC5/PWM_SERVO.c **** 
 344:Generated_Source\PSoC5/PWM_SERVO.c **** 
 345:Generated_Source\PSoC5/PWM_SERVO.c ****     /*******************************************************************************
 346:Generated_Source\PSoC5/PWM_SERVO.c ****     * Function Name: PWM_SERVO_SetCompareMode2
 347:Generated_Source\PSoC5/PWM_SERVO.c ****     ********************************************************************************
 348:Generated_Source\PSoC5/PWM_SERVO.c ****     *
 349:Generated_Source\PSoC5/PWM_SERVO.c ****     * Summary:
 350:Generated_Source\PSoC5/PWM_SERVO.c ****     *  This function writes the Compare Mode for the pwm or pwm2 output
 351:Generated_Source\PSoC5/PWM_SERVO.c ****     *
 352:Generated_Source\PSoC5/PWM_SERVO.c ****     * Parameters:
 353:Generated_Source\PSoC5/PWM_SERVO.c ****     *  comparemode:  The new compare mode for the PWM output. Use the compare types
 354:Generated_Source\PSoC5/PWM_SERVO.c ****     *                defined in the H file as input arguments.
 355:Generated_Source\PSoC5/PWM_SERVO.c ****     *
 356:Generated_Source\PSoC5/PWM_SERVO.c ****     * Return:
 357:Generated_Source\PSoC5/PWM_SERVO.c ****     *  None
 358:Generated_Source\PSoC5/PWM_SERVO.c ****     *
 359:Generated_Source\PSoC5/PWM_SERVO.c ****     *******************************************************************************/
 360:Generated_Source\PSoC5/PWM_SERVO.c ****     void PWM_SERVO_SetCompareMode2(uint8 comparemode) 
 361:Generated_Source\PSoC5/PWM_SERVO.c ****     {
 362:Generated_Source\PSoC5/PWM_SERVO.c **** 
 363:Generated_Source\PSoC5/PWM_SERVO.c ****         #if(0 != PWM_SERVO_CTRL_CMPMODE2_SHIFT)
 364:Generated_Source\PSoC5/PWM_SERVO.c ****             uint8 comparemodemasked = ((uint8)((uint8)comparemode << PWM_SERVO_CTRL_CMPMODE2_SHIFT)
 365:Generated_Source\PSoC5/PWM_SERVO.c ****                                                  PWM_SERVO_CTRL_CMPMODE2_MASK;
 366:Generated_Source\PSoC5/PWM_SERVO.c ****         #else
 367:Generated_Source\PSoC5/PWM_SERVO.c ****             uint8 comparemodemasked = comparemode & PWM_SERVO_CTRL_CMPMODE2_MASK;
 368:Generated_Source\PSoC5/PWM_SERVO.c ****         #endif /* (0 != PWM_SERVO_CTRL_CMPMODE2_SHIFT) */
 369:Generated_Source\PSoC5/PWM_SERVO.c **** 
 370:Generated_Source\PSoC5/PWM_SERVO.c ****         #if (PWM_SERVO_UseControl)
 371:Generated_Source\PSoC5/PWM_SERVO.c ****             PWM_SERVO_CONTROL &= ((uint8)(~PWM_SERVO_CTRL_CMPMODE2_MASK)); /*Clear existing mode */
 372:Generated_Source\PSoC5/PWM_SERVO.c ****             PWM_SERVO_CONTROL |= comparemodemasked;
 373:Generated_Source\PSoC5/PWM_SERVO.c ****         #endif /* (PWM_SERVO_UseControl) */
ARM GAS  C:\Users\rens_\AppData\Local\Temp\cc59ibsE.s 			page 13


 374:Generated_Source\PSoC5/PWM_SERVO.c ****     }
 375:Generated_Source\PSoC5/PWM_SERVO.c ****     #endif /*PWM_SERVO_CompareMode2SW */
 376:Generated_Source\PSoC5/PWM_SERVO.c **** 
 377:Generated_Source\PSoC5/PWM_SERVO.c **** #endif /* UseOneCompareMode */
 378:Generated_Source\PSoC5/PWM_SERVO.c **** 
 379:Generated_Source\PSoC5/PWM_SERVO.c **** 
 380:Generated_Source\PSoC5/PWM_SERVO.c **** #if (!PWM_SERVO_UsingFixedFunction)
 381:Generated_Source\PSoC5/PWM_SERVO.c **** 
 382:Generated_Source\PSoC5/PWM_SERVO.c **** 
 383:Generated_Source\PSoC5/PWM_SERVO.c ****     /*******************************************************************************
 384:Generated_Source\PSoC5/PWM_SERVO.c ****     * Function Name: PWM_SERVO_WriteCounter
 385:Generated_Source\PSoC5/PWM_SERVO.c ****     ********************************************************************************
 386:Generated_Source\PSoC5/PWM_SERVO.c ****     *
 387:Generated_Source\PSoC5/PWM_SERVO.c ****     * Summary:
 388:Generated_Source\PSoC5/PWM_SERVO.c ****     *  Writes a new counter value directly to the counter register. This will be
 389:Generated_Source\PSoC5/PWM_SERVO.c ****     *  implemented for that currently running period and only that period. This API
 390:Generated_Source\PSoC5/PWM_SERVO.c ****     *  is valid only for UDB implementation and not available for fixed function
 391:Generated_Source\PSoC5/PWM_SERVO.c ****     *  PWM implementation.
 392:Generated_Source\PSoC5/PWM_SERVO.c ****     *
 393:Generated_Source\PSoC5/PWM_SERVO.c ****     * Parameters:
 394:Generated_Source\PSoC5/PWM_SERVO.c ****     *  counter:  The period new period counter value.
 395:Generated_Source\PSoC5/PWM_SERVO.c ****     *
 396:Generated_Source\PSoC5/PWM_SERVO.c ****     * Return:
 397:Generated_Source\PSoC5/PWM_SERVO.c ****     *  None
 398:Generated_Source\PSoC5/PWM_SERVO.c ****     *
 399:Generated_Source\PSoC5/PWM_SERVO.c ****     * Side Effects:
 400:Generated_Source\PSoC5/PWM_SERVO.c ****     *  The PWM Period will be reloaded when a counter value will be a zero
 401:Generated_Source\PSoC5/PWM_SERVO.c ****     *
 402:Generated_Source\PSoC5/PWM_SERVO.c ****     *******************************************************************************/
 403:Generated_Source\PSoC5/PWM_SERVO.c ****     void PWM_SERVO_WriteCounter(uint16 counter) \
 404:Generated_Source\PSoC5/PWM_SERVO.c ****                                        
 405:Generated_Source\PSoC5/PWM_SERVO.c ****     {
 406:Generated_Source\PSoC5/PWM_SERVO.c ****         CY_SET_REG16(PWM_SERVO_COUNTER_LSB_PTR, counter);
 407:Generated_Source\PSoC5/PWM_SERVO.c ****     }
 408:Generated_Source\PSoC5/PWM_SERVO.c **** 
 409:Generated_Source\PSoC5/PWM_SERVO.c **** 
 410:Generated_Source\PSoC5/PWM_SERVO.c ****     /*******************************************************************************
 411:Generated_Source\PSoC5/PWM_SERVO.c ****     * Function Name: PWM_SERVO_ReadCounter
 412:Generated_Source\PSoC5/PWM_SERVO.c ****     ********************************************************************************
 413:Generated_Source\PSoC5/PWM_SERVO.c ****     *
 414:Generated_Source\PSoC5/PWM_SERVO.c ****     * Summary:
 415:Generated_Source\PSoC5/PWM_SERVO.c ****     *  This function returns the current value of the counter.  It doesn't matter
 416:Generated_Source\PSoC5/PWM_SERVO.c ****     *  if the counter is enabled or running.
 417:Generated_Source\PSoC5/PWM_SERVO.c ****     *
 418:Generated_Source\PSoC5/PWM_SERVO.c ****     * Parameters:
 419:Generated_Source\PSoC5/PWM_SERVO.c ****     *  None
 420:Generated_Source\PSoC5/PWM_SERVO.c ****     *
 421:Generated_Source\PSoC5/PWM_SERVO.c ****     * Return:
 422:Generated_Source\PSoC5/PWM_SERVO.c ****     *  The current value of the counter.
 423:Generated_Source\PSoC5/PWM_SERVO.c ****     *
 424:Generated_Source\PSoC5/PWM_SERVO.c ****     *******************************************************************************/
 425:Generated_Source\PSoC5/PWM_SERVO.c ****     uint16 PWM_SERVO_ReadCounter(void) 
 426:Generated_Source\PSoC5/PWM_SERVO.c ****     {
 427:Generated_Source\PSoC5/PWM_SERVO.c ****         /* Force capture by reading Accumulator */
 428:Generated_Source\PSoC5/PWM_SERVO.c ****         /* Must first do a software capture to be able to read the counter */
 429:Generated_Source\PSoC5/PWM_SERVO.c ****         /* It is up to the user code to make sure there isn't already captured data in the FIFO */
 430:Generated_Source\PSoC5/PWM_SERVO.c ****           (void)CY_GET_REG8(PWM_SERVO_COUNTERCAP_LSB_PTR_8BIT);
ARM GAS  C:\Users\rens_\AppData\Local\Temp\cc59ibsE.s 			page 14


 431:Generated_Source\PSoC5/PWM_SERVO.c **** 
 432:Generated_Source\PSoC5/PWM_SERVO.c ****         /* Read the data from the FIFO */
 433:Generated_Source\PSoC5/PWM_SERVO.c ****         return (CY_GET_REG16(PWM_SERVO_CAPTURE_LSB_PTR));
 434:Generated_Source\PSoC5/PWM_SERVO.c ****     }
 435:Generated_Source\PSoC5/PWM_SERVO.c **** 
 436:Generated_Source\PSoC5/PWM_SERVO.c ****     #if (PWM_SERVO_UseStatus)
 437:Generated_Source\PSoC5/PWM_SERVO.c **** 
 438:Generated_Source\PSoC5/PWM_SERVO.c **** 
 439:Generated_Source\PSoC5/PWM_SERVO.c ****         /*******************************************************************************
 440:Generated_Source\PSoC5/PWM_SERVO.c ****         * Function Name: PWM_SERVO_ClearFIFO
 441:Generated_Source\PSoC5/PWM_SERVO.c ****         ********************************************************************************
 442:Generated_Source\PSoC5/PWM_SERVO.c ****         *
 443:Generated_Source\PSoC5/PWM_SERVO.c ****         * Summary:
 444:Generated_Source\PSoC5/PWM_SERVO.c ****         *  This function clears all capture data from the capture FIFO
 445:Generated_Source\PSoC5/PWM_SERVO.c ****         *
 446:Generated_Source\PSoC5/PWM_SERVO.c ****         * Parameters:
 447:Generated_Source\PSoC5/PWM_SERVO.c ****         *  None
 448:Generated_Source\PSoC5/PWM_SERVO.c ****         *
 449:Generated_Source\PSoC5/PWM_SERVO.c ****         * Return:
 450:Generated_Source\PSoC5/PWM_SERVO.c ****         *  None
 451:Generated_Source\PSoC5/PWM_SERVO.c ****         *
 452:Generated_Source\PSoC5/PWM_SERVO.c ****         *******************************************************************************/
 453:Generated_Source\PSoC5/PWM_SERVO.c ****         void PWM_SERVO_ClearFIFO(void) 
 454:Generated_Source\PSoC5/PWM_SERVO.c ****         {
 455:Generated_Source\PSoC5/PWM_SERVO.c ****             while(0u != (PWM_SERVO_ReadStatusRegister() & PWM_SERVO_STATUS_FIFONEMPTY))
 456:Generated_Source\PSoC5/PWM_SERVO.c ****             {
 457:Generated_Source\PSoC5/PWM_SERVO.c ****                 (void)PWM_SERVO_ReadCapture();
 458:Generated_Source\PSoC5/PWM_SERVO.c ****             }
 459:Generated_Source\PSoC5/PWM_SERVO.c ****         }
 460:Generated_Source\PSoC5/PWM_SERVO.c **** 
 461:Generated_Source\PSoC5/PWM_SERVO.c ****     #endif /* PWM_SERVO_UseStatus */
 462:Generated_Source\PSoC5/PWM_SERVO.c **** 
 463:Generated_Source\PSoC5/PWM_SERVO.c **** #endif /* !PWM_SERVO_UsingFixedFunction */
 464:Generated_Source\PSoC5/PWM_SERVO.c **** 
 465:Generated_Source\PSoC5/PWM_SERVO.c **** 
 466:Generated_Source\PSoC5/PWM_SERVO.c **** /*******************************************************************************
 467:Generated_Source\PSoC5/PWM_SERVO.c **** * Function Name: PWM_SERVO_WritePeriod
 468:Generated_Source\PSoC5/PWM_SERVO.c **** ********************************************************************************
 469:Generated_Source\PSoC5/PWM_SERVO.c **** *
 470:Generated_Source\PSoC5/PWM_SERVO.c **** * Summary:
 471:Generated_Source\PSoC5/PWM_SERVO.c **** *  This function is used to change the period of the counter.  The new period
 472:Generated_Source\PSoC5/PWM_SERVO.c **** *  will be loaded the next time terminal count is detected.
 473:Generated_Source\PSoC5/PWM_SERVO.c **** *
 474:Generated_Source\PSoC5/PWM_SERVO.c **** * Parameters:
 475:Generated_Source\PSoC5/PWM_SERVO.c **** *  period:  Period value. May be between 1 and (2^Resolution)-1.  A value of 0
 476:Generated_Source\PSoC5/PWM_SERVO.c **** *           will result in the counter remaining at zero.
 477:Generated_Source\PSoC5/PWM_SERVO.c **** *
 478:Generated_Source\PSoC5/PWM_SERVO.c **** * Return:
 479:Generated_Source\PSoC5/PWM_SERVO.c **** *  None
 480:Generated_Source\PSoC5/PWM_SERVO.c **** *
 481:Generated_Source\PSoC5/PWM_SERVO.c **** *******************************************************************************/
 482:Generated_Source\PSoC5/PWM_SERVO.c **** void PWM_SERVO_WritePeriod(uint16 period) 
 483:Generated_Source\PSoC5/PWM_SERVO.c **** {
 312              		.loc 1 483 0
 313              		.cfi_startproc
 314              		@ args = 0, pretend = 0, frame = 8
 315              		@ frame_needed = 1, uses_anonymous_args = 0
ARM GAS  C:\Users\rens_\AppData\Local\Temp\cc59ibsE.s 			page 15


 316              		@ link register save eliminated.
 317 0000 80B4     		push	{r7}
 318              		.cfi_def_cfa_offset 4
 319              		.cfi_offset 7, -4
 320 0002 83B0     		sub	sp, sp, #12
 321              		.cfi_def_cfa_offset 16
 322 0004 00AF     		add	r7, sp, #0
 323              		.cfi_def_cfa_register 7
 324 0006 0346     		mov	r3, r0
 325 0008 FB80     		strh	r3, [r7, #6]	@ movhi
 484:Generated_Source\PSoC5/PWM_SERVO.c ****     #if(PWM_SERVO_UsingFixedFunction)
 485:Generated_Source\PSoC5/PWM_SERVO.c ****         CY_SET_REG16(PWM_SERVO_PERIOD_LSB_PTR, (uint16)period);
 326              		.loc 1 485 0
 327 000a 044A     		ldr	r2, .L15
 328 000c FB88     		ldrh	r3, [r7, #6]	@ movhi
 329 000e 1380     		strh	r3, [r2]	@ movhi
 486:Generated_Source\PSoC5/PWM_SERVO.c ****     #else
 487:Generated_Source\PSoC5/PWM_SERVO.c ****         CY_SET_REG16(PWM_SERVO_PERIOD_LSB_PTR, period);
 488:Generated_Source\PSoC5/PWM_SERVO.c ****     #endif /* (PWM_SERVO_UsingFixedFunction) */
 489:Generated_Source\PSoC5/PWM_SERVO.c **** }
 330              		.loc 1 489 0
 331 0010 00BF     		nop
 332 0012 0C37     		adds	r7, r7, #12
 333              		.cfi_def_cfa_offset 4
 334 0014 BD46     		mov	sp, r7
 335              		.cfi_def_cfa_register 13
 336              		@ sp needed
 337 0016 80BC     		pop	{r7}
 338              		.cfi_restore 7
 339              		.cfi_def_cfa_offset 0
 340 0018 7047     		bx	lr
 341              	.L16:
 342 001a 00BF     		.align	2
 343              	.L15:
 344 001c 044F0040 		.word	1073762052
 345              		.cfi_endproc
 346              	.LFE4:
 347              		.size	PWM_SERVO_WritePeriod, .-PWM_SERVO_WritePeriod
 348              		.section	.text.PWM_SERVO_WriteCompare,"ax",%progbits
 349              		.align	2
 350              		.global	PWM_SERVO_WriteCompare
 351              		.thumb
 352              		.thumb_func
 353              		.type	PWM_SERVO_WriteCompare, %function
 354              	PWM_SERVO_WriteCompare:
 355              	.LFB5:
 490:Generated_Source\PSoC5/PWM_SERVO.c **** 
 491:Generated_Source\PSoC5/PWM_SERVO.c **** #if (PWM_SERVO_UseOneCompareMode)
 492:Generated_Source\PSoC5/PWM_SERVO.c **** 
 493:Generated_Source\PSoC5/PWM_SERVO.c **** 
 494:Generated_Source\PSoC5/PWM_SERVO.c ****     /*******************************************************************************
 495:Generated_Source\PSoC5/PWM_SERVO.c ****     * Function Name: PWM_SERVO_WriteCompare
 496:Generated_Source\PSoC5/PWM_SERVO.c ****     ********************************************************************************
 497:Generated_Source\PSoC5/PWM_SERVO.c ****     *
 498:Generated_Source\PSoC5/PWM_SERVO.c ****     * Summary:
 499:Generated_Source\PSoC5/PWM_SERVO.c ****     *  This funtion is used to change the compare1 value when the PWM is in Dither
 500:Generated_Source\PSoC5/PWM_SERVO.c ****     *  mode. The compare output will reflect the new value on the next UDB clock.
ARM GAS  C:\Users\rens_\AppData\Local\Temp\cc59ibsE.s 			page 16


 501:Generated_Source\PSoC5/PWM_SERVO.c ****     *  The compare output will be driven high when the present counter value is
 502:Generated_Source\PSoC5/PWM_SERVO.c ****     *  compared to the compare value based on the compare mode defined in
 503:Generated_Source\PSoC5/PWM_SERVO.c ****     *  Dither Mode.
 504:Generated_Source\PSoC5/PWM_SERVO.c ****     *
 505:Generated_Source\PSoC5/PWM_SERVO.c ****     * Parameters:
 506:Generated_Source\PSoC5/PWM_SERVO.c ****     *  compare:  New compare value.
 507:Generated_Source\PSoC5/PWM_SERVO.c ****     *
 508:Generated_Source\PSoC5/PWM_SERVO.c ****     * Return:
 509:Generated_Source\PSoC5/PWM_SERVO.c ****     *  None
 510:Generated_Source\PSoC5/PWM_SERVO.c ****     *
 511:Generated_Source\PSoC5/PWM_SERVO.c ****     * Side Effects:
 512:Generated_Source\PSoC5/PWM_SERVO.c ****     *  This function is only available if the PWM mode parameter is set to
 513:Generated_Source\PSoC5/PWM_SERVO.c ****     *  Dither Mode, Center Aligned Mode or One Output Mode
 514:Generated_Source\PSoC5/PWM_SERVO.c ****     *
 515:Generated_Source\PSoC5/PWM_SERVO.c ****     *******************************************************************************/
 516:Generated_Source\PSoC5/PWM_SERVO.c ****     void PWM_SERVO_WriteCompare(uint16 compare) \
 517:Generated_Source\PSoC5/PWM_SERVO.c ****                                        
 518:Generated_Source\PSoC5/PWM_SERVO.c ****     {
 356              		.loc 1 518 0
 357              		.cfi_startproc
 358              		@ args = 0, pretend = 0, frame = 8
 359              		@ frame_needed = 1, uses_anonymous_args = 0
 360              		@ link register save eliminated.
 361 0000 80B4     		push	{r7}
 362              		.cfi_def_cfa_offset 4
 363              		.cfi_offset 7, -4
 364 0002 83B0     		sub	sp, sp, #12
 365              		.cfi_def_cfa_offset 16
 366 0004 00AF     		add	r7, sp, #0
 367              		.cfi_def_cfa_register 7
 368 0006 0346     		mov	r3, r0
 369 0008 FB80     		strh	r3, [r7, #6]	@ movhi
 519:Generated_Source\PSoC5/PWM_SERVO.c ****         #if(PWM_SERVO_UsingFixedFunction)
 520:Generated_Source\PSoC5/PWM_SERVO.c ****             CY_SET_REG16(PWM_SERVO_COMPARE1_LSB_PTR, (uint16)compare);
 370              		.loc 1 520 0
 371 000a 044A     		ldr	r2, .L18
 372 000c FB88     		ldrh	r3, [r7, #6]	@ movhi
 373 000e 1380     		strh	r3, [r2]	@ movhi
 521:Generated_Source\PSoC5/PWM_SERVO.c ****         #else
 522:Generated_Source\PSoC5/PWM_SERVO.c ****             CY_SET_REG16(PWM_SERVO_COMPARE1_LSB_PTR, compare);
 523:Generated_Source\PSoC5/PWM_SERVO.c ****         #endif /* (PWM_SERVO_UsingFixedFunction) */
 524:Generated_Source\PSoC5/PWM_SERVO.c **** 
 525:Generated_Source\PSoC5/PWM_SERVO.c ****         #if (PWM_SERVO_PWMMode == PWM_SERVO__B_PWM__DITHER)
 526:Generated_Source\PSoC5/PWM_SERVO.c ****             #if(PWM_SERVO_UsingFixedFunction)
 527:Generated_Source\PSoC5/PWM_SERVO.c ****                 CY_SET_REG16(PWM_SERVO_COMPARE2_LSB_PTR, (uint16)(compare + 1u));
 528:Generated_Source\PSoC5/PWM_SERVO.c ****             #else
 529:Generated_Source\PSoC5/PWM_SERVO.c ****                 CY_SET_REG16(PWM_SERVO_COMPARE2_LSB_PTR, (compare + 1u));
 530:Generated_Source\PSoC5/PWM_SERVO.c ****             #endif /* (PWM_SERVO_UsingFixedFunction) */
 531:Generated_Source\PSoC5/PWM_SERVO.c ****         #endif /* (PWM_SERVO_PWMMode == PWM_SERVO__B_PWM__DITHER) */
 532:Generated_Source\PSoC5/PWM_SERVO.c ****     }
 374              		.loc 1 532 0
 375 0010 00BF     		nop
 376 0012 0C37     		adds	r7, r7, #12
 377              		.cfi_def_cfa_offset 4
 378 0014 BD46     		mov	sp, r7
 379              		.cfi_def_cfa_register 13
 380              		@ sp needed
ARM GAS  C:\Users\rens_\AppData\Local\Temp\cc59ibsE.s 			page 17


 381 0016 80BC     		pop	{r7}
 382              		.cfi_restore 7
 383              		.cfi_def_cfa_offset 0
 384 0018 7047     		bx	lr
 385              	.L19:
 386 001a 00BF     		.align	2
 387              	.L18:
 388 001c 064F0040 		.word	1073762054
 389              		.cfi_endproc
 390              	.LFE5:
 391              		.size	PWM_SERVO_WriteCompare, .-PWM_SERVO_WriteCompare
 392              		.section	.text.PWM_SERVO_SetInterruptMode,"ax",%progbits
 393              		.align	2
 394              		.global	PWM_SERVO_SetInterruptMode
 395              		.thumb
 396              		.thumb_func
 397              		.type	PWM_SERVO_SetInterruptMode, %function
 398              	PWM_SERVO_SetInterruptMode:
 399              	.LFB6:
 533:Generated_Source\PSoC5/PWM_SERVO.c **** 
 534:Generated_Source\PSoC5/PWM_SERVO.c **** 
 535:Generated_Source\PSoC5/PWM_SERVO.c **** #else
 536:Generated_Source\PSoC5/PWM_SERVO.c **** 
 537:Generated_Source\PSoC5/PWM_SERVO.c **** 
 538:Generated_Source\PSoC5/PWM_SERVO.c ****     /*******************************************************************************
 539:Generated_Source\PSoC5/PWM_SERVO.c ****     * Function Name: PWM_SERVO_WriteCompare1
 540:Generated_Source\PSoC5/PWM_SERVO.c ****     ********************************************************************************
 541:Generated_Source\PSoC5/PWM_SERVO.c ****     *
 542:Generated_Source\PSoC5/PWM_SERVO.c ****     * Summary:
 543:Generated_Source\PSoC5/PWM_SERVO.c ****     *  This funtion is used to change the compare1 value.  The compare output will
 544:Generated_Source\PSoC5/PWM_SERVO.c ****     *  reflect the new value on the next UDB clock.  The compare output will be
 545:Generated_Source\PSoC5/PWM_SERVO.c ****     *  driven high when the present counter value is less than or less than or
 546:Generated_Source\PSoC5/PWM_SERVO.c ****     *  equal to the compare register, depending on the mode.
 547:Generated_Source\PSoC5/PWM_SERVO.c ****     *
 548:Generated_Source\PSoC5/PWM_SERVO.c ****     * Parameters:
 549:Generated_Source\PSoC5/PWM_SERVO.c ****     *  compare:  New compare value.
 550:Generated_Source\PSoC5/PWM_SERVO.c ****     *
 551:Generated_Source\PSoC5/PWM_SERVO.c ****     * Return:
 552:Generated_Source\PSoC5/PWM_SERVO.c ****     *  None
 553:Generated_Source\PSoC5/PWM_SERVO.c ****     *
 554:Generated_Source\PSoC5/PWM_SERVO.c ****     *******************************************************************************/
 555:Generated_Source\PSoC5/PWM_SERVO.c ****     void PWM_SERVO_WriteCompare1(uint16 compare) \
 556:Generated_Source\PSoC5/PWM_SERVO.c ****                                         
 557:Generated_Source\PSoC5/PWM_SERVO.c ****     {
 558:Generated_Source\PSoC5/PWM_SERVO.c ****         #if(PWM_SERVO_UsingFixedFunction)
 559:Generated_Source\PSoC5/PWM_SERVO.c ****             CY_SET_REG16(PWM_SERVO_COMPARE1_LSB_PTR, (uint16)compare);
 560:Generated_Source\PSoC5/PWM_SERVO.c ****         #else
 561:Generated_Source\PSoC5/PWM_SERVO.c ****             CY_SET_REG16(PWM_SERVO_COMPARE1_LSB_PTR, compare);
 562:Generated_Source\PSoC5/PWM_SERVO.c ****         #endif /* (PWM_SERVO_UsingFixedFunction) */
 563:Generated_Source\PSoC5/PWM_SERVO.c ****     }
 564:Generated_Source\PSoC5/PWM_SERVO.c **** 
 565:Generated_Source\PSoC5/PWM_SERVO.c **** 
 566:Generated_Source\PSoC5/PWM_SERVO.c ****     /*******************************************************************************
 567:Generated_Source\PSoC5/PWM_SERVO.c ****     * Function Name: PWM_SERVO_WriteCompare2
 568:Generated_Source\PSoC5/PWM_SERVO.c ****     ********************************************************************************
 569:Generated_Source\PSoC5/PWM_SERVO.c ****     *
 570:Generated_Source\PSoC5/PWM_SERVO.c ****     * Summary:
ARM GAS  C:\Users\rens_\AppData\Local\Temp\cc59ibsE.s 			page 18


 571:Generated_Source\PSoC5/PWM_SERVO.c ****     *  This funtion is used to change the compare value, for compare1 output.
 572:Generated_Source\PSoC5/PWM_SERVO.c ****     *  The compare output will reflect the new value on the next UDB clock.
 573:Generated_Source\PSoC5/PWM_SERVO.c ****     *  The compare output will be driven high when the present counter value is
 574:Generated_Source\PSoC5/PWM_SERVO.c ****     *  less than or less than or equal to the compare register, depending on the
 575:Generated_Source\PSoC5/PWM_SERVO.c ****     *  mode.
 576:Generated_Source\PSoC5/PWM_SERVO.c ****     *
 577:Generated_Source\PSoC5/PWM_SERVO.c ****     * Parameters:
 578:Generated_Source\PSoC5/PWM_SERVO.c ****     *  compare:  New compare value.
 579:Generated_Source\PSoC5/PWM_SERVO.c ****     *
 580:Generated_Source\PSoC5/PWM_SERVO.c ****     * Return:
 581:Generated_Source\PSoC5/PWM_SERVO.c ****     *  None
 582:Generated_Source\PSoC5/PWM_SERVO.c ****     *
 583:Generated_Source\PSoC5/PWM_SERVO.c ****     *******************************************************************************/
 584:Generated_Source\PSoC5/PWM_SERVO.c ****     void PWM_SERVO_WriteCompare2(uint16 compare) \
 585:Generated_Source\PSoC5/PWM_SERVO.c ****                                         
 586:Generated_Source\PSoC5/PWM_SERVO.c ****     {
 587:Generated_Source\PSoC5/PWM_SERVO.c ****         #if(PWM_SERVO_UsingFixedFunction)
 588:Generated_Source\PSoC5/PWM_SERVO.c ****             CY_SET_REG16(PWM_SERVO_COMPARE2_LSB_PTR, compare);
 589:Generated_Source\PSoC5/PWM_SERVO.c ****         #else
 590:Generated_Source\PSoC5/PWM_SERVO.c ****             CY_SET_REG16(PWM_SERVO_COMPARE2_LSB_PTR, compare);
 591:Generated_Source\PSoC5/PWM_SERVO.c ****         #endif /* (PWM_SERVO_UsingFixedFunction) */
 592:Generated_Source\PSoC5/PWM_SERVO.c ****     }
 593:Generated_Source\PSoC5/PWM_SERVO.c **** #endif /* UseOneCompareMode */
 594:Generated_Source\PSoC5/PWM_SERVO.c **** 
 595:Generated_Source\PSoC5/PWM_SERVO.c **** #if (PWM_SERVO_DeadBandUsed)
 596:Generated_Source\PSoC5/PWM_SERVO.c **** 
 597:Generated_Source\PSoC5/PWM_SERVO.c **** 
 598:Generated_Source\PSoC5/PWM_SERVO.c ****     /*******************************************************************************
 599:Generated_Source\PSoC5/PWM_SERVO.c ****     * Function Name: PWM_SERVO_WriteDeadTime
 600:Generated_Source\PSoC5/PWM_SERVO.c ****     ********************************************************************************
 601:Generated_Source\PSoC5/PWM_SERVO.c ****     *
 602:Generated_Source\PSoC5/PWM_SERVO.c ****     * Summary:
 603:Generated_Source\PSoC5/PWM_SERVO.c ****     *  This function writes the dead-band counts to the corresponding register
 604:Generated_Source\PSoC5/PWM_SERVO.c ****     *
 605:Generated_Source\PSoC5/PWM_SERVO.c ****     * Parameters:
 606:Generated_Source\PSoC5/PWM_SERVO.c ****     *  deadtime:  Number of counts for dead time
 607:Generated_Source\PSoC5/PWM_SERVO.c ****     *
 608:Generated_Source\PSoC5/PWM_SERVO.c ****     * Return:
 609:Generated_Source\PSoC5/PWM_SERVO.c ****     *  None
 610:Generated_Source\PSoC5/PWM_SERVO.c ****     *
 611:Generated_Source\PSoC5/PWM_SERVO.c ****     *******************************************************************************/
 612:Generated_Source\PSoC5/PWM_SERVO.c ****     void PWM_SERVO_WriteDeadTime(uint8 deadtime) 
 613:Generated_Source\PSoC5/PWM_SERVO.c ****     {
 614:Generated_Source\PSoC5/PWM_SERVO.c ****         /* If using the Dead Band 1-255 mode then just write the register */
 615:Generated_Source\PSoC5/PWM_SERVO.c ****         #if(!PWM_SERVO_DeadBand2_4)
 616:Generated_Source\PSoC5/PWM_SERVO.c ****             CY_SET_REG8(PWM_SERVO_DEADBAND_COUNT_PTR, deadtime);
 617:Generated_Source\PSoC5/PWM_SERVO.c ****         #else
 618:Generated_Source\PSoC5/PWM_SERVO.c ****             /* Otherwise the data has to be masked and offset */
 619:Generated_Source\PSoC5/PWM_SERVO.c ****             /* Clear existing data */
 620:Generated_Source\PSoC5/PWM_SERVO.c ****             PWM_SERVO_DEADBAND_COUNT &= ((uint8)(~PWM_SERVO_DEADBAND_COUNT_MASK));
 621:Generated_Source\PSoC5/PWM_SERVO.c **** 
 622:Generated_Source\PSoC5/PWM_SERVO.c ****             /* Set new dead time */
 623:Generated_Source\PSoC5/PWM_SERVO.c ****             #if(PWM_SERVO_DEADBAND_COUNT_SHIFT)
 624:Generated_Source\PSoC5/PWM_SERVO.c ****                 PWM_SERVO_DEADBAND_COUNT |= ((uint8)((uint8)deadtime << PWM_SERVO_DEADBAND_COUNT_SH
 625:Generated_Source\PSoC5/PWM_SERVO.c ****                                                     PWM_SERVO_DEADBAND_COUNT_MASK;
 626:Generated_Source\PSoC5/PWM_SERVO.c ****             #else
 627:Generated_Source\PSoC5/PWM_SERVO.c ****                 PWM_SERVO_DEADBAND_COUNT |= deadtime & PWM_SERVO_DEADBAND_COUNT_MASK;
ARM GAS  C:\Users\rens_\AppData\Local\Temp\cc59ibsE.s 			page 19


 628:Generated_Source\PSoC5/PWM_SERVO.c ****             #endif /* (PWM_SERVO_DEADBAND_COUNT_SHIFT) */
 629:Generated_Source\PSoC5/PWM_SERVO.c **** 
 630:Generated_Source\PSoC5/PWM_SERVO.c ****         #endif /* (!PWM_SERVO_DeadBand2_4) */
 631:Generated_Source\PSoC5/PWM_SERVO.c ****     }
 632:Generated_Source\PSoC5/PWM_SERVO.c **** 
 633:Generated_Source\PSoC5/PWM_SERVO.c **** 
 634:Generated_Source\PSoC5/PWM_SERVO.c ****     /*******************************************************************************
 635:Generated_Source\PSoC5/PWM_SERVO.c ****     * Function Name: PWM_SERVO_ReadDeadTime
 636:Generated_Source\PSoC5/PWM_SERVO.c ****     ********************************************************************************
 637:Generated_Source\PSoC5/PWM_SERVO.c ****     *
 638:Generated_Source\PSoC5/PWM_SERVO.c ****     * Summary:
 639:Generated_Source\PSoC5/PWM_SERVO.c ****     *  This function reads the dead-band counts from the corresponding register
 640:Generated_Source\PSoC5/PWM_SERVO.c ****     *
 641:Generated_Source\PSoC5/PWM_SERVO.c ****     * Parameters:
 642:Generated_Source\PSoC5/PWM_SERVO.c ****     *  None
 643:Generated_Source\PSoC5/PWM_SERVO.c ****     *
 644:Generated_Source\PSoC5/PWM_SERVO.c ****     * Return:
 645:Generated_Source\PSoC5/PWM_SERVO.c ****     *  Dead Band Counts
 646:Generated_Source\PSoC5/PWM_SERVO.c ****     *
 647:Generated_Source\PSoC5/PWM_SERVO.c ****     *******************************************************************************/
 648:Generated_Source\PSoC5/PWM_SERVO.c ****     uint8 PWM_SERVO_ReadDeadTime(void) 
 649:Generated_Source\PSoC5/PWM_SERVO.c ****     {
 650:Generated_Source\PSoC5/PWM_SERVO.c ****         /* If using the Dead Band 1-255 mode then just read the register */
 651:Generated_Source\PSoC5/PWM_SERVO.c ****         #if(!PWM_SERVO_DeadBand2_4)
 652:Generated_Source\PSoC5/PWM_SERVO.c ****             return (CY_GET_REG8(PWM_SERVO_DEADBAND_COUNT_PTR));
 653:Generated_Source\PSoC5/PWM_SERVO.c ****         #else
 654:Generated_Source\PSoC5/PWM_SERVO.c **** 
 655:Generated_Source\PSoC5/PWM_SERVO.c ****             /* Otherwise the data has to be masked and offset */
 656:Generated_Source\PSoC5/PWM_SERVO.c ****             #if(PWM_SERVO_DEADBAND_COUNT_SHIFT)
 657:Generated_Source\PSoC5/PWM_SERVO.c ****                 return ((uint8)(((uint8)(PWM_SERVO_DEADBAND_COUNT & PWM_SERVO_DEADBAND_COUNT_MASK))
 658:Generated_Source\PSoC5/PWM_SERVO.c ****                                                                            PWM_SERVO_DEADBAND_COUNT
 659:Generated_Source\PSoC5/PWM_SERVO.c ****             #else
 660:Generated_Source\PSoC5/PWM_SERVO.c ****                 return (PWM_SERVO_DEADBAND_COUNT & PWM_SERVO_DEADBAND_COUNT_MASK);
 661:Generated_Source\PSoC5/PWM_SERVO.c ****             #endif /* (PWM_SERVO_DEADBAND_COUNT_SHIFT) */
 662:Generated_Source\PSoC5/PWM_SERVO.c ****         #endif /* (!PWM_SERVO_DeadBand2_4) */
 663:Generated_Source\PSoC5/PWM_SERVO.c ****     }
 664:Generated_Source\PSoC5/PWM_SERVO.c **** #endif /* DeadBandUsed */
 665:Generated_Source\PSoC5/PWM_SERVO.c **** 
 666:Generated_Source\PSoC5/PWM_SERVO.c **** #if (PWM_SERVO_UseStatus || PWM_SERVO_UsingFixedFunction)
 667:Generated_Source\PSoC5/PWM_SERVO.c **** 
 668:Generated_Source\PSoC5/PWM_SERVO.c **** 
 669:Generated_Source\PSoC5/PWM_SERVO.c ****     /*******************************************************************************
 670:Generated_Source\PSoC5/PWM_SERVO.c ****     * Function Name: PWM_SERVO_SetInterruptMode
 671:Generated_Source\PSoC5/PWM_SERVO.c ****     ********************************************************************************
 672:Generated_Source\PSoC5/PWM_SERVO.c ****     *
 673:Generated_Source\PSoC5/PWM_SERVO.c ****     * Summary:
 674:Generated_Source\PSoC5/PWM_SERVO.c ****     *  This function configures the interrupts mask control of theinterrupt
 675:Generated_Source\PSoC5/PWM_SERVO.c ****     *  source status register.
 676:Generated_Source\PSoC5/PWM_SERVO.c ****     *
 677:Generated_Source\PSoC5/PWM_SERVO.c ****     * Parameters:
 678:Generated_Source\PSoC5/PWM_SERVO.c ****     *  uint8 interruptMode: Bit field containing the interrupt sources enabled
 679:Generated_Source\PSoC5/PWM_SERVO.c ****     *
 680:Generated_Source\PSoC5/PWM_SERVO.c ****     * Return:
 681:Generated_Source\PSoC5/PWM_SERVO.c ****     *  None
 682:Generated_Source\PSoC5/PWM_SERVO.c ****     *
 683:Generated_Source\PSoC5/PWM_SERVO.c ****     *******************************************************************************/
 684:Generated_Source\PSoC5/PWM_SERVO.c ****     void PWM_SERVO_SetInterruptMode(uint8 interruptMode) 
ARM GAS  C:\Users\rens_\AppData\Local\Temp\cc59ibsE.s 			page 20


 685:Generated_Source\PSoC5/PWM_SERVO.c ****     {
 400              		.loc 1 685 0
 401              		.cfi_startproc
 402              		@ args = 0, pretend = 0, frame = 8
 403              		@ frame_needed = 1, uses_anonymous_args = 0
 404              		@ link register save eliminated.
 405 0000 80B4     		push	{r7}
 406              		.cfi_def_cfa_offset 4
 407              		.cfi_offset 7, -4
 408 0002 83B0     		sub	sp, sp, #12
 409              		.cfi_def_cfa_offset 16
 410 0004 00AF     		add	r7, sp, #0
 411              		.cfi_def_cfa_register 7
 412 0006 0346     		mov	r3, r0
 413 0008 FB71     		strb	r3, [r7, #7]
 686:Generated_Source\PSoC5/PWM_SERVO.c ****         CY_SET_REG8(PWM_SERVO_STATUS_MASK_PTR, interruptMode);
 414              		.loc 1 686 0
 415 000a 044A     		ldr	r2, .L21
 416 000c FB79     		ldrb	r3, [r7, #7]
 417 000e 1370     		strb	r3, [r2]
 687:Generated_Source\PSoC5/PWM_SERVO.c ****     }
 418              		.loc 1 687 0
 419 0010 00BF     		nop
 420 0012 0C37     		adds	r7, r7, #12
 421              		.cfi_def_cfa_offset 4
 422 0014 BD46     		mov	sp, r7
 423              		.cfi_def_cfa_register 13
 424              		@ sp needed
 425 0016 80BC     		pop	{r7}
 426              		.cfi_restore 7
 427              		.cfi_def_cfa_offset 0
 428 0018 7047     		bx	lr
 429              	.L22:
 430 001a 00BF     		.align	2
 431              	.L21:
 432 001c 034F0040 		.word	1073762051
 433              		.cfi_endproc
 434              	.LFE6:
 435              		.size	PWM_SERVO_SetInterruptMode, .-PWM_SERVO_SetInterruptMode
 436              		.section	.text.PWM_SERVO_ReadStatusRegister,"ax",%progbits
 437              		.align	2
 438              		.global	PWM_SERVO_ReadStatusRegister
 439              		.thumb
 440              		.thumb_func
 441              		.type	PWM_SERVO_ReadStatusRegister, %function
 442              	PWM_SERVO_ReadStatusRegister:
 443              	.LFB7:
 688:Generated_Source\PSoC5/PWM_SERVO.c **** 
 689:Generated_Source\PSoC5/PWM_SERVO.c **** 
 690:Generated_Source\PSoC5/PWM_SERVO.c ****     /*******************************************************************************
 691:Generated_Source\PSoC5/PWM_SERVO.c ****     * Function Name: PWM_SERVO_ReadStatusRegister
 692:Generated_Source\PSoC5/PWM_SERVO.c ****     ********************************************************************************
 693:Generated_Source\PSoC5/PWM_SERVO.c ****     *
 694:Generated_Source\PSoC5/PWM_SERVO.c ****     * Summary:
 695:Generated_Source\PSoC5/PWM_SERVO.c ****     *  This function returns the current state of the status register.
 696:Generated_Source\PSoC5/PWM_SERVO.c ****     *
 697:Generated_Source\PSoC5/PWM_SERVO.c ****     * Parameters:
ARM GAS  C:\Users\rens_\AppData\Local\Temp\cc59ibsE.s 			page 21


 698:Generated_Source\PSoC5/PWM_SERVO.c ****     *  None
 699:Generated_Source\PSoC5/PWM_SERVO.c ****     *
 700:Generated_Source\PSoC5/PWM_SERVO.c ****     * Return:
 701:Generated_Source\PSoC5/PWM_SERVO.c ****     *  uint8 : Current status register value. The status register bits are:
 702:Generated_Source\PSoC5/PWM_SERVO.c ****     *  [7:6] : Unused(0)
 703:Generated_Source\PSoC5/PWM_SERVO.c ****     *  [5]   : Kill event output
 704:Generated_Source\PSoC5/PWM_SERVO.c ****     *  [4]   : FIFO not empty
 705:Generated_Source\PSoC5/PWM_SERVO.c ****     *  [3]   : FIFO full
 706:Generated_Source\PSoC5/PWM_SERVO.c ****     *  [2]   : Terminal count
 707:Generated_Source\PSoC5/PWM_SERVO.c ****     *  [1]   : Compare output 2
 708:Generated_Source\PSoC5/PWM_SERVO.c ****     *  [0]   : Compare output 1
 709:Generated_Source\PSoC5/PWM_SERVO.c ****     *
 710:Generated_Source\PSoC5/PWM_SERVO.c ****     *******************************************************************************/
 711:Generated_Source\PSoC5/PWM_SERVO.c ****     uint8 PWM_SERVO_ReadStatusRegister(void) 
 712:Generated_Source\PSoC5/PWM_SERVO.c ****     {
 444              		.loc 1 712 0
 445              		.cfi_startproc
 446              		@ args = 0, pretend = 0, frame = 0
 447              		@ frame_needed = 1, uses_anonymous_args = 0
 448              		@ link register save eliminated.
 449 0000 80B4     		push	{r7}
 450              		.cfi_def_cfa_offset 4
 451              		.cfi_offset 7, -4
 452 0002 00AF     		add	r7, sp, #0
 453              		.cfi_def_cfa_register 7
 713:Generated_Source\PSoC5/PWM_SERVO.c ****         return (CY_GET_REG8(PWM_SERVO_STATUS_PTR));
 454              		.loc 1 713 0
 455 0004 034B     		ldr	r3, .L25
 456 0006 1B78     		ldrb	r3, [r3]
 457 0008 DBB2     		uxtb	r3, r3
 714:Generated_Source\PSoC5/PWM_SERVO.c ****     }
 458              		.loc 1 714 0
 459 000a 1846     		mov	r0, r3
 460 000c BD46     		mov	sp, r7
 461              		.cfi_def_cfa_register 13
 462              		@ sp needed
 463 000e 80BC     		pop	{r7}
 464              		.cfi_restore 7
 465              		.cfi_def_cfa_offset 0
 466 0010 7047     		bx	lr
 467              	.L26:
 468 0012 00BF     		.align	2
 469              	.L25:
 470 0014 034F0040 		.word	1073762051
 471              		.cfi_endproc
 472              	.LFE7:
 473              		.size	PWM_SERVO_ReadStatusRegister, .-PWM_SERVO_ReadStatusRegister
 474              		.section	.text.PWM_SERVO_ReadControlRegister,"ax",%progbits
 475              		.align	2
 476              		.global	PWM_SERVO_ReadControlRegister
 477              		.thumb
 478              		.thumb_func
 479              		.type	PWM_SERVO_ReadControlRegister, %function
 480              	PWM_SERVO_ReadControlRegister:
 481              	.LFB8:
 715:Generated_Source\PSoC5/PWM_SERVO.c **** 
 716:Generated_Source\PSoC5/PWM_SERVO.c **** #endif /* (PWM_SERVO_UseStatus || PWM_SERVO_UsingFixedFunction) */
ARM GAS  C:\Users\rens_\AppData\Local\Temp\cc59ibsE.s 			page 22


 717:Generated_Source\PSoC5/PWM_SERVO.c **** 
 718:Generated_Source\PSoC5/PWM_SERVO.c **** 
 719:Generated_Source\PSoC5/PWM_SERVO.c **** #if (PWM_SERVO_UseControl)
 720:Generated_Source\PSoC5/PWM_SERVO.c **** 
 721:Generated_Source\PSoC5/PWM_SERVO.c **** 
 722:Generated_Source\PSoC5/PWM_SERVO.c ****     /*******************************************************************************
 723:Generated_Source\PSoC5/PWM_SERVO.c ****     * Function Name: PWM_SERVO_ReadControlRegister
 724:Generated_Source\PSoC5/PWM_SERVO.c ****     ********************************************************************************
 725:Generated_Source\PSoC5/PWM_SERVO.c ****     *
 726:Generated_Source\PSoC5/PWM_SERVO.c ****     * Summary:
 727:Generated_Source\PSoC5/PWM_SERVO.c ****     *  Returns the current state of the control register. This API is available
 728:Generated_Source\PSoC5/PWM_SERVO.c ****     *  only if the control register is not removed.
 729:Generated_Source\PSoC5/PWM_SERVO.c ****     *
 730:Generated_Source\PSoC5/PWM_SERVO.c ****     * Parameters:
 731:Generated_Source\PSoC5/PWM_SERVO.c ****     *  None
 732:Generated_Source\PSoC5/PWM_SERVO.c ****     *
 733:Generated_Source\PSoC5/PWM_SERVO.c ****     * Return:
 734:Generated_Source\PSoC5/PWM_SERVO.c ****     *  uint8 : Current control register value
 735:Generated_Source\PSoC5/PWM_SERVO.c ****     *
 736:Generated_Source\PSoC5/PWM_SERVO.c ****     *******************************************************************************/
 737:Generated_Source\PSoC5/PWM_SERVO.c ****     uint8 PWM_SERVO_ReadControlRegister(void) 
 738:Generated_Source\PSoC5/PWM_SERVO.c ****     {
 482              		.loc 1 738 0
 483              		.cfi_startproc
 484              		@ args = 0, pretend = 0, frame = 8
 485              		@ frame_needed = 1, uses_anonymous_args = 0
 486              		@ link register save eliminated.
 487 0000 80B4     		push	{r7}
 488              		.cfi_def_cfa_offset 4
 489              		.cfi_offset 7, -4
 490 0002 83B0     		sub	sp, sp, #12
 491              		.cfi_def_cfa_offset 16
 492 0004 00AF     		add	r7, sp, #0
 493              		.cfi_def_cfa_register 7
 739:Generated_Source\PSoC5/PWM_SERVO.c ****         uint8 result;
 740:Generated_Source\PSoC5/PWM_SERVO.c **** 
 741:Generated_Source\PSoC5/PWM_SERVO.c ****         result = CY_GET_REG8(PWM_SERVO_CONTROL_PTR);
 494              		.loc 1 741 0
 495 0006 044B     		ldr	r3, .L29
 496 0008 1B78     		ldrb	r3, [r3]
 497 000a FB71     		strb	r3, [r7, #7]
 742:Generated_Source\PSoC5/PWM_SERVO.c ****         return (result);
 498              		.loc 1 742 0
 499 000c FB79     		ldrb	r3, [r7, #7]	@ zero_extendqisi2
 743:Generated_Source\PSoC5/PWM_SERVO.c ****     }
 500              		.loc 1 743 0
 501 000e 1846     		mov	r0, r3
 502 0010 0C37     		adds	r7, r7, #12
 503              		.cfi_def_cfa_offset 4
 504 0012 BD46     		mov	sp, r7
 505              		.cfi_def_cfa_register 13
 506              		@ sp needed
 507 0014 80BC     		pop	{r7}
 508              		.cfi_restore 7
 509              		.cfi_def_cfa_offset 0
 510 0016 7047     		bx	lr
 511              	.L30:
ARM GAS  C:\Users\rens_\AppData\Local\Temp\cc59ibsE.s 			page 23


 512              		.align	2
 513              	.L29:
 514 0018 004F0040 		.word	1073762048
 515              		.cfi_endproc
 516              	.LFE8:
 517              		.size	PWM_SERVO_ReadControlRegister, .-PWM_SERVO_ReadControlRegister
 518              		.section	.text.PWM_SERVO_WriteControlRegister,"ax",%progbits
 519              		.align	2
 520              		.global	PWM_SERVO_WriteControlRegister
 521              		.thumb
 522              		.thumb_func
 523              		.type	PWM_SERVO_WriteControlRegister, %function
 524              	PWM_SERVO_WriteControlRegister:
 525              	.LFB9:
 744:Generated_Source\PSoC5/PWM_SERVO.c **** 
 745:Generated_Source\PSoC5/PWM_SERVO.c **** 
 746:Generated_Source\PSoC5/PWM_SERVO.c ****     /*******************************************************************************
 747:Generated_Source\PSoC5/PWM_SERVO.c ****     * Function Name: PWM_SERVO_WriteControlRegister
 748:Generated_Source\PSoC5/PWM_SERVO.c ****     ********************************************************************************
 749:Generated_Source\PSoC5/PWM_SERVO.c ****     *
 750:Generated_Source\PSoC5/PWM_SERVO.c ****     * Summary:
 751:Generated_Source\PSoC5/PWM_SERVO.c ****     *  Sets the bit field of the control register. This API is available only if
 752:Generated_Source\PSoC5/PWM_SERVO.c ****     *  the control register is not removed.
 753:Generated_Source\PSoC5/PWM_SERVO.c ****     *
 754:Generated_Source\PSoC5/PWM_SERVO.c ****     * Parameters:
 755:Generated_Source\PSoC5/PWM_SERVO.c ****     *  uint8 control: Control register bit field, The status register bits are:
 756:Generated_Source\PSoC5/PWM_SERVO.c ****     *  [7]   : PWM Enable
 757:Generated_Source\PSoC5/PWM_SERVO.c ****     *  [6]   : Reset
 758:Generated_Source\PSoC5/PWM_SERVO.c ****     *  [5:3] : Compare Mode2
 759:Generated_Source\PSoC5/PWM_SERVO.c ****     *  [2:0] : Compare Mode2
 760:Generated_Source\PSoC5/PWM_SERVO.c ****     *
 761:Generated_Source\PSoC5/PWM_SERVO.c ****     * Return:
 762:Generated_Source\PSoC5/PWM_SERVO.c ****     *  None
 763:Generated_Source\PSoC5/PWM_SERVO.c ****     *
 764:Generated_Source\PSoC5/PWM_SERVO.c ****     *******************************************************************************/
 765:Generated_Source\PSoC5/PWM_SERVO.c ****     void PWM_SERVO_WriteControlRegister(uint8 control) 
 766:Generated_Source\PSoC5/PWM_SERVO.c ****     {
 526              		.loc 1 766 0
 527              		.cfi_startproc
 528              		@ args = 0, pretend = 0, frame = 8
 529              		@ frame_needed = 1, uses_anonymous_args = 0
 530              		@ link register save eliminated.
 531 0000 80B4     		push	{r7}
 532              		.cfi_def_cfa_offset 4
 533              		.cfi_offset 7, -4
 534 0002 83B0     		sub	sp, sp, #12
 535              		.cfi_def_cfa_offset 16
 536 0004 00AF     		add	r7, sp, #0
 537              		.cfi_def_cfa_register 7
 538 0006 0346     		mov	r3, r0
 539 0008 FB71     		strb	r3, [r7, #7]
 767:Generated_Source\PSoC5/PWM_SERVO.c ****         CY_SET_REG8(PWM_SERVO_CONTROL_PTR, control);
 540              		.loc 1 767 0
 541 000a 044A     		ldr	r2, .L32
 542 000c FB79     		ldrb	r3, [r7, #7]
 543 000e 1370     		strb	r3, [r2]
 768:Generated_Source\PSoC5/PWM_SERVO.c ****     }
ARM GAS  C:\Users\rens_\AppData\Local\Temp\cc59ibsE.s 			page 24


 544              		.loc 1 768 0
 545 0010 00BF     		nop
 546 0012 0C37     		adds	r7, r7, #12
 547              		.cfi_def_cfa_offset 4
 548 0014 BD46     		mov	sp, r7
 549              		.cfi_def_cfa_register 13
 550              		@ sp needed
 551 0016 80BC     		pop	{r7}
 552              		.cfi_restore 7
 553              		.cfi_def_cfa_offset 0
 554 0018 7047     		bx	lr
 555              	.L33:
 556 001a 00BF     		.align	2
 557              	.L32:
 558 001c 004F0040 		.word	1073762048
 559              		.cfi_endproc
 560              	.LFE9:
 561              		.size	PWM_SERVO_WriteControlRegister, .-PWM_SERVO_WriteControlRegister
 562              		.section	.text.PWM_SERVO_ReadCompare,"ax",%progbits
 563              		.align	2
 564              		.global	PWM_SERVO_ReadCompare
 565              		.thumb
 566              		.thumb_func
 567              		.type	PWM_SERVO_ReadCompare, %function
 568              	PWM_SERVO_ReadCompare:
 569              	.LFB10:
 769:Generated_Source\PSoC5/PWM_SERVO.c **** 
 770:Generated_Source\PSoC5/PWM_SERVO.c **** #endif /* (PWM_SERVO_UseControl) */
 771:Generated_Source\PSoC5/PWM_SERVO.c **** 
 772:Generated_Source\PSoC5/PWM_SERVO.c **** 
 773:Generated_Source\PSoC5/PWM_SERVO.c **** #if (!PWM_SERVO_UsingFixedFunction)
 774:Generated_Source\PSoC5/PWM_SERVO.c **** 
 775:Generated_Source\PSoC5/PWM_SERVO.c **** 
 776:Generated_Source\PSoC5/PWM_SERVO.c ****     /*******************************************************************************
 777:Generated_Source\PSoC5/PWM_SERVO.c ****     * Function Name: PWM_SERVO_ReadCapture
 778:Generated_Source\PSoC5/PWM_SERVO.c ****     ********************************************************************************
 779:Generated_Source\PSoC5/PWM_SERVO.c ****     *
 780:Generated_Source\PSoC5/PWM_SERVO.c ****     * Summary:
 781:Generated_Source\PSoC5/PWM_SERVO.c ****     *  Reads the capture value from the capture FIFO.
 782:Generated_Source\PSoC5/PWM_SERVO.c ****     *
 783:Generated_Source\PSoC5/PWM_SERVO.c ****     * Parameters:
 784:Generated_Source\PSoC5/PWM_SERVO.c ****     *  None
 785:Generated_Source\PSoC5/PWM_SERVO.c ****     *
 786:Generated_Source\PSoC5/PWM_SERVO.c ****     * Return:
 787:Generated_Source\PSoC5/PWM_SERVO.c ****     *  uint8/uint16: The current capture value
 788:Generated_Source\PSoC5/PWM_SERVO.c ****     *
 789:Generated_Source\PSoC5/PWM_SERVO.c ****     *******************************************************************************/
 790:Generated_Source\PSoC5/PWM_SERVO.c ****     uint16 PWM_SERVO_ReadCapture(void) 
 791:Generated_Source\PSoC5/PWM_SERVO.c ****     {
 792:Generated_Source\PSoC5/PWM_SERVO.c ****         return (CY_GET_REG16(PWM_SERVO_CAPTURE_LSB_PTR));
 793:Generated_Source\PSoC5/PWM_SERVO.c ****     }
 794:Generated_Source\PSoC5/PWM_SERVO.c **** 
 795:Generated_Source\PSoC5/PWM_SERVO.c **** #endif /* (!PWM_SERVO_UsingFixedFunction) */
 796:Generated_Source\PSoC5/PWM_SERVO.c **** 
 797:Generated_Source\PSoC5/PWM_SERVO.c **** 
 798:Generated_Source\PSoC5/PWM_SERVO.c **** #if (PWM_SERVO_UseOneCompareMode)
 799:Generated_Source\PSoC5/PWM_SERVO.c **** 
ARM GAS  C:\Users\rens_\AppData\Local\Temp\cc59ibsE.s 			page 25


 800:Generated_Source\PSoC5/PWM_SERVO.c **** 
 801:Generated_Source\PSoC5/PWM_SERVO.c ****     /*******************************************************************************
 802:Generated_Source\PSoC5/PWM_SERVO.c ****     * Function Name: PWM_SERVO_ReadCompare
 803:Generated_Source\PSoC5/PWM_SERVO.c ****     ********************************************************************************
 804:Generated_Source\PSoC5/PWM_SERVO.c ****     *
 805:Generated_Source\PSoC5/PWM_SERVO.c ****     * Summary:
 806:Generated_Source\PSoC5/PWM_SERVO.c ****     *  Reads the compare value for the compare output when the PWM Mode parameter is
 807:Generated_Source\PSoC5/PWM_SERVO.c ****     *  set to Dither mode, Center Aligned mode, or One Output mode.
 808:Generated_Source\PSoC5/PWM_SERVO.c ****     *
 809:Generated_Source\PSoC5/PWM_SERVO.c ****     * Parameters:
 810:Generated_Source\PSoC5/PWM_SERVO.c ****     *  None
 811:Generated_Source\PSoC5/PWM_SERVO.c ****     *
 812:Generated_Source\PSoC5/PWM_SERVO.c ****     * Return:
 813:Generated_Source\PSoC5/PWM_SERVO.c ****     *  uint8/uint16: Current compare value
 814:Generated_Source\PSoC5/PWM_SERVO.c ****     *
 815:Generated_Source\PSoC5/PWM_SERVO.c ****     *******************************************************************************/
 816:Generated_Source\PSoC5/PWM_SERVO.c ****     uint16 PWM_SERVO_ReadCompare(void) 
 817:Generated_Source\PSoC5/PWM_SERVO.c ****     {
 570              		.loc 1 817 0
 571              		.cfi_startproc
 572              		@ args = 0, pretend = 0, frame = 0
 573              		@ frame_needed = 1, uses_anonymous_args = 0
 574              		@ link register save eliminated.
 575 0000 80B4     		push	{r7}
 576              		.cfi_def_cfa_offset 4
 577              		.cfi_offset 7, -4
 578 0002 00AF     		add	r7, sp, #0
 579              		.cfi_def_cfa_register 7
 818:Generated_Source\PSoC5/PWM_SERVO.c ****         #if(PWM_SERVO_UsingFixedFunction)
 819:Generated_Source\PSoC5/PWM_SERVO.c ****             return ((uint16)CY_GET_REG16(PWM_SERVO_COMPARE1_LSB_PTR));
 580              		.loc 1 819 0
 581 0004 034B     		ldr	r3, .L36
 582 0006 1B88     		ldrh	r3, [r3]	@ movhi
 583 0008 9BB2     		uxth	r3, r3
 820:Generated_Source\PSoC5/PWM_SERVO.c ****         #else
 821:Generated_Source\PSoC5/PWM_SERVO.c ****             return (CY_GET_REG16(PWM_SERVO_COMPARE1_LSB_PTR));
 822:Generated_Source\PSoC5/PWM_SERVO.c ****         #endif /* (PWM_SERVO_UsingFixedFunction) */
 823:Generated_Source\PSoC5/PWM_SERVO.c ****     }
 584              		.loc 1 823 0
 585 000a 1846     		mov	r0, r3
 586 000c BD46     		mov	sp, r7
 587              		.cfi_def_cfa_register 13
 588              		@ sp needed
 589 000e 80BC     		pop	{r7}
 590              		.cfi_restore 7
 591              		.cfi_def_cfa_offset 0
 592 0010 7047     		bx	lr
 593              	.L37:
 594 0012 00BF     		.align	2
 595              	.L36:
 596 0014 064F0040 		.word	1073762054
 597              		.cfi_endproc
 598              	.LFE10:
 599              		.size	PWM_SERVO_ReadCompare, .-PWM_SERVO_ReadCompare
 600              		.section	.text.PWM_SERVO_ReadPeriod,"ax",%progbits
 601              		.align	2
 602              		.global	PWM_SERVO_ReadPeriod
ARM GAS  C:\Users\rens_\AppData\Local\Temp\cc59ibsE.s 			page 26


 603              		.thumb
 604              		.thumb_func
 605              		.type	PWM_SERVO_ReadPeriod, %function
 606              	PWM_SERVO_ReadPeriod:
 607              	.LFB11:
 824:Generated_Source\PSoC5/PWM_SERVO.c **** 
 825:Generated_Source\PSoC5/PWM_SERVO.c **** #else
 826:Generated_Source\PSoC5/PWM_SERVO.c **** 
 827:Generated_Source\PSoC5/PWM_SERVO.c **** 
 828:Generated_Source\PSoC5/PWM_SERVO.c ****     /*******************************************************************************
 829:Generated_Source\PSoC5/PWM_SERVO.c ****     * Function Name: PWM_SERVO_ReadCompare1
 830:Generated_Source\PSoC5/PWM_SERVO.c ****     ********************************************************************************
 831:Generated_Source\PSoC5/PWM_SERVO.c ****     *
 832:Generated_Source\PSoC5/PWM_SERVO.c ****     * Summary:
 833:Generated_Source\PSoC5/PWM_SERVO.c ****     *  Reads the compare value for the compare1 output.
 834:Generated_Source\PSoC5/PWM_SERVO.c ****     *
 835:Generated_Source\PSoC5/PWM_SERVO.c ****     * Parameters:
 836:Generated_Source\PSoC5/PWM_SERVO.c ****     *  None
 837:Generated_Source\PSoC5/PWM_SERVO.c ****     *
 838:Generated_Source\PSoC5/PWM_SERVO.c ****     * Return:
 839:Generated_Source\PSoC5/PWM_SERVO.c ****     *  uint8/uint16: Current compare value.
 840:Generated_Source\PSoC5/PWM_SERVO.c ****     *
 841:Generated_Source\PSoC5/PWM_SERVO.c ****     *******************************************************************************/
 842:Generated_Source\PSoC5/PWM_SERVO.c ****     uint16 PWM_SERVO_ReadCompare1(void) 
 843:Generated_Source\PSoC5/PWM_SERVO.c ****     {
 844:Generated_Source\PSoC5/PWM_SERVO.c ****         return (CY_GET_REG16(PWM_SERVO_COMPARE1_LSB_PTR));
 845:Generated_Source\PSoC5/PWM_SERVO.c ****     }
 846:Generated_Source\PSoC5/PWM_SERVO.c **** 
 847:Generated_Source\PSoC5/PWM_SERVO.c **** 
 848:Generated_Source\PSoC5/PWM_SERVO.c ****     /*******************************************************************************
 849:Generated_Source\PSoC5/PWM_SERVO.c ****     * Function Name: PWM_SERVO_ReadCompare2
 850:Generated_Source\PSoC5/PWM_SERVO.c ****     ********************************************************************************
 851:Generated_Source\PSoC5/PWM_SERVO.c ****     *
 852:Generated_Source\PSoC5/PWM_SERVO.c ****     * Summary:
 853:Generated_Source\PSoC5/PWM_SERVO.c ****     *  Reads the compare value for the compare2 output.
 854:Generated_Source\PSoC5/PWM_SERVO.c ****     *
 855:Generated_Source\PSoC5/PWM_SERVO.c ****     * Parameters:
 856:Generated_Source\PSoC5/PWM_SERVO.c ****     *  None
 857:Generated_Source\PSoC5/PWM_SERVO.c ****     *
 858:Generated_Source\PSoC5/PWM_SERVO.c ****     * Return:
 859:Generated_Source\PSoC5/PWM_SERVO.c ****     *  uint8/uint16: Current compare value.
 860:Generated_Source\PSoC5/PWM_SERVO.c ****     *
 861:Generated_Source\PSoC5/PWM_SERVO.c ****     *******************************************************************************/
 862:Generated_Source\PSoC5/PWM_SERVO.c ****     uint16 PWM_SERVO_ReadCompare2(void) 
 863:Generated_Source\PSoC5/PWM_SERVO.c ****     {
 864:Generated_Source\PSoC5/PWM_SERVO.c ****         return (CY_GET_REG16(PWM_SERVO_COMPARE2_LSB_PTR));
 865:Generated_Source\PSoC5/PWM_SERVO.c ****     }
 866:Generated_Source\PSoC5/PWM_SERVO.c **** 
 867:Generated_Source\PSoC5/PWM_SERVO.c **** #endif /* (PWM_SERVO_UseOneCompareMode) */
 868:Generated_Source\PSoC5/PWM_SERVO.c **** 
 869:Generated_Source\PSoC5/PWM_SERVO.c **** 
 870:Generated_Source\PSoC5/PWM_SERVO.c **** /*******************************************************************************
 871:Generated_Source\PSoC5/PWM_SERVO.c **** * Function Name: PWM_SERVO_ReadPeriod
 872:Generated_Source\PSoC5/PWM_SERVO.c **** ********************************************************************************
 873:Generated_Source\PSoC5/PWM_SERVO.c **** *
 874:Generated_Source\PSoC5/PWM_SERVO.c **** * Summary:
 875:Generated_Source\PSoC5/PWM_SERVO.c **** *  Reads the period value used by the PWM hardware.
ARM GAS  C:\Users\rens_\AppData\Local\Temp\cc59ibsE.s 			page 27


 876:Generated_Source\PSoC5/PWM_SERVO.c **** *
 877:Generated_Source\PSoC5/PWM_SERVO.c **** * Parameters:
 878:Generated_Source\PSoC5/PWM_SERVO.c **** *  None
 879:Generated_Source\PSoC5/PWM_SERVO.c **** *
 880:Generated_Source\PSoC5/PWM_SERVO.c **** * Return:
 881:Generated_Source\PSoC5/PWM_SERVO.c **** *  uint8/16: Period value
 882:Generated_Source\PSoC5/PWM_SERVO.c **** *
 883:Generated_Source\PSoC5/PWM_SERVO.c **** *******************************************************************************/
 884:Generated_Source\PSoC5/PWM_SERVO.c **** uint16 PWM_SERVO_ReadPeriod(void) 
 885:Generated_Source\PSoC5/PWM_SERVO.c **** {
 608              		.loc 1 885 0
 609              		.cfi_startproc
 610              		@ args = 0, pretend = 0, frame = 0
 611              		@ frame_needed = 1, uses_anonymous_args = 0
 612              		@ link register save eliminated.
 613 0000 80B4     		push	{r7}
 614              		.cfi_def_cfa_offset 4
 615              		.cfi_offset 7, -4
 616 0002 00AF     		add	r7, sp, #0
 617              		.cfi_def_cfa_register 7
 886:Generated_Source\PSoC5/PWM_SERVO.c ****     #if(PWM_SERVO_UsingFixedFunction)
 887:Generated_Source\PSoC5/PWM_SERVO.c ****         return ((uint16)CY_GET_REG16(PWM_SERVO_PERIOD_LSB_PTR));
 618              		.loc 1 887 0
 619 0004 034B     		ldr	r3, .L40
 620 0006 1B88     		ldrh	r3, [r3]	@ movhi
 621 0008 9BB2     		uxth	r3, r3
 888:Generated_Source\PSoC5/PWM_SERVO.c ****     #else
 889:Generated_Source\PSoC5/PWM_SERVO.c ****         return (CY_GET_REG16(PWM_SERVO_PERIOD_LSB_PTR));
 890:Generated_Source\PSoC5/PWM_SERVO.c ****     #endif /* (PWM_SERVO_UsingFixedFunction) */
 891:Generated_Source\PSoC5/PWM_SERVO.c **** }
 622              		.loc 1 891 0
 623 000a 1846     		mov	r0, r3
 624 000c BD46     		mov	sp, r7
 625              		.cfi_def_cfa_register 13
 626              		@ sp needed
 627 000e 80BC     		pop	{r7}
 628              		.cfi_restore 7
 629              		.cfi_def_cfa_offset 0
 630 0010 7047     		bx	lr
 631              	.L41:
 632 0012 00BF     		.align	2
 633              	.L40:
 634 0014 044F0040 		.word	1073762052
 635              		.cfi_endproc
 636              	.LFE11:
 637              		.size	PWM_SERVO_ReadPeriod, .-PWM_SERVO_ReadPeriod
 638              		.text
 639              	.Letext0:
 640              		.file 2 "Generated_Source\\PSoC5\\cytypes.h"