ARM GAS  C:\Users\Krist\AppData\Local\Temp\ccsDnOFR.s 			page 1


   1              		.syntax unified
   2              		.cpu cortex-m3
   3              		.fpu softvfp
   4              		.eabi_attribute 20, 1
   5              		.eabi_attribute 21, 1
   6              		.eabi_attribute 23, 3
   7              		.eabi_attribute 24, 1
   8              		.eabi_attribute 25, 1
   9              		.eabi_attribute 26, 1
  10              		.eabi_attribute 30, 1
  11              		.eabi_attribute 34, 1
  12              		.eabi_attribute 18, 4
  13              		.thumb
  14              		.syntax unified
  15              		.file	"main.c"
  16              		.text
  17              	.Ltext0:
  18              		.cfi_sections	.debug_frame
  19              		.section	.text.ISR_A_Interrupt,"ax",%progbits
  20              		.align	2
  21              		.global	ISR_A_Interrupt
  22              		.thumb
  23              		.thumb_func
  24              		.type	ISR_A_Interrupt, %function
  25              	ISR_A_Interrupt:
  26              	.LFB64:
  27              		.file 1 "main.c"
   1:main.c        **** /* ========================================
   2:main.c        ****  *
   3:main.c        ****  * Copyright YOUR COMPANY, THE YEAR
   4:main.c        ****  * All Rights Reserved
   5:main.c        ****  * UNPUBLISHED, LICENSED SOFTWARE.
   6:main.c        ****  *
   7:main.c        ****  * CONFIDENTIAL AND PROPRIETARY INFORMATION
   8:main.c        ****  * WHICH IS THE PROPERTY OF your company.
   9:main.c        ****  *
  10:main.c        ****  * ========================================
  11:main.c        **** */
  12:main.c        **** #include "project.h"
  13:main.c        **** #include <stdint.h>
  14:main.c        **** #include "stdio.h"
  15:main.c        **** 
  16:main.c        **** 
  17:main.c        **** char TransmitBufferUSB[16];
  18:main.c        **** #define DATA_LENGTH 100
  19:main.c        **** 
  20:main.c        **** typedef struct {
  21:main.c        ****     uint16_t time;
  22:main.c        ****     int16 value;
  23:main.c        **** } datapoint;
  24:main.c        **** 
  25:main.c        **** datapoint DataA[DATA_LENGTH];
  26:main.c        **** datapoint DataB[DATA_LENGTH];
  27:main.c        **** uint8 indexA = 0;
  28:main.c        **** uint8 indexB = 0;
  29:main.c        **** 
  30:main.c        **** 
ARM GAS  C:\Users\Krist\AppData\Local\Temp\ccsDnOFR.s 			page 2


  31:main.c        **** CY_ISR(ISR_A_Interrupt){
  28              		.loc 1 31 0
  29              		.cfi_startproc
  30              		@ args = 0, pretend = 0, frame = 0
  31              		@ frame_needed = 0, uses_anonymous_args = 0
  32 0000 F8B5     		push	{r3, r4, r5, r6, r7, lr}
  33              		.cfi_def_cfa_offset 24
  34              		.cfi_offset 3, -24
  35              		.cfi_offset 4, -20
  36              		.cfi_offset 5, -16
  37              		.cfi_offset 6, -12
  38              		.cfi_offset 7, -8
  39              		.cfi_offset 14, -4
  32:main.c        ****     sprintf(TransmitBufferUSB, "Entered ISR_A - A:%d - B:%d\n\r",indexA, indexB);
  40              		.loc 1 32 0
  41 0002 3D4C     		ldr	r4, .L6
  42 0004 3D4D     		ldr	r5, .L6+4
  43 0006 2378     		ldrb	r3, [r4]	@ zero_extendqisi2
  44 0008 6278     		ldrb	r2, [r4, #1]	@ zero_extendqisi2
  45 000a 3D49     		ldr	r1, .L6+8
  46 000c 2846     		mov	r0, r5
  47 000e FFF7FEFF 		bl	sprintf
  48              	.LVL0:
  33:main.c        ****     UART_1_PutString(TransmitBufferUSB);
  49              		.loc 1 33 0
  50 0012 2846     		mov	r0, r5
  51 0014 FFF7FEFF 		bl	UART_1_PutString
  52              	.LVL1:
  34:main.c        ****     
  35:main.c        ****     if (!indexA && !indexB) {
  53              		.loc 1 35 0
  54 0018 6378     		ldrb	r3, [r4, #1]	@ zero_extendqisi2
  55 001a EBB9     		cbnz	r3, .L2
  56              		.loc 1 35 0 is_stmt 0 discriminator 1
  57 001c 2378     		ldrb	r3, [r4]	@ zero_extendqisi2
  58 001e DBB9     		cbnz	r3, .L2
  36:main.c        ****         
  37:main.c        ****         sprintf(TransmitBufferUSB, "resetting counter... ");
  59              		.loc 1 37 0 is_stmt 1
  60 0020 2C46     		mov	r4, r5
  61 0022 384D     		ldr	r5, .L6+12
  62 0024 0FCD     		ldmia	r5!, {r0, r1, r2, r3}
  63 0026 2060     		str	r0, [r4]	@ unaligned
  64 0028 6160     		str	r1, [r4, #4]	@ unaligned
  65 002a A260     		str	r2, [r4, #8]	@ unaligned
  66 002c E360     		str	r3, [r4, #12]	@ unaligned
  67 002e 2868     		ldr	r0, [r5]	@ unaligned
  68 0030 2061     		str	r0, [r4, #16]	@ unaligned
  69 0032 AB88     		ldrh	r3, [r5, #4]	@ unaligned
  70 0034 A382     		strh	r3, [r4, #20]	@ unaligned
  38:main.c        ****         UART_1_PutString(TransmitBufferUSB);
  71              		.loc 1 38 0
  72 0036 2046     		mov	r0, r4
  73 0038 FFF7FEFF 		bl	UART_1_PutString
  74              	.LVL2:
  39:main.c        ****         Counter_WriteCounter(0);
  75              		.loc 1 39 0
ARM GAS  C:\Users\Krist\AppData\Local\Temp\ccsDnOFR.s 			page 3


  76 003c 0020     		movs	r0, #0
  77 003e FFF7FEFF 		bl	Counter_WriteCounter
  78              	.LVL3:
  40:main.c        ****         
  41:main.c        ****     sprintf(TransmitBufferUSB, "Counter reset.\n\r");
  79              		.loc 1 41 0
  80 0042 314D     		ldr	r5, .L6+16
  81 0044 0FCD     		ldmia	r5!, {r0, r1, r2, r3}
  82 0046 2060     		str	r0, [r4]	@ unaligned
  83 0048 6160     		str	r1, [r4, #4]	@ unaligned
  84 004a A260     		str	r2, [r4, #8]	@ unaligned
  85 004c E360     		str	r3, [r4, #12]	@ unaligned
  86 004e 2B78     		ldrb	r3, [r5]	@ zero_extendqisi2
  87 0050 2374     		strb	r3, [r4, #16]
  42:main.c        ****     UART_1_PutString(TransmitBufferUSB);
  88              		.loc 1 42 0
  89 0052 2046     		mov	r0, r4
  90 0054 FFF7FEFF 		bl	UART_1_PutString
  91              	.LVL4:
  92              	.L2:
  43:main.c        ****     }
  44:main.c        ****     
  45:main.c        ****     sprintf(TransmitBufferUSB, "Starting sample...");
  93              		.loc 1 45 0
  94 0058 284C     		ldr	r4, .L6+4
  95 005a 2C4D     		ldr	r5, .L6+20
  96 005c 0FCD     		ldmia	r5!, {r0, r1, r2, r3}
  97 005e 2060     		str	r0, [r4]	@ unaligned
  98 0060 6160     		str	r1, [r4, #4]	@ unaligned
  99 0062 A260     		str	r2, [r4, #8]	@ unaligned
 100 0064 E360     		str	r3, [r4, #12]	@ unaligned
 101 0066 2A88     		ldrh	r2, [r5]	@ unaligned
 102 0068 AB78     		ldrb	r3, [r5, #2]	@ zero_extendqisi2
 103 006a 2282     		strh	r2, [r4, #16]	@ unaligned
 104 006c A374     		strb	r3, [r4, #18]
  46:main.c        ****     UART_1_PutString(TransmitBufferUSB);
 105              		.loc 1 46 0
 106 006e 2046     		mov	r0, r4
 107 0070 FFF7FEFF 		bl	UART_1_PutString
 108              	.LVL5:
  47:main.c        ****     //Sample 1 value
  48:main.c        ****     ADC_A_StartConvert();
 109              		.loc 1 48 0
 110 0074 FFF7FEFF 		bl	ADC_A_StartConvert
 111              	.LVL6:
  49:main.c        ****     sprintf(TransmitBufferUSB, "Sample started...");
 112              		.loc 1 49 0
 113 0078 254D     		ldr	r5, .L6+24
 114 007a 0FCD     		ldmia	r5!, {r0, r1, r2, r3}
 115 007c 2060     		str	r0, [r4]	@ unaligned
 116 007e 6160     		str	r1, [r4, #4]	@ unaligned
 117 0080 A260     		str	r2, [r4, #8]	@ unaligned
 118 0082 E360     		str	r3, [r4, #12]	@ unaligned
 119 0084 2B88     		ldrh	r3, [r5]	@ unaligned
 120 0086 2382     		strh	r3, [r4, #16]	@ unaligned
  50:main.c        ****     UART_1_PutString(TransmitBufferUSB);
 121              		.loc 1 50 0
ARM GAS  C:\Users\Krist\AppData\Local\Temp\ccsDnOFR.s 			page 4


 122 0088 2046     		mov	r0, r4
 123 008a FFF7FEFF 		bl	UART_1_PutString
 124              	.LVL7:
 125              	.L3:
  51:main.c        ****     
  52:main.c        ****     //Wait for result
  53:main.c        ****     while(!ADC_A_IsEndConversion(ADC_A_WAIT_FOR_RESULT)){}
 126              		.loc 1 53 0 discriminator 1
 127 008e 0020     		movs	r0, #0
 128 0090 FFF7FEFF 		bl	ADC_A_IsEndConversion
 129              	.LVL8:
 130 0094 0028     		cmp	r0, #0
 131 0096 FAD0     		beq	.L3
  54:main.c        ****     sprintf(TransmitBufferUSB, "Sample ended.\n\rGetting results...");
 132              		.loc 1 54 0
 133 0098 1E4E     		ldr	r6, .L6+28
 134 009a 184C     		ldr	r4, .L6+4
 135 009c 06F12007 		add	r7, r6, #32
 136              	.L4:
 137 00a0 3546     		mov	r5, r6
 138 00a2 0FCD     		ldmia	r5!, {r0, r1, r2, r3}
 139 00a4 2060     		str	r0, [r4]	@ unaligned
 140 00a6 6160     		str	r1, [r4, #4]	@ unaligned
 141 00a8 A260     		str	r2, [r4, #8]	@ unaligned
 142 00aa E360     		str	r3, [r4, #12]	@ unaligned
 143 00ac 2E46     		mov	r6, r5
 144 00ae 1034     		adds	r4, r4, #16
 145 00b0 BD42     		cmp	r5, r7
 146 00b2 F5D1     		bne	.L4
 147 00b4 2B88     		ldrh	r3, [r5]	@ unaligned
 148 00b6 2380     		strh	r3, [r4]	@ unaligned
  55:main.c        ****     UART_1_PutString(TransmitBufferUSB);
 149              		.loc 1 55 0
 150 00b8 104D     		ldr	r5, .L6+4
 151 00ba 2846     		mov	r0, r5
 152 00bc FFF7FEFF 		bl	UART_1_PutString
 153              	.LVL9:
  56:main.c        ****     
  57:main.c        ****     //Save result to 'value'
  58:main.c        ****     
  59:main.c        ****     DataA[indexA] = (datapoint) {ADC_A_GetResult16(), 
 154              		.loc 1 59 0
 155 00c0 0D4E     		ldr	r6, .L6
 156 00c2 7478     		ldrb	r4, [r6, #1]	@ zero_extendqisi2
 157 00c4 FFF7FEFF 		bl	ADC_A_GetResult16
 158              	.LVL10:
 159 00c8 0746     		mov	r7, r0
  60:main.c        ****                                  Counter_ReadCounter()};
 160              		.loc 1 60 0
 161 00ca FFF7FEFF 		bl	Counter_ReadCounter
 162              	.LVL11:
  59:main.c        ****                                  Counter_ReadCounter()};
 163              		.loc 1 59 0
 164 00ce 124B     		ldr	r3, .L6+32
 165 00d0 23F82470 		strh	r7, [r3, r4, lsl #2]	@ movhi
 166 00d4 03EB8404 		add	r4, r3, r4, lsl #2
 167 00d8 6080     		strh	r0, [r4, #2]	@ movhi
ARM GAS  C:\Users\Krist\AppData\Local\Temp\ccsDnOFR.s 			page 5


  61:main.c        ****     indexA++;
 168              		.loc 1 61 0
 169 00da 7278     		ldrb	r2, [r6, #1]	@ zero_extendqisi2
 170 00dc 0132     		adds	r2, r2, #1
 171 00de D2B2     		uxtb	r2, r2
 172 00e0 7270     		strb	r2, [r6, #1]
  62:main.c        ****     sprintf(TransmitBufferUSB, "Got results okay. DataA[%d].time = %d\n\r", indexA, DataA[indexA].t
 173              		.loc 1 62 0
 174 00e2 33F82230 		ldrh	r3, [r3, r2, lsl #2]
 175 00e6 0D49     		ldr	r1, .L6+36
 176 00e8 2846     		mov	r0, r5
 177 00ea FFF7FEFF 		bl	sprintf
 178              	.LVL12:
  63:main.c        ****     UART_1_PutString(TransmitBufferUSB);
 179              		.loc 1 63 0
 180 00ee 2846     		mov	r0, r5
 181 00f0 FFF7FEFF 		bl	UART_1_PutString
 182              	.LVL13:
 183 00f4 F8BD     		pop	{r3, r4, r5, r6, r7, pc}
 184              	.L7:
 185 00f6 00BF     		.align	2
 186              	.L6:
 187 00f8 00000000 		.word	.LANCHOR0
 188 00fc 00000000 		.word	TransmitBufferUSB
 189 0100 00000000 		.word	.LC0
 190 0104 20000000 		.word	.LC1
 191 0108 38000000 		.word	.LC2
 192 010c 4C000000 		.word	.LC3
 193 0110 60000000 		.word	.LC4
 194 0114 74000000 		.word	.LC5
 195 0118 00000000 		.word	DataA
 196 011c 98000000 		.word	.LC6
 197              		.cfi_endproc
 198              	.LFE64:
 199              		.size	ISR_A_Interrupt, .-ISR_A_Interrupt
 200              		.section	.text.ISR_B_Interrupt,"ax",%progbits
 201              		.align	2
 202              		.global	ISR_B_Interrupt
 203              		.thumb
 204              		.thumb_func
 205              		.type	ISR_B_Interrupt, %function
 206              	ISR_B_Interrupt:
 207              	.LFB65:
  64:main.c        ****     
  65:main.c        **** }
  66:main.c        **** 
  67:main.c        **** CY_ISR(ISR_B_Interrupt){
 208              		.loc 1 67 0
 209              		.cfi_startproc
 210              		@ args = 0, pretend = 0, frame = 0
 211              		@ frame_needed = 0, uses_anonymous_args = 0
 212 0000 70B5     		push	{r4, r5, r6, lr}
 213              		.cfi_def_cfa_offset 16
 214              		.cfi_offset 4, -16
 215              		.cfi_offset 5, -12
 216              		.cfi_offset 6, -8
 217              		.cfi_offset 14, -4
ARM GAS  C:\Users\Krist\AppData\Local\Temp\ccsDnOFR.s 			page 6


  68:main.c        ****     sprintf(TransmitBufferUSB, "Entered ISR_B - A:%d - B:%d\n\r",indexA, indexB);
 218              		.loc 1 68 0
 219 0002 144C     		ldr	r4, .L12
 220 0004 144D     		ldr	r5, .L12+4
 221 0006 2378     		ldrb	r3, [r4]	@ zero_extendqisi2
 222 0008 6278     		ldrb	r2, [r4, #1]	@ zero_extendqisi2
 223 000a 1449     		ldr	r1, .L12+8
 224 000c 2846     		mov	r0, r5
 225 000e FFF7FEFF 		bl	sprintf
 226              	.LVL14:
  69:main.c        ****     UART_1_PutString(TransmitBufferUSB);
 227              		.loc 1 69 0
 228 0012 2846     		mov	r0, r5
 229 0014 FFF7FEFF 		bl	UART_1_PutString
 230              	.LVL15:
  70:main.c        ****     
  71:main.c        ****     
  72:main.c        ****     if (!indexB && !indexB) {
 231              		.loc 1 72 0
 232 0018 2378     		ldrb	r3, [r4]	@ zero_extendqisi2
 233 001a 13B9     		cbnz	r3, .L9
  73:main.c        ****         Counter_WriteCounter(0);
 234              		.loc 1 73 0
 235 001c 0020     		movs	r0, #0
 236 001e FFF7FEFF 		bl	Counter_WriteCounter
 237              	.LVL16:
 238              	.L9:
  74:main.c        ****     }
  75:main.c        ****     
  76:main.c        ****     //Sample 1 value
  77:main.c        ****     ADC_B_StartConvert();
 239              		.loc 1 77 0
 240 0022 FFF7FEFF 		bl	ADC_B_StartConvert
 241              	.LVL17:
 242              	.L10:
  78:main.c        ****     //Wait for result
  79:main.c        ****     while(!ADC_B_IsEndConversion(ADC_B_WAIT_FOR_RESULT)){}
 243              		.loc 1 79 0 discriminator 1
 244 0026 0020     		movs	r0, #0
 245 0028 FFF7FEFF 		bl	ADC_B_IsEndConversion
 246              	.LVL18:
 247 002c 0028     		cmp	r0, #0
 248 002e FAD0     		beq	.L10
  80:main.c        ****     
  81:main.c        ****     
  82:main.c        ****     //Save result to 'value'
  83:main.c        ****     DataB[indexB] = (datapoint) {ADC_B_GetResult16(),
 249              		.loc 1 83 0
 250 0030 084C     		ldr	r4, .L12
 251 0032 2578     		ldrb	r5, [r4]	@ zero_extendqisi2
 252 0034 FFF7FEFF 		bl	ADC_B_GetResult16
 253              	.LVL19:
 254 0038 0646     		mov	r6, r0
  84:main.c        ****                                  Counter_ReadCounter()};
 255              		.loc 1 84 0
 256 003a FFF7FEFF 		bl	Counter_ReadCounter
 257              	.LVL20:
ARM GAS  C:\Users\Krist\AppData\Local\Temp\ccsDnOFR.s 			page 7


  83:main.c        ****                                  Counter_ReadCounter()};
 258              		.loc 1 83 0
 259 003e 084B     		ldr	r3, .L12+12
 260 0040 23F82560 		strh	r6, [r3, r5, lsl #2]	@ movhi
 261 0044 03EB8503 		add	r3, r3, r5, lsl #2
 262 0048 5880     		strh	r0, [r3, #2]	@ movhi
  85:main.c        ****     indexB++;
 263              		.loc 1 85 0
 264 004a 2378     		ldrb	r3, [r4]	@ zero_extendqisi2
 265 004c 0133     		adds	r3, r3, #1
 266 004e 2370     		strb	r3, [r4]
 267 0050 70BD     		pop	{r4, r5, r6, pc}
 268              	.L13:
 269 0052 00BF     		.align	2
 270              	.L12:
 271 0054 00000000 		.word	.LANCHOR0
 272 0058 00000000 		.word	TransmitBufferUSB
 273 005c C0000000 		.word	.LC7
 274 0060 00000000 		.word	DataB
 275              		.cfi_endproc
 276              	.LFE65:
 277              		.size	ISR_B_Interrupt, .-ISR_B_Interrupt
 278              		.section	.text.calc_delta_time,"ax",%progbits
 279              		.align	2
 280              		.global	calc_delta_time
 281              		.thumb
 282              		.thumb_func
 283              		.type	calc_delta_time, %function
 284              	calc_delta_time:
 285              	.LFB66:
  86:main.c        ****     
  87:main.c        **** }
  88:main.c        **** 
  89:main.c        **** int32_t calc_delta_time() {
 286              		.loc 1 89 0
 287              		.cfi_startproc
 288              		@ args = 0, pretend = 0, frame = 0
 289              		@ frame_needed = 0, uses_anonymous_args = 0
 290              		@ link register save eliminated.
 291              	.LVL21:
 292              	.LBB2:
  90:main.c        ****     uint8_t DataA_Pos = 0;
  91:main.c        ****     uint8_t DataB_Pos = 0;
  92:main.c        ****     
  93:main.c        ****     int16_t tmp_amp = 0;
  94:main.c        ****     
  95:main.c        ****     for (uint8_t i = 0; i < DATA_LENGTH; i++) {
 293              		.loc 1 95 0
 294 0000 0023     		movs	r3, #0
 295              	.LBE2:
  90:main.c        ****     uint8_t DataA_Pos = 0;
 296              		.loc 1 90 0
 297 0002 1846     		mov	r0, r3
 298              	.LBB3:
 299              		.loc 1 95 0
 300 0004 09E0     		b	.L15
 301              	.LVL22:
ARM GAS  C:\Users\Krist\AppData\Local\Temp\ccsDnOFR.s 			page 8


 302              	.L17:
  96:main.c        ****         if (DataA[i].value > tmp_amp) {
 303              		.loc 1 96 0
 304 0006 114A     		ldr	r2, .L23
 305 0008 02EB8302 		add	r2, r2, r3, lsl #2
 306 000c B2F90220 		ldrsh	r2, [r2, #2]
 307 0010 002A     		cmp	r2, #0
 308 0012 00DD     		ble	.L16
  97:main.c        ****             DataA_Pos = i;
 309              		.loc 1 97 0
 310 0014 1846     		mov	r0, r3
 311              	.LVL23:
 312              	.L16:
  95:main.c        ****         if (DataA[i].value > tmp_amp) {
 313              		.loc 1 95 0 discriminator 2
 314 0016 0133     		adds	r3, r3, #1
 315              	.LVL24:
 316 0018 DBB2     		uxtb	r3, r3
 317              	.LVL25:
 318              	.L15:
  95:main.c        ****         if (DataA[i].value > tmp_amp) {
 319              		.loc 1 95 0 is_stmt 0 discriminator 1
 320 001a 632B     		cmp	r3, #99
 321 001c F3D9     		bls	.L17
 322 001e 0023     		movs	r3, #0
 323              	.LVL26:
 324 0020 1946     		mov	r1, r3
 325 0022 09E0     		b	.L18
 326              	.LVL27:
 327              	.L20:
 328              	.LBE3:
 329              	.LBB4:
  98:main.c        ****         }
  99:main.c        ****     }
 100:main.c        ****     
 101:main.c        ****     tmp_amp = 0;
 102:main.c        ****     
 103:main.c        ****     for (uint8_t i = 0; i < DATA_LENGTH; i++) {
 104:main.c        ****         if (DataB[i].value > tmp_amp) {
 330              		.loc 1 104 0 is_stmt 1
 331 0024 0A4A     		ldr	r2, .L23+4
 332 0026 02EB8302 		add	r2, r2, r3, lsl #2
 333 002a B2F90220 		ldrsh	r2, [r2, #2]
 334 002e 002A     		cmp	r2, #0
 335 0030 00DD     		ble	.L19
 105:main.c        ****             DataB_Pos = i;
 336              		.loc 1 105 0
 337 0032 1946     		mov	r1, r3
 338              	.LVL28:
 339              	.L19:
 103:main.c        ****         if (DataB[i].value > tmp_amp) {
 340              		.loc 1 103 0 discriminator 2
 341 0034 0133     		adds	r3, r3, #1
 342              	.LVL29:
 343 0036 DBB2     		uxtb	r3, r3
 344              	.LVL30:
 345              	.L18:
ARM GAS  C:\Users\Krist\AppData\Local\Temp\ccsDnOFR.s 			page 9


 103:main.c        ****         if (DataB[i].value > tmp_amp) {
 346              		.loc 1 103 0 is_stmt 0 discriminator 1
 347 0038 632B     		cmp	r3, #99
 348 003a F3D9     		bls	.L20
 349              	.LBE4:
 106:main.c        ****         }
 107:main.c        ****     }
 108:main.c        ****     
 109:main.c        ****     return DataA[DataA_Pos].time - DataB[DataB_Pos].time;
 350              		.loc 1 109 0 is_stmt 1
 351 003c 034B     		ldr	r3, .L23
 352              	.LVL31:
 353 003e 33F82000 		ldrh	r0, [r3, r0, lsl #2]
 354              	.LVL32:
 355 0042 034B     		ldr	r3, .L23+4
 356 0044 33F82130 		ldrh	r3, [r3, r1, lsl #2]
 110:main.c        **** }
 357              		.loc 1 110 0
 358 0048 C01A     		subs	r0, r0, r3
 359 004a 7047     		bx	lr
 360              	.L24:
 361              		.align	2
 362              	.L23:
 363 004c 00000000 		.word	DataA
 364 0050 00000000 		.word	DataB
 365              		.cfi_endproc
 366              	.LFE66:
 367              		.size	calc_delta_time, .-calc_delta_time
 368              		.global	__aeabi_i2f
 369              		.global	__aeabi_fmul
 370              		.global	__aeabi_f2iz
 371              		.section	.text.convert_time_to_angle,"ax",%progbits
 372              		.align	2
 373              		.global	convert_time_to_angle
 374              		.thumb
 375              		.thumb_func
 376              		.type	convert_time_to_angle, %function
 377              	convert_time_to_angle:
 378              	.LFB67:
 111:main.c        **** 
 112:main.c        **** int8_t convert_time_to_angle(float time_to_angle_factor, 
 113:main.c        ****                                     int32_t time_delta) {
 379              		.loc 1 113 0
 380              		.cfi_startproc
 381              		@ args = 0, pretend = 0, frame = 0
 382              		@ frame_needed = 0, uses_anonymous_args = 0
 383              	.LVL33:
 384 0000 10B5     		push	{r4, lr}
 385              		.cfi_def_cfa_offset 8
 386              		.cfi_offset 4, -8
 387              		.cfi_offset 14, -4
 388 0002 0446     		mov	r4, r0
 114:main.c        ****     return (int8_t)(time_to_angle_factor * time_delta);
 389              		.loc 1 114 0
 390 0004 0846     		mov	r0, r1
 391              	.LVL34:
 392 0006 FFF7FEFF 		bl	__aeabi_i2f
ARM GAS  C:\Users\Krist\AppData\Local\Temp\ccsDnOFR.s 			page 10


 393              	.LVL35:
 394 000a 2146     		mov	r1, r4
 395 000c FFF7FEFF 		bl	__aeabi_fmul
 396              	.LVL36:
 397 0010 FFF7FEFF 		bl	__aeabi_f2iz
 398              	.LVL37:
 115:main.c        **** }
 399              		.loc 1 115 0
 400 0014 40B2     		sxtb	r0, r0
 401 0016 10BD     		pop	{r4, pc}
 402              		.cfi_endproc
 403              	.LFE67:
 404              		.size	convert_time_to_angle, .-convert_time_to_angle
 405              		.section	.text.main,"ax",%progbits
 406              		.align	2
 407              		.global	main
 408              		.thumb
 409              		.thumb_func
 410              		.type	main, %function
 411              	main:
 412              	.LFB68:
 116:main.c        **** 
 117:main.c        **** int main(void)
 118:main.c        **** {    
 413              		.loc 1 118 0
 414              		.cfi_startproc
 415              		@ args = 0, pretend = 0, frame = 0
 416              		@ frame_needed = 0, uses_anonymous_args = 0
 417 0000 70B5     		push	{r4, r5, r6, lr}
 418              		.cfi_def_cfa_offset 16
 419              		.cfi_offset 4, -16
 420              		.cfi_offset 5, -12
 421              		.cfi_offset 6, -8
 422              		.cfi_offset 14, -4
 119:main.c        ****     Mixer_PD_A_Start();
 423              		.loc 1 119 0
 424 0002 FFF7FEFF 		bl	Mixer_PD_A_Start
 425              	.LVL38:
 120:main.c        ****     Mixer_PD_A_Start();
 426              		.loc 1 120 0
 427 0006 FFF7FEFF 		bl	Mixer_PD_A_Start
 428              	.LVL39:
 121:main.c        ****     Comp_PD_A_Start();
 429              		.loc 1 121 0
 430 000a FFF7FEFF 		bl	Comp_PD_A_Start
 431              	.LVL40:
 122:main.c        ****     Comp_PD_B_Start();
 432              		.loc 1 122 0
 433 000e FFF7FEFF 		bl	Comp_PD_B_Start
 434              	.LVL41:
 123:main.c        ****     Mixer_A_Start();
 435              		.loc 1 123 0
 436 0012 FFF7FEFF 		bl	Mixer_A_Start
 437              	.LVL42:
 124:main.c        ****     Mixer_B_Start();
 438              		.loc 1 124 0
 439 0016 FFF7FEFF 		bl	Mixer_B_Start
ARM GAS  C:\Users\Krist\AppData\Local\Temp\ccsDnOFR.s 			page 11


 440              	.LVL43:
 125:main.c        ****     VDAC_Start();
 441              		.loc 1 125 0
 442 001a FFF7FEFF 		bl	VDAC_Start
 443              	.LVL44:
 126:main.c        ****     ADC_A_Start();
 444              		.loc 1 126 0
 445 001e FFF7FEFF 		bl	ADC_A_Start
 446              	.LVL45:
 127:main.c        ****     ADC_B_Start();
 447              		.loc 1 127 0
 448 0022 FFF7FEFF 		bl	ADC_B_Start
 449              	.LVL46:
 128:main.c        ****     UART_1_Start();
 450              		.loc 1 128 0
 451 0026 FFF7FEFF 		bl	UART_1_Start
 452              	.LVL47:
 129:main.c        ****     sprintf(TransmitBufferUSB,"\n\n\n\n\rHello World\n\r");
 453              		.loc 1 129 0
 454 002a 2D4C     		ldr	r4, .L31
 455 002c 2D4D     		ldr	r5, .L31+4
 456 002e 0FCD     		ldmia	r5!, {r0, r1, r2, r3}
 457 0030 2060     		str	r0, [r4]	@ unaligned
 458 0032 6160     		str	r1, [r4, #4]	@ unaligned
 459 0034 A260     		str	r2, [r4, #8]	@ unaligned
 460 0036 E360     		str	r3, [r4, #12]	@ unaligned
 461 0038 2A88     		ldrh	r2, [r5]	@ unaligned
 462 003a AB78     		ldrb	r3, [r5, #2]	@ zero_extendqisi2
 463 003c 2282     		strh	r2, [r4, #16]	@ unaligned
 464 003e A374     		strb	r3, [r4, #18]
 130:main.c        ****     UART_1_PutString(TransmitBufferUSB);
 465              		.loc 1 130 0
 466 0040 2046     		mov	r0, r4
 467 0042 FFF7FEFF 		bl	UART_1_PutString
 468              	.LVL48:
 131:main.c        ****     
 132:main.c        ****     ISR_PIN_A_StartEx(ISR_A_Interrupt);
 469              		.loc 1 132 0
 470 0046 2848     		ldr	r0, .L31+8
 471 0048 FFF7FEFF 		bl	ISR_PIN_A_StartEx
 472              	.LVL49:
 133:main.c        ****     ISR_PIN_B_StartEx(ISR_B_Interrupt);
 473              		.loc 1 133 0
 474 004c 2748     		ldr	r0, .L31+12
 475 004e FFF7FEFF 		bl	ISR_PIN_B_StartEx
 476              	.LVL50:
 134:main.c        ****     
 135:main.c        ****     
 136:main.c        ****     sprintf(TransmitBufferUSB, "A:%d - B:%d\n\r",indexA, indexB);
 477              		.loc 1 136 0
 478 0052 274E     		ldr	r6, .L31+16
 479 0054 3378     		ldrb	r3, [r6]	@ zero_extendqisi2
 480 0056 7278     		ldrb	r2, [r6, #1]	@ zero_extendqisi2
 481 0058 2649     		ldr	r1, .L31+20
 482 005a 2046     		mov	r0, r4
 483 005c FFF7FEFF 		bl	sprintf
 484              	.LVL51:
ARM GAS  C:\Users\Krist\AppData\Local\Temp\ccsDnOFR.s 			page 12


 137:main.c        ****     UART_1_PutString(TransmitBufferUSB);
 485              		.loc 1 137 0
 486 0060 2046     		mov	r0, r4
 487 0062 FFF7FEFF 		bl	UART_1_PutString
 488              	.LVL52:
 138:main.c        ****     CyGlobalIntEnable; /* Enable global interrupts. */
 489              		.loc 1 138 0
 490              		.syntax unified
 491              	@ 138 "main.c" 1
 492 0066 62B6     		CPSIE   i
 493              	@ 0 "" 2
 139:main.c        ****     sprintf(TransmitBufferUSB, "\n\n\n\rISR IS FIXED\n\r");
 494              		.loc 1 139 0
 495              		.thumb
 496              		.syntax unified
 497 0068 234D     		ldr	r5, .L31+24
 498 006a 0FCD     		ldmia	r5!, {r0, r1, r2, r3}
 499 006c 2060     		str	r0, [r4]	@ unaligned
 500 006e 6160     		str	r1, [r4, #4]	@ unaligned
 501 0070 A260     		str	r2, [r4, #8]	@ unaligned
 502 0072 E360     		str	r3, [r4, #12]	@ unaligned
 503 0074 2A88     		ldrh	r2, [r5]	@ unaligned
 504 0076 AB78     		ldrb	r3, [r5, #2]	@ zero_extendqisi2
 505 0078 2282     		strh	r2, [r4, #16]	@ unaligned
 506 007a A374     		strb	r3, [r4, #18]
 140:main.c        ****     UART_1_PutString(TransmitBufferUSB);
 507              		.loc 1 140 0
 508 007c 2046     		mov	r0, r4
 509 007e FFF7FEFF 		bl	UART_1_PutString
 510              	.LVL53:
 141:main.c        ****     
 142:main.c        ****     
 143:main.c        ****     /* Place your initialization/startup code here (e.g. MyInst_Start()) */
 144:main.c        **** 
 145:main.c        ****     const float time_to_angle_factor = 0.2058;
 146:main.c        ****     int8_t angle = 0;
 147:main.c        ****     sprintf(TransmitBufferUSB, "A:%d - B:%d\n",indexA, indexB);
 511              		.loc 1 147 0
 512 0082 3378     		ldrb	r3, [r6]	@ zero_extendqisi2
 513 0084 7278     		ldrb	r2, [r6, #1]	@ zero_extendqisi2
 514 0086 1D49     		ldr	r1, .L31+28
 515 0088 2046     		mov	r0, r4
 516 008a FFF7FEFF 		bl	sprintf
 517              	.LVL54:
 148:main.c        ****     UART_1_PutString(TransmitBufferUSB);
 518              		.loc 1 148 0
 519 008e 2046     		mov	r0, r4
 520 0090 FFF7FEFF 		bl	UART_1_PutString
 521              	.LVL55:
 522              	.L28:
 149:main.c        ****     
 150:main.c        ****     for(;;)
 151:main.c        ****     {
 152:main.c        ****         /* if DataA and DataB are full,
 153:main.c        ****          * then calculate the angle and reset indices
 154:main.c        ****          */
 155:main.c        ****         sprintf(TransmitBufferUSB, "A:%d - B:%d\n",indexA, indexB);
ARM GAS  C:\Users\Krist\AppData\Local\Temp\ccsDnOFR.s 			page 13


 523              		.loc 1 155 0
 524 0094 164C     		ldr	r4, .L31+16
 525 0096 124D     		ldr	r5, .L31
 526 0098 2378     		ldrb	r3, [r4]	@ zero_extendqisi2
 527 009a 6278     		ldrb	r2, [r4, #1]	@ zero_extendqisi2
 528 009c 1749     		ldr	r1, .L31+28
 529 009e 2846     		mov	r0, r5
 530 00a0 FFF7FEFF 		bl	sprintf
 531              	.LVL56:
 156:main.c        ****         UART_1_PutString(TransmitBufferUSB);
 532              		.loc 1 156 0
 533 00a4 2846     		mov	r0, r5
 534 00a6 FFF7FEFF 		bl	UART_1_PutString
 535              	.LVL57:
 157:main.c        ****         if (indexA == 100 && indexB == 100) {
 536              		.loc 1 157 0
 537 00aa 6378     		ldrb	r3, [r4, #1]	@ zero_extendqisi2
 538 00ac 642B     		cmp	r3, #100
 539 00ae F1D1     		bne	.L28
 540              		.loc 1 157 0 is_stmt 0 discriminator 1
 541 00b0 2378     		ldrb	r3, [r4]	@ zero_extendqisi2
 542 00b2 642B     		cmp	r3, #100
 543 00b4 EED1     		bne	.L28
 544              	.LBB5:
 158:main.c        ****             CyGlobalIntDisable;
 545              		.loc 1 158 0 is_stmt 1
 546              		.syntax unified
 547              	@ 158 "main.c" 1
 548 00b6 72B6     		CPSID   i
 549              	@ 0 "" 2
 159:main.c        ****             int32_t time_delta = calc_delta_time();
 550              		.loc 1 159 0
 551              		.thumb
 552              		.syntax unified
 553 00b8 FFF7FEFF 		bl	calc_delta_time
 554              	.LVL58:
 160:main.c        ****             angle = convert_time_to_angle(time_to_angle_factor, 
 555              		.loc 1 160 0
 556 00bc 0146     		mov	r1, r0
 557 00be 1048     		ldr	r0, .L31+32
 558              	.LVL59:
 559 00c0 FFF7FEFF 		bl	convert_time_to_angle
 560              	.LVL60:
 161:main.c        ****                                           time_delta);
 162:main.c        ****             sprintf(TransmitBufferUSB, "%d\n", angle);
 561              		.loc 1 162 0
 562 00c4 0246     		mov	r2, r0
 563 00c6 0F49     		ldr	r1, .L31+36
 564 00c8 2846     		mov	r0, r5
 565              	.LVL61:
 566 00ca FFF7FEFF 		bl	sprintf
 567              	.LVL62:
 163:main.c        ****             UART_1_PutString(TransmitBufferUSB);
 568              		.loc 1 163 0
 569 00ce 2846     		mov	r0, r5
 570 00d0 FFF7FEFF 		bl	UART_1_PutString
 571              	.LVL63:
ARM GAS  C:\Users\Krist\AppData\Local\Temp\ccsDnOFR.s 			page 14


 164:main.c        ****             
 165:main.c        ****             indexA = indexB = 0;
 572              		.loc 1 165 0
 573 00d4 064B     		ldr	r3, .L31+16
 574 00d6 0022     		movs	r2, #0
 575 00d8 1A70     		strb	r2, [r3]
 576 00da 5A70     		strb	r2, [r3, #1]
 166:main.c        ****             CyGlobalIntEnable;
 577              		.loc 1 166 0
 578              		.syntax unified
 579              	@ 166 "main.c" 1
 580 00dc 62B6     		CPSIE   i
 581              	@ 0 "" 2
 582              		.thumb
 583              		.syntax unified
 584 00de D9E7     		b	.L28
 585              	.L32:
 586              		.align	2
 587              	.L31:
 588 00e0 00000000 		.word	TransmitBufferUSB
 589 00e4 E0000000 		.word	.LC8
 590 00e8 00000000 		.word	ISR_A_Interrupt
 591 00ec 00000000 		.word	ISR_B_Interrupt
 592 00f0 00000000 		.word	.LANCHOR0
 593 00f4 F4000000 		.word	.LC9
 594 00f8 04010000 		.word	.LC10
 595 00fc 18010000 		.word	.LC11
 596 0100 3CBD523E 		.word	1045609788
 597 0104 28010000 		.word	.LC12
 598              	.LBE5:
 599              		.cfi_endproc
 600              	.LFE68:
 601              		.size	main, .-main
 602              		.global	indexB
 603              		.global	indexA
 604              		.comm	DataB,400,4
 605              		.comm	DataA,400,4
 606              		.comm	TransmitBufferUSB,16,4
 607              		.section	.rodata.str1.4,"aMS",%progbits,1
 608              		.align	2
 609              	.LC0:
 610 0000 456E7465 		.ascii	"Entered ISR_A - A:%d - B:%d\012\015\000"
 610      72656420 
 610      4953525F 
 610      41202D20 
 610      413A2564 
 611 001e 0000     		.space	2
 612              	.LC1:
 613 0020 72657365 		.ascii	"resetting counter... \000"
 613      7474696E 
 613      6720636F 
 613      756E7465 
 613      722E2E2E 
 614 0036 0000     		.space	2
 615              	.LC2:
 616 0038 436F756E 		.ascii	"Counter reset.\012\015\000"
 616      74657220 
ARM GAS  C:\Users\Krist\AppData\Local\Temp\ccsDnOFR.s 			page 15


 616      72657365 
 616      742E0A0D 
 616      00
 617 0049 000000   		.space	3
 618              	.LC3:
 619 004c 53746172 		.ascii	"Starting sample...\000"
 619      74696E67 
 619      2073616D 
 619      706C652E 
 619      2E2E00
 620 005f 00       		.space	1
 621              	.LC4:
 622 0060 53616D70 		.ascii	"Sample started...\000"
 622      6C652073 
 622      74617274 
 622      65642E2E 
 622      2E00
 623 0072 0000     		.space	2
 624              	.LC5:
 625 0074 53616D70 		.ascii	"Sample ended.\012\015Getting results...\000"
 625      6C652065 
 625      6E646564 
 625      2E0A0D47 
 625      65747469 
 626 0096 0000     		.space	2
 627              	.LC6:
 628 0098 476F7420 		.ascii	"Got results okay. DataA[%d].time = %d\012\015\000"
 628      72657375 
 628      6C747320 
 628      6F6B6179 
 628      2E204461 
 629              	.LC7:
 630 00c0 456E7465 		.ascii	"Entered ISR_B - A:%d - B:%d\012\015\000"
 630      72656420 
 630      4953525F 
 630      42202D20 
 630      413A2564 
 631 00de 0000     		.space	2
 632              	.LC8:
 633 00e0 0A0A0A0A 		.ascii	"\012\012\012\012\015Hello World\012\015\000"
 633      0D48656C 
 633      6C6F2057 
 633      6F726C64 
 633      0A0D00
 634 00f3 00       		.space	1
 635              	.LC9:
 636 00f4 413A2564 		.ascii	"A:%d - B:%d\012\015\000"
 636      202D2042 
 636      3A25640A 
 636      0D00
 637 0102 0000     		.space	2
 638              	.LC10:
 639 0104 0A0A0A0D 		.ascii	"\012\012\012\015ISR IS FIXED\012\015\000"
 639      49535220 
 639      49532046 
 639      49584544 
 639      0A0D00
ARM GAS  C:\Users\Krist\AppData\Local\Temp\ccsDnOFR.s 			page 16


 640 0117 00       		.space	1
 641              	.LC11:
 642 0118 413A2564 		.ascii	"A:%d - B:%d\012\000"
 642      202D2042 
 642      3A25640A 
 642      00
 643 0125 000000   		.space	3
 644              	.LC12:
 645 0128 25640A00 		.ascii	"%d\012\000"
 646              		.bss
 647              		.set	.LANCHOR0,. + 0
 648              		.type	indexB, %object
 649              		.size	indexB, 1
 650              	indexB:
 651 0000 00       		.space	1
 652              		.type	indexA, %object
 653              		.size	indexA, 1
 654              	indexA:
 655 0001 00       		.space	1
 656              		.text
 657              	.Letext0:
 658              		.file 2 "c:\\program files (x86)\\cypress\\psoc creator\\4.1\\psoc creator\\import\\gnu\\arm\\5.4.
 659              		.file 3 "c:\\program files (x86)\\cypress\\psoc creator\\4.1\\psoc creator\\import\\gnu\\arm\\5.4.
 660              		.file 4 "Generated_Source\\PSoC5/cytypes.h"
 661              		.file 5 "Generated_Source\\PSoC5/core_cm3.h"
 662              		.file 6 "c:\\program files (x86)\\cypress\\psoc creator\\4.1\\psoc creator\\import\\gnu\\arm\\5.4.
 663              		.file 7 "Generated_Source\\PSoC5/UART_1.h"
 664              		.file 8 "Generated_Source\\PSoC5/Counter.h"
 665              		.file 9 "Generated_Source\\PSoC5/ADC_A.h"
 666              		.file 10 "Generated_Source\\PSoC5/ADC_B.h"
 667              		.file 11 "Generated_Source\\PSoC5/Mixer_PD_A.h"
 668              		.file 12 "Generated_Source\\PSoC5/Comp_PD_A.h"
 669              		.file 13 "Generated_Source\\PSoC5/Comp_PD_B.h"
 670              		.file 14 "Generated_Source\\PSoC5/Mixer_A.h"
 671              		.file 15 "Generated_Source\\PSoC5/Mixer_B.h"
 672              		.file 16 "Generated_Source\\PSoC5/VDAC.h"
 673              		.file 17 "Generated_Source\\PSoC5/ISR_PIN_A.h"
 674              		.file 18 "Generated_Source\\PSoC5/ISR_PIN_B.h"