ARM GAS  C:\Users\Krist\AppData\Local\Temp\cco9P9uz.s 			page 1


   1              		.syntax unified
   2              		.cpu cortex-m3
   3              		.fpu softvfp
   4              		.eabi_attribute 20, 1
   5              		.eabi_attribute 21, 1
   6              		.eabi_attribute 23, 3
   7              		.eabi_attribute 24, 1
   8              		.eabi_attribute 25, 1
   9              		.eabi_attribute 26, 1
  10              		.eabi_attribute 30, 1
  11              		.eabi_attribute 34, 1
  12              		.eabi_attribute 18, 4
  13              		.thumb
  14              		.syntax unified
  15              		.file	"Mixer_PD_A_PM.c"
  16              		.text
  17              	.Ltext0:
  18              		.cfi_sections	.debug_frame
  19              		.section	.text.Mixer_PD_A_SaveConfig,"ax",%progbits
  20              		.align	2
  21              		.global	Mixer_PD_A_SaveConfig
  22              		.thumb
  23              		.thumb_func
  24              		.type	Mixer_PD_A_SaveConfig, %function
  25              	Mixer_PD_A_SaveConfig:
  26              	.LFB0:
  27              		.file 1 "Generated_Source\\PSoC5\\Mixer_PD_A_PM.c"
   1:Generated_Source\PSoC5/Mixer_PD_A_PM.c **** /*******************************************************************************
   2:Generated_Source\PSoC5/Mixer_PD_A_PM.c **** * File Name: Mixer_PD_A_PM.c  
   3:Generated_Source\PSoC5/Mixer_PD_A_PM.c **** * Version 2.0
   4:Generated_Source\PSoC5/Mixer_PD_A_PM.c **** *
   5:Generated_Source\PSoC5/Mixer_PD_A_PM.c **** * Description:
   6:Generated_Source\PSoC5/Mixer_PD_A_PM.c **** *  This file provides the power manager source code to the API for 
   7:Generated_Source\PSoC5/Mixer_PD_A_PM.c **** *  the MIXER component.
   8:Generated_Source\PSoC5/Mixer_PD_A_PM.c **** *
   9:Generated_Source\PSoC5/Mixer_PD_A_PM.c **** * Note:
  10:Generated_Source\PSoC5/Mixer_PD_A_PM.c **** *
  11:Generated_Source\PSoC5/Mixer_PD_A_PM.c **** *******************************************************************************
  12:Generated_Source\PSoC5/Mixer_PD_A_PM.c **** * Copyright 2008-2012, Cypress Semiconductor Corporation.  All rights reserved.
  13:Generated_Source\PSoC5/Mixer_PD_A_PM.c **** * You may use this file only in accordance with the license, terms, conditions, 
  14:Generated_Source\PSoC5/Mixer_PD_A_PM.c **** * disclaimers, and limitations in the end user license agreement accompanying 
  15:Generated_Source\PSoC5/Mixer_PD_A_PM.c **** * the software package with which this file was provided.
  16:Generated_Source\PSoC5/Mixer_PD_A_PM.c **** *******************************************************************************/
  17:Generated_Source\PSoC5/Mixer_PD_A_PM.c **** 
  18:Generated_Source\PSoC5/Mixer_PD_A_PM.c **** #include "Mixer_PD_A.h"
  19:Generated_Source\PSoC5/Mixer_PD_A_PM.c **** 
  20:Generated_Source\PSoC5/Mixer_PD_A_PM.c **** static Mixer_PD_A_backupStruct  Mixer_PD_A_backup;
  21:Generated_Source\PSoC5/Mixer_PD_A_PM.c **** 
  22:Generated_Source\PSoC5/Mixer_PD_A_PM.c **** 
  23:Generated_Source\PSoC5/Mixer_PD_A_PM.c **** /*******************************************************************************
  24:Generated_Source\PSoC5/Mixer_PD_A_PM.c **** * Function Name: Mixer_PD_A_SaveConfig
  25:Generated_Source\PSoC5/Mixer_PD_A_PM.c **** ********************************************************************************
  26:Generated_Source\PSoC5/Mixer_PD_A_PM.c **** *
  27:Generated_Source\PSoC5/Mixer_PD_A_PM.c **** * Summary:
  28:Generated_Source\PSoC5/Mixer_PD_A_PM.c **** *  Saves the current user configuration.
  29:Generated_Source\PSoC5/Mixer_PD_A_PM.c **** *  
  30:Generated_Source\PSoC5/Mixer_PD_A_PM.c **** * Parameters:  
ARM GAS  C:\Users\Krist\AppData\Local\Temp\cco9P9uz.s 			page 2


  31:Generated_Source\PSoC5/Mixer_PD_A_PM.c **** *  void.
  32:Generated_Source\PSoC5/Mixer_PD_A_PM.c **** *
  33:Generated_Source\PSoC5/Mixer_PD_A_PM.c **** * Return: 
  34:Generated_Source\PSoC5/Mixer_PD_A_PM.c **** *  void.
  35:Generated_Source\PSoC5/Mixer_PD_A_PM.c **** *
  36:Generated_Source\PSoC5/Mixer_PD_A_PM.c **** *******************************************************************************/
  37:Generated_Source\PSoC5/Mixer_PD_A_PM.c **** void Mixer_PD_A_SaveConfig(void) 
  38:Generated_Source\PSoC5/Mixer_PD_A_PM.c **** {
  28              		.loc 1 38 0
  29              		.cfi_startproc
  30              		@ args = 0, pretend = 0, frame = 0
  31              		@ frame_needed = 0, uses_anonymous_args = 0
  32              		@ link register save eliminated.
  33 0000 7047     		bx	lr
  34              		.cfi_endproc
  35              	.LFE0:
  36              		.size	Mixer_PD_A_SaveConfig, .-Mixer_PD_A_SaveConfig
  37 0002 00BF     		.section	.text.Mixer_PD_A_RestoreConfig,"ax",%progbits
  38              		.align	2
  39              		.global	Mixer_PD_A_RestoreConfig
  40              		.thumb
  41              		.thumb_func
  42              		.type	Mixer_PD_A_RestoreConfig, %function
  43              	Mixer_PD_A_RestoreConfig:
  44              	.LFB1:
  39:Generated_Source\PSoC5/Mixer_PD_A_PM.c ****     /* Nothing to save before entering into sleep mode as all the registers used 
  40:Generated_Source\PSoC5/Mixer_PD_A_PM.c ****        here are retension registers. */
  41:Generated_Source\PSoC5/Mixer_PD_A_PM.c **** }
  42:Generated_Source\PSoC5/Mixer_PD_A_PM.c **** 
  43:Generated_Source\PSoC5/Mixer_PD_A_PM.c **** 
  44:Generated_Source\PSoC5/Mixer_PD_A_PM.c **** /*******************************************************************************
  45:Generated_Source\PSoC5/Mixer_PD_A_PM.c **** * Function Name: Mixer_PD_A_RestoreConfig
  46:Generated_Source\PSoC5/Mixer_PD_A_PM.c **** ********************************************************************************
  47:Generated_Source\PSoC5/Mixer_PD_A_PM.c **** *
  48:Generated_Source\PSoC5/Mixer_PD_A_PM.c **** * Summary:
  49:Generated_Source\PSoC5/Mixer_PD_A_PM.c **** *  Restores the current user configuration.
  50:Generated_Source\PSoC5/Mixer_PD_A_PM.c **** *
  51:Generated_Source\PSoC5/Mixer_PD_A_PM.c **** * Parameters:  
  52:Generated_Source\PSoC5/Mixer_PD_A_PM.c **** *  void.
  53:Generated_Source\PSoC5/Mixer_PD_A_PM.c **** *
  54:Generated_Source\PSoC5/Mixer_PD_A_PM.c **** * Return: 
  55:Generated_Source\PSoC5/Mixer_PD_A_PM.c **** *  void
  56:Generated_Source\PSoC5/Mixer_PD_A_PM.c **** *
  57:Generated_Source\PSoC5/Mixer_PD_A_PM.c **** *******************************************************************************/
  58:Generated_Source\PSoC5/Mixer_PD_A_PM.c **** void Mixer_PD_A_RestoreConfig(void) 
  59:Generated_Source\PSoC5/Mixer_PD_A_PM.c **** {
  45              		.loc 1 59 0
  46              		.cfi_startproc
  47              		@ args = 0, pretend = 0, frame = 0
  48              		@ frame_needed = 0, uses_anonymous_args = 0
  49              		@ link register save eliminated.
  50 0000 7047     		bx	lr
  51              		.cfi_endproc
  52              	.LFE1:
  53              		.size	Mixer_PD_A_RestoreConfig, .-Mixer_PD_A_RestoreConfig
  54 0002 00BF     		.section	.text.Mixer_PD_A_Sleep,"ax",%progbits
  55              		.align	2
ARM GAS  C:\Users\Krist\AppData\Local\Temp\cco9P9uz.s 			page 3


  56              		.global	Mixer_PD_A_Sleep
  57              		.thumb
  58              		.thumb_func
  59              		.type	Mixer_PD_A_Sleep, %function
  60              	Mixer_PD_A_Sleep:
  61              	.LFB2:
  60:Generated_Source\PSoC5/Mixer_PD_A_PM.c ****     /* Nothing to restore */
  61:Generated_Source\PSoC5/Mixer_PD_A_PM.c **** }
  62:Generated_Source\PSoC5/Mixer_PD_A_PM.c **** 
  63:Generated_Source\PSoC5/Mixer_PD_A_PM.c **** 
  64:Generated_Source\PSoC5/Mixer_PD_A_PM.c **** /*******************************************************************************
  65:Generated_Source\PSoC5/Mixer_PD_A_PM.c **** * Function Name: Mixer_PD_A_Sleep
  66:Generated_Source\PSoC5/Mixer_PD_A_PM.c **** ********************************************************************************
  67:Generated_Source\PSoC5/Mixer_PD_A_PM.c **** *
  68:Generated_Source\PSoC5/Mixer_PD_A_PM.c **** * Summary:
  69:Generated_Source\PSoC5/Mixer_PD_A_PM.c **** *  Disables block's operation and saves its configuration. Should be called 
  70:Generated_Source\PSoC5/Mixer_PD_A_PM.c **** *  just prior to entering sleep.
  71:Generated_Source\PSoC5/Mixer_PD_A_PM.c **** *  
  72:Generated_Source\PSoC5/Mixer_PD_A_PM.c **** * Parameters:  
  73:Generated_Source\PSoC5/Mixer_PD_A_PM.c **** *  None
  74:Generated_Source\PSoC5/Mixer_PD_A_PM.c **** *
  75:Generated_Source\PSoC5/Mixer_PD_A_PM.c **** * Return: 
  76:Generated_Source\PSoC5/Mixer_PD_A_PM.c **** *  None
  77:Generated_Source\PSoC5/Mixer_PD_A_PM.c **** *
  78:Generated_Source\PSoC5/Mixer_PD_A_PM.c **** * Global variables:
  79:Generated_Source\PSoC5/Mixer_PD_A_PM.c **** *  Mixer_PD_A_backup:  The structure field 'enableState' is modified 
  80:Generated_Source\PSoC5/Mixer_PD_A_PM.c **** *  depending on the enable state of the block before entering to sleep mode.
  81:Generated_Source\PSoC5/Mixer_PD_A_PM.c **** *
  82:Generated_Source\PSoC5/Mixer_PD_A_PM.c **** *******************************************************************************/
  83:Generated_Source\PSoC5/Mixer_PD_A_PM.c **** void Mixer_PD_A_Sleep(void) 
  84:Generated_Source\PSoC5/Mixer_PD_A_PM.c **** {
  62              		.loc 1 84 0
  63              		.cfi_startproc
  64              		@ args = 0, pretend = 0, frame = 0
  65              		@ frame_needed = 0, uses_anonymous_args = 0
  66              		.loc 1 84 0
  67 0000 08B5     		push	{r3, lr}
  68              		.cfi_def_cfa_offset 8
  69              		.cfi_offset 3, -8
  70              		.cfi_offset 14, -4
  85:Generated_Source\PSoC5/Mixer_PD_A_PM.c ****     /* Save Mixer enable state */
  86:Generated_Source\PSoC5/Mixer_PD_A_PM.c ****     if((Mixer_PD_A_PM_ACT_CFG_REG & Mixer_PD_A_ACT_PWR_EN) != 0u)
  71              		.loc 1 86 0
  72 0002 074B     		ldr	r3, .L7
  73 0004 1B78     		ldrb	r3, [r3]	@ zero_extendqisi2
  74 0006 13F0020F 		tst	r3, #2
  75 000a 05D0     		beq	.L4
  87:Generated_Source\PSoC5/Mixer_PD_A_PM.c ****     {
  88:Generated_Source\PSoC5/Mixer_PD_A_PM.c ****         /* Component is enabled */
  89:Generated_Source\PSoC5/Mixer_PD_A_PM.c ****         Mixer_PD_A_backup.enableState = 1u;
  76              		.loc 1 89 0
  77 000c 0122     		movs	r2, #1
  78 000e 054B     		ldr	r3, .L7+4
  79 0010 1A70     		strb	r2, [r3]
  90:Generated_Source\PSoC5/Mixer_PD_A_PM.c ****         /* Stop the configuration */
  91:Generated_Source\PSoC5/Mixer_PD_A_PM.c ****         Mixer_PD_A_Stop();
  80              		.loc 1 91 0
ARM GAS  C:\Users\Krist\AppData\Local\Temp\cco9P9uz.s 			page 4


  81 0012 FFF7FEFF 		bl	Mixer_PD_A_Stop
  82              	.LVL0:
  83 0016 08BD     		pop	{r3, pc}
  84              	.L4:
  92:Generated_Source\PSoC5/Mixer_PD_A_PM.c ****     }
  93:Generated_Source\PSoC5/Mixer_PD_A_PM.c ****     else
  94:Generated_Source\PSoC5/Mixer_PD_A_PM.c ****     {
  95:Generated_Source\PSoC5/Mixer_PD_A_PM.c ****         /* Component is disabled */
  96:Generated_Source\PSoC5/Mixer_PD_A_PM.c ****         Mixer_PD_A_backup.enableState = 0u;
  85              		.loc 1 96 0
  86 0018 0022     		movs	r2, #0
  87 001a 024B     		ldr	r3, .L7+4
  88 001c 1A70     		strb	r2, [r3]
  89 001e 08BD     		pop	{r3, pc}
  90              	.L8:
  91              		.align	2
  92              	.L7:
  93 0020 A9430040 		.word	1073759145
  94 0024 00000000 		.word	.LANCHOR0
  95              		.cfi_endproc
  96              	.LFE2:
  97              		.size	Mixer_PD_A_Sleep, .-Mixer_PD_A_Sleep
  98              		.section	.text.Mixer_PD_A_Wakeup,"ax",%progbits
  99              		.align	2
 100              		.global	Mixer_PD_A_Wakeup
 101              		.thumb
 102              		.thumb_func
 103              		.type	Mixer_PD_A_Wakeup, %function
 104              	Mixer_PD_A_Wakeup:
 105              	.LFB3:
  97:Generated_Source\PSoC5/Mixer_PD_A_PM.c ****     }
  98:Generated_Source\PSoC5/Mixer_PD_A_PM.c ****     /* Saves the user configuration */
  99:Generated_Source\PSoC5/Mixer_PD_A_PM.c ****     Mixer_PD_A_SaveConfig();
 100:Generated_Source\PSoC5/Mixer_PD_A_PM.c **** }
 101:Generated_Source\PSoC5/Mixer_PD_A_PM.c **** 
 102:Generated_Source\PSoC5/Mixer_PD_A_PM.c **** 
 103:Generated_Source\PSoC5/Mixer_PD_A_PM.c **** /*******************************************************************************
 104:Generated_Source\PSoC5/Mixer_PD_A_PM.c **** * Function Name: Mixer_PD_A_Wakeup
 105:Generated_Source\PSoC5/Mixer_PD_A_PM.c **** ********************************************************************************
 106:Generated_Source\PSoC5/Mixer_PD_A_PM.c **** *
 107:Generated_Source\PSoC5/Mixer_PD_A_PM.c **** * Summary:
 108:Generated_Source\PSoC5/Mixer_PD_A_PM.c **** *  Enables block's operation and restores its configuration. Should be called
 109:Generated_Source\PSoC5/Mixer_PD_A_PM.c **** *  just after awaking from sleep.
 110:Generated_Source\PSoC5/Mixer_PD_A_PM.c **** *  
 111:Generated_Source\PSoC5/Mixer_PD_A_PM.c **** * Parameters:  
 112:Generated_Source\PSoC5/Mixer_PD_A_PM.c **** *  None
 113:Generated_Source\PSoC5/Mixer_PD_A_PM.c **** *
 114:Generated_Source\PSoC5/Mixer_PD_A_PM.c **** * Return: 
 115:Generated_Source\PSoC5/Mixer_PD_A_PM.c **** *  void
 116:Generated_Source\PSoC5/Mixer_PD_A_PM.c **** *
 117:Generated_Source\PSoC5/Mixer_PD_A_PM.c **** * Global variables:
 118:Generated_Source\PSoC5/Mixer_PD_A_PM.c **** *  Mixer_PD_A_backup:  The structure field 'enableState' is used to 
 119:Generated_Source\PSoC5/Mixer_PD_A_PM.c **** *  restore the enable state of block after wakeup from sleep mode.
 120:Generated_Source\PSoC5/Mixer_PD_A_PM.c **** *
 121:Generated_Source\PSoC5/Mixer_PD_A_PM.c **** *******************************************************************************/
 122:Generated_Source\PSoC5/Mixer_PD_A_PM.c **** void Mixer_PD_A_Wakeup(void) 
 123:Generated_Source\PSoC5/Mixer_PD_A_PM.c **** {
ARM GAS  C:\Users\Krist\AppData\Local\Temp\cco9P9uz.s 			page 5


 106              		.loc 1 123 0
 107              		.cfi_startproc
 108              		@ args = 0, pretend = 0, frame = 0
 109              		@ frame_needed = 0, uses_anonymous_args = 0
 110 0000 08B5     		push	{r3, lr}
 111              		.cfi_def_cfa_offset 8
 112              		.cfi_offset 3, -8
 113              		.cfi_offset 14, -4
 124:Generated_Source\PSoC5/Mixer_PD_A_PM.c ****     /* Restore the user configuration */
 125:Generated_Source\PSoC5/Mixer_PD_A_PM.c ****     Mixer_PD_A_RestoreConfig();
 126:Generated_Source\PSoC5/Mixer_PD_A_PM.c ****     
 127:Generated_Source\PSoC5/Mixer_PD_A_PM.c ****     /* Enable's the component operation */
 128:Generated_Source\PSoC5/Mixer_PD_A_PM.c ****     if(Mixer_PD_A_backup.enableState == 1u)
 114              		.loc 1 128 0
 115 0002 034B     		ldr	r3, .L12
 116 0004 1B78     		ldrb	r3, [r3]	@ zero_extendqisi2
 117 0006 012B     		cmp	r3, #1
 118 0008 01D1     		bne	.L9
 129:Generated_Source\PSoC5/Mixer_PD_A_PM.c ****     {
 130:Generated_Source\PSoC5/Mixer_PD_A_PM.c ****         Mixer_PD_A_Enable();
 119              		.loc 1 130 0
 120 000a FFF7FEFF 		bl	Mixer_PD_A_Enable
 121              	.LVL1:
 122              	.L9:
 123 000e 08BD     		pop	{r3, pc}
 124              	.L13:
 125              		.align	2
 126              	.L12:
 127 0010 00000000 		.word	.LANCHOR0
 128              		.cfi_endproc
 129              	.LFE3:
 130              		.size	Mixer_PD_A_Wakeup, .-Mixer_PD_A_Wakeup
 131              		.bss
 132              		.align	2
 133              		.set	.LANCHOR0,. + 0
 134              		.type	Mixer_PD_A_backup, %object
 135              		.size	Mixer_PD_A_backup, 4
 136              	Mixer_PD_A_backup:
 137 0000 00000000 		.space	4
 138              		.text
 139              	.Letext0:
 140              		.file 2 "Generated_Source\\PSoC5\\cytypes.h"
 141              		.file 3 "Generated_Source\\PSoC5\\Mixer_PD_A.h"